	.file	"AssignClassTask.cpp"
	.text
	.section	.text._ZN8opendnp318IMasterApplication24AssignClassDuringStartupEv,"axG",@progbits,_ZN8opendnp318IMasterApplication24AssignClassDuringStartupEv,comdat
	.align 2
	.p2align 4
	.weak	_ZN8opendnp318IMasterApplication24AssignClassDuringStartupEv
	.type	_ZN8opendnp318IMasterApplication24AssignClassDuringStartupEv, @function
_ZN8opendnp318IMasterApplication24AssignClassDuringStartupEv:
.LFB2423:
	.cfi_startproc
	xorl	%eax, %eax
	ret
	.cfi_endproc
.LFE2423:
	.size	_ZN8opendnp318IMasterApplication24AssignClassDuringStartupEv, .-_ZN8opendnp318IMasterApplication24AssignClassDuringStartupEv
	.section	.text._ZN8opendnp318IMasterApplication27ConfigureAssignClassRequestERKSt8functionIFvRKNS_6HeaderEEE,"axG",@progbits,_ZN8opendnp318IMasterApplication27ConfigureAssignClassRequestERKSt8functionIFvRKNS_6HeaderEEE,comdat
	.align 2
	.p2align 4
	.weak	_ZN8opendnp318IMasterApplication27ConfigureAssignClassRequestERKSt8functionIFvRKNS_6HeaderEEE
	.type	_ZN8opendnp318IMasterApplication27ConfigureAssignClassRequestERKSt8functionIFvRKNS_6HeaderEEE, @function
_ZN8opendnp318IMasterApplication27ConfigureAssignClassRequestERKSt8functionIFvRKNS_6HeaderEEE:
.LFB2424:
	.cfi_startproc
	ret
	.cfi_endproc
.LFE2424:
	.size	_ZN8opendnp318IMasterApplication27ConfigureAssignClassRequestERKSt8functionIFvRKNS_6HeaderEEE, .-_ZN8opendnp318IMasterApplication27ConfigureAssignClassRequestERKSt8functionIFvRKNS_6HeaderEEE
	.section	.text._ZNK8opendnp311IMasterTask10IsAuthTaskEv,"axG",@progbits,_ZNK8opendnp311IMasterTask10IsAuthTaskEv,comdat
	.align 2
	.p2align 4
	.weak	_ZNK8opendnp311IMasterTask10IsAuthTaskEv
	.type	_ZNK8opendnp311IMasterTask10IsAuthTaskEv, @function
_ZNK8opendnp311IMasterTask10IsAuthTaskEv:
.LFB2432:
	.cfi_startproc
	xorl	%eax, %eax
	ret
	.cfi_endproc
.LFE2432:
	.size	_ZNK8opendnp311IMasterTask10IsAuthTaskEv, .-_ZNK8opendnp311IMasterTask10IsAuthTaskEv
	.section	.text._ZN8opendnp311IMasterTask10InitializeEv,"axG",@progbits,_ZN8opendnp311IMasterTask10InitializeEv,comdat
	.align 2
	.p2align 4
	.weak	_ZN8opendnp311IMasterTask10InitializeEv
	.type	_ZN8opendnp311IMasterTask10InitializeEv, @function
_ZN8opendnp311IMasterTask10InitializeEv:
.LFB2433:
	.cfi_startproc
	ret
	.cfi_endproc
.LFE2433:
	.size	_ZN8opendnp311IMasterTask10InitializeEv, .-_ZN8opendnp311IMasterTask10InitializeEv
	.section	.rodata._ZNK8opendnp315AssignClassTask4NameEv.str1.1,"aMS",@progbits,1
.LC0:
	.string	"Assign Class"
	.section	.text._ZNK8opendnp315AssignClassTask4NameEv,"axG",@progbits,_ZNK8opendnp315AssignClassTask4NameEv,comdat
	.align 2
	.p2align 4
	.weak	_ZNK8opendnp315AssignClassTask4NameEv
	.type	_ZNK8opendnp315AssignClassTask4NameEv, @function
_ZNK8opendnp315AssignClassTask4NameEv:
.LFB2434:
	.cfi_startproc
	leaq	.LC0(%rip), %rax
	ret
	.cfi_endproc
.LFE2434:
	.size	_ZNK8opendnp315AssignClassTask4NameEv, .-_ZNK8opendnp315AssignClassTask4NameEv
	.section	.text._ZNK8opendnp315AssignClassTask11IsRecurringEv,"axG",@progbits,_ZNK8opendnp315AssignClassTask11IsRecurringEv,comdat
	.align 2
	.p2align 4
	.weak	_ZNK8opendnp315AssignClassTask11IsRecurringEv
	.type	_ZNK8opendnp315AssignClassTask11IsRecurringEv, @function
_ZNK8opendnp315AssignClassTask11IsRecurringEv:
.LFB2435:
	.cfi_startproc
	movl	$1, %eax
	ret
	.cfi_endproc
.LFE2435:
	.size	_ZNK8opendnp315AssignClassTask11IsRecurringEv, .-_ZNK8opendnp315AssignClassTask11IsRecurringEv
	.section	.text._ZNK8opendnp315AssignClassTask8PriorityEv,"axG",@progbits,_ZNK8opendnp315AssignClassTask8PriorityEv,comdat
	.align 2
	.p2align 4
	.weak	_ZNK8opendnp315AssignClassTask8PriorityEv
	.type	_ZNK8opendnp315AssignClassTask8PriorityEv, @function
_ZNK8opendnp315AssignClassTask8PriorityEv:
.LFB2436:
	.cfi_startproc
	movl	$140, %eax
	ret
	.cfi_endproc
.LFE2436:
	.size	_ZNK8opendnp315AssignClassTask8PriorityEv, .-_ZNK8opendnp315AssignClassTask8PriorityEv
	.section	.text._ZNK8opendnp315AssignClassTask19BlocksLowerPriorityEv,"axG",@progbits,_ZNK8opendnp315AssignClassTask19BlocksLowerPriorityEv,comdat
	.align 2
	.p2align 4
	.weak	_ZNK8opendnp315AssignClassTask19BlocksLowerPriorityEv
	.type	_ZNK8opendnp315AssignClassTask19BlocksLowerPriorityEv, @function
_ZNK8opendnp315AssignClassTask19BlocksLowerPriorityEv:
.LFB2437:
	.cfi_startproc
	movl	$1, %eax
	ret
	.cfi_endproc
.LFE2437:
	.size	_ZNK8opendnp315AssignClassTask19BlocksLowerPriorityEv, .-_ZNK8opendnp315AssignClassTask19BlocksLowerPriorityEv
	.section	.text._ZNK8opendnp315AssignClassTask11GetTaskTypeEv,"axG",@progbits,_ZNK8opendnp315AssignClassTask11GetTaskTypeEv,comdat
	.align 2
	.p2align 4
	.weak	_ZNK8opendnp315AssignClassTask11GetTaskTypeEv
	.type	_ZNK8opendnp315AssignClassTask11GetTaskTypeEv, @function
_ZNK8opendnp315AssignClassTask11GetTaskTypeEv:
.LFB2438:
	.cfi_startproc
	movl	$2, %eax
	ret
	.cfi_endproc
.LFE2438:
	.size	_ZNK8opendnp315AssignClassTask11GetTaskTypeEv, .-_ZNK8opendnp315AssignClassTask11GetTaskTypeEv
	.text
	.p2align 4
	.type	_ZNSt17_Function_handlerIFvRKN8opendnp36HeaderEEZNS0_15AssignClassTask12BuildRequestERNS0_11APDURequestEhEUlS3_E_E9_M_invokeERKSt9_Any_dataS3_, @function
_ZNSt17_Function_handlerIFvRKN8opendnp36HeaderEEZNS0_15AssignClassTask12BuildRequestERNS0_11APDURequestEhEUlS3_E_E9_M_invokeERKSt9_Any_dataS3_:
.LFB2854:
	.cfi_startproc
	pushq	%rbx
	.cfi_def_cfa_offset 16
	.cfi_offset 3, -16
	movq	%rdi, %rbx
	movq	%rsi, %rdi
	movq	8(%rbx), %rsi
	call	_ZNK8opendnp36Header7WriteToERNS_12HeaderWriterE@PLT
	movl	%eax, %r8d
	movq	(%rbx), %rax
	andb	%r8b, (%rax)
	popq	%rbx
	.cfi_def_cfa_offset 8
	ret
	.cfi_endproc
.LFE2854:
	.size	_ZNSt17_Function_handlerIFvRKN8opendnp36HeaderEEZNS0_15AssignClassTask12BuildRequestERNS0_11APDURequestEhEUlS3_E_E9_M_invokeERKSt9_Any_dataS3_, .-_ZNSt17_Function_handlerIFvRKN8opendnp36HeaderEEZNS0_15AssignClassTask12BuildRequestERNS0_11APDURequestEhEUlS3_E_E9_M_invokeERKSt9_Any_dataS3_
	.align 2
	.p2align 4
	.globl	_ZN8opendnp315AssignClassTask15ProcessResponseERKNS_18APDUResponseHeaderERKN7openpal6RSliceE
	.type	_ZN8opendnp315AssignClassTask15ProcessResponseERKNS_18APDUResponseHeaderERKN7openpal6RSliceE, @function
_ZN8opendnp315AssignClassTask15ProcessResponseERKNS_18APDUResponseHeaderERKN7openpal6RSliceE:
.LFB2448:
	.cfi_startproc
	subq	$8, %rsp
	.cfi_def_cfa_offset 16
	call	_ZN8opendnp311IMasterTask20ValidateNullResponseERKNS_18APDUResponseHeaderERKN7openpal6RSliceE@PLT
	testb	%al, %al
	setne	%al
	addq	$8, %rsp
	.cfi_def_cfa_offset 8
	addl	%eax, %eax
	ret
	.cfi_endproc
.LFE2448:
	.size	_ZN8opendnp315AssignClassTask15ProcessResponseERKNS_18APDUResponseHeaderERKN7openpal6RSliceE, .-_ZN8opendnp315AssignClassTask15ProcessResponseERKNS_18APDUResponseHeaderERKN7openpal6RSliceE
	.section	.text._ZN8opendnp315AssignClassTaskD2Ev,"axG",@progbits,_ZN8opendnp315AssignClassTaskD5Ev,comdat
	.align 2
	.p2align 4
	.weak	_ZN8opendnp315AssignClassTaskD2Ev
	.type	_ZN8opendnp315AssignClassTaskD2Ev, @function
_ZN8opendnp315AssignClassTaskD2Ev:
.LFB3106:
	.cfi_startproc
	movq	_ZTVN8opendnp315AssignClassTaskE@GOTPCREL(%rip), %rax
	addq	$16, %rax
	movq	%rax, (%rdi)
	jmp	_ZN8opendnp311IMasterTaskD2Ev@PLT
	.cfi_endproc
.LFE3106:
	.size	_ZN8opendnp315AssignClassTaskD2Ev, .-_ZN8opendnp315AssignClassTaskD2Ev
	.weak	_ZN8opendnp315AssignClassTaskD1Ev
	.set	_ZN8opendnp315AssignClassTaskD1Ev,_ZN8opendnp315AssignClassTaskD2Ev
	.section	.text._ZN8opendnp315AssignClassTaskD0Ev,"axG",@progbits,_ZN8opendnp315AssignClassTaskD5Ev,comdat
	.align 2
	.p2align 4
	.weak	_ZN8opendnp315AssignClassTaskD0Ev
	.type	_ZN8opendnp315AssignClassTaskD0Ev, @function
_ZN8opendnp315AssignClassTaskD0Ev:
.LFB3108:
	.cfi_startproc
	movq	_ZTVN8opendnp315AssignClassTaskE@GOTPCREL(%rip), %rax
	pushq	%rbp
	.cfi_def_cfa_offset 16
	.cfi_offset 6, -16
	movq	%rdi, %rbp
	addq	$16, %rax
	movq	%rax, (%rdi)
	call	_ZN8opendnp311IMasterTaskD2Ev@PLT
	movq	%rbp, %rdi
	movl	$96, %esi
	popq	%rbp
	.cfi_def_cfa_offset 8
	jmp	_ZdlPvm@PLT
	.cfi_endproc
.LFE3108:
	.size	_ZN8opendnp315AssignClassTaskD0Ev, .-_ZN8opendnp315AssignClassTaskD0Ev
	.text
	.align 2
	.p2align 4
	.globl	_ZN8opendnp315AssignClassTask14OnTaskCompleteENS_14TaskCompletionEN7openpal18MonotonicTimestampE
	.type	_ZN8opendnp315AssignClassTask14OnTaskCompleteENS_14TaskCompletionEN7openpal18MonotonicTimestampE, @function
_ZN8opendnp315AssignClassTask14OnTaskCompleteENS_14TaskCompletionEN7openpal18MonotonicTimestampE:
.LFB2449:
	.cfi_startproc
	subq	$40, %rsp
	.cfi_def_cfa_offset 48
	movq	%rdx, 8(%rsp)
	movq	%fs:40, %rax
	movq	%rax, 24(%rsp)
	xorl	%eax, %eax
	cmpb	$2, %sil
	je	.L21
	cmpb	$-1, %sil
	jne	.L22
	leaq	16(%rsp), %rdi
	xorl	%esi, %esi
	call	_ZN7openpal18MonotonicTimestampC1El@PLT
	movq	16(%rsp), %rdx
	xorl	%eax, %eax
.L23:
	movq	24(%rsp), %rcx
	subq	%fs:40, %rcx
	jne	.L26
	addq	$40, %rsp
	.cfi_remember_state
	.cfi_def_cfa_offset 8
	ret
	.p2align 4,,10
	.p2align 3
.L21:
	.cfi_restore_state
	leaq	88(%rdi), %rsi
	leaq	8(%rsp), %rdi
	call	_ZNK7openpal18MonotonicTimestamp3AddERKNS_12TimeDurationE@PLT
	movq	%rax, %rdx
	xorl	%eax, %eax
	jmp	.L23
	.p2align 4,,10
	.p2align 3
.L22:
	call	_ZN7openpal18MonotonicTimestamp3MaxEv@PLT
	movq	%rax, %rdx
	xorl	%eax, %eax
	jmp	.L23
.L26:
	call	__stack_chk_fail@PLT
	.cfi_endproc
.LFE2449:
	.size	_ZN8opendnp315AssignClassTask14OnTaskCompleteENS_14TaskCompletionEN7openpal18MonotonicTimestampE, .-_ZN8opendnp315AssignClassTask14OnTaskCompleteENS_14TaskCompletionEN7openpal18MonotonicTimestampE
	.p2align 4
	.type	_ZNSt17_Function_handlerIFvRKN8opendnp36HeaderEEZNS0_15AssignClassTask12BuildRequestERNS0_11APDURequestEhEUlS3_E_E10_M_managerERSt9_Any_dataRKSA_St18_Manager_operation, @function
_ZNSt17_Function_handlerIFvRKN8opendnp36HeaderEEZNS0_15AssignClassTask12BuildRequestERNS0_11APDURequestEhEUlS3_E_E10_M_managerERSt9_Any_dataRKSA_St18_Manager_operation:
.LFB2856:
	.cfi_startproc
	testl	%edx, %edx
	je	.L28
	cmpl	$1, %edx
	je	.L29
	cmpl	$2, %edx
	je	.L33
.L31:
	xorl	%eax, %eax
	ret
	.p2align 4,,10
	.p2align 3
.L28:
	leaq	_ZTIZN8opendnp315AssignClassTask12BuildRequestERNS_11APDURequestEhEUlRKNS_6HeaderEE_(%rip), %rax
	movq	%rax, (%rdi)
	xorl	%eax, %eax
	ret
	.p2align 4,,10
	.p2align 3
.L29:
	movq	%rsi, (%rdi)
	xorl	%eax, %eax
	ret
	.p2align 4,,10
	.p2align 3
.L33:
	movdqu	(%rsi), %xmm0
	movups	%xmm0, (%rdi)
	jmp	.L31
	.cfi_endproc
.LFE2856:
	.size	_ZNSt17_Function_handlerIFvRKN8opendnp36HeaderEEZNS0_15AssignClassTask12BuildRequestERNS0_11APDURequestEhEUlS3_E_E10_M_managerERSt9_Any_dataRKSA_St18_Manager_operation, .-_ZNSt17_Function_handlerIFvRKN8opendnp36HeaderEEZNS0_15AssignClassTask12BuildRequestERNS0_11APDURequestEhEUlS3_E_E10_M_managerERSt9_Any_dataRKSA_St18_Manager_operation
	.section	.text.unlikely,"ax",@progbits
	.align 2
.LCOLDB1:
	.text
.LHOTB1:
	.align 2
	.p2align 4
	.globl	_ZN8opendnp315AssignClassTask12BuildRequestERNS_11APDURequestEh
	.type	_ZN8opendnp315AssignClassTask12BuildRequestERNS_11APDURequestEh, @function
_ZN8opendnp315AssignClassTask12BuildRequestERNS_11APDURequestEh:
.LFB2442:
	.cfi_startproc
	.cfi_personality 0x9b,DW.ref.__gxx_personality_v0
	.cfi_lsda 0x1b,.LLSDA2442
	pushq	%r13
	.cfi_def_cfa_offset 16
	.cfi_offset 13, -16
	movzbl	%dl, %r9d
	xorl	%r8d, %r8d
	xorl	%ecx, %ecx
	pushq	%r12
	.cfi_def_cfa_offset 24
	.cfi_offset 12, -24
	movl	$1, %edx
	movq	%rdi, %r13
	pushq	%rbp
	.cfi_def_cfa_offset 32
	.cfi_offset 6, -32
	movq	%rsi, %rbp
	movl	$1, %esi
	pushq	%rbx
	.cfi_def_cfa_offset 40
	.cfi_offset 3, -40
	leaq	_ZNSt17_Function_handlerIFvRKN8opendnp36HeaderEEZNS0_15AssignClassTask12BuildRequestERNS0_11APDURequestEhEUlS3_E_E10_M_managerERSt9_Any_dataRKSA_St18_Manager_operation(%rip), %rbx
	movq	%rbx, %xmm1
	subq	$136, %rsp
	.cfi_def_cfa_offset 176
	movq	%fs:40, %rax
	movq	%rax, 120(%rsp)
	xorl	%eax, %eax
	leaq	_ZNSt17_Function_handlerIFvRKN8opendnp36HeaderEEZNS0_15AssignClassTask12BuildRequestERNS0_11APDURequestEhEUlS3_E_E9_M_invokeERKSt9_Any_dataS3_(%rip), %rax
	leaq	48(%rsp), %r12
	movq	%rax, %xmm2
	leaq	42(%rsp), %rax
	movq	%r12, %xmm3
	movq	%rax, %xmm0
	punpcklqdq	%xmm2, %xmm1
	leaq	43(%rsp), %rdi
	punpcklqdq	%xmm3, %xmm0
	movaps	%xmm1, 16(%rsp)
	movaps	%xmm0, (%rsp)
.LEHB0:
	call	_ZN8opendnp315AppControlFieldC1Ebbbbh@PLT
	movzbl	44(%rsp), %eax
	movzbl	43(%rsp), %esi
	movq	%rbp, %rdi
	salq	$8, %rax
	orq	%rax, %rsi
	movzbl	45(%rsp), %eax
	salq	$16, %rax
	orq	%rsi, %rax
	movzbl	46(%rsp), %esi
	salq	$24, %rsi
	orq	%rsi, %rax
	movzbl	47(%rsp), %esi
	salq	$32, %rsi
	orq	%rax, %rsi
	call	_ZN8opendnp311APDUWrapper10SetControlENS_15AppControlFieldE@PLT
	movq	%rbp, %rdi
	movl	$22, %esi
	call	_ZN8opendnp311APDUWrapper11SetFunctionENS_12FunctionCodeE@PLT
	movq	%rbp, %rsi
	movq	%r12, %rdi
	leaq	80(%rsp), %rbp
	call	_ZN8opendnp311APDUWrapper9GetWriterEv@PLT
.LEHE0:
	movq	8(%r13), %rdi
	movdqa	(%rsp), %xmm0
	movb	$1, 42(%rsp)
	movdqa	16(%rsp), %xmm1
	movq	(%rdi), %rax
	movaps	%xmm0, 80(%rsp)
	movaps	%xmm1, 96(%rsp)
	movq	96(%rax), %rax
	cmpq	_ZN8opendnp318IMasterApplication27ConfigureAssignClassRequestERKSt8functionIFvRKNS_6HeaderEEE@GOTPCREL(%rip), %rax
	jne	.L50
.L35:
	movl	$3, %edx
	movq	%rbp, %rsi
	movq	%rbp, %rdi
	call	*%rbx
.L36:
	movzbl	42(%rsp), %eax
	movq	120(%rsp), %rcx
	subq	%fs:40, %rcx
	jne	.L51
	addq	$136, %rsp
	.cfi_remember_state
	.cfi_def_cfa_offset 40
	popq	%rbx
	.cfi_def_cfa_offset 32
	popq	%rbp
	.cfi_def_cfa_offset 24
	popq	%r12
	.cfi_def_cfa_offset 16
	popq	%r13
	.cfi_def_cfa_offset 8
	ret
	.p2align 4,,10
	.p2align 3
.L50:
	.cfi_restore_state
	movq	%rbp, %rsi
.LEHB1:
	call	*%rax
.LEHE1:
	movq	96(%rsp), %rbx
	testq	%rbx, %rbx
	je	.L36
	jmp	.L35
.L51:
	call	__stack_chk_fail@PLT
.L41:
	movq	%rax, %r12
	jmp	.L37
	.globl	__gxx_personality_v0
	.section	.gcc_except_table,"a",@progbits
.LLSDA2442:
	.byte	0xff
	.byte	0xff
	.byte	0x1
	.uleb128 .LLSDACSE2442-.LLSDACSB2442
.LLSDACSB2442:
	.uleb128 .LEHB0-.LFB2442
	.uleb128 .LEHE0-.LEHB0
	.uleb128 0
	.uleb128 0
	.uleb128 .LEHB1-.LFB2442
	.uleb128 .LEHE1-.LEHB1
	.uleb128 .L41-.LFB2442
	.uleb128 0
.LLSDACSE2442:
	.text
	.cfi_endproc
	.section	.text.unlikely
	.cfi_startproc
	.cfi_personality 0x9b,DW.ref.__gxx_personality_v0
	.cfi_lsda 0x1b,.LLSDAC2442
	.type	_ZN8opendnp315AssignClassTask12BuildRequestERNS_11APDURequestEh.cold, @function
_ZN8opendnp315AssignClassTask12BuildRequestERNS_11APDURequestEh.cold:
.LFSB2442:
.L37:
	.cfi_def_cfa_offset 176
	.cfi_offset 3, -40
	.cfi_offset 6, -32
	.cfi_offset 12, -24
	.cfi_offset 13, -16
	movq	96(%rsp), %rax
	testq	%rax, %rax
	je	.L38
	movl	$3, %edx
	movq	%rbp, %rsi
	movq	%rbp, %rdi
	call	*%rax
.L38:
	movq	%r12, %rdi
.LEHB2:
	call	_Unwind_Resume@PLT
.LEHE2:
	.cfi_endproc
.LFE2442:
	.section	.gcc_except_table
.LLSDAC2442:
	.byte	0xff
	.byte	0xff
	.byte	0x1
	.uleb128 .LLSDACSEC2442-.LLSDACSBC2442
.LLSDACSBC2442:
	.uleb128 .LEHB2-.LCOLDB1
	.uleb128 .LEHE2-.LEHB2
	.uleb128 0
	.uleb128 0
.LLSDACSEC2442:
	.section	.text.unlikely
	.text
	.size	_ZN8opendnp315AssignClassTask12BuildRequestERNS_11APDURequestEh, .-_ZN8opendnp315AssignClassTask12BuildRequestERNS_11APDURequestEh
	.section	.text.unlikely
	.size	_ZN8opendnp315AssignClassTask12BuildRequestERNS_11APDURequestEh.cold, .-_ZN8opendnp315AssignClassTask12BuildRequestERNS_11APDURequestEh.cold
.LCOLDE1:
	.text
.LHOTE1:
	.align 2
	.p2align 4
	.globl	_ZNK8opendnp315AssignClassTask9IsEnabledEv
	.type	_ZNK8opendnp315AssignClassTask9IsEnabledEv, @function
_ZNK8opendnp315AssignClassTask9IsEnabledEv:
.LFB2447:
	.cfi_startproc
	movq	8(%rdi), %rdi
	movq	(%rdi), %rax
	movq	88(%rax), %rax
	cmpq	_ZN8opendnp318IMasterApplication24AssignClassDuringStartupEv@GOTPCREL(%rip), %rax
	jne	.L54
	xorl	%eax, %eax
	ret
	.p2align 4,,10
	.p2align 3
.L54:
	jmp	*%rax
	.cfi_endproc
.LFE2447:
	.size	_ZNK8opendnp315AssignClassTask9IsEnabledEv, .-_ZNK8opendnp315AssignClassTask9IsEnabledEv
	.section	.text._ZN7openpal6LoggerD2Ev,"axG",@progbits,_ZN7openpal6LoggerD5Ev,comdat
	.align 2
	.p2align 4
	.weak	_ZN7openpal6LoggerD2Ev
	.type	_ZN7openpal6LoggerD2Ev, @function
_ZN7openpal6LoggerD2Ev:
.LFB2043:
	.cfi_startproc
	pushq	%r12
	.cfi_def_cfa_offset 16
	.cfi_offset 12, -16
	pushq	%rbp
	.cfi_def_cfa_offset 24
	.cfi_offset 6, -24
	pushq	%rbx
	.cfi_def_cfa_offset 32
	.cfi_offset 3, -32
	movq	24(%rdi), %rbp
	movq	%rdi, %rbx
	testq	%rbp, %rbp
	je	.L57
	movq	_ZL28__gthrw___pthread_key_createPjPFvPvE@GOTPCREL(%rip), %r12
	testq	%r12, %r12
	jne	.L71
	movl	8(%rbp), %eax
	leal	-1(%rax), %edx
	movl	%edx, 8(%rbp)
.L59:
	cmpl	$1, %eax
	je	.L72
.L57:
	movq	8(%rbx), %rbp
	testq	%rbp, %rbp
	je	.L55
	movq	_ZL28__gthrw___pthread_key_createPjPFvPvE@GOTPCREL(%rip), %r12
	testq	%r12, %r12
	jne	.L73
	movl	8(%rbp), %eax
	leal	-1(%rax), %edx
	movl	%edx, 8(%rbp)
.L66:
	cmpl	$1, %eax
	je	.L74
.L55:
	popq	%rbx
	.cfi_remember_state
	.cfi_def_cfa_offset 24
	popq	%rbp
	.cfi_def_cfa_offset 16
	popq	%r12
	.cfi_def_cfa_offset 8
	ret
	.p2align 4,,10
	.p2align 3
.L72:
	.cfi_restore_state
	movq	0(%rbp), %rax
	movq	%rbp, %rdi
	call	*16(%rax)
	testq	%r12, %r12
	jne	.L75
	movl	12(%rbp), %eax
	leal	-1(%rax), %edx
	movl	%edx, 12(%rbp)
.L62:
	cmpl	$1, %eax
	jne	.L57
	movq	0(%rbp), %rax
	movq	%rbp, %rdi
	call	*24(%rax)
	jmp	.L57
	.p2align 4,,10
	.p2align 3
.L74:
	movq	0(%rbp), %rax
	movq	%rbp, %rdi
	call	*16(%rax)
	testq	%r12, %r12
	jne	.L76
	movl	12(%rbp), %eax
	leal	-1(%rax), %edx
	movl	%edx, 12(%rbp)
.L69:
	cmpl	$1, %eax
	jne	.L55
	movq	0(%rbp), %rax
	popq	%rbx
	.cfi_remember_state
	.cfi_def_cfa_offset 24
	movq	%rbp, %rdi
	popq	%rbp
	.cfi_def_cfa_offset 16
	popq	%r12
	.cfi_def_cfa_offset 8
	movq	24(%rax), %rax
	jmp	*%rax
	.p2align 4,,10
	.p2align 3
.L71:
	.cfi_restore_state
	movl	$-1, %eax
	lock xaddl	%eax, 8(%rbp)
	jmp	.L59
	.p2align 4,,10
	.p2align 3
.L73:
	movl	$-1, %eax
	lock xaddl	%eax, 8(%rbp)
	jmp	.L66
	.p2align 4,,10
	.p2align 3
.L75:
	movl	$-1, %eax
	lock xaddl	%eax, 12(%rbp)
	jmp	.L62
	.p2align 4,,10
	.p2align 3
.L76:
	movl	$-1, %eax
	lock xaddl	%eax, 12(%rbp)
	jmp	.L69
	.cfi_endproc
.LFE2043:
	.size	_ZN7openpal6LoggerD2Ev, .-_ZN7openpal6LoggerD2Ev
	.weak	_ZN7openpal6LoggerD1Ev
	.set	_ZN7openpal6LoggerD1Ev,_ZN7openpal6LoggerD2Ev
	.section	.text.unlikely
	.align 2
.LCOLDB2:
	.text
.LHOTB2:
	.align 2
	.p2align 4
	.globl	_ZN8opendnp315AssignClassTaskC2ERNS_18IMasterApplicationEN7openpal12TimeDurationENS3_6LoggerE
	.type	_ZN8opendnp315AssignClassTaskC2ERNS_18IMasterApplicationEN7openpal12TimeDurationENS3_6LoggerE, @function
_ZN8opendnp315AssignClassTaskC2ERNS_18IMasterApplicationEN7openpal12TimeDurationENS3_6LoggerE:
.LFB2440:
	.cfi_startproc
	.cfi_personality 0x9b,DW.ref.__gxx_personality_v0
	.cfi_lsda 0x1b,.LLSDA2440
	pushq	%r13
	.cfi_def_cfa_offset 16
	.cfi_offset 13, -16
	pushq	%r12
	.cfi_def_cfa_offset 24
	.cfi_offset 12, -24
	movq	%rdx, %r12
	pushq	%rbp
	.cfi_def_cfa_offset 32
	.cfi_offset 6, -32
	movq	%rsi, %rbp
	pushq	%rbx
	.cfi_def_cfa_offset 40
	.cfi_offset 3, -40
	movq	%rdi, %rbx
	subq	$72, %rsp
	.cfi_def_cfa_offset 112
	movdqu	(%rcx), %xmm0
	movq	%fs:40, %rax
	movq	%rax, 56(%rsp)
	movq	8(%rcx), %rax
	movaps	%xmm0, 16(%rsp)
	testq	%rax, %rax
	je	.L78
	cmpq	$0, _ZL28__gthrw___pthread_key_createPjPFvPvE@GOTPCREL(%rip)
	jne	.L107
	addl	$1, 8(%rax)
.L78:
	movdqu	16(%rcx), %xmm1
	movq	24(%rcx), %rax
	movaps	%xmm1, 32(%rsp)
	testq	%rax, %rax
	je	.L80
	cmpq	$0, _ZL28__gthrw___pthread_key_createPjPFvPvE@GOTPCREL(%rip)
	jne	.L108
	addl	$1, 8(%rax)
.L80:
	leaq	8(%rsp), %rdi
	xorl	%esi, %esi
	leaq	16(%rsp), %r13
.LEHB3:
	call	_ZN7openpal18MonotonicTimestampC1El@PLT
	movq	8(%rsp), %rdx
	xorl	%r9d, %r9d
	movq	%r13, %rcx
	movq	%rbp, %rsi
	movl	$4294967295, %r8d
	movq	%rbx, %rdi
	call	_ZN8opendnp311IMasterTaskC2ERNS_18IMasterApplicationEN7openpal18MonotonicTimestampENS3_6LoggerENS_10TaskConfigE@PLT
.LEHE3:
	movq	40(%rsp), %rbp
	testq	%rbp, %rbp
	je	.L83
	movq	_ZL28__gthrw___pthread_key_createPjPFvPvE@GOTPCREL(%rip), %r13
	testq	%r13, %r13
	jne	.L109
	movl	8(%rbp), %eax
	leal	-1(%rax), %edx
	movl	%edx, 8(%rbp)
.L85:
	cmpl	$1, %eax
	je	.L110
.L83:
	movq	24(%rsp), %rbp
	testq	%rbp, %rbp
	je	.L90
	movq	_ZL28__gthrw___pthread_key_createPjPFvPvE@GOTPCREL(%rip), %r13
	testq	%r13, %r13
	jne	.L111
	movl	8(%rbp), %eax
	leal	-1(%rax), %edx
	movl	%edx, 8(%rbp)
.L92:
	cmpl	$1, %eax
	je	.L112
.L90:
	movq	_ZTVN8opendnp315AssignClassTaskE@GOTPCREL(%rip), %rax
	movq	%r12, 88(%rbx)
	addq	$16, %rax
	movq	%rax, (%rbx)
	movq	56(%rsp), %rax
	subq	%fs:40, %rax
	jne	.L113
	addq	$72, %rsp
	.cfi_remember_state
	.cfi_def_cfa_offset 40
	popq	%rbx
	.cfi_def_cfa_offset 32
	popq	%rbp
	.cfi_def_cfa_offset 24
	popq	%r12
	.cfi_def_cfa_offset 16
	popq	%r13
	.cfi_def_cfa_offset 8
	ret
	.p2align 4,,10
	.p2align 3
.L110:
	.cfi_restore_state
	movq	0(%rbp), %rax
	movq	%rbp, %rdi
	call	*16(%rax)
	testq	%r13, %r13
	jne	.L114
	movl	12(%rbp), %eax
	leal	-1(%rax), %edx
	movl	%edx, 12(%rbp)
.L88:
	cmpl	$1, %eax
	jne	.L83
	movq	0(%rbp), %rax
	movq	%rbp, %rdi
	call	*24(%rax)
	jmp	.L83
	.p2align 4,,10
	.p2align 3
.L112:
	movq	0(%rbp), %rax
	movq	%rbp, %rdi
	call	*16(%rax)
	testq	%r13, %r13
	jne	.L115
	movl	12(%rbp), %eax
	leal	-1(%rax), %edx
	movl	%edx, 12(%rbp)
.L95:
	cmpl	$1, %eax
	jne	.L90
	movq	0(%rbp), %rax
	movq	%rbp, %rdi
	call	*24(%rax)
	jmp	.L90
	.p2align 4,,10
	.p2align 3
.L109:
	movl	$-1, %eax
	lock xaddl	%eax, 8(%rbp)
	jmp	.L85
	.p2align 4,,10
	.p2align 3
.L111:
	movl	$-1, %eax
	lock xaddl	%eax, 8(%rbp)
	jmp	.L92
	.p2align 4,,10
	.p2align 3
.L107:
	lock addl	$1, 8(%rax)
	jmp	.L78
	.p2align 4,,10
	.p2align 3
.L108:
	lock addl	$1, 8(%rax)
	jmp	.L80
	.p2align 4,,10
	.p2align 3
.L114:
	movl	$-1, %eax
	lock xaddl	%eax, 12(%rbp)
	jmp	.L88
	.p2align 4,,10
	.p2align 3
.L115:
	movl	$-1, %eax
	lock xaddl	%eax, 12(%rbp)
	jmp	.L95
.L113:
	call	__stack_chk_fail@PLT
.L98:
	movq	%rax, %rbp
	jmp	.L96
	.section	.gcc_except_table
.LLSDA2440:
	.byte	0xff
	.byte	0xff
	.byte	0x1
	.uleb128 .LLSDACSE2440-.LLSDACSB2440
.LLSDACSB2440:
	.uleb128 .LEHB3-.LFB2440
	.uleb128 .LEHE3-.LEHB3
	.uleb128 .L98-.LFB2440
	.uleb128 0
.LLSDACSE2440:
	.text
	.cfi_endproc
	.section	.text.unlikely
	.cfi_startproc
	.cfi_personality 0x9b,DW.ref.__gxx_personality_v0
	.cfi_lsda 0x1b,.LLSDAC2440
	.type	_ZN8opendnp315AssignClassTaskC2ERNS_18IMasterApplicationEN7openpal12TimeDurationENS3_6LoggerE.cold, @function
_ZN8opendnp315AssignClassTaskC2ERNS_18IMasterApplicationEN7openpal12TimeDurationENS3_6LoggerE.cold:
.LFSB2440:
.L96:
	.cfi_def_cfa_offset 112
	.cfi_offset 3, -40
	.cfi_offset 6, -32
	.cfi_offset 12, -24
	.cfi_offset 13, -16
	movq	%r13, %rdi
	call	_ZN7openpal6LoggerD1Ev@PLT
	movq	%rbp, %rdi
.LEHB4:
	call	_Unwind_Resume@PLT
.LEHE4:
	.cfi_endproc
.LFE2440:
	.section	.gcc_except_table
.LLSDAC2440:
	.byte	0xff
	.byte	0xff
	.byte	0x1
	.uleb128 .LLSDACSEC2440-.LLSDACSBC2440
.LLSDACSBC2440:
	.uleb128 .LEHB4-.LCOLDB2
	.uleb128 .LEHE4-.LEHB4
	.uleb128 0
	.uleb128 0
.LLSDACSEC2440:
	.section	.text.unlikely
	.text
	.size	_ZN8opendnp315AssignClassTaskC2ERNS_18IMasterApplicationEN7openpal12TimeDurationENS3_6LoggerE, .-_ZN8opendnp315AssignClassTaskC2ERNS_18IMasterApplicationEN7openpal12TimeDurationENS3_6LoggerE
	.section	.text.unlikely
	.size	_ZN8opendnp315AssignClassTaskC2ERNS_18IMasterApplicationEN7openpal12TimeDurationENS3_6LoggerE.cold, .-_ZN8opendnp315AssignClassTaskC2ERNS_18IMasterApplicationEN7openpal12TimeDurationENS3_6LoggerE.cold
.LCOLDE2:
	.text
.LHOTE2:
	.globl	_ZN8opendnp315AssignClassTaskC1ERNS_18IMasterApplicationEN7openpal12TimeDurationENS3_6LoggerE
	.set	_ZN8opendnp315AssignClassTaskC1ERNS_18IMasterApplicationEN7openpal12TimeDurationENS3_6LoggerE,_ZN8opendnp315AssignClassTaskC2ERNS_18IMasterApplicationEN7openpal12TimeDurationENS3_6LoggerE
	.weak	_ZTSN8opendnp315AssignClassTaskE
	.section	.rodata._ZTSN8opendnp315AssignClassTaskE,"aG",@progbits,_ZTSN8opendnp315AssignClassTaskE,comdat
	.align 16
	.type	_ZTSN8opendnp315AssignClassTaskE, @object
	.size	_ZTSN8opendnp315AssignClassTaskE, 29
_ZTSN8opendnp315AssignClassTaskE:
	.string	"N8opendnp315AssignClassTaskE"
	.weak	_ZTIN8opendnp315AssignClassTaskE
	.section	.data.rel.ro._ZTIN8opendnp315AssignClassTaskE,"awG",@progbits,_ZTIN8opendnp315AssignClassTaskE,comdat
	.align 8
	.type	_ZTIN8opendnp315AssignClassTaskE, @object
	.size	_ZTIN8opendnp315AssignClassTaskE, 24
_ZTIN8opendnp315AssignClassTaskE:
	.quad	_ZTVN10__cxxabiv120__si_class_type_infoE+16
	.quad	_ZTSN8opendnp315AssignClassTaskE
	.quad	_ZTIN8opendnp311IMasterTaskE
	.section	.data.rel.ro,"aw"
	.align 8
	.type	_ZTIZN8opendnp315AssignClassTask12BuildRequestERNS_11APDURequestEhEUlRKNS_6HeaderEE_, @object
	.size	_ZTIZN8opendnp315AssignClassTask12BuildRequestERNS_11APDURequestEhEUlRKNS_6HeaderEE_, 16
_ZTIZN8opendnp315AssignClassTask12BuildRequestERNS_11APDURequestEhEUlRKNS_6HeaderEE_:
	.quad	_ZTVN10__cxxabiv117__class_type_infoE+16
	.quad	_ZTSZN8opendnp315AssignClassTask12BuildRequestERNS_11APDURequestEhEUlRKNS_6HeaderEE_
	.section	.rodata
	.align 32
	.type	_ZTSZN8opendnp315AssignClassTask12BuildRequestERNS_11APDURequestEhEUlRKNS_6HeaderEE_, @object
	.size	_ZTSZN8opendnp315AssignClassTask12BuildRequestERNS_11APDURequestEhEUlRKNS_6HeaderEE_, 82
_ZTSZN8opendnp315AssignClassTask12BuildRequestERNS_11APDURequestEhEUlRKNS_6HeaderEE_:
	.string	"*ZN8opendnp315AssignClassTask12BuildRequestERNS_11APDURequestEhEUlRKNS_6HeaderEE_"
	.weak	_ZTVN8opendnp315AssignClassTaskE
	.section	.data.rel.ro._ZTVN8opendnp315AssignClassTaskE,"awG",@progbits,_ZTVN8opendnp315AssignClassTaskE,comdat
	.align 8
	.type	_ZTVN8opendnp315AssignClassTaskE, @object
	.size	_ZTVN8opendnp315AssignClassTaskE, 120
_ZTVN8opendnp315AssignClassTaskE:
	.quad	0
	.quad	_ZTIN8opendnp315AssignClassTaskE
	.quad	_ZN8opendnp315AssignClassTaskD1Ev
	.quad	_ZN8opendnp315AssignClassTaskD0Ev
	.quad	_ZNK8opendnp311IMasterTask10IsAuthTaskEv
	.quad	_ZNK8opendnp315AssignClassTask4NameEv
	.quad	_ZNK8opendnp315AssignClassTask8PriorityEv
	.quad	_ZNK8opendnp315AssignClassTask19BlocksLowerPriorityEv
	.quad	_ZNK8opendnp315AssignClassTask11IsRecurringEv
	.quad	_ZN8opendnp315AssignClassTask12BuildRequestERNS_11APDURequestEh
	.quad	_ZN8opendnp311IMasterTask10InitializeEv
	.quad	_ZN8opendnp315AssignClassTask15ProcessResponseERKNS_18APDUResponseHeaderERKN7openpal6RSliceE
	.quad	_ZN8opendnp315AssignClassTask14OnTaskCompleteENS_14TaskCompletionEN7openpal18MonotonicTimestampE
	.quad	_ZNK8opendnp315AssignClassTask9IsEnabledEv
	.quad	_ZNK8opendnp315AssignClassTask11GetTaskTypeEv
	.weakref	_ZL28__gthrw___pthread_key_createPjPFvPvE,__pthread_key_create
	.hidden	DW.ref.__gxx_personality_v0
	.weak	DW.ref.__gxx_personality_v0
	.section	.data.rel.local.DW.ref.__gxx_personality_v0,"awG",@progbits,DW.ref.__gxx_personality_v0,comdat
	.align 8
	.type	DW.ref.__gxx_personality_v0, @object
	.size	DW.ref.__gxx_personality_v0, 8
DW.ref.__gxx_personality_v0:
	.quad	__gxx_personality_v0
	.ident	"GCC: (GNU) 10.3.1 20210703 (ALT Sisyphus 10.3.1-alt2)"
	.section	.note.GNU-stack,"",@progbits
