	.file	"DNP3ManagerImpl.cpp"
	.text
	.section	.rodata._ZNK4asio6detail15system_category4nameEv.str1.1,"aMS",@progbits,1
.LC0:
	.string	"asio.system"
	.section	.text._ZNK4asio6detail15system_category4nameEv,"axG",@progbits,_ZNK4asio6detail15system_category4nameEv,comdat
	.align 2
	.p2align 4
	.weak	_ZNK4asio6detail15system_category4nameEv
	.type	_ZNK4asio6detail15system_category4nameEv, @function
_ZNK4asio6detail15system_category4nameEv:
.LFB2729:
	.cfi_startproc
	leaq	.LC0(%rip), %rax
	ret
	.cfi_endproc
.LFE2729:
	.size	_ZNK4asio6detail15system_category4nameEv, .-_ZNK4asio6detail15system_category4nameEv
	.section	.rodata._ZNK4asio5error6detail14netdb_category4nameEv.str1.1,"aMS",@progbits,1
.LC1:
	.string	"asio.netdb"
	.section	.text._ZNK4asio5error6detail14netdb_category4nameEv,"axG",@progbits,_ZNK4asio5error6detail14netdb_category4nameEv,comdat
	.align 2
	.p2align 4
	.weak	_ZNK4asio5error6detail14netdb_category4nameEv
	.type	_ZNK4asio5error6detail14netdb_category4nameEv, @function
_ZNK4asio5error6detail14netdb_category4nameEv:
.LFB2769:
	.cfi_startproc
	leaq	.LC1(%rip), %rax
	ret
	.cfi_endproc
.LFE2769:
	.size	_ZNK4asio5error6detail14netdb_category4nameEv, .-_ZNK4asio5error6detail14netdb_category4nameEv
	.section	.rodata._ZNK4asio5error6detail17addrinfo_category4nameEv.str1.1,"aMS",@progbits,1
.LC2:
	.string	"asio.addrinfo"
	.section	.text._ZNK4asio5error6detail17addrinfo_category4nameEv,"axG",@progbits,_ZNK4asio5error6detail17addrinfo_category4nameEv,comdat
	.align 2
	.p2align 4
	.weak	_ZNK4asio5error6detail17addrinfo_category4nameEv
	.type	_ZNK4asio5error6detail17addrinfo_category4nameEv, @function
_ZNK4asio5error6detail17addrinfo_category4nameEv:
.LFB2775:
	.cfi_startproc
	leaq	.LC2(%rip), %rax
	ret
	.cfi_endproc
.LFE2775:
	.size	_ZNK4asio5error6detail17addrinfo_category4nameEv, .-_ZNK4asio5error6detail17addrinfo_category4nameEv
	.section	.rodata._ZNK4asio5error6detail13misc_category4nameEv.str1.1,"aMS",@progbits,1
.LC3:
	.string	"asio.misc"
	.section	.text._ZNK4asio5error6detail13misc_category4nameEv,"axG",@progbits,_ZNK4asio5error6detail13misc_category4nameEv,comdat
	.align 2
	.p2align 4
	.weak	_ZNK4asio5error6detail13misc_category4nameEv
	.type	_ZNK4asio5error6detail13misc_category4nameEv, @function
_ZNK4asio5error6detail13misc_category4nameEv:
.LFB2781:
	.cfi_startproc
	leaq	.LC3(%rip), %rax
	ret
	.cfi_endproc
.LFE2781:
	.size	_ZNK4asio5error6detail13misc_category4nameEv, .-_ZNK4asio5error6detail13misc_category4nameEv
	.section	.text._ZN4asio10io_service7service12fork_serviceENS0_10fork_eventE,"axG",@progbits,_ZN4asio10io_service7service12fork_serviceENS0_10fork_eventE,comdat
	.align 2
	.p2align 4
	.weak	_ZN4asio10io_service7service12fork_serviceENS0_10fork_eventE
	.type	_ZN4asio10io_service7service12fork_serviceENS0_10fork_eventE, @function
_ZN4asio10io_service7service12fork_serviceENS0_10fork_eventE:
.LFB3572:
	.cfi_startproc
	ret
	.cfi_endproc
.LFE3572:
	.size	_ZN4asio10io_service7service12fork_serviceENS0_10fork_eventE, .-_ZN4asio10io_service7service12fork_serviceENS0_10fork_eventE
	.section	.text._ZN4asio6detail7tss_ptrINS0_10call_stackINS0_15task_io_serviceENS0_27task_io_service_thread_infoEE7contextEED2Ev,"axG",@progbits,_ZN4asio6detail7tss_ptrINS0_10call_stackINS0_15task_io_serviceENS0_27task_io_service_thread_infoEE7contextEED5Ev,comdat
	.align 2
	.p2align 4
	.weak	_ZN4asio6detail7tss_ptrINS0_10call_stackINS0_15task_io_serviceENS0_27task_io_service_thread_infoEE7contextEED2Ev
	.type	_ZN4asio6detail7tss_ptrINS0_10call_stackINS0_15task_io_serviceENS0_27task_io_service_thread_infoEE7contextEED2Ev, @function
_ZN4asio6detail7tss_ptrINS0_10call_stackINS0_15task_io_serviceENS0_27task_io_service_thread_infoEE7contextEED2Ev:
.LFB12085:
	.cfi_startproc
	ret
	.cfi_endproc
.LFE12085:
	.size	_ZN4asio6detail7tss_ptrINS0_10call_stackINS0_15task_io_serviceENS0_27task_io_service_thread_infoEE7contextEED2Ev, .-_ZN4asio6detail7tss_ptrINS0_10call_stackINS0_15task_io_serviceENS0_27task_io_service_thread_infoEE7contextEED2Ev
	.weak	_ZN4asio6detail7tss_ptrINS0_10call_stackINS0_15task_io_serviceENS0_27task_io_service_thread_infoEE7contextEED1Ev
	.set	_ZN4asio6detail7tss_ptrINS0_10call_stackINS0_15task_io_serviceENS0_27task_io_service_thread_infoEE7contextEED1Ev,_ZN4asio6detail7tss_ptrINS0_10call_stackINS0_15task_io_serviceENS0_27task_io_service_thread_infoEE7contextEED2Ev
	.section	.text._ZN4asio6detail10service_idINS0_13epoll_reactorEED2Ev,"axG",@progbits,_ZN4asio6detail10service_idINS0_13epoll_reactorEED5Ev,comdat
	.align 2
	.p2align 4
	.weak	_ZN4asio6detail10service_idINS0_13epoll_reactorEED2Ev
	.type	_ZN4asio6detail10service_idINS0_13epoll_reactorEED2Ev, @function
_ZN4asio6detail10service_idINS0_13epoll_reactorEED2Ev:
.LFB12088:
	.cfi_startproc
	ret
	.cfi_endproc
.LFE12088:
	.size	_ZN4asio6detail10service_idINS0_13epoll_reactorEED2Ev, .-_ZN4asio6detail10service_idINS0_13epoll_reactorEED2Ev
	.weak	_ZN4asio6detail10service_idINS0_13epoll_reactorEED1Ev
	.set	_ZN4asio6detail10service_idINS0_13epoll_reactorEED1Ev,_ZN4asio6detail10service_idINS0_13epoll_reactorEED2Ev
	.section	.text._ZN4asio6detail10service_idINS0_15task_io_serviceEED2Ev,"axG",@progbits,_ZN4asio6detail10service_idINS0_15task_io_serviceEED5Ev,comdat
	.align 2
	.p2align 4
	.weak	_ZN4asio6detail10service_idINS0_15task_io_serviceEED2Ev
	.type	_ZN4asio6detail10service_idINS0_15task_io_serviceEED2Ev, @function
_ZN4asio6detail10service_idINS0_15task_io_serviceEED2Ev:
.LFB12091:
	.cfi_startproc
	ret
	.cfi_endproc
.LFE12091:
	.size	_ZN4asio6detail10service_idINS0_15task_io_serviceEED2Ev, .-_ZN4asio6detail10service_idINS0_15task_io_serviceEED2Ev
	.weak	_ZN4asio6detail10service_idINS0_15task_io_serviceEED1Ev
	.set	_ZN4asio6detail10service_idINS0_15task_io_serviceEED1Ev,_ZN4asio6detail10service_idINS0_15task_io_serviceEED2Ev
	.section	.text._ZN4asio6detail7tss_ptrINS0_10call_stackINS0_14strand_service11strand_implEhE7contextEED2Ev,"axG",@progbits,_ZN4asio6detail7tss_ptrINS0_10call_stackINS0_14strand_service11strand_implEhE7contextEED5Ev,comdat
	.align 2
	.p2align 4
	.weak	_ZN4asio6detail7tss_ptrINS0_10call_stackINS0_14strand_service11strand_implEhE7contextEED2Ev
	.type	_ZN4asio6detail7tss_ptrINS0_10call_stackINS0_14strand_service11strand_implEhE7contextEED2Ev, @function
_ZN4asio6detail7tss_ptrINS0_10call_stackINS0_14strand_service11strand_implEhE7contextEED2Ev:
.LFB12094:
	.cfi_startproc
	ret
	.cfi_endproc
.LFE12094:
	.size	_ZN4asio6detail7tss_ptrINS0_10call_stackINS0_14strand_service11strand_implEhE7contextEED2Ev, .-_ZN4asio6detail7tss_ptrINS0_10call_stackINS0_14strand_service11strand_implEhE7contextEED2Ev
	.weak	_ZN4asio6detail7tss_ptrINS0_10call_stackINS0_14strand_service11strand_implEhE7contextEED1Ev
	.set	_ZN4asio6detail7tss_ptrINS0_10call_stackINS0_14strand_service11strand_implEhE7contextEED1Ev,_ZN4asio6detail7tss_ptrINS0_10call_stackINS0_14strand_service11strand_implEhE7contextEED2Ev
	.section	.text._ZN4asio6detail10service_idINS0_14strand_serviceEED2Ev,"axG",@progbits,_ZN4asio6detail10service_idINS0_14strand_serviceEED5Ev,comdat
	.align 2
	.p2align 4
	.weak	_ZN4asio6detail10service_idINS0_14strand_serviceEED2Ev
	.type	_ZN4asio6detail10service_idINS0_14strand_serviceEED2Ev, @function
_ZN4asio6detail10service_idINS0_14strand_serviceEED2Ev:
.LFB12097:
	.cfi_startproc
	ret
	.cfi_endproc
.LFE12097:
	.size	_ZN4asio6detail10service_idINS0_14strand_serviceEED2Ev, .-_ZN4asio6detail10service_idINS0_14strand_serviceEED2Ev
	.weak	_ZN4asio6detail10service_idINS0_14strand_serviceEED1Ev
	.set	_ZN4asio6detail10service_idINS0_14strand_serviceEED1Ev,_ZN4asio6detail10service_idINS0_14strand_serviceEED2Ev
	.section	.text._ZNSt23_Sp_counted_ptr_inplaceIN7asiopal2IOESaIS1_ELN9__gnu_cxx12_Lock_policyE2EED2Ev,"axG",@progbits,_ZNSt23_Sp_counted_ptr_inplaceIN7asiopal2IOESaIS1_ELN9__gnu_cxx12_Lock_policyE2EED5Ev,comdat
	.align 2
	.p2align 4
	.weak	_ZNSt23_Sp_counted_ptr_inplaceIN7asiopal2IOESaIS1_ELN9__gnu_cxx12_Lock_policyE2EED2Ev
	.type	_ZNSt23_Sp_counted_ptr_inplaceIN7asiopal2IOESaIS1_ELN9__gnu_cxx12_Lock_policyE2EED2Ev, @function
_ZNSt23_Sp_counted_ptr_inplaceIN7asiopal2IOESaIS1_ELN9__gnu_cxx12_Lock_policyE2EED2Ev:
.LFB12100:
	.cfi_startproc
	ret
	.cfi_endproc
.LFE12100:
	.size	_ZNSt23_Sp_counted_ptr_inplaceIN7asiopal2IOESaIS1_ELN9__gnu_cxx12_Lock_policyE2EED2Ev, .-_ZNSt23_Sp_counted_ptr_inplaceIN7asiopal2IOESaIS1_ELN9__gnu_cxx12_Lock_policyE2EED2Ev
	.weak	_ZNSt23_Sp_counted_ptr_inplaceIN7asiopal2IOESaIS1_ELN9__gnu_cxx12_Lock_policyE2EED1Ev
	.set	_ZNSt23_Sp_counted_ptr_inplaceIN7asiopal2IOESaIS1_ELN9__gnu_cxx12_Lock_policyE2EED1Ev,_ZNSt23_Sp_counted_ptr_inplaceIN7asiopal2IOESaIS1_ELN9__gnu_cxx12_Lock_policyE2EED2Ev
	.section	.text._ZNSt23_Sp_counted_ptr_inplaceIN8asiodnp315SerialIOHandlerESaIS1_ELN9__gnu_cxx12_Lock_policyE2EED2Ev,"axG",@progbits,_ZNSt23_Sp_counted_ptr_inplaceIN8asiodnp315SerialIOHandlerESaIS1_ELN9__gnu_cxx12_Lock_policyE2EED5Ev,comdat
	.align 2
	.p2align 4
	.weak	_ZNSt23_Sp_counted_ptr_inplaceIN8asiodnp315SerialIOHandlerESaIS1_ELN9__gnu_cxx12_Lock_policyE2EED2Ev
	.type	_ZNSt23_Sp_counted_ptr_inplaceIN8asiodnp315SerialIOHandlerESaIS1_ELN9__gnu_cxx12_Lock_policyE2EED2Ev, @function
_ZNSt23_Sp_counted_ptr_inplaceIN8asiodnp315SerialIOHandlerESaIS1_ELN9__gnu_cxx12_Lock_policyE2EED2Ev:
.LFB12107:
	.cfi_startproc
	ret
	.cfi_endproc
.LFE12107:
	.size	_ZNSt23_Sp_counted_ptr_inplaceIN8asiodnp315SerialIOHandlerESaIS1_ELN9__gnu_cxx12_Lock_policyE2EED2Ev, .-_ZNSt23_Sp_counted_ptr_inplaceIN8asiodnp315SerialIOHandlerESaIS1_ELN9__gnu_cxx12_Lock_policyE2EED2Ev
	.weak	_ZNSt23_Sp_counted_ptr_inplaceIN8asiodnp315SerialIOHandlerESaIS1_ELN9__gnu_cxx12_Lock_policyE2EED1Ev
	.set	_ZNSt23_Sp_counted_ptr_inplaceIN8asiodnp315SerialIOHandlerESaIS1_ELN9__gnu_cxx12_Lock_policyE2EED1Ev,_ZNSt23_Sp_counted_ptr_inplaceIN8asiodnp315SerialIOHandlerESaIS1_ELN9__gnu_cxx12_Lock_policyE2EED2Ev
	.section	.text._ZNSt23_Sp_counted_ptr_inplaceIN8asiodnp318TCPServerIOHandlerESaIS1_ELN9__gnu_cxx12_Lock_policyE2EED2Ev,"axG",@progbits,_ZNSt23_Sp_counted_ptr_inplaceIN8asiodnp318TCPServerIOHandlerESaIS1_ELN9__gnu_cxx12_Lock_policyE2EED5Ev,comdat
	.align 2
	.p2align 4
	.weak	_ZNSt23_Sp_counted_ptr_inplaceIN8asiodnp318TCPServerIOHandlerESaIS1_ELN9__gnu_cxx12_Lock_policyE2EED2Ev
	.type	_ZNSt23_Sp_counted_ptr_inplaceIN8asiodnp318TCPServerIOHandlerESaIS1_ELN9__gnu_cxx12_Lock_policyE2EED2Ev, @function
_ZNSt23_Sp_counted_ptr_inplaceIN8asiodnp318TCPServerIOHandlerESaIS1_ELN9__gnu_cxx12_Lock_policyE2EED2Ev:
.LFB12121:
	.cfi_startproc
	ret
	.cfi_endproc
.LFE12121:
	.size	_ZNSt23_Sp_counted_ptr_inplaceIN8asiodnp318TCPServerIOHandlerESaIS1_ELN9__gnu_cxx12_Lock_policyE2EED2Ev, .-_ZNSt23_Sp_counted_ptr_inplaceIN8asiodnp318TCPServerIOHandlerESaIS1_ELN9__gnu_cxx12_Lock_policyE2EED2Ev
	.weak	_ZNSt23_Sp_counted_ptr_inplaceIN8asiodnp318TCPServerIOHandlerESaIS1_ELN9__gnu_cxx12_Lock_policyE2EED1Ev
	.set	_ZNSt23_Sp_counted_ptr_inplaceIN8asiodnp318TCPServerIOHandlerESaIS1_ELN9__gnu_cxx12_Lock_policyE2EED1Ev,_ZNSt23_Sp_counted_ptr_inplaceIN8asiodnp318TCPServerIOHandlerESaIS1_ELN9__gnu_cxx12_Lock_policyE2EED2Ev
	.section	.text._ZNSt23_Sp_counted_ptr_inplaceIN8asiodnp318TCPClientIOHandlerESaIS1_ELN9__gnu_cxx12_Lock_policyE2EED2Ev,"axG",@progbits,_ZNSt23_Sp_counted_ptr_inplaceIN8asiodnp318TCPClientIOHandlerESaIS1_ELN9__gnu_cxx12_Lock_policyE2EED5Ev,comdat
	.align 2
	.p2align 4
	.weak	_ZNSt23_Sp_counted_ptr_inplaceIN8asiodnp318TCPClientIOHandlerESaIS1_ELN9__gnu_cxx12_Lock_policyE2EED2Ev
	.type	_ZNSt23_Sp_counted_ptr_inplaceIN8asiodnp318TCPClientIOHandlerESaIS1_ELN9__gnu_cxx12_Lock_policyE2EED2Ev, @function
_ZNSt23_Sp_counted_ptr_inplaceIN8asiodnp318TCPClientIOHandlerESaIS1_ELN9__gnu_cxx12_Lock_policyE2EED2Ev:
.LFB12128:
	.cfi_startproc
	ret
	.cfi_endproc
.LFE12128:
	.size	_ZNSt23_Sp_counted_ptr_inplaceIN8asiodnp318TCPClientIOHandlerESaIS1_ELN9__gnu_cxx12_Lock_policyE2EED2Ev, .-_ZNSt23_Sp_counted_ptr_inplaceIN8asiodnp318TCPClientIOHandlerESaIS1_ELN9__gnu_cxx12_Lock_policyE2EED2Ev
	.weak	_ZNSt23_Sp_counted_ptr_inplaceIN8asiodnp318TCPClientIOHandlerESaIS1_ELN9__gnu_cxx12_Lock_policyE2EED1Ev
	.set	_ZNSt23_Sp_counted_ptr_inplaceIN8asiodnp318TCPClientIOHandlerESaIS1_ELN9__gnu_cxx12_Lock_policyE2EED1Ev,_ZNSt23_Sp_counted_ptr_inplaceIN8asiodnp318TCPClientIOHandlerESaIS1_ELN9__gnu_cxx12_Lock_policyE2EED2Ev
	.section	.text._ZNSt23_Sp_counted_ptr_inplaceIN8asiodnp315MasterTCPServerESaIS1_ELN9__gnu_cxx12_Lock_policyE2EED2Ev,"axG",@progbits,_ZNSt23_Sp_counted_ptr_inplaceIN8asiodnp315MasterTCPServerESaIS1_ELN9__gnu_cxx12_Lock_policyE2EED5Ev,comdat
	.align 2
	.p2align 4
	.weak	_ZNSt23_Sp_counted_ptr_inplaceIN8asiodnp315MasterTCPServerESaIS1_ELN9__gnu_cxx12_Lock_policyE2EED2Ev
	.type	_ZNSt23_Sp_counted_ptr_inplaceIN8asiodnp315MasterTCPServerESaIS1_ELN9__gnu_cxx12_Lock_policyE2EED2Ev, @function
_ZNSt23_Sp_counted_ptr_inplaceIN8asiodnp315MasterTCPServerESaIS1_ELN9__gnu_cxx12_Lock_policyE2EED2Ev:
.LFB12142:
	.cfi_startproc
	ret
	.cfi_endproc
.LFE12142:
	.size	_ZNSt23_Sp_counted_ptr_inplaceIN8asiodnp315MasterTCPServerESaIS1_ELN9__gnu_cxx12_Lock_policyE2EED2Ev, .-_ZNSt23_Sp_counted_ptr_inplaceIN8asiodnp315MasterTCPServerESaIS1_ELN9__gnu_cxx12_Lock_policyE2EED2Ev
	.weak	_ZNSt23_Sp_counted_ptr_inplaceIN8asiodnp315MasterTCPServerESaIS1_ELN9__gnu_cxx12_Lock_policyE2EED1Ev
	.set	_ZNSt23_Sp_counted_ptr_inplaceIN8asiodnp315MasterTCPServerESaIS1_ELN9__gnu_cxx12_Lock_policyE2EED1Ev,_ZNSt23_Sp_counted_ptr_inplaceIN8asiodnp315MasterTCPServerESaIS1_ELN9__gnu_cxx12_Lock_policyE2EED2Ev
	.section	.text._ZNSt23_Sp_counted_ptr_inplaceIN8asiodnp311DNP3ChannelESaIS1_ELN9__gnu_cxx12_Lock_policyE2EED2Ev,"axG",@progbits,_ZNSt23_Sp_counted_ptr_inplaceIN8asiodnp311DNP3ChannelESaIS1_ELN9__gnu_cxx12_Lock_policyE2EED5Ev,comdat
	.align 2
	.p2align 4
	.weak	_ZNSt23_Sp_counted_ptr_inplaceIN8asiodnp311DNP3ChannelESaIS1_ELN9__gnu_cxx12_Lock_policyE2EED2Ev
	.type	_ZNSt23_Sp_counted_ptr_inplaceIN8asiodnp311DNP3ChannelESaIS1_ELN9__gnu_cxx12_Lock_policyE2EED2Ev, @function
_ZNSt23_Sp_counted_ptr_inplaceIN8asiodnp311DNP3ChannelESaIS1_ELN9__gnu_cxx12_Lock_policyE2EED2Ev:
.LFB12149:
	.cfi_startproc
	ret
	.cfi_endproc
.LFE12149:
	.size	_ZNSt23_Sp_counted_ptr_inplaceIN8asiodnp311DNP3ChannelESaIS1_ELN9__gnu_cxx12_Lock_policyE2EED2Ev, .-_ZNSt23_Sp_counted_ptr_inplaceIN8asiodnp311DNP3ChannelESaIS1_ELN9__gnu_cxx12_Lock_policyE2EED2Ev
	.weak	_ZNSt23_Sp_counted_ptr_inplaceIN8asiodnp311DNP3ChannelESaIS1_ELN9__gnu_cxx12_Lock_policyE2EED1Ev
	.set	_ZNSt23_Sp_counted_ptr_inplaceIN8asiodnp311DNP3ChannelESaIS1_ELN9__gnu_cxx12_Lock_policyE2EED1Ev,_ZNSt23_Sp_counted_ptr_inplaceIN8asiodnp311DNP3ChannelESaIS1_ELN9__gnu_cxx12_Lock_policyE2EED2Ev
	.section	.text._ZNSt23_Sp_counted_ptr_inplaceIN7asiopal15ResourceManagerESaIS1_ELN9__gnu_cxx12_Lock_policyE2EED2Ev,"axG",@progbits,_ZNSt23_Sp_counted_ptr_inplaceIN7asiopal15ResourceManagerESaIS1_ELN9__gnu_cxx12_Lock_policyE2EED5Ev,comdat
	.align 2
	.p2align 4
	.weak	_ZNSt23_Sp_counted_ptr_inplaceIN7asiopal15ResourceManagerESaIS1_ELN9__gnu_cxx12_Lock_policyE2EED2Ev
	.type	_ZNSt23_Sp_counted_ptr_inplaceIN7asiopal15ResourceManagerESaIS1_ELN9__gnu_cxx12_Lock_policyE2EED2Ev, @function
_ZNSt23_Sp_counted_ptr_inplaceIN7asiopal15ResourceManagerESaIS1_ELN9__gnu_cxx12_Lock_policyE2EED2Ev:
.LFB12163:
	.cfi_startproc
	ret
	.cfi_endproc
.LFE12163:
	.size	_ZNSt23_Sp_counted_ptr_inplaceIN7asiopal15ResourceManagerESaIS1_ELN9__gnu_cxx12_Lock_policyE2EED2Ev, .-_ZNSt23_Sp_counted_ptr_inplaceIN7asiopal15ResourceManagerESaIS1_ELN9__gnu_cxx12_Lock_policyE2EED2Ev
	.weak	_ZNSt23_Sp_counted_ptr_inplaceIN7asiopal15ResourceManagerESaIS1_ELN9__gnu_cxx12_Lock_policyE2EED1Ev
	.set	_ZNSt23_Sp_counted_ptr_inplaceIN7asiopal15ResourceManagerESaIS1_ELN9__gnu_cxx12_Lock_policyE2EED1Ev,_ZNSt23_Sp_counted_ptr_inplaceIN7asiopal15ResourceManagerESaIS1_ELN9__gnu_cxx12_Lock_policyE2EED2Ev
	.section	.text._ZNSt23_Sp_counted_ptr_inplaceIN7asiopal8ExecutorESaIS1_ELN9__gnu_cxx12_Lock_policyE2EED2Ev,"axG",@progbits,_ZNSt23_Sp_counted_ptr_inplaceIN7asiopal8ExecutorESaIS1_ELN9__gnu_cxx12_Lock_policyE2EED5Ev,comdat
	.align 2
	.p2align 4
	.weak	_ZNSt23_Sp_counted_ptr_inplaceIN7asiopal8ExecutorESaIS1_ELN9__gnu_cxx12_Lock_policyE2EED2Ev
	.type	_ZNSt23_Sp_counted_ptr_inplaceIN7asiopal8ExecutorESaIS1_ELN9__gnu_cxx12_Lock_policyE2EED2Ev, @function
_ZNSt23_Sp_counted_ptr_inplaceIN7asiopal8ExecutorESaIS1_ELN9__gnu_cxx12_Lock_policyE2EED2Ev:
.LFB12170:
	.cfi_startproc
	ret
	.cfi_endproc
.LFE12170:
	.size	_ZNSt23_Sp_counted_ptr_inplaceIN7asiopal8ExecutorESaIS1_ELN9__gnu_cxx12_Lock_policyE2EED2Ev, .-_ZNSt23_Sp_counted_ptr_inplaceIN7asiopal8ExecutorESaIS1_ELN9__gnu_cxx12_Lock_policyE2EED2Ev
	.weak	_ZNSt23_Sp_counted_ptr_inplaceIN7asiopal8ExecutorESaIS1_ELN9__gnu_cxx12_Lock_policyE2EED1Ev
	.set	_ZNSt23_Sp_counted_ptr_inplaceIN7asiopal8ExecutorESaIS1_ELN9__gnu_cxx12_Lock_policyE2EED1Ev,_ZNSt23_Sp_counted_ptr_inplaceIN7asiopal8ExecutorESaIS1_ELN9__gnu_cxx12_Lock_policyE2EED2Ev
	.section	.text._ZNSt23_Sp_counted_ptr_inplaceIN7openpal6Logger8SettingsESaIS2_ELN9__gnu_cxx12_Lock_policyE2EED2Ev,"axG",@progbits,_ZNSt23_Sp_counted_ptr_inplaceIN7openpal6Logger8SettingsESaIS2_ELN9__gnu_cxx12_Lock_policyE2EED5Ev,comdat
	.align 2
	.p2align 4
	.weak	_ZNSt23_Sp_counted_ptr_inplaceIN7openpal6Logger8SettingsESaIS2_ELN9__gnu_cxx12_Lock_policyE2EED2Ev
	.type	_ZNSt23_Sp_counted_ptr_inplaceIN7openpal6Logger8SettingsESaIS2_ELN9__gnu_cxx12_Lock_policyE2EED2Ev, @function
_ZNSt23_Sp_counted_ptr_inplaceIN7openpal6Logger8SettingsESaIS2_ELN9__gnu_cxx12_Lock_policyE2EED2Ev:
.LFB12191:
	.cfi_startproc
	ret
	.cfi_endproc
.LFE12191:
	.size	_ZNSt23_Sp_counted_ptr_inplaceIN7openpal6Logger8SettingsESaIS2_ELN9__gnu_cxx12_Lock_policyE2EED2Ev, .-_ZNSt23_Sp_counted_ptr_inplaceIN7openpal6Logger8SettingsESaIS2_ELN9__gnu_cxx12_Lock_policyE2EED2Ev
	.weak	_ZNSt23_Sp_counted_ptr_inplaceIN7openpal6Logger8SettingsESaIS2_ELN9__gnu_cxx12_Lock_policyE2EED1Ev
	.set	_ZNSt23_Sp_counted_ptr_inplaceIN7openpal6Logger8SettingsESaIS2_ELN9__gnu_cxx12_Lock_policyE2EED1Ev,_ZNSt23_Sp_counted_ptr_inplaceIN7openpal6Logger8SettingsESaIS2_ELN9__gnu_cxx12_Lock_policyE2EED2Ev
	.section	.text._ZNSt23_Sp_counted_ptr_inplaceIN7openpal6Logger8SettingsESaIS2_ELN9__gnu_cxx12_Lock_policyE2EED0Ev,"axG",@progbits,_ZNSt23_Sp_counted_ptr_inplaceIN7openpal6Logger8SettingsESaIS2_ELN9__gnu_cxx12_Lock_policyE2EED5Ev,comdat
	.align 2
	.p2align 4
	.weak	_ZNSt23_Sp_counted_ptr_inplaceIN7openpal6Logger8SettingsESaIS2_ELN9__gnu_cxx12_Lock_policyE2EED0Ev
	.type	_ZNSt23_Sp_counted_ptr_inplaceIN7openpal6Logger8SettingsESaIS2_ELN9__gnu_cxx12_Lock_policyE2EED0Ev, @function
_ZNSt23_Sp_counted_ptr_inplaceIN7openpal6Logger8SettingsESaIS2_ELN9__gnu_cxx12_Lock_policyE2EED0Ev:
.LFB12193:
	.cfi_startproc
	movl	$56, %esi
	jmp	_ZdlPvm@PLT
	.cfi_endproc
.LFE12193:
	.size	_ZNSt23_Sp_counted_ptr_inplaceIN7openpal6Logger8SettingsESaIS2_ELN9__gnu_cxx12_Lock_policyE2EED0Ev, .-_ZNSt23_Sp_counted_ptr_inplaceIN7openpal6Logger8SettingsESaIS2_ELN9__gnu_cxx12_Lock_policyE2EED0Ev
	.section	.text._ZNSt23_Sp_counted_ptr_inplaceIN7asiopal8ExecutorESaIS1_ELN9__gnu_cxx12_Lock_policyE2EED0Ev,"axG",@progbits,_ZNSt23_Sp_counted_ptr_inplaceIN7asiopal8ExecutorESaIS1_ELN9__gnu_cxx12_Lock_policyE2EED5Ev,comdat
	.align 2
	.p2align 4
	.weak	_ZNSt23_Sp_counted_ptr_inplaceIN7asiopal8ExecutorESaIS1_ELN9__gnu_cxx12_Lock_policyE2EED0Ev
	.type	_ZNSt23_Sp_counted_ptr_inplaceIN7asiopal8ExecutorESaIS1_ELN9__gnu_cxx12_Lock_policyE2EED0Ev, @function
_ZNSt23_Sp_counted_ptr_inplaceIN7asiopal8ExecutorESaIS1_ELN9__gnu_cxx12_Lock_policyE2EED0Ev:
.LFB12172:
	.cfi_startproc
	movl	$72, %esi
	jmp	_ZdlPvm@PLT
	.cfi_endproc
.LFE12172:
	.size	_ZNSt23_Sp_counted_ptr_inplaceIN7asiopal8ExecutorESaIS1_ELN9__gnu_cxx12_Lock_policyE2EED0Ev, .-_ZNSt23_Sp_counted_ptr_inplaceIN7asiopal8ExecutorESaIS1_ELN9__gnu_cxx12_Lock_policyE2EED0Ev
	.section	.text._ZNSt23_Sp_counted_ptr_inplaceIN7asiopal15ResourceManagerESaIS1_ELN9__gnu_cxx12_Lock_policyE2EED0Ev,"axG",@progbits,_ZNSt23_Sp_counted_ptr_inplaceIN7asiopal15ResourceManagerESaIS1_ELN9__gnu_cxx12_Lock_policyE2EED5Ev,comdat
	.align 2
	.p2align 4
	.weak	_ZNSt23_Sp_counted_ptr_inplaceIN7asiopal15ResourceManagerESaIS1_ELN9__gnu_cxx12_Lock_policyE2EED0Ev
	.type	_ZNSt23_Sp_counted_ptr_inplaceIN7asiopal15ResourceManagerESaIS1_ELN9__gnu_cxx12_Lock_policyE2EED0Ev, @function
_ZNSt23_Sp_counted_ptr_inplaceIN7asiopal15ResourceManagerESaIS1_ELN9__gnu_cxx12_Lock_policyE2EED0Ev:
.LFB12165:
	.cfi_startproc
	movl	$120, %esi
	jmp	_ZdlPvm@PLT
	.cfi_endproc
.LFE12165:
	.size	_ZNSt23_Sp_counted_ptr_inplaceIN7asiopal15ResourceManagerESaIS1_ELN9__gnu_cxx12_Lock_policyE2EED0Ev, .-_ZNSt23_Sp_counted_ptr_inplaceIN7asiopal15ResourceManagerESaIS1_ELN9__gnu_cxx12_Lock_policyE2EED0Ev
	.section	.text._ZNSt23_Sp_counted_ptr_inplaceIN8asiodnp311DNP3ChannelESaIS1_ELN9__gnu_cxx12_Lock_policyE2EED0Ev,"axG",@progbits,_ZNSt23_Sp_counted_ptr_inplaceIN8asiodnp311DNP3ChannelESaIS1_ELN9__gnu_cxx12_Lock_policyE2EED5Ev,comdat
	.align 2
	.p2align 4
	.weak	_ZNSt23_Sp_counted_ptr_inplaceIN8asiodnp311DNP3ChannelESaIS1_ELN9__gnu_cxx12_Lock_policyE2EED0Ev
	.type	_ZNSt23_Sp_counted_ptr_inplaceIN8asiodnp311DNP3ChannelESaIS1_ELN9__gnu_cxx12_Lock_policyE2EED0Ev, @function
_ZNSt23_Sp_counted_ptr_inplaceIN8asiodnp311DNP3ChannelESaIS1_ELN9__gnu_cxx12_Lock_policyE2EED0Ev:
.LFB12151:
	.cfi_startproc
	movl	$136, %esi
	jmp	_ZdlPvm@PLT
	.cfi_endproc
.LFE12151:
	.size	_ZNSt23_Sp_counted_ptr_inplaceIN8asiodnp311DNP3ChannelESaIS1_ELN9__gnu_cxx12_Lock_policyE2EED0Ev, .-_ZNSt23_Sp_counted_ptr_inplaceIN8asiodnp311DNP3ChannelESaIS1_ELN9__gnu_cxx12_Lock_policyE2EED0Ev
	.section	.text._ZNSt23_Sp_counted_ptr_inplaceIN8asiodnp315MasterTCPServerESaIS1_ELN9__gnu_cxx12_Lock_policyE2EED0Ev,"axG",@progbits,_ZNSt23_Sp_counted_ptr_inplaceIN8asiodnp315MasterTCPServerESaIS1_ELN9__gnu_cxx12_Lock_policyE2EED5Ev,comdat
	.align 2
	.p2align 4
	.weak	_ZNSt23_Sp_counted_ptr_inplaceIN8asiodnp315MasterTCPServerESaIS1_ELN9__gnu_cxx12_Lock_policyE2EED0Ev
	.type	_ZNSt23_Sp_counted_ptr_inplaceIN8asiodnp315MasterTCPServerESaIS1_ELN9__gnu_cxx12_Lock_policyE2EED0Ev, @function
_ZNSt23_Sp_counted_ptr_inplaceIN8asiodnp315MasterTCPServerESaIS1_ELN9__gnu_cxx12_Lock_policyE2EED0Ev:
.LFB12144:
	.cfi_startproc
	movl	$256, %esi
	jmp	_ZdlPvm@PLT
	.cfi_endproc
.LFE12144:
	.size	_ZNSt23_Sp_counted_ptr_inplaceIN8asiodnp315MasterTCPServerESaIS1_ELN9__gnu_cxx12_Lock_policyE2EED0Ev, .-_ZNSt23_Sp_counted_ptr_inplaceIN8asiodnp315MasterTCPServerESaIS1_ELN9__gnu_cxx12_Lock_policyE2EED0Ev
	.section	.text._ZNSt23_Sp_counted_ptr_inplaceIN8asiodnp318TCPClientIOHandlerESaIS1_ELN9__gnu_cxx12_Lock_policyE2EED0Ev,"axG",@progbits,_ZNSt23_Sp_counted_ptr_inplaceIN8asiodnp318TCPClientIOHandlerESaIS1_ELN9__gnu_cxx12_Lock_policyE2EED5Ev,comdat
	.align 2
	.p2align 4
	.weak	_ZNSt23_Sp_counted_ptr_inplaceIN8asiodnp318TCPClientIOHandlerESaIS1_ELN9__gnu_cxx12_Lock_policyE2EED0Ev
	.type	_ZNSt23_Sp_counted_ptr_inplaceIN8asiodnp318TCPClientIOHandlerESaIS1_ELN9__gnu_cxx12_Lock_policyE2EED0Ev, @function
_ZNSt23_Sp_counted_ptr_inplaceIN8asiodnp318TCPClientIOHandlerESaIS1_ELN9__gnu_cxx12_Lock_policyE2EED0Ev:
.LFB12130:
	.cfi_startproc
	movl	$960, %esi
	jmp	_ZdlPvm@PLT
	.cfi_endproc
.LFE12130:
	.size	_ZNSt23_Sp_counted_ptr_inplaceIN8asiodnp318TCPClientIOHandlerESaIS1_ELN9__gnu_cxx12_Lock_policyE2EED0Ev, .-_ZNSt23_Sp_counted_ptr_inplaceIN8asiodnp318TCPClientIOHandlerESaIS1_ELN9__gnu_cxx12_Lock_policyE2EED0Ev
	.section	.text._ZNSt23_Sp_counted_ptr_inplaceIN8asiodnp318TCPServerIOHandlerESaIS1_ELN9__gnu_cxx12_Lock_policyE2EED0Ev,"axG",@progbits,_ZNSt23_Sp_counted_ptr_inplaceIN8asiodnp318TCPServerIOHandlerESaIS1_ELN9__gnu_cxx12_Lock_policyE2EED5Ev,comdat
	.align 2
	.p2align 4
	.weak	_ZNSt23_Sp_counted_ptr_inplaceIN8asiodnp318TCPServerIOHandlerESaIS1_ELN9__gnu_cxx12_Lock_policyE2EED0Ev
	.type	_ZNSt23_Sp_counted_ptr_inplaceIN8asiodnp318TCPServerIOHandlerESaIS1_ELN9__gnu_cxx12_Lock_policyE2EED0Ev, @function
_ZNSt23_Sp_counted_ptr_inplaceIN8asiodnp318TCPServerIOHandlerESaIS1_ELN9__gnu_cxx12_Lock_policyE2EED0Ev:
.LFB12123:
	.cfi_startproc
	movl	$888, %esi
	jmp	_ZdlPvm@PLT
	.cfi_endproc
.LFE12123:
	.size	_ZNSt23_Sp_counted_ptr_inplaceIN8asiodnp318TCPServerIOHandlerESaIS1_ELN9__gnu_cxx12_Lock_policyE2EED0Ev, .-_ZNSt23_Sp_counted_ptr_inplaceIN8asiodnp318TCPServerIOHandlerESaIS1_ELN9__gnu_cxx12_Lock_policyE2EED0Ev
	.section	.text._ZNSt23_Sp_counted_ptr_inplaceIN8asiodnp315SerialIOHandlerESaIS1_ELN9__gnu_cxx12_Lock_policyE2EED0Ev,"axG",@progbits,_ZNSt23_Sp_counted_ptr_inplaceIN8asiodnp315SerialIOHandlerESaIS1_ELN9__gnu_cxx12_Lock_policyE2EED5Ev,comdat
	.align 2
	.p2align 4
	.weak	_ZNSt23_Sp_counted_ptr_inplaceIN8asiodnp315SerialIOHandlerESaIS1_ELN9__gnu_cxx12_Lock_policyE2EED0Ev
	.type	_ZNSt23_Sp_counted_ptr_inplaceIN8asiodnp315SerialIOHandlerESaIS1_ELN9__gnu_cxx12_Lock_policyE2EED0Ev, @function
_ZNSt23_Sp_counted_ptr_inplaceIN8asiodnp315SerialIOHandlerESaIS1_ELN9__gnu_cxx12_Lock_policyE2EED0Ev:
.LFB12109:
	.cfi_startproc
	movl	$928, %esi
	jmp	_ZdlPvm@PLT
	.cfi_endproc
.LFE12109:
	.size	_ZNSt23_Sp_counted_ptr_inplaceIN8asiodnp315SerialIOHandlerESaIS1_ELN9__gnu_cxx12_Lock_policyE2EED0Ev, .-_ZNSt23_Sp_counted_ptr_inplaceIN8asiodnp315SerialIOHandlerESaIS1_ELN9__gnu_cxx12_Lock_policyE2EED0Ev
	.section	.text._ZNSt23_Sp_counted_ptr_inplaceIN7asiopal2IOESaIS1_ELN9__gnu_cxx12_Lock_policyE2EED0Ev,"axG",@progbits,_ZNSt23_Sp_counted_ptr_inplaceIN7asiopal2IOESaIS1_ELN9__gnu_cxx12_Lock_policyE2EED5Ev,comdat
	.align 2
	.p2align 4
	.weak	_ZNSt23_Sp_counted_ptr_inplaceIN7asiopal2IOESaIS1_ELN9__gnu_cxx12_Lock_policyE2EED0Ev
	.type	_ZNSt23_Sp_counted_ptr_inplaceIN7asiopal2IOESaIS1_ELN9__gnu_cxx12_Lock_policyE2EED0Ev, @function
_ZNSt23_Sp_counted_ptr_inplaceIN7asiopal2IOESaIS1_ELN9__gnu_cxx12_Lock_policyE2EED0Ev:
.LFB12102:
	.cfi_startproc
	movl	$40, %esi
	jmp	_ZdlPvm@PLT
	.cfi_endproc
.LFE12102:
	.size	_ZNSt23_Sp_counted_ptr_inplaceIN7asiopal2IOESaIS1_ELN9__gnu_cxx12_Lock_policyE2EED0Ev, .-_ZNSt23_Sp_counted_ptr_inplaceIN7asiopal2IOESaIS1_ELN9__gnu_cxx12_Lock_policyE2EED0Ev
	.section	.text._ZNSt23_Sp_counted_ptr_inplaceIN7asiopal2IOESaIS1_ELN9__gnu_cxx12_Lock_policyE2EE10_M_destroyEv,"axG",@progbits,_ZNSt23_Sp_counted_ptr_inplaceIN7asiopal2IOESaIS1_ELN9__gnu_cxx12_Lock_policyE2EE10_M_destroyEv,comdat
	.align 2
	.p2align 4
	.weak	_ZNSt23_Sp_counted_ptr_inplaceIN7asiopal2IOESaIS1_ELN9__gnu_cxx12_Lock_policyE2EE10_M_destroyEv
	.type	_ZNSt23_Sp_counted_ptr_inplaceIN7asiopal2IOESaIS1_ELN9__gnu_cxx12_Lock_policyE2EE10_M_destroyEv, @function
_ZNSt23_Sp_counted_ptr_inplaceIN7asiopal2IOESaIS1_ELN9__gnu_cxx12_Lock_policyE2EE10_M_destroyEv:
.LFB12104:
	.cfi_startproc
	movl	$40, %esi
	jmp	_ZdlPvm@PLT
	.cfi_endproc
.LFE12104:
	.size	_ZNSt23_Sp_counted_ptr_inplaceIN7asiopal2IOESaIS1_ELN9__gnu_cxx12_Lock_policyE2EE10_M_destroyEv, .-_ZNSt23_Sp_counted_ptr_inplaceIN7asiopal2IOESaIS1_ELN9__gnu_cxx12_Lock_policyE2EE10_M_destroyEv
	.section	.text._ZNSt23_Sp_counted_ptr_inplaceIN8asiodnp315SerialIOHandlerESaIS1_ELN9__gnu_cxx12_Lock_policyE2EE10_M_destroyEv,"axG",@progbits,_ZNSt23_Sp_counted_ptr_inplaceIN8asiodnp315SerialIOHandlerESaIS1_ELN9__gnu_cxx12_Lock_policyE2EE10_M_destroyEv,comdat
	.align 2
	.p2align 4
	.weak	_ZNSt23_Sp_counted_ptr_inplaceIN8asiodnp315SerialIOHandlerESaIS1_ELN9__gnu_cxx12_Lock_policyE2EE10_M_destroyEv
	.type	_ZNSt23_Sp_counted_ptr_inplaceIN8asiodnp315SerialIOHandlerESaIS1_ELN9__gnu_cxx12_Lock_policyE2EE10_M_destroyEv, @function
_ZNSt23_Sp_counted_ptr_inplaceIN8asiodnp315SerialIOHandlerESaIS1_ELN9__gnu_cxx12_Lock_policyE2EE10_M_destroyEv:
.LFB12111:
	.cfi_startproc
	movl	$928, %esi
	jmp	_ZdlPvm@PLT
	.cfi_endproc
.LFE12111:
	.size	_ZNSt23_Sp_counted_ptr_inplaceIN8asiodnp315SerialIOHandlerESaIS1_ELN9__gnu_cxx12_Lock_policyE2EE10_M_destroyEv, .-_ZNSt23_Sp_counted_ptr_inplaceIN8asiodnp315SerialIOHandlerESaIS1_ELN9__gnu_cxx12_Lock_policyE2EE10_M_destroyEv
	.section	.text._ZNSt23_Sp_counted_ptr_inplaceIN8asiodnp318TCPServerIOHandlerESaIS1_ELN9__gnu_cxx12_Lock_policyE2EE10_M_destroyEv,"axG",@progbits,_ZNSt23_Sp_counted_ptr_inplaceIN8asiodnp318TCPServerIOHandlerESaIS1_ELN9__gnu_cxx12_Lock_policyE2EE10_M_destroyEv,comdat
	.align 2
	.p2align 4
	.weak	_ZNSt23_Sp_counted_ptr_inplaceIN8asiodnp318TCPServerIOHandlerESaIS1_ELN9__gnu_cxx12_Lock_policyE2EE10_M_destroyEv
	.type	_ZNSt23_Sp_counted_ptr_inplaceIN8asiodnp318TCPServerIOHandlerESaIS1_ELN9__gnu_cxx12_Lock_policyE2EE10_M_destroyEv, @function
_ZNSt23_Sp_counted_ptr_inplaceIN8asiodnp318TCPServerIOHandlerESaIS1_ELN9__gnu_cxx12_Lock_policyE2EE10_M_destroyEv:
.LFB12125:
	.cfi_startproc
	movl	$888, %esi
	jmp	_ZdlPvm@PLT
	.cfi_endproc
.LFE12125:
	.size	_ZNSt23_Sp_counted_ptr_inplaceIN8asiodnp318TCPServerIOHandlerESaIS1_ELN9__gnu_cxx12_Lock_policyE2EE10_M_destroyEv, .-_ZNSt23_Sp_counted_ptr_inplaceIN8asiodnp318TCPServerIOHandlerESaIS1_ELN9__gnu_cxx12_Lock_policyE2EE10_M_destroyEv
	.section	.text._ZNSt23_Sp_counted_ptr_inplaceIN8asiodnp318TCPClientIOHandlerESaIS1_ELN9__gnu_cxx12_Lock_policyE2EE10_M_destroyEv,"axG",@progbits,_ZNSt23_Sp_counted_ptr_inplaceIN8asiodnp318TCPClientIOHandlerESaIS1_ELN9__gnu_cxx12_Lock_policyE2EE10_M_destroyEv,comdat
	.align 2
	.p2align 4
	.weak	_ZNSt23_Sp_counted_ptr_inplaceIN8asiodnp318TCPClientIOHandlerESaIS1_ELN9__gnu_cxx12_Lock_policyE2EE10_M_destroyEv
	.type	_ZNSt23_Sp_counted_ptr_inplaceIN8asiodnp318TCPClientIOHandlerESaIS1_ELN9__gnu_cxx12_Lock_policyE2EE10_M_destroyEv, @function
_ZNSt23_Sp_counted_ptr_inplaceIN8asiodnp318TCPClientIOHandlerESaIS1_ELN9__gnu_cxx12_Lock_policyE2EE10_M_destroyEv:
.LFB12132:
	.cfi_startproc
	movl	$960, %esi
	jmp	_ZdlPvm@PLT
	.cfi_endproc
.LFE12132:
	.size	_ZNSt23_Sp_counted_ptr_inplaceIN8asiodnp318TCPClientIOHandlerESaIS1_ELN9__gnu_cxx12_Lock_policyE2EE10_M_destroyEv, .-_ZNSt23_Sp_counted_ptr_inplaceIN8asiodnp318TCPClientIOHandlerESaIS1_ELN9__gnu_cxx12_Lock_policyE2EE10_M_destroyEv
	.section	.text._ZNSt23_Sp_counted_ptr_inplaceIN8asiodnp315MasterTCPServerESaIS1_ELN9__gnu_cxx12_Lock_policyE2EE10_M_destroyEv,"axG",@progbits,_ZNSt23_Sp_counted_ptr_inplaceIN8asiodnp315MasterTCPServerESaIS1_ELN9__gnu_cxx12_Lock_policyE2EE10_M_destroyEv,comdat
	.align 2
	.p2align 4
	.weak	_ZNSt23_Sp_counted_ptr_inplaceIN8asiodnp315MasterTCPServerESaIS1_ELN9__gnu_cxx12_Lock_policyE2EE10_M_destroyEv
	.type	_ZNSt23_Sp_counted_ptr_inplaceIN8asiodnp315MasterTCPServerESaIS1_ELN9__gnu_cxx12_Lock_policyE2EE10_M_destroyEv, @function
_ZNSt23_Sp_counted_ptr_inplaceIN8asiodnp315MasterTCPServerESaIS1_ELN9__gnu_cxx12_Lock_policyE2EE10_M_destroyEv:
.LFB12146:
	.cfi_startproc
	movl	$256, %esi
	jmp	_ZdlPvm@PLT
	.cfi_endproc
.LFE12146:
	.size	_ZNSt23_Sp_counted_ptr_inplaceIN8asiodnp315MasterTCPServerESaIS1_ELN9__gnu_cxx12_Lock_policyE2EE10_M_destroyEv, .-_ZNSt23_Sp_counted_ptr_inplaceIN8asiodnp315MasterTCPServerESaIS1_ELN9__gnu_cxx12_Lock_policyE2EE10_M_destroyEv
	.section	.text._ZNSt23_Sp_counted_ptr_inplaceIN8asiodnp311DNP3ChannelESaIS1_ELN9__gnu_cxx12_Lock_policyE2EE10_M_destroyEv,"axG",@progbits,_ZNSt23_Sp_counted_ptr_inplaceIN8asiodnp311DNP3ChannelESaIS1_ELN9__gnu_cxx12_Lock_policyE2EE10_M_destroyEv,comdat
	.align 2
	.p2align 4
	.weak	_ZNSt23_Sp_counted_ptr_inplaceIN8asiodnp311DNP3ChannelESaIS1_ELN9__gnu_cxx12_Lock_policyE2EE10_M_destroyEv
	.type	_ZNSt23_Sp_counted_ptr_inplaceIN8asiodnp311DNP3ChannelESaIS1_ELN9__gnu_cxx12_Lock_policyE2EE10_M_destroyEv, @function
_ZNSt23_Sp_counted_ptr_inplaceIN8asiodnp311DNP3ChannelESaIS1_ELN9__gnu_cxx12_Lock_policyE2EE10_M_destroyEv:
.LFB12153:
	.cfi_startproc
	movl	$136, %esi
	jmp	_ZdlPvm@PLT
	.cfi_endproc
.LFE12153:
	.size	_ZNSt23_Sp_counted_ptr_inplaceIN8asiodnp311DNP3ChannelESaIS1_ELN9__gnu_cxx12_Lock_policyE2EE10_M_destroyEv, .-_ZNSt23_Sp_counted_ptr_inplaceIN8asiodnp311DNP3ChannelESaIS1_ELN9__gnu_cxx12_Lock_policyE2EE10_M_destroyEv
	.section	.text._ZNSt23_Sp_counted_ptr_inplaceIN7asiopal15ResourceManagerESaIS1_ELN9__gnu_cxx12_Lock_policyE2EE10_M_destroyEv,"axG",@progbits,_ZNSt23_Sp_counted_ptr_inplaceIN7asiopal15ResourceManagerESaIS1_ELN9__gnu_cxx12_Lock_policyE2EE10_M_destroyEv,comdat
	.align 2
	.p2align 4
	.weak	_ZNSt23_Sp_counted_ptr_inplaceIN7asiopal15ResourceManagerESaIS1_ELN9__gnu_cxx12_Lock_policyE2EE10_M_destroyEv
	.type	_ZNSt23_Sp_counted_ptr_inplaceIN7asiopal15ResourceManagerESaIS1_ELN9__gnu_cxx12_Lock_policyE2EE10_M_destroyEv, @function
_ZNSt23_Sp_counted_ptr_inplaceIN7asiopal15ResourceManagerESaIS1_ELN9__gnu_cxx12_Lock_policyE2EE10_M_destroyEv:
.LFB12167:
	.cfi_startproc
	movl	$120, %esi
	jmp	_ZdlPvm@PLT
	.cfi_endproc
.LFE12167:
	.size	_ZNSt23_Sp_counted_ptr_inplaceIN7asiopal15ResourceManagerESaIS1_ELN9__gnu_cxx12_Lock_policyE2EE10_M_destroyEv, .-_ZNSt23_Sp_counted_ptr_inplaceIN7asiopal15ResourceManagerESaIS1_ELN9__gnu_cxx12_Lock_policyE2EE10_M_destroyEv
	.section	.text._ZNSt23_Sp_counted_ptr_inplaceIN7asiopal8ExecutorESaIS1_ELN9__gnu_cxx12_Lock_policyE2EE10_M_destroyEv,"axG",@progbits,_ZNSt23_Sp_counted_ptr_inplaceIN7asiopal8ExecutorESaIS1_ELN9__gnu_cxx12_Lock_policyE2EE10_M_destroyEv,comdat
	.align 2
	.p2align 4
	.weak	_ZNSt23_Sp_counted_ptr_inplaceIN7asiopal8ExecutorESaIS1_ELN9__gnu_cxx12_Lock_policyE2EE10_M_destroyEv
	.type	_ZNSt23_Sp_counted_ptr_inplaceIN7asiopal8ExecutorESaIS1_ELN9__gnu_cxx12_Lock_policyE2EE10_M_destroyEv, @function
_ZNSt23_Sp_counted_ptr_inplaceIN7asiopal8ExecutorESaIS1_ELN9__gnu_cxx12_Lock_policyE2EE10_M_destroyEv:
.LFB12174:
	.cfi_startproc
	movl	$72, %esi
	jmp	_ZdlPvm@PLT
	.cfi_endproc
.LFE12174:
	.size	_ZNSt23_Sp_counted_ptr_inplaceIN7asiopal8ExecutorESaIS1_ELN9__gnu_cxx12_Lock_policyE2EE10_M_destroyEv, .-_ZNSt23_Sp_counted_ptr_inplaceIN7asiopal8ExecutorESaIS1_ELN9__gnu_cxx12_Lock_policyE2EE10_M_destroyEv
	.section	.text._ZNSt23_Sp_counted_ptr_inplaceIN7openpal6Logger8SettingsESaIS2_ELN9__gnu_cxx12_Lock_policyE2EE10_M_destroyEv,"axG",@progbits,_ZNSt23_Sp_counted_ptr_inplaceIN7openpal6Logger8SettingsESaIS2_ELN9__gnu_cxx12_Lock_policyE2EE10_M_destroyEv,comdat
	.align 2
	.p2align 4
	.weak	_ZNSt23_Sp_counted_ptr_inplaceIN7openpal6Logger8SettingsESaIS2_ELN9__gnu_cxx12_Lock_policyE2EE10_M_destroyEv
	.type	_ZNSt23_Sp_counted_ptr_inplaceIN7openpal6Logger8SettingsESaIS2_ELN9__gnu_cxx12_Lock_policyE2EE10_M_destroyEv, @function
_ZNSt23_Sp_counted_ptr_inplaceIN7openpal6Logger8SettingsESaIS2_ELN9__gnu_cxx12_Lock_policyE2EE10_M_destroyEv:
.LFB12195:
	.cfi_startproc
	movl	$56, %esi
	jmp	_ZdlPvm@PLT
	.cfi_endproc
.LFE12195:
	.size	_ZNSt23_Sp_counted_ptr_inplaceIN7openpal6Logger8SettingsESaIS2_ELN9__gnu_cxx12_Lock_policyE2EE10_M_destroyEv, .-_ZNSt23_Sp_counted_ptr_inplaceIN7openpal6Logger8SettingsESaIS2_ELN9__gnu_cxx12_Lock_policyE2EE10_M_destroyEv
	.section	.text._ZNSt23_Sp_counted_ptr_inplaceIN7openpal6Logger8SettingsESaIS2_ELN9__gnu_cxx12_Lock_policyE2EE10_M_disposeEv,"axG",@progbits,_ZNSt23_Sp_counted_ptr_inplaceIN7openpal6Logger8SettingsESaIS2_ELN9__gnu_cxx12_Lock_policyE2EE10_M_disposeEv,comdat
	.align 2
	.p2align 4
	.weak	_ZNSt23_Sp_counted_ptr_inplaceIN7openpal6Logger8SettingsESaIS2_ELN9__gnu_cxx12_Lock_policyE2EE10_M_disposeEv
	.type	_ZNSt23_Sp_counted_ptr_inplaceIN7openpal6Logger8SettingsESaIS2_ELN9__gnu_cxx12_Lock_policyE2EE10_M_disposeEv, @function
_ZNSt23_Sp_counted_ptr_inplaceIN7openpal6Logger8SettingsESaIS2_ELN9__gnu_cxx12_Lock_policyE2EE10_M_disposeEv:
.LFB12194:
	.cfi_startproc
	movq	16(%rdi), %r8
	leaq	32(%rdi), %rax
	cmpq	%rax, %r8
	je	.L39
	movq	32(%rdi), %rsi
	movq	%r8, %rdi
	addq	$1, %rsi
	jmp	_ZdlPvm@PLT
	.p2align 4,,10
	.p2align 3
.L39:
	ret
	.cfi_endproc
.LFE12194:
	.size	_ZNSt23_Sp_counted_ptr_inplaceIN7openpal6Logger8SettingsESaIS2_ELN9__gnu_cxx12_Lock_policyE2EE10_M_disposeEv, .-_ZNSt23_Sp_counted_ptr_inplaceIN7openpal6Logger8SettingsESaIS2_ELN9__gnu_cxx12_Lock_policyE2EE10_M_disposeEv
	.section	.text._ZN4asio6detail15task_io_service16shutdown_serviceEv,"axG",@progbits,_ZN4asio6detail15task_io_service16shutdown_serviceEv,comdat
	.align 2
	.p2align 4
	.weak	_ZN4asio6detail15task_io_service16shutdown_serviceEv
	.type	_ZN4asio6detail15task_io_service16shutdown_serviceEv, @function
_ZN4asio6detail15task_io_service16shutdown_serviceEv:
.LFB3500:
	.cfi_startproc
	pushq	%r13
	.cfi_def_cfa_offset 16
	.cfi_offset 13, -16
	pushq	%r12
	.cfi_def_cfa_offset 24
	.cfi_offset 12, -24
	pushq	%rbp
	.cfi_def_cfa_offset 32
	.cfi_offset 6, -32
	leaq	48(%rdi), %rbp
	pushq	%rbx
	.cfi_def_cfa_offset 40
	.cfi_offset 3, -40
	movq	%rdi, %rbx
	movq	%rbp, %rdi
	leaq	152(%rbx), %r12
	subq	$40, %rsp
	.cfi_def_cfa_offset 80
	movq	%fs:40, %rax
	movq	%rax, 24(%rsp)
	xorl	%eax, %eax
	call	pthread_mutex_lock@PLT
	movb	$1, 209(%rbx)
	movq	%rbp, %rdi
	call	pthread_mutex_unlock@PLT
.L47:
	movq	192(%rbx), %rbp
	jmp	.L46
	.p2align 4,,10
	.p2align 3
.L43:
	movq	$0, 0(%rbp)
	cmpq	%r12, %rbp
	jne	.L44
.L45:
	movq	%rax, %rbp
.L46:
	testq	%rbp, %rbp
	je	.L42
	movq	0(%rbp), %rax
	movq	%rax, 192(%rbx)
	testq	%rax, %rax
	jne	.L43
	movq	$0, 200(%rbx)
	movq	$0, 0(%rbp)
	cmpq	%r12, %rbp
	je	.L45
.L44:
	movl	$0, (%rsp)
	movq	8(%rbp), %r13
	call	_ZNSt3_V215system_categoryEv@PLT
	movq	%rsp, %rdx
	xorl	%ecx, %ecx
	movq	%rbp, %rsi
	movq	%rax, 8(%rsp)
	xorl	%edi, %edi
	call	*%r13
	jmp	.L47
	.p2align 4,,10
	.p2align 3
.L42:
	movq	$0, 144(%rbx)
	movq	24(%rsp), %rax
	subq	%fs:40, %rax
	jne	.L50
	addq	$40, %rsp
	.cfi_remember_state
	.cfi_def_cfa_offset 40
	popq	%rbx
	.cfi_def_cfa_offset 32
	popq	%rbp
	.cfi_def_cfa_offset 24
	popq	%r12
	.cfi_def_cfa_offset 16
	popq	%r13
	.cfi_def_cfa_offset 8
	ret
.L50:
	.cfi_restore_state
	call	__stack_chk_fail@PLT
	.cfi_endproc
.LFE3500:
	.size	_ZN4asio6detail15task_io_service16shutdown_serviceEv, .-_ZN4asio6detail15task_io_service16shutdown_serviceEv
	.section	.text._ZN4asio6detail15system_categoryD2Ev,"axG",@progbits,_ZN4asio6detail15system_categoryD5Ev,comdat
	.align 2
	.p2align 4
	.weak	_ZN4asio6detail15system_categoryD2Ev
	.type	_ZN4asio6detail15system_categoryD2Ev, @function
_ZN4asio6detail15system_categoryD2Ev:
.LFB12064:
	.cfi_startproc
	movq	_ZTVN4asio6detail15system_categoryE@GOTPCREL(%rip), %rax
	addq	$16, %rax
	movq	%rax, (%rdi)
	jmp	_ZNSt3_V214error_categoryD2Ev@PLT
	.cfi_endproc
.LFE12064:
	.size	_ZN4asio6detail15system_categoryD2Ev, .-_ZN4asio6detail15system_categoryD2Ev
	.weak	_ZN4asio6detail15system_categoryD1Ev
	.set	_ZN4asio6detail15system_categoryD1Ev,_ZN4asio6detail15system_categoryD2Ev
	.section	.text._ZN4asio6detail15system_categoryD0Ev,"axG",@progbits,_ZN4asio6detail15system_categoryD5Ev,comdat
	.align 2
	.p2align 4
	.weak	_ZN4asio6detail15system_categoryD0Ev
	.type	_ZN4asio6detail15system_categoryD0Ev, @function
_ZN4asio6detail15system_categoryD0Ev:
.LFB12066:
	.cfi_startproc
	movq	_ZTVN4asio6detail15system_categoryE@GOTPCREL(%rip), %rax
	pushq	%rbp
	.cfi_def_cfa_offset 16
	.cfi_offset 6, -16
	movq	%rdi, %rbp
	addq	$16, %rax
	movq	%rax, (%rdi)
	call	_ZNSt3_V214error_categoryD2Ev@PLT
	movq	%rbp, %rdi
	movl	$8, %esi
	popq	%rbp
	.cfi_def_cfa_offset 8
	jmp	_ZdlPvm@PLT
	.cfi_endproc
.LFE12066:
	.size	_ZN4asio6detail15system_categoryD0Ev, .-_ZN4asio6detail15system_categoryD0Ev
	.section	.text._ZN4asio5error6detail14netdb_categoryD2Ev,"axG",@progbits,_ZN4asio5error6detail14netdb_categoryD5Ev,comdat
	.align 2
	.p2align 4
	.weak	_ZN4asio5error6detail14netdb_categoryD2Ev
	.type	_ZN4asio5error6detail14netdb_categoryD2Ev, @function
_ZN4asio5error6detail14netdb_categoryD2Ev:
.LFB12052:
	.cfi_startproc
	movq	_ZTVN4asio5error6detail14netdb_categoryE@GOTPCREL(%rip), %rax
	addq	$16, %rax
	movq	%rax, (%rdi)
	jmp	_ZNSt3_V214error_categoryD2Ev@PLT
	.cfi_endproc
.LFE12052:
	.size	_ZN4asio5error6detail14netdb_categoryD2Ev, .-_ZN4asio5error6detail14netdb_categoryD2Ev
	.weak	_ZN4asio5error6detail14netdb_categoryD1Ev
	.set	_ZN4asio5error6detail14netdb_categoryD1Ev,_ZN4asio5error6detail14netdb_categoryD2Ev
	.section	.text._ZN4asio5error6detail14netdb_categoryD0Ev,"axG",@progbits,_ZN4asio5error6detail14netdb_categoryD5Ev,comdat
	.align 2
	.p2align 4
	.weak	_ZN4asio5error6detail14netdb_categoryD0Ev
	.type	_ZN4asio5error6detail14netdb_categoryD0Ev, @function
_ZN4asio5error6detail14netdb_categoryD0Ev:
.LFB12054:
	.cfi_startproc
	movq	_ZTVN4asio5error6detail14netdb_categoryE@GOTPCREL(%rip), %rax
	pushq	%rbp
	.cfi_def_cfa_offset 16
	.cfi_offset 6, -16
	movq	%rdi, %rbp
	addq	$16, %rax
	movq	%rax, (%rdi)
	call	_ZNSt3_V214error_categoryD2Ev@PLT
	movq	%rbp, %rdi
	movl	$8, %esi
	popq	%rbp
	.cfi_def_cfa_offset 8
	jmp	_ZdlPvm@PLT
	.cfi_endproc
.LFE12054:
	.size	_ZN4asio5error6detail14netdb_categoryD0Ev, .-_ZN4asio5error6detail14netdb_categoryD0Ev
	.section	.text._ZN4asio5error6detail17addrinfo_categoryD2Ev,"axG",@progbits,_ZN4asio5error6detail17addrinfo_categoryD5Ev,comdat
	.align 2
	.p2align 4
	.weak	_ZN4asio5error6detail17addrinfo_categoryD2Ev
	.type	_ZN4asio5error6detail17addrinfo_categoryD2Ev, @function
_ZN4asio5error6detail17addrinfo_categoryD2Ev:
.LFB12048:
	.cfi_startproc
	movq	_ZTVN4asio5error6detail17addrinfo_categoryE@GOTPCREL(%rip), %rax
	addq	$16, %rax
	movq	%rax, (%rdi)
	jmp	_ZNSt3_V214error_categoryD2Ev@PLT
	.cfi_endproc
.LFE12048:
	.size	_ZN4asio5error6detail17addrinfo_categoryD2Ev, .-_ZN4asio5error6detail17addrinfo_categoryD2Ev
	.weak	_ZN4asio5error6detail17addrinfo_categoryD1Ev
	.set	_ZN4asio5error6detail17addrinfo_categoryD1Ev,_ZN4asio5error6detail17addrinfo_categoryD2Ev
	.section	.text._ZN4asio5error6detail17addrinfo_categoryD0Ev,"axG",@progbits,_ZN4asio5error6detail17addrinfo_categoryD5Ev,comdat
	.align 2
	.p2align 4
	.weak	_ZN4asio5error6detail17addrinfo_categoryD0Ev
	.type	_ZN4asio5error6detail17addrinfo_categoryD0Ev, @function
_ZN4asio5error6detail17addrinfo_categoryD0Ev:
.LFB12050:
	.cfi_startproc
	movq	_ZTVN4asio5error6detail17addrinfo_categoryE@GOTPCREL(%rip), %rax
	pushq	%rbp
	.cfi_def_cfa_offset 16
	.cfi_offset 6, -16
	movq	%rdi, %rbp
	addq	$16, %rax
	movq	%rax, (%rdi)
	call	_ZNSt3_V214error_categoryD2Ev@PLT
	movq	%rbp, %rdi
	movl	$8, %esi
	popq	%rbp
	.cfi_def_cfa_offset 8
	jmp	_ZdlPvm@PLT
	.cfi_endproc
.LFE12050:
	.size	_ZN4asio5error6detail17addrinfo_categoryD0Ev, .-_ZN4asio5error6detail17addrinfo_categoryD0Ev
	.section	.text._ZN4asio5error6detail13misc_categoryD2Ev,"axG",@progbits,_ZN4asio5error6detail13misc_categoryD5Ev,comdat
	.align 2
	.p2align 4
	.weak	_ZN4asio5error6detail13misc_categoryD2Ev
	.type	_ZN4asio5error6detail13misc_categoryD2Ev, @function
_ZN4asio5error6detail13misc_categoryD2Ev:
.LFB12044:
	.cfi_startproc
	movq	_ZTVN4asio5error6detail13misc_categoryE@GOTPCREL(%rip), %rax
	addq	$16, %rax
	movq	%rax, (%rdi)
	jmp	_ZNSt3_V214error_categoryD2Ev@PLT
	.cfi_endproc
.LFE12044:
	.size	_ZN4asio5error6detail13misc_categoryD2Ev, .-_ZN4asio5error6detail13misc_categoryD2Ev
	.weak	_ZN4asio5error6detail13misc_categoryD1Ev
	.set	_ZN4asio5error6detail13misc_categoryD1Ev,_ZN4asio5error6detail13misc_categoryD2Ev
	.section	.text._ZN4asio5error6detail13misc_categoryD0Ev,"axG",@progbits,_ZN4asio5error6detail13misc_categoryD5Ev,comdat
	.align 2
	.p2align 4
	.weak	_ZN4asio5error6detail13misc_categoryD0Ev
	.type	_ZN4asio5error6detail13misc_categoryD0Ev, @function
_ZN4asio5error6detail13misc_categoryD0Ev:
.LFB12046:
	.cfi_startproc
	movq	_ZTVN4asio5error6detail13misc_categoryE@GOTPCREL(%rip), %rax
	pushq	%rbp
	.cfi_def_cfa_offset 16
	.cfi_offset 6, -16
	movq	%rdi, %rbp
	addq	$16, %rax
	movq	%rax, (%rdi)
	call	_ZNSt3_V214error_categoryD2Ev@PLT
	movq	%rbp, %rdi
	movl	$8, %esi
	popq	%rbp
	.cfi_def_cfa_offset 8
	jmp	_ZdlPvm@PLT
	.cfi_endproc
.LFE12046:
	.size	_ZN4asio5error6detail13misc_categoryD0Ev, .-_ZN4asio5error6detail13misc_categoryD0Ev
	.section	.text._ZNSt23_Sp_counted_ptr_inplaceIN8asiodnp311DNP3ChannelESaIS1_ELN9__gnu_cxx12_Lock_policyE2EE14_M_get_deleterERKSt9type_info,"axG",@progbits,_ZNSt23_Sp_counted_ptr_inplaceIN8asiodnp311DNP3ChannelESaIS1_ELN9__gnu_cxx12_Lock_policyE2EE14_M_get_deleterERKSt9type_info,comdat
	.align 2
	.p2align 4
	.weak	_ZNSt23_Sp_counted_ptr_inplaceIN8asiodnp311DNP3ChannelESaIS1_ELN9__gnu_cxx12_Lock_policyE2EE14_M_get_deleterERKSt9type_info
	.type	_ZNSt23_Sp_counted_ptr_inplaceIN8asiodnp311DNP3ChannelESaIS1_ELN9__gnu_cxx12_Lock_policyE2EE14_M_get_deleterERKSt9type_info, @function
_ZNSt23_Sp_counted_ptr_inplaceIN8asiodnp311DNP3ChannelESaIS1_ELN9__gnu_cxx12_Lock_policyE2EE14_M_get_deleterERKSt9type_info:
.LFB12154:
	.cfi_startproc
	cmpq	_ZZNSt19_Sp_make_shared_tag5_S_tiEvE5__tag@GOTPCREL(%rip), %rsi
	pushq	%r12
	.cfi_def_cfa_offset 16
	.cfi_offset 12, -16
	leaq	16(%rdi), %r12
	je	.L63
	movq	8(%rsi), %rdi
	movq	_ZTSSt19_Sp_make_shared_tag@GOTPCREL(%rip), %rsi
	cmpq	%rsi, %rdi
	je	.L63
	cmpb	$42, (%rdi)
	je	.L65
	call	strcmp@PLT
	testl	%eax, %eax
	movl	$0, %eax
	cmovne	%rax, %r12
.L63:
	movq	%r12, %rax
	popq	%r12
	.cfi_remember_state
	.cfi_def_cfa_offset 8
	ret
	.p2align 4,,10
	.p2align 3
.L65:
	.cfi_restore_state
	xorl	%r12d, %r12d
	movq	%r12, %rax
	popq	%r12
	.cfi_def_cfa_offset 8
	ret
	.cfi_endproc
.LFE12154:
	.size	_ZNSt23_Sp_counted_ptr_inplaceIN8asiodnp311DNP3ChannelESaIS1_ELN9__gnu_cxx12_Lock_policyE2EE14_M_get_deleterERKSt9type_info, .-_ZNSt23_Sp_counted_ptr_inplaceIN8asiodnp311DNP3ChannelESaIS1_ELN9__gnu_cxx12_Lock_policyE2EE14_M_get_deleterERKSt9type_info
	.section	.text._ZNSt23_Sp_counted_ptr_inplaceIN7asiopal2IOESaIS1_ELN9__gnu_cxx12_Lock_policyE2EE10_M_disposeEv,"axG",@progbits,_ZNSt23_Sp_counted_ptr_inplaceIN7asiopal2IOESaIS1_ELN9__gnu_cxx12_Lock_policyE2EE10_M_disposeEv,comdat
	.align 2
	.p2align 4
	.weak	_ZNSt23_Sp_counted_ptr_inplaceIN7asiopal2IOESaIS1_ELN9__gnu_cxx12_Lock_policyE2EE10_M_disposeEv
	.type	_ZNSt23_Sp_counted_ptr_inplaceIN7asiopal2IOESaIS1_ELN9__gnu_cxx12_Lock_policyE2EE10_M_disposeEv, @function
_ZNSt23_Sp_counted_ptr_inplaceIN7asiopal2IOESaIS1_ELN9__gnu_cxx12_Lock_policyE2EE10_M_disposeEv:
.LFB12103:
	.cfi_startproc
	.cfi_personality 0x9b,DW.ref.__gxx_personality_v0
	.cfi_lsda 0x1b,.LLSDA12103
	movq	16(%rdi), %rax
	movq	(%rax), %rax
	cmpq	_ZN7asiopal2IOD2Ev@GOTPCREL(%rip), %rax
	jne	.L69
	pushq	%rbp
	.cfi_def_cfa_offset 16
	.cfi_offset 6, -16
	pushq	%rbx
	.cfi_def_cfa_offset 24
	.cfi_offset 3, -24
	subq	$8, %rsp
	.cfi_def_cfa_offset 32
	movq	_ZTVN7asiopal2IOE@GOTPCREL(%rip), %rax
	movq	24(%rdi), %rbp
	addq	$16, %rax
	movq	%rax, 16(%rdi)
	testq	%rbp, %rbp
	je	.L68
	movq	56(%rbp), %rbx
	testq	%rbx, %rbx
	je	.L71
	.p2align 4,,10
	.p2align 3
.L72:
	movq	(%rbx), %rax
	movq	%rbx, %rdi
	call	*16(%rax)
	movq	32(%rbx), %rbx
	testq	%rbx, %rbx
	jne	.L72
	movq	56(%rbp), %rbx
	testq	%rbx, %rbx
	je	.L71
	.p2align 4,,10
	.p2align 3
.L73:
	movq	%rbx, %rdi
	movq	32(%rbx), %rbx
	movq	(%rdi), %rax
	call	*8(%rax)
	movq	%rbx, 56(%rbp)
	testq	%rbx, %rbx
	jne	.L73
.L71:
	leaq	8(%rbp), %rdi
	call	pthread_mutex_destroy@PLT
	addq	$8, %rsp
	.cfi_remember_state
	.cfi_def_cfa_offset 24
	movq	%rbp, %rdi
	movl	$64, %esi
	popq	%rbx
	.cfi_restore 3
	.cfi_def_cfa_offset 16
	popq	%rbp
	.cfi_restore 6
	.cfi_def_cfa_offset 8
	jmp	_ZdlPvm@PLT
	.p2align 4,,10
	.p2align 3
.L68:
	.cfi_restore_state
	addq	$8, %rsp
	.cfi_def_cfa_offset 24
	popq	%rbx
	.cfi_def_cfa_offset 16
	popq	%rbp
	.cfi_def_cfa_offset 8
	ret
	.p2align 4,,10
	.p2align 3
.L69:
	.cfi_restore 3
	.cfi_restore 6
	leaq	16(%rdi), %r8
	movq	%r8, %rdi
	jmp	*%rax
	.cfi_endproc
.LFE12103:
	.globl	__gxx_personality_v0
	.section	.gcc_except_table._ZNSt23_Sp_counted_ptr_inplaceIN7asiopal2IOESaIS1_ELN9__gnu_cxx12_Lock_policyE2EE10_M_disposeEv,"aG",@progbits,_ZNSt23_Sp_counted_ptr_inplaceIN7asiopal2IOESaIS1_ELN9__gnu_cxx12_Lock_policyE2EE10_M_disposeEv,comdat
.LLSDA12103:
	.byte	0xff
	.byte	0xff
	.byte	0x1
	.uleb128 .LLSDACSE12103-.LLSDACSB12103
.LLSDACSB12103:
.LLSDACSE12103:
	.section	.text._ZNSt23_Sp_counted_ptr_inplaceIN7asiopal2IOESaIS1_ELN9__gnu_cxx12_Lock_policyE2EE10_M_disposeEv,"axG",@progbits,_ZNSt23_Sp_counted_ptr_inplaceIN7asiopal2IOESaIS1_ELN9__gnu_cxx12_Lock_policyE2EE10_M_disposeEv,comdat
	.size	_ZNSt23_Sp_counted_ptr_inplaceIN7asiopal2IOESaIS1_ELN9__gnu_cxx12_Lock_policyE2EE10_M_disposeEv, .-_ZNSt23_Sp_counted_ptr_inplaceIN7asiopal2IOESaIS1_ELN9__gnu_cxx12_Lock_policyE2EE10_M_disposeEv
	.section	.text._ZN4asio6detail15task_io_serviceD2Ev,"axG",@progbits,_ZN4asio6detail15task_io_serviceD5Ev,comdat
	.align 2
	.p2align 4
	.weak	_ZN4asio6detail15task_io_serviceD2Ev
	.type	_ZN4asio6detail15task_io_serviceD2Ev, @function
_ZN4asio6detail15task_io_serviceD2Ev:
.LFB12040:
	.cfi_startproc
	.cfi_personality 0x9b,DW.ref.__gxx_personality_v0
	.cfi_lsda 0x1b,.LLSDA12040
	pushq	%r12
	.cfi_def_cfa_offset 16
	.cfi_offset 12, -16
	pushq	%rbp
	.cfi_def_cfa_offset 24
	.cfi_offset 6, -24
	pushq	%rbx
	.cfi_def_cfa_offset 32
	.cfi_offset 3, -32
	movq	%rdi, %rbx
	subq	$48, %rsp
	.cfi_def_cfa_offset 80
	movq	192(%rdi), %rsi
	movq	%fs:40, %rax
	movq	%rax, 40(%rsp)
	movq	_ZTVN4asio6detail15task_io_serviceE@GOTPCREL(%rip), %rax
	movq	%rsi, 8(%rsp)
	addq	$16, %rax
	testq	%rsi, %rsi
	movq	%rax, (%rdi)
	je	.L87
	call	_ZNSt3_V215system_categoryEv@PLT
	leaq	16(%rsp), %r12
	movq	8(%rsp), %rsi
	movq	%rax, %rbp
	jmp	.L90
	.p2align 4,,10
	.p2align 3
.L88:
	movq	$0, (%rsi)
	movq	8(%rsi), %rax
	xorl	%ecx, %ecx
	movq	%r12, %rdx
	movl	$0, 16(%rsp)
	xorl	%edi, %edi
	movq	%rbp, 24(%rsp)
	call	*%rax
	movq	192(%rbx), %rsi
	testq	%rsi, %rsi
	je	.L87
.L90:
	movq	(%rsi), %rax
	movq	%rax, 192(%rbx)
	testq	%rax, %rax
	jne	.L88
	movq	$0, 200(%rbx)
	jmp	.L88
	.p2align 4,,10
	.p2align 3
.L87:
	leaq	88(%rbx), %rdi
	call	pthread_cond_destroy@PLT
	movq	40(%rsp), %rax
	subq	%fs:40, %rax
	jne	.L104
	addq	$48, %rsp
	.cfi_remember_state
	.cfi_def_cfa_offset 32
	leaq	48(%rbx), %rdi
	popq	%rbx
	.cfi_def_cfa_offset 24
	popq	%rbp
	.cfi_def_cfa_offset 16
	popq	%r12
	.cfi_def_cfa_offset 8
	jmp	pthread_mutex_destroy@PLT
.L104:
	.cfi_restore_state
	call	__stack_chk_fail@PLT
	.cfi_endproc
.LFE12040:
	.section	.gcc_except_table._ZN4asio6detail15task_io_serviceD2Ev,"aG",@progbits,_ZN4asio6detail15task_io_serviceD5Ev,comdat
.LLSDA12040:
	.byte	0xff
	.byte	0xff
	.byte	0x1
	.uleb128 .LLSDACSE12040-.LLSDACSB12040
.LLSDACSB12040:
.LLSDACSE12040:
	.section	.text._ZN4asio6detail15task_io_serviceD2Ev,"axG",@progbits,_ZN4asio6detail15task_io_serviceD5Ev,comdat
	.size	_ZN4asio6detail15task_io_serviceD2Ev, .-_ZN4asio6detail15task_io_serviceD2Ev
	.weak	_ZN4asio6detail15task_io_serviceD1Ev
	.set	_ZN4asio6detail15task_io_serviceD1Ev,_ZN4asio6detail15task_io_serviceD2Ev
	.section	.text._ZN7asiopal2IOD2Ev,"axG",@progbits,_ZN7asiopal2IOD5Ev,comdat
	.align 2
	.p2align 4
	.weak	_ZN7asiopal2IOD2Ev
	.type	_ZN7asiopal2IOD2Ev, @function
_ZN7asiopal2IOD2Ev:
.LFB6533:
	.cfi_startproc
	.cfi_personality 0x9b,DW.ref.__gxx_personality_v0
	.cfi_lsda 0x1b,.LLSDA6533
	pushq	%rbp
	.cfi_def_cfa_offset 16
	.cfi_offset 6, -16
	pushq	%rbx
	.cfi_def_cfa_offset 24
	.cfi_offset 3, -24
	subq	$8, %rsp
	.cfi_def_cfa_offset 32
	movq	_ZTVN7asiopal2IOE@GOTPCREL(%rip), %rax
	movq	8(%rdi), %rbp
	addq	$16, %rax
	movq	%rax, (%rdi)
	testq	%rbp, %rbp
	je	.L105
	movq	56(%rbp), %rbx
	testq	%rbx, %rbx
	je	.L107
	.p2align 4,,10
	.p2align 3
.L108:
	movq	(%rbx), %rax
	movq	%rbx, %rdi
	call	*16(%rax)
	movq	32(%rbx), %rbx
	testq	%rbx, %rbx
	jne	.L108
	movq	56(%rbp), %rbx
	testq	%rbx, %rbx
	je	.L107
	.p2align 4,,10
	.p2align 3
.L109:
	movq	%rbx, %rdi
	movq	32(%rbx), %rbx
	movq	(%rdi), %rax
	call	*8(%rax)
	movq	%rbx, 56(%rbp)
	testq	%rbx, %rbx
	jne	.L109
.L107:
	leaq	8(%rbp), %rdi
	call	pthread_mutex_destroy@PLT
	addq	$8, %rsp
	.cfi_remember_state
	.cfi_def_cfa_offset 24
	movq	%rbp, %rdi
	movl	$64, %esi
	popq	%rbx
	.cfi_def_cfa_offset 16
	popq	%rbp
	.cfi_def_cfa_offset 8
	jmp	_ZdlPvm@PLT
	.p2align 4,,10
	.p2align 3
.L105:
	.cfi_restore_state
	addq	$8, %rsp
	.cfi_def_cfa_offset 24
	popq	%rbx
	.cfi_def_cfa_offset 16
	popq	%rbp
	.cfi_def_cfa_offset 8
	ret
	.cfi_endproc
.LFE6533:
	.section	.gcc_except_table._ZN7asiopal2IOD2Ev,"aG",@progbits,_ZN7asiopal2IOD5Ev,comdat
.LLSDA6533:
	.byte	0xff
	.byte	0xff
	.byte	0x1
	.uleb128 .LLSDACSE6533-.LLSDACSB6533
.LLSDACSB6533:
.LLSDACSE6533:
	.section	.text._ZN7asiopal2IOD2Ev,"axG",@progbits,_ZN7asiopal2IOD5Ev,comdat
	.size	_ZN7asiopal2IOD2Ev, .-_ZN7asiopal2IOD2Ev
	.weak	_ZN7asiopal2IOD1Ev
	.set	_ZN7asiopal2IOD1Ev,_ZN7asiopal2IOD2Ev
	.section	.text._ZN4asio6detail15task_io_serviceD0Ev,"axG",@progbits,_ZN4asio6detail15task_io_serviceD5Ev,comdat
	.align 2
	.p2align 4
	.weak	_ZN4asio6detail15task_io_serviceD0Ev
	.type	_ZN4asio6detail15task_io_serviceD0Ev, @function
_ZN4asio6detail15task_io_serviceD0Ev:
.LFB12042:
	.cfi_startproc
	.cfi_personality 0x9b,DW.ref.__gxx_personality_v0
	.cfi_lsda 0x1b,.LLSDA12042
	pushq	%r12
	.cfi_def_cfa_offset 16
	.cfi_offset 12, -16
	pushq	%rbp
	.cfi_def_cfa_offset 24
	.cfi_offset 6, -24
	movq	%rdi, %rbp
	pushq	%rbx
	.cfi_def_cfa_offset 32
	.cfi_offset 3, -32
	subq	$48, %rsp
	.cfi_def_cfa_offset 80
	movq	192(%rdi), %rsi
	movq	%fs:40, %rax
	movq	%rax, 40(%rsp)
	movq	_ZTVN4asio6detail15task_io_serviceE@GOTPCREL(%rip), %rax
	movq	%rsi, 8(%rsp)
	addq	$16, %rax
	testq	%rsi, %rsi
	movq	%rax, (%rdi)
	je	.L120
	call	_ZNSt3_V215system_categoryEv@PLT
	leaq	16(%rsp), %r12
	movq	8(%rsp), %rsi
	movq	%rax, %rbx
	jmp	.L123
	.p2align 4,,10
	.p2align 3
.L121:
	movq	$0, (%rsi)
	movq	8(%rsi), %rax
	xorl	%ecx, %ecx
	movq	%r12, %rdx
	movl	$0, 16(%rsp)
	xorl	%edi, %edi
	movq	%rbx, 24(%rsp)
	call	*%rax
	movq	192(%rbp), %rsi
	testq	%rsi, %rsi
	je	.L120
.L123:
	movq	(%rsi), %rax
	movq	%rax, 192(%rbp)
	testq	%rax, %rax
	jne	.L121
	movq	$0, 200(%rbp)
	jmp	.L121
	.p2align 4,,10
	.p2align 3
.L120:
	leaq	88(%rbp), %rdi
	call	pthread_cond_destroy@PLT
	leaq	48(%rbp), %rdi
	call	pthread_mutex_destroy@PLT
	movq	40(%rsp), %rax
	subq	%fs:40, %rax
	jne	.L137
	addq	$48, %rsp
	.cfi_remember_state
	.cfi_def_cfa_offset 32
	movq	%rbp, %rdi
	movl	$216, %esi
	popq	%rbx
	.cfi_def_cfa_offset 24
	popq	%rbp
	.cfi_def_cfa_offset 16
	popq	%r12
	.cfi_def_cfa_offset 8
	jmp	_ZdlPvm@PLT
.L137:
	.cfi_restore_state
	call	__stack_chk_fail@PLT
	.cfi_endproc
.LFE12042:
	.section	.gcc_except_table._ZN4asio6detail15task_io_serviceD0Ev,"aG",@progbits,_ZN4asio6detail15task_io_serviceD5Ev,comdat
.LLSDA12042:
	.byte	0xff
	.byte	0xff
	.byte	0x1
	.uleb128 .LLSDACSE12042-.LLSDACSB12042
.LLSDACSB12042:
.LLSDACSE12042:
	.section	.text._ZN4asio6detail15task_io_serviceD0Ev,"axG",@progbits,_ZN4asio6detail15task_io_serviceD5Ev,comdat
	.size	_ZN4asio6detail15task_io_serviceD0Ev, .-_ZN4asio6detail15task_io_serviceD0Ev
	.section	.text._ZN7asiopal2IOD0Ev,"axG",@progbits,_ZN7asiopal2IOD5Ev,comdat
	.align 2
	.p2align 4
	.weak	_ZN7asiopal2IOD0Ev
	.type	_ZN7asiopal2IOD0Ev, @function
_ZN7asiopal2IOD0Ev:
.LFB6535:
	.cfi_startproc
	.cfi_personality 0x9b,DW.ref.__gxx_personality_v0
	.cfi_lsda 0x1b,.LLSDA6535
	movq	_ZTVN7asiopal2IOE@GOTPCREL(%rip), %rax
	pushq	%r12
	.cfi_def_cfa_offset 16
	.cfi_offset 12, -16
	movq	%rdi, %r12
	pushq	%rbp
	.cfi_def_cfa_offset 24
	.cfi_offset 6, -24
	pushq	%rbx
	.cfi_def_cfa_offset 32
	.cfi_offset 3, -32
	movq	8(%rdi), %rbp
	addq	$16, %rax
	movq	%rax, (%rdi)
	testq	%rbp, %rbp
	je	.L139
	movq	56(%rbp), %rbx
	testq	%rbx, %rbx
	je	.L140
	.p2align 4,,10
	.p2align 3
.L141:
	movq	(%rbx), %rax
	movq	%rbx, %rdi
	call	*16(%rax)
	movq	32(%rbx), %rbx
	testq	%rbx, %rbx
	jne	.L141
	movq	56(%rbp), %rbx
	testq	%rbx, %rbx
	je	.L140
	.p2align 4,,10
	.p2align 3
.L142:
	movq	%rbx, %rdi
	movq	32(%rbx), %rbx
	movq	(%rdi), %rax
	call	*8(%rax)
	movq	%rbx, 56(%rbp)
	testq	%rbx, %rbx
	jne	.L142
.L140:
	leaq	8(%rbp), %rdi
	call	pthread_mutex_destroy@PLT
	movl	$64, %esi
	movq	%rbp, %rdi
	call	_ZdlPvm@PLT
.L139:
	popq	%rbx
	.cfi_def_cfa_offset 24
	movq	%r12, %rdi
	popq	%rbp
	.cfi_def_cfa_offset 16
	movl	$24, %esi
	popq	%r12
	.cfi_def_cfa_offset 8
	jmp	_ZdlPvm@PLT
	.cfi_endproc
.LFE6535:
	.section	.gcc_except_table._ZN7asiopal2IOD0Ev,"aG",@progbits,_ZN7asiopal2IOD5Ev,comdat
.LLSDA6535:
	.byte	0xff
	.byte	0xff
	.byte	0x1
	.uleb128 .LLSDACSE6535-.LLSDACSB6535
.LLSDACSB6535:
.LLSDACSE6535:
	.section	.text._ZN7asiopal2IOD0Ev,"axG",@progbits,_ZN7asiopal2IOD5Ev,comdat
	.size	_ZN7asiopal2IOD0Ev, .-_ZN7asiopal2IOD0Ev
	.section	.text._ZNSt23_Sp_counted_ptr_inplaceIN7asiopal8ExecutorESaIS1_ELN9__gnu_cxx12_Lock_policyE2EE14_M_get_deleterERKSt9type_info,"axG",@progbits,_ZNSt23_Sp_counted_ptr_inplaceIN7asiopal8ExecutorESaIS1_ELN9__gnu_cxx12_Lock_policyE2EE14_M_get_deleterERKSt9type_info,comdat
	.align 2
	.p2align 4
	.weak	_ZNSt23_Sp_counted_ptr_inplaceIN7asiopal8ExecutorESaIS1_ELN9__gnu_cxx12_Lock_policyE2EE14_M_get_deleterERKSt9type_info
	.type	_ZNSt23_Sp_counted_ptr_inplaceIN7asiopal8ExecutorESaIS1_ELN9__gnu_cxx12_Lock_policyE2EE14_M_get_deleterERKSt9type_info, @function
_ZNSt23_Sp_counted_ptr_inplaceIN7asiopal8ExecutorESaIS1_ELN9__gnu_cxx12_Lock_policyE2EE14_M_get_deleterERKSt9type_info:
.LFB12175:
	.cfi_startproc
	cmpq	_ZZNSt19_Sp_make_shared_tag5_S_tiEvE5__tag@GOTPCREL(%rip), %rsi
	pushq	%r12
	.cfi_def_cfa_offset 16
	.cfi_offset 12, -16
	leaq	16(%rdi), %r12
	je	.L155
	movq	8(%rsi), %rdi
	movq	_ZTSSt19_Sp_make_shared_tag@GOTPCREL(%rip), %rsi
	cmpq	%rsi, %rdi
	je	.L155
	cmpb	$42, (%rdi)
	je	.L157
	call	strcmp@PLT
	testl	%eax, %eax
	movl	$0, %eax
	cmovne	%rax, %r12
.L155:
	movq	%r12, %rax
	popq	%r12
	.cfi_remember_state
	.cfi_def_cfa_offset 8
	ret
	.p2align 4,,10
	.p2align 3
.L157:
	.cfi_restore_state
	xorl	%r12d, %r12d
	movq	%r12, %rax
	popq	%r12
	.cfi_def_cfa_offset 8
	ret
	.cfi_endproc
.LFE12175:
	.size	_ZNSt23_Sp_counted_ptr_inplaceIN7asiopal8ExecutorESaIS1_ELN9__gnu_cxx12_Lock_policyE2EE14_M_get_deleterERKSt9type_info, .-_ZNSt23_Sp_counted_ptr_inplaceIN7asiopal8ExecutorESaIS1_ELN9__gnu_cxx12_Lock_policyE2EE14_M_get_deleterERKSt9type_info
	.section	.text._ZNSt23_Sp_counted_ptr_inplaceIN7openpal6Logger8SettingsESaIS2_ELN9__gnu_cxx12_Lock_policyE2EE14_M_get_deleterERKSt9type_info,"axG",@progbits,_ZNSt23_Sp_counted_ptr_inplaceIN7openpal6Logger8SettingsESaIS2_ELN9__gnu_cxx12_Lock_policyE2EE14_M_get_deleterERKSt9type_info,comdat
	.align 2
	.p2align 4
	.weak	_ZNSt23_Sp_counted_ptr_inplaceIN7openpal6Logger8SettingsESaIS2_ELN9__gnu_cxx12_Lock_policyE2EE14_M_get_deleterERKSt9type_info
	.type	_ZNSt23_Sp_counted_ptr_inplaceIN7openpal6Logger8SettingsESaIS2_ELN9__gnu_cxx12_Lock_policyE2EE14_M_get_deleterERKSt9type_info, @function
_ZNSt23_Sp_counted_ptr_inplaceIN7openpal6Logger8SettingsESaIS2_ELN9__gnu_cxx12_Lock_policyE2EE14_M_get_deleterERKSt9type_info:
.LFB12196:
	.cfi_startproc
	cmpq	_ZZNSt19_Sp_make_shared_tag5_S_tiEvE5__tag@GOTPCREL(%rip), %rsi
	pushq	%r12
	.cfi_def_cfa_offset 16
	.cfi_offset 12, -16
	leaq	16(%rdi), %r12
	je	.L160
	movq	8(%rsi), %rdi
	movq	_ZTSSt19_Sp_make_shared_tag@GOTPCREL(%rip), %rsi
	cmpq	%rsi, %rdi
	je	.L160
	cmpb	$42, (%rdi)
	je	.L162
	call	strcmp@PLT
	testl	%eax, %eax
	movl	$0, %eax
	cmovne	%rax, %r12
.L160:
	movq	%r12, %rax
	popq	%r12
	.cfi_remember_state
	.cfi_def_cfa_offset 8
	ret
	.p2align 4,,10
	.p2align 3
.L162:
	.cfi_restore_state
	xorl	%r12d, %r12d
	movq	%r12, %rax
	popq	%r12
	.cfi_def_cfa_offset 8
	ret
	.cfi_endproc
.LFE12196:
	.size	_ZNSt23_Sp_counted_ptr_inplaceIN7openpal6Logger8SettingsESaIS2_ELN9__gnu_cxx12_Lock_policyE2EE14_M_get_deleterERKSt9type_info, .-_ZNSt23_Sp_counted_ptr_inplaceIN7openpal6Logger8SettingsESaIS2_ELN9__gnu_cxx12_Lock_policyE2EE14_M_get_deleterERKSt9type_info
	.section	.text._ZNSt23_Sp_counted_ptr_inplaceIN7asiopal2IOESaIS1_ELN9__gnu_cxx12_Lock_policyE2EE14_M_get_deleterERKSt9type_info,"axG",@progbits,_ZNSt23_Sp_counted_ptr_inplaceIN7asiopal2IOESaIS1_ELN9__gnu_cxx12_Lock_policyE2EE14_M_get_deleterERKSt9type_info,comdat
	.align 2
	.p2align 4
	.weak	_ZNSt23_Sp_counted_ptr_inplaceIN7asiopal2IOESaIS1_ELN9__gnu_cxx12_Lock_policyE2EE14_M_get_deleterERKSt9type_info
	.type	_ZNSt23_Sp_counted_ptr_inplaceIN7asiopal2IOESaIS1_ELN9__gnu_cxx12_Lock_policyE2EE14_M_get_deleterERKSt9type_info, @function
_ZNSt23_Sp_counted_ptr_inplaceIN7asiopal2IOESaIS1_ELN9__gnu_cxx12_Lock_policyE2EE14_M_get_deleterERKSt9type_info:
.LFB12105:
	.cfi_startproc
	cmpq	_ZZNSt19_Sp_make_shared_tag5_S_tiEvE5__tag@GOTPCREL(%rip), %rsi
	pushq	%r12
	.cfi_def_cfa_offset 16
	.cfi_offset 12, -16
	leaq	16(%rdi), %r12
	je	.L165
	movq	8(%rsi), %rdi
	movq	_ZTSSt19_Sp_make_shared_tag@GOTPCREL(%rip), %rsi
	cmpq	%rsi, %rdi
	je	.L165
	cmpb	$42, (%rdi)
	je	.L167
	call	strcmp@PLT
	testl	%eax, %eax
	movl	$0, %eax
	cmovne	%rax, %r12
.L165:
	movq	%r12, %rax
	popq	%r12
	.cfi_remember_state
	.cfi_def_cfa_offset 8
	ret
	.p2align 4,,10
	.p2align 3
.L167:
	.cfi_restore_state
	xorl	%r12d, %r12d
	movq	%r12, %rax
	popq	%r12
	.cfi_def_cfa_offset 8
	ret
	.cfi_endproc
.LFE12105:
	.size	_ZNSt23_Sp_counted_ptr_inplaceIN7asiopal2IOESaIS1_ELN9__gnu_cxx12_Lock_policyE2EE14_M_get_deleterERKSt9type_info, .-_ZNSt23_Sp_counted_ptr_inplaceIN7asiopal2IOESaIS1_ELN9__gnu_cxx12_Lock_policyE2EE14_M_get_deleterERKSt9type_info
	.section	.text._ZNSt23_Sp_counted_ptr_inplaceIN8asiodnp315SerialIOHandlerESaIS1_ELN9__gnu_cxx12_Lock_policyE2EE14_M_get_deleterERKSt9type_info,"axG",@progbits,_ZNSt23_Sp_counted_ptr_inplaceIN8asiodnp315SerialIOHandlerESaIS1_ELN9__gnu_cxx12_Lock_policyE2EE14_M_get_deleterERKSt9type_info,comdat
	.align 2
	.p2align 4
	.weak	_ZNSt23_Sp_counted_ptr_inplaceIN8asiodnp315SerialIOHandlerESaIS1_ELN9__gnu_cxx12_Lock_policyE2EE14_M_get_deleterERKSt9type_info
	.type	_ZNSt23_Sp_counted_ptr_inplaceIN8asiodnp315SerialIOHandlerESaIS1_ELN9__gnu_cxx12_Lock_policyE2EE14_M_get_deleterERKSt9type_info, @function
_ZNSt23_Sp_counted_ptr_inplaceIN8asiodnp315SerialIOHandlerESaIS1_ELN9__gnu_cxx12_Lock_policyE2EE14_M_get_deleterERKSt9type_info:
.LFB12112:
	.cfi_startproc
	cmpq	_ZZNSt19_Sp_make_shared_tag5_S_tiEvE5__tag@GOTPCREL(%rip), %rsi
	pushq	%r12
	.cfi_def_cfa_offset 16
	.cfi_offset 12, -16
	leaq	16(%rdi), %r12
	je	.L170
	movq	8(%rsi), %rdi
	movq	_ZTSSt19_Sp_make_shared_tag@GOTPCREL(%rip), %rsi
	cmpq	%rsi, %rdi
	je	.L170
	cmpb	$42, (%rdi)
	je	.L172
	call	strcmp@PLT
	testl	%eax, %eax
	movl	$0, %eax
	cmovne	%rax, %r12
.L170:
	movq	%r12, %rax
	popq	%r12
	.cfi_remember_state
	.cfi_def_cfa_offset 8
	ret
	.p2align 4,,10
	.p2align 3
.L172:
	.cfi_restore_state
	xorl	%r12d, %r12d
	movq	%r12, %rax
	popq	%r12
	.cfi_def_cfa_offset 8
	ret
	.cfi_endproc
.LFE12112:
	.size	_ZNSt23_Sp_counted_ptr_inplaceIN8asiodnp315SerialIOHandlerESaIS1_ELN9__gnu_cxx12_Lock_policyE2EE14_M_get_deleterERKSt9type_info, .-_ZNSt23_Sp_counted_ptr_inplaceIN8asiodnp315SerialIOHandlerESaIS1_ELN9__gnu_cxx12_Lock_policyE2EE14_M_get_deleterERKSt9type_info
	.section	.text._ZNSt23_Sp_counted_ptr_inplaceIN7asiopal15ResourceManagerESaIS1_ELN9__gnu_cxx12_Lock_policyE2EE14_M_get_deleterERKSt9type_info,"axG",@progbits,_ZNSt23_Sp_counted_ptr_inplaceIN7asiopal15ResourceManagerESaIS1_ELN9__gnu_cxx12_Lock_policyE2EE14_M_get_deleterERKSt9type_info,comdat
	.align 2
	.p2align 4
	.weak	_ZNSt23_Sp_counted_ptr_inplaceIN7asiopal15ResourceManagerESaIS1_ELN9__gnu_cxx12_Lock_policyE2EE14_M_get_deleterERKSt9type_info
	.type	_ZNSt23_Sp_counted_ptr_inplaceIN7asiopal15ResourceManagerESaIS1_ELN9__gnu_cxx12_Lock_policyE2EE14_M_get_deleterERKSt9type_info, @function
_ZNSt23_Sp_counted_ptr_inplaceIN7asiopal15ResourceManagerESaIS1_ELN9__gnu_cxx12_Lock_policyE2EE14_M_get_deleterERKSt9type_info:
.LFB12168:
	.cfi_startproc
	cmpq	_ZZNSt19_Sp_make_shared_tag5_S_tiEvE5__tag@GOTPCREL(%rip), %rsi
	pushq	%r12
	.cfi_def_cfa_offset 16
	.cfi_offset 12, -16
	leaq	16(%rdi), %r12
	je	.L175
	movq	8(%rsi), %rdi
	movq	_ZTSSt19_Sp_make_shared_tag@GOTPCREL(%rip), %rsi
	cmpq	%rsi, %rdi
	je	.L175
	cmpb	$42, (%rdi)
	je	.L177
	call	strcmp@PLT
	testl	%eax, %eax
	movl	$0, %eax
	cmovne	%rax, %r12
.L175:
	movq	%r12, %rax
	popq	%r12
	.cfi_remember_state
	.cfi_def_cfa_offset 8
	ret
	.p2align 4,,10
	.p2align 3
.L177:
	.cfi_restore_state
	xorl	%r12d, %r12d
	movq	%r12, %rax
	popq	%r12
	.cfi_def_cfa_offset 8
	ret
	.cfi_endproc
.LFE12168:
	.size	_ZNSt23_Sp_counted_ptr_inplaceIN7asiopal15ResourceManagerESaIS1_ELN9__gnu_cxx12_Lock_policyE2EE14_M_get_deleterERKSt9type_info, .-_ZNSt23_Sp_counted_ptr_inplaceIN7asiopal15ResourceManagerESaIS1_ELN9__gnu_cxx12_Lock_policyE2EE14_M_get_deleterERKSt9type_info
	.section	.text._ZNSt23_Sp_counted_ptr_inplaceIN8asiodnp318TCPServerIOHandlerESaIS1_ELN9__gnu_cxx12_Lock_policyE2EE14_M_get_deleterERKSt9type_info,"axG",@progbits,_ZNSt23_Sp_counted_ptr_inplaceIN8asiodnp318TCPServerIOHandlerESaIS1_ELN9__gnu_cxx12_Lock_policyE2EE14_M_get_deleterERKSt9type_info,comdat
	.align 2
	.p2align 4
	.weak	_ZNSt23_Sp_counted_ptr_inplaceIN8asiodnp318TCPServerIOHandlerESaIS1_ELN9__gnu_cxx12_Lock_policyE2EE14_M_get_deleterERKSt9type_info
	.type	_ZNSt23_Sp_counted_ptr_inplaceIN8asiodnp318TCPServerIOHandlerESaIS1_ELN9__gnu_cxx12_Lock_policyE2EE14_M_get_deleterERKSt9type_info, @function
_ZNSt23_Sp_counted_ptr_inplaceIN8asiodnp318TCPServerIOHandlerESaIS1_ELN9__gnu_cxx12_Lock_policyE2EE14_M_get_deleterERKSt9type_info:
.LFB12126:
	.cfi_startproc
	cmpq	_ZZNSt19_Sp_make_shared_tag5_S_tiEvE5__tag@GOTPCREL(%rip), %rsi
	pushq	%r12
	.cfi_def_cfa_offset 16
	.cfi_offset 12, -16
	leaq	16(%rdi), %r12
	je	.L180
	movq	8(%rsi), %rdi
	movq	_ZTSSt19_Sp_make_shared_tag@GOTPCREL(%rip), %rsi
	cmpq	%rsi, %rdi
	je	.L180
	cmpb	$42, (%rdi)
	je	.L182
	call	strcmp@PLT
	testl	%eax, %eax
	movl	$0, %eax
	cmovne	%rax, %r12
.L180:
	movq	%r12, %rax
	popq	%r12
	.cfi_remember_state
	.cfi_def_cfa_offset 8
	ret
	.p2align 4,,10
	.p2align 3
.L182:
	.cfi_restore_state
	xorl	%r12d, %r12d
	movq	%r12, %rax
	popq	%r12
	.cfi_def_cfa_offset 8
	ret
	.cfi_endproc
.LFE12126:
	.size	_ZNSt23_Sp_counted_ptr_inplaceIN8asiodnp318TCPServerIOHandlerESaIS1_ELN9__gnu_cxx12_Lock_policyE2EE14_M_get_deleterERKSt9type_info, .-_ZNSt23_Sp_counted_ptr_inplaceIN8asiodnp318TCPServerIOHandlerESaIS1_ELN9__gnu_cxx12_Lock_policyE2EE14_M_get_deleterERKSt9type_info
	.section	.text._ZNSt23_Sp_counted_ptr_inplaceIN8asiodnp318TCPClientIOHandlerESaIS1_ELN9__gnu_cxx12_Lock_policyE2EE14_M_get_deleterERKSt9type_info,"axG",@progbits,_ZNSt23_Sp_counted_ptr_inplaceIN8asiodnp318TCPClientIOHandlerESaIS1_ELN9__gnu_cxx12_Lock_policyE2EE14_M_get_deleterERKSt9type_info,comdat
	.align 2
	.p2align 4
	.weak	_ZNSt23_Sp_counted_ptr_inplaceIN8asiodnp318TCPClientIOHandlerESaIS1_ELN9__gnu_cxx12_Lock_policyE2EE14_M_get_deleterERKSt9type_info
	.type	_ZNSt23_Sp_counted_ptr_inplaceIN8asiodnp318TCPClientIOHandlerESaIS1_ELN9__gnu_cxx12_Lock_policyE2EE14_M_get_deleterERKSt9type_info, @function
_ZNSt23_Sp_counted_ptr_inplaceIN8asiodnp318TCPClientIOHandlerESaIS1_ELN9__gnu_cxx12_Lock_policyE2EE14_M_get_deleterERKSt9type_info:
.LFB12133:
	.cfi_startproc
	cmpq	_ZZNSt19_Sp_make_shared_tag5_S_tiEvE5__tag@GOTPCREL(%rip), %rsi
	pushq	%r12
	.cfi_def_cfa_offset 16
	.cfi_offset 12, -16
	leaq	16(%rdi), %r12
	je	.L185
	movq	8(%rsi), %rdi
	movq	_ZTSSt19_Sp_make_shared_tag@GOTPCREL(%rip), %rsi
	cmpq	%rsi, %rdi
	je	.L185
	cmpb	$42, (%rdi)
	je	.L187
	call	strcmp@PLT
	testl	%eax, %eax
	movl	$0, %eax
	cmovne	%rax, %r12
.L185:
	movq	%r12, %rax
	popq	%r12
	.cfi_remember_state
	.cfi_def_cfa_offset 8
	ret
	.p2align 4,,10
	.p2align 3
.L187:
	.cfi_restore_state
	xorl	%r12d, %r12d
	movq	%r12, %rax
	popq	%r12
	.cfi_def_cfa_offset 8
	ret
	.cfi_endproc
.LFE12133:
	.size	_ZNSt23_Sp_counted_ptr_inplaceIN8asiodnp318TCPClientIOHandlerESaIS1_ELN9__gnu_cxx12_Lock_policyE2EE14_M_get_deleterERKSt9type_info, .-_ZNSt23_Sp_counted_ptr_inplaceIN8asiodnp318TCPClientIOHandlerESaIS1_ELN9__gnu_cxx12_Lock_policyE2EE14_M_get_deleterERKSt9type_info
	.section	.text._ZNSt23_Sp_counted_ptr_inplaceIN8asiodnp315MasterTCPServerESaIS1_ELN9__gnu_cxx12_Lock_policyE2EE14_M_get_deleterERKSt9type_info,"axG",@progbits,_ZNSt23_Sp_counted_ptr_inplaceIN8asiodnp315MasterTCPServerESaIS1_ELN9__gnu_cxx12_Lock_policyE2EE14_M_get_deleterERKSt9type_info,comdat
	.align 2
	.p2align 4
	.weak	_ZNSt23_Sp_counted_ptr_inplaceIN8asiodnp315MasterTCPServerESaIS1_ELN9__gnu_cxx12_Lock_policyE2EE14_M_get_deleterERKSt9type_info
	.type	_ZNSt23_Sp_counted_ptr_inplaceIN8asiodnp315MasterTCPServerESaIS1_ELN9__gnu_cxx12_Lock_policyE2EE14_M_get_deleterERKSt9type_info, @function
_ZNSt23_Sp_counted_ptr_inplaceIN8asiodnp315MasterTCPServerESaIS1_ELN9__gnu_cxx12_Lock_policyE2EE14_M_get_deleterERKSt9type_info:
.LFB12147:
	.cfi_startproc
	cmpq	_ZZNSt19_Sp_make_shared_tag5_S_tiEvE5__tag@GOTPCREL(%rip), %rsi
	pushq	%r12
	.cfi_def_cfa_offset 16
	.cfi_offset 12, -16
	leaq	16(%rdi), %r12
	je	.L190
	movq	8(%rsi), %rdi
	movq	_ZTSSt19_Sp_make_shared_tag@GOTPCREL(%rip), %rsi
	cmpq	%rsi, %rdi
	je	.L190
	cmpb	$42, (%rdi)
	je	.L192
	call	strcmp@PLT
	testl	%eax, %eax
	movl	$0, %eax
	cmovne	%rax, %r12
.L190:
	movq	%r12, %rax
	popq	%r12
	.cfi_remember_state
	.cfi_def_cfa_offset 8
	ret
	.p2align 4,,10
	.p2align 3
.L192:
	.cfi_restore_state
	xorl	%r12d, %r12d
	movq	%r12, %rax
	popq	%r12
	.cfi_def_cfa_offset 8
	ret
	.cfi_endproc
.LFE12147:
	.size	_ZNSt23_Sp_counted_ptr_inplaceIN8asiodnp315MasterTCPServerESaIS1_ELN9__gnu_cxx12_Lock_policyE2EE14_M_get_deleterERKSt9type_info, .-_ZNSt23_Sp_counted_ptr_inplaceIN8asiodnp315MasterTCPServerESaIS1_ELN9__gnu_cxx12_Lock_policyE2EE14_M_get_deleterERKSt9type_info
	.section	.text._ZNSt8_Rb_treeIPN8opendnp317IScheduleCallbackES2_St9_IdentityIS2_ESt4lessIS2_ESaIS2_EE8_M_eraseEPSt13_Rb_tree_nodeIS2_E.isra.0,"axG",@progbits,_ZN8asiodnp39IOHandlerD5Ev,comdat
	.align 2
	.p2align 4
	.type	_ZNSt8_Rb_treeIPN8opendnp317IScheduleCallbackES2_St9_IdentityIS2_ESt4lessIS2_ESaIS2_EE8_M_eraseEPSt13_Rb_tree_nodeIS2_E.isra.0, @function
_ZNSt8_Rb_treeIPN8opendnp317IScheduleCallbackES2_St9_IdentityIS2_ESt4lessIS2_ESaIS2_EE8_M_eraseEPSt13_Rb_tree_nodeIS2_E.isra.0:
.LFB12383:
	.cfi_startproc
	pushq	%r15
	.cfi_def_cfa_offset 16
	.cfi_offset 15, -16
	pushq	%r14
	.cfi_def_cfa_offset 24
	.cfi_offset 14, -24
	pushq	%r13
	.cfi_def_cfa_offset 32
	.cfi_offset 13, -32
	pushq	%r12
	.cfi_def_cfa_offset 40
	.cfi_offset 12, -40
	pushq	%rbp
	.cfi_def_cfa_offset 48
	.cfi_offset 6, -48
	pushq	%rbx
	.cfi_def_cfa_offset 56
	.cfi_offset 3, -56
	subq	$40, %rsp
	.cfi_def_cfa_offset 96
	movq	%rdi, 16(%rsp)
	testq	%rdi, %rdi
	je	.L195
.L213:
	movq	16(%rsp), %rax
	movq	24(%rax), %r14
	testq	%r14, %r14
	je	.L197
.L212:
	movq	24(%r14), %r15
	testq	%r15, %r15
	je	.L198
.L211:
	movq	24(%r15), %rax
	movq	%rax, 8(%rsp)
	testq	%rax, %rax
	je	.L199
.L210:
	movq	8(%rsp), %rax
	movq	24(%rax), %rbp
	testq	%rbp, %rbp
	je	.L200
.L209:
	movq	24(%rbp), %r13
	testq	%r13, %r13
	je	.L201
.L208:
	movq	24(%r13), %r12
	testq	%r12, %r12
	je	.L202
.L207:
	movq	24(%r12), %r9
	testq	%r9, %r9
	je	.L203
.L206:
	movq	24(%r9), %rbx
	testq	%rbx, %rbx
	je	.L204
.L205:
	movq	24(%rbx), %rdi
	movq	%r9, 24(%rsp)
	call	_ZNSt8_Rb_treeIPN8opendnp317IScheduleCallbackES2_St9_IdentityIS2_ESt4lessIS2_ESaIS2_EE8_M_eraseEPSt13_Rb_tree_nodeIS2_E.isra.0
	movq	%rbx, %rdi
	movq	16(%rbx), %rbx
	movl	$40, %esi
	call	_ZdlPvm@PLT
	movq	24(%rsp), %r9
	testq	%rbx, %rbx
	jne	.L205
.L204:
	movq	16(%r9), %rbx
	movl	$40, %esi
	movq	%r9, %rdi
	call	_ZdlPvm@PLT
	testq	%rbx, %rbx
	je	.L203
	movq	%rbx, %r9
	jmp	.L206
.L201:
	movq	16(%rbp), %r12
	movl	$40, %esi
	movq	%rbp, %rdi
	call	_ZdlPvm@PLT
	testq	%r12, %r12
	je	.L200
	movq	%r12, %rbp
	jmp	.L209
	.p2align 4,,10
	.p2align 3
.L202:
	movq	16(%r13), %r12
	movl	$40, %esi
	movq	%r13, %rdi
	call	_ZdlPvm@PLT
	testq	%r12, %r12
	je	.L201
	movq	%r12, %r13
	jmp	.L208
.L200:
	movq	8(%rsp), %rdi
	movl	$40, %esi
	movq	16(%rdi), %rbp
	call	_ZdlPvm@PLT
	testq	%rbp, %rbp
	je	.L199
	movq	%rbp, 8(%rsp)
	jmp	.L210
	.p2align 4,,10
	.p2align 3
.L203:
	movq	16(%r12), %rax
	movl	$40, %esi
	movq	%r12, %rdi
	movq	%rax, 24(%rsp)
	call	_ZdlPvm@PLT
	movq	24(%rsp), %rax
	testq	%rax, %rax
	je	.L202
	movq	%rax, %r12
	jmp	.L207
.L199:
	movq	16(%r15), %rbx
	movl	$40, %esi
	movq	%r15, %rdi
	call	_ZdlPvm@PLT
	testq	%rbx, %rbx
	je	.L198
	movq	%rbx, %r15
	jmp	.L211
.L198:
	movq	16(%r14), %rbx
	movl	$40, %esi
	movq	%r14, %rdi
	call	_ZdlPvm@PLT
	testq	%rbx, %rbx
	je	.L197
	movq	%rbx, %r14
	jmp	.L212
.L197:
	movq	16(%rsp), %rdi
	movl	$40, %esi
	movq	16(%rdi), %rbx
	call	_ZdlPvm@PLT
	testq	%rbx, %rbx
	je	.L195
	movq	%rbx, 16(%rsp)
	jmp	.L213
.L195:
	addq	$40, %rsp
	.cfi_def_cfa_offset 56
	popq	%rbx
	.cfi_def_cfa_offset 48
	popq	%rbp
	.cfi_def_cfa_offset 40
	popq	%r12
	.cfi_def_cfa_offset 32
	popq	%r13
	.cfi_def_cfa_offset 24
	popq	%r14
	.cfi_def_cfa_offset 16
	popq	%r15
	.cfi_def_cfa_offset 8
	ret
	.cfi_endproc
.LFE12383:
	.size	_ZNSt8_Rb_treeIPN8opendnp317IScheduleCallbackES2_St9_IdentityIS2_ESt4lessIS2_ESaIS2_EE8_M_eraseEPSt13_Rb_tree_nodeIS2_E.isra.0, .-_ZNSt8_Rb_treeIPN8opendnp317IScheduleCallbackES2_St9_IdentityIS2_ESt4lessIS2_ESaIS2_EE8_M_eraseEPSt13_Rb_tree_nodeIS2_E.isra.0
	.section	.rodata._ZNK4asio6detail15system_category7messageB5cxx11Ei.str1.8,"aMS",@progbits,1
	.align 8
.LC4:
	.string	"basic_string::_M_construct null not valid"
	.section	.text._ZNK4asio6detail15system_category7messageB5cxx11Ei,"axG",@progbits,_ZNK4asio6detail15system_category7messageB5cxx11Ei,comdat
	.align 2
	.p2align 4
	.weak	_ZNK4asio6detail15system_category7messageB5cxx11Ei
	.type	_ZNK4asio6detail15system_category7messageB5cxx11Ei, @function
_ZNK4asio6detail15system_category7messageB5cxx11Ei:
.LFB2730:
	.cfi_startproc
	pushq	%r14
	.cfi_def_cfa_offset 16
	.cfi_offset 14, -16
	pushq	%r13
	.cfi_def_cfa_offset 24
	.cfi_offset 13, -24
	pushq	%r12
	.cfi_def_cfa_offset 32
	.cfi_offset 12, -32
	movq	%rdi, %r12
	pushq	%rbp
	.cfi_def_cfa_offset 40
	.cfi_offset 6, -40
	leaq	16(%rdi), %rbp
	subq	$296, %rsp
	.cfi_def_cfa_offset 336
	movq	%fs:40, %rax
	movq	%rax, 280(%rsp)
	xorl	%eax, %eax
	cmpl	$125, %edx
	je	.L266
	pxor	%xmm0, %xmm0
	movl	%edx, %edi
	leaq	16(%rsp), %rsi
	movl	$256, %edx
	movups	%xmm0, 16(%rsp)
	movups	%xmm0, 32(%rsp)
	movups	%xmm0, 48(%rsp)
	movups	%xmm0, 64(%rsp)
	movups	%xmm0, 80(%rsp)
	movups	%xmm0, 96(%rsp)
	movups	%xmm0, 112(%rsp)
	movups	%xmm0, 128(%rsp)
	movups	%xmm0, 144(%rsp)
	movups	%xmm0, 160(%rsp)
	movups	%xmm0, 176(%rsp)
	movups	%xmm0, 192(%rsp)
	movups	%xmm0, 208(%rsp)
	movups	%xmm0, 224(%rsp)
	movups	%xmm0, 240(%rsp)
	movups	%xmm0, 256(%rsp)
	call	strerror_r@PLT
	movq	%rbp, (%r12)
	movq	%rax, %r13
	testq	%rax, %rax
	je	.L254
	movq	%rax, %rdi
	call	strlen@PLT
	movq	%rax, 8(%rsp)
	movq	%rax, %r14
	cmpq	$15, %rax
	ja	.L267
	cmpq	$1, %rax
	jne	.L258
	movzbl	0(%r13), %edx
	movb	%dl, 16(%r12)
.L259:
	movq	%rax, 8(%r12)
	movb	$0, 0(%rbp,%rax)
.L251:
	movq	280(%rsp), %rax
	subq	%fs:40, %rax
	jne	.L268
	addq	$296, %rsp
	.cfi_remember_state
	.cfi_def_cfa_offset 40
	movq	%r12, %rax
	popq	%rbp
	.cfi_def_cfa_offset 32
	popq	%r12
	.cfi_def_cfa_offset 24
	popq	%r13
	.cfi_def_cfa_offset 16
	popq	%r14
	.cfi_def_cfa_offset 8
	ret
	.p2align 4,,10
	.p2align 3
.L267:
	.cfi_restore_state
	leaq	8(%rsp), %rsi
	xorl	%edx, %edx
	movq	%r12, %rdi
	call	_ZNSt7__cxx1112basic_stringIcSt11char_traitsIcESaIcEE9_M_createERmm@PLT
	movq	%rax, (%r12)
	movq	%rax, %rbp
	movq	8(%rsp), %rax
	movq	%rax, 16(%r12)
.L257:
	movq	%rbp, %rdi
	movq	%r14, %rdx
	movq	%r13, %rsi
	call	memcpy@PLT
	movq	8(%rsp), %rax
	movq	(%r12), %rbp
	jmp	.L259
	.p2align 4,,10
	.p2align 3
.L266:
	movq	%rbp, (%rdi)
	xorl	%edx, %edx
	leaq	8(%rsp), %rsi
	movq	$18, 8(%rsp)
	call	_ZNSt7__cxx1112basic_stringIcSt11char_traitsIcESaIcEE9_M_createERmm@PLT
	movq	8(%rsp), %rdx
	movdqa	.LC5(%rip), %xmm0
	movq	%rax, (%r12)
	movq	%rdx, 16(%r12)
	movl	$11876, %edx
	movw	%dx, 16(%rax)
	movups	%xmm0, (%rax)
	movq	8(%rsp), %rax
	movq	(%r12), %rdx
	movq	%rax, 8(%r12)
	movb	$0, (%rdx,%rax)
	jmp	.L251
	.p2align 4,,10
	.p2align 3
.L258:
	testq	%rax, %rax
	je	.L259
	jmp	.L257
.L254:
	leaq	.LC4(%rip), %rdi
	call	_ZSt19__throw_logic_errorPKc@PLT
.L268:
	call	__stack_chk_fail@PLT
	.cfi_endproc
.LFE2730:
	.size	_ZNK4asio6detail15system_category7messageB5cxx11Ei, .-_ZNK4asio6detail15system_category7messageB5cxx11Ei
	.section	.text._ZNK4asio5error6detail17addrinfo_category7messageB5cxx11Ei,"axG",@progbits,_ZNK4asio5error6detail17addrinfo_category7messageB5cxx11Ei,comdat
	.align 2
	.p2align 4
	.weak	_ZNK4asio5error6detail17addrinfo_category7messageB5cxx11Ei
	.type	_ZNK4asio5error6detail17addrinfo_category7messageB5cxx11Ei, @function
_ZNK4asio5error6detail17addrinfo_category7messageB5cxx11Ei:
.LFB2776:
	.cfi_startproc
	pushq	%r12
	.cfi_def_cfa_offset 16
	.cfi_offset 12, -16
	movq	%rdi, %r12
	subq	$16, %rsp
	.cfi_def_cfa_offset 32
	movq	%fs:40, %rax
	movq	%rax, 8(%rsp)
	xorl	%eax, %eax
	leaq	16(%rdi), %rax
	movq	%rax, (%rdi)
	cmpl	$-8, %edx
	je	.L275
	cmpl	$-7, %edx
	je	.L276
	xorl	%edx, %edx
	movq	%rsp, %rsi
	movq	$19, (%rsp)
	call	_ZNSt7__cxx1112basic_stringIcSt11char_traitsIcESaIcEE9_M_createERmm@PLT
	movq	(%rsp), %rdx
	movdqa	.LC8(%rip), %xmm0
	movq	%rax, (%r12)
	movq	%rdx, 16(%r12)
	movl	$28530, %edx
	movw	%dx, 16(%rax)
	movb	$114, 18(%rax)
	movups	%xmm0, (%rax)
	movq	(%rsp), %rax
	movq	(%r12), %rdx
	movq	%rax, 8(%r12)
	movb	$0, (%rdx,%rax)
.L269:
	movq	8(%rsp), %rax
	subq	%fs:40, %rax
	jne	.L277
	addq	$16, %rsp
	.cfi_remember_state
	.cfi_def_cfa_offset 16
	movq	%r12, %rax
	popq	%r12
	.cfi_def_cfa_offset 8
	ret
	.p2align 4,,10
	.p2align 3
.L276:
	.cfi_restore_state
	xorl	%edx, %edx
	movq	%rsp, %rsi
	movq	$25, (%rsp)
	call	_ZNSt7__cxx1112basic_stringIcSt11char_traitsIcESaIcEE9_M_createERmm@PLT
	movq	(%rsp), %rdx
	movdqa	.LC7(%rip), %xmm0
	movabsq	$7310593918082512243, %rcx
	movq	%rax, (%r12)
	movq	%rdx, 16(%r12)
	movq	%rcx, 16(%rax)
	movb	$100, 24(%rax)
	movups	%xmm0, (%rax)
	movq	(%rsp), %rax
	movq	(%r12), %rdx
	movq	%rax, 8(%r12)
	movb	$0, (%rdx,%rax)
	jmp	.L269
	.p2align 4,,10
	.p2align 3
.L275:
	xorl	%edx, %edx
	movq	%rsp, %rsi
	movq	$17, (%rsp)
	call	_ZNSt7__cxx1112basic_stringIcSt11char_traitsIcESaIcEE9_M_createERmm@PLT
	movq	(%rsp), %rdx
	movdqa	.LC6(%rip), %xmm0
	movq	%rax, (%r12)
	movq	%rdx, 16(%r12)
	movb	$100, 16(%rax)
	movups	%xmm0, (%rax)
	movq	(%rsp), %rax
	movq	(%r12), %rdx
	movq	%rax, 8(%r12)
	movb	$0, (%rdx,%rax)
	jmp	.L269
.L277:
	call	__stack_chk_fail@PLT
	.cfi_endproc
.LFE2776:
	.size	_ZNK4asio5error6detail17addrinfo_category7messageB5cxx11Ei, .-_ZNK4asio5error6detail17addrinfo_category7messageB5cxx11Ei
	.section	.text._ZNK4asio5error6detail13misc_category7messageB5cxx11Ei,"axG",@progbits,_ZNK4asio5error6detail13misc_category7messageB5cxx11Ei,comdat
	.align 2
	.p2align 4
	.weak	_ZNK4asio5error6detail13misc_category7messageB5cxx11Ei
	.type	_ZNK4asio5error6detail13misc_category7messageB5cxx11Ei, @function
_ZNK4asio5error6detail13misc_category7messageB5cxx11Ei:
.LFB2782:
	.cfi_startproc
	pushq	%r12
	.cfi_def_cfa_offset 16
	.cfi_offset 12, -16
	movq	%rdi, %r12
	subq	$16, %rsp
	.cfi_def_cfa_offset 32
	movq	%fs:40, %rax
	movq	%rax, 8(%rsp)
	xorl	%eax, %eax
	leaq	16(%rdi), %rax
	movq	%rax, (%rdi)
	cmpl	$1, %edx
	je	.L286
	cmpl	$2, %edx
	je	.L287
	cmpl	$3, %edx
	je	.L288
	cmpl	$4, %edx
	je	.L289
	movabsq	$8316298233121436513, %rcx
	movl	$28530, %edx
	movq	%rcx, 16(%rdi)
	movl	$1919230051, 8(%rax)
	movw	%dx, 12(%rax)
	movb	$114, 14(%rax)
	movq	$15, 8(%rdi)
	movb	$0, 31(%rdi)
.L278:
	movq	8(%rsp), %rax
	subq	%fs:40, %rax
	jne	.L290
	addq	$16, %rsp
	.cfi_remember_state
	.cfi_def_cfa_offset 16
	movq	%r12, %rax
	popq	%r12
	.cfi_def_cfa_offset 8
	ret
	.p2align 4,,10
	.p2align 3
.L286:
	.cfi_restore_state
	movabsq	$2340011850872286273, %rcx
	movq	%rcx, 16(%rdi)
	movl	$1852141679, 8(%rax)
	movq	$12, 8(%rdi)
	movb	$0, 28(%rdi)
	jmp	.L278
	.p2align 4,,10
	.p2align 3
.L289:
	movq	%rsp, %rsi
	xorl	%edx, %edx
	movq	$57, (%rsp)
	call	_ZNSt7__cxx1112basic_stringIcSt11char_traitsIcESaIcEE9_M_createERmm@PLT
	movq	(%rsp), %rdx
	movdqa	.LC10(%rip), %xmm0
	movabsq	$7310291504967217959, %rsi
	movq	%rax, (%r12)
	movq	%rdx, 16(%r12)
	movups	%xmm0, (%rax)
	movdqa	.LC11(%rip), %xmm0
	movq	%rsi, 48(%rax)
	movups	%xmm0, 16(%rax)
	movdqa	.LC12(%rip), %xmm0
	movb	$116, 56(%rax)
	movups	%xmm0, 32(%rax)
	movq	(%rsp), %rax
	movq	(%r12), %rdx
	movq	%rax, 8(%r12)
	movb	$0, (%rdx,%rax)
	jmp	.L278
	.p2align 4,,10
	.p2align 3
.L287:
	movabsq	$7358994418594246213, %rcx
	movq	%rcx, 16(%rdi)
	movl	$27753, %ecx
	movw	%cx, 8(%rax)
	movb	$101, 10(%rax)
	movq	$11, 8(%rdi)
	movb	$0, 27(%rdi)
	jmp	.L278
	.p2align 4,,10
	.p2align 3
.L288:
	xorl	%edx, %edx
	movq	%rsp, %rsi
	movq	$17, (%rsp)
	call	_ZNSt7__cxx1112basic_stringIcSt11char_traitsIcESaIcEE9_M_createERmm@PLT
	movq	(%rsp), %rdx
	movdqa	.LC9(%rip), %xmm0
	movq	%rax, (%r12)
	movq	%rdx, 16(%r12)
	movb	$100, 16(%rax)
	movups	%xmm0, (%rax)
	movq	(%rsp), %rax
	movq	(%r12), %rdx
	movq	%rax, 8(%r12)
	movb	$0, (%rdx,%rax)
	jmp	.L278
.L290:
	call	__stack_chk_fail@PLT
	.cfi_endproc
.LFE2782:
	.size	_ZNK4asio5error6detail13misc_category7messageB5cxx11Ei, .-_ZNK4asio5error6detail13misc_category7messageB5cxx11Ei
	.section	.text._ZNK4asio5error6detail14netdb_category7messageB5cxx11Ei,"axG",@progbits,_ZNK4asio5error6detail14netdb_category7messageB5cxx11Ei,comdat
	.align 2
	.p2align 4
	.weak	_ZNK4asio5error6detail14netdb_category7messageB5cxx11Ei
	.type	_ZNK4asio5error6detail14netdb_category7messageB5cxx11Ei, @function
_ZNK4asio5error6detail14netdb_category7messageB5cxx11Ei:
.LFB2770:
	.cfi_startproc
	pushq	%r12
	.cfi_def_cfa_offset 16
	.cfi_offset 12, -16
	movq	%rdi, %r12
	subq	$16, %rsp
	.cfi_def_cfa_offset 32
	movq	%fs:40, %rax
	movq	%rax, 8(%rsp)
	xorl	%eax, %eax
	leaq	16(%rdi), %rax
	movq	%rax, (%rdi)
	cmpl	$1, %edx
	je	.L299
	cmpl	$2, %edx
	je	.L300
	cmpl	$4, %edx
	je	.L301
	cmpl	$3, %edx
	je	.L302
	xorl	%edx, %edx
	movq	%rsp, %rsi
	movq	$16, (%rsp)
	call	_ZNSt7__cxx1112basic_stringIcSt11char_traitsIcESaIcEE9_M_createERmm@PLT
	movq	(%rsp), %rdx
	movdqa	.LC22(%rip), %xmm0
	movq	%rax, (%r12)
	movq	%rdx, 16(%r12)
	movups	%xmm0, (%rax)
	movq	(%rsp), %rax
	movq	(%r12), %rdx
	movq	%rax, 8(%r12)
	movb	$0, (%rdx,%rax)
.L291:
	movq	8(%rsp), %rax
	subq	%fs:40, %rax
	jne	.L303
	addq	$16, %rsp
	.cfi_remember_state
	.cfi_def_cfa_offset 16
	movq	%r12, %rax
	popq	%r12
	.cfi_def_cfa_offset 8
	ret
	.p2align 4,,10
	.p2align 3
.L299:
	.cfi_restore_state
	movq	%rsp, %rsi
	xorl	%edx, %edx
	movq	$30, (%rsp)
	call	_ZNSt7__cxx1112basic_stringIcSt11char_traitsIcESaIcEE9_M_createERmm@PLT
	movq	(%rsp), %rdx
	movl	$10597, %esi
	movdqa	.LC13(%rip), %xmm0
	movabsq	$8388361603773658465, %rcx
	movq	%rax, (%r12)
	movq	%rdx, 16(%r12)
	movq	%rcx, 16(%rax)
	movl	$1986622561, 24(%rax)
	movw	%si, 28(%rax)
	movups	%xmm0, (%rax)
	movq	(%rsp), %rax
	movq	(%r12), %rdx
	movq	%rax, 8(%r12)
	movb	$0, (%rdx,%rax)
	jmp	.L291
	.p2align 4,,10
	.p2align 3
.L302:
	xorl	%edx, %edx
	movq	%rsp, %rsi
	movq	$55, (%rsp)
	call	_ZNSt7__cxx1112basic_stringIcSt11char_traitsIcESaIcEE9_M_createERmm@PLT
	movq	(%rsp), %rdx
	movdqa	.LC19(%rip), %xmm0
	movq	%rax, (%r12)
	movq	%rdx, 16(%r12)
	movl	$30059, %edx
	movups	%xmm0, (%rax)
	movdqa	.LC20(%rip), %xmm0
	movl	$1869573152, 48(%rax)
	movups	%xmm0, 16(%rax)
	movdqa	.LC21(%rip), %xmm0
	movw	%dx, 52(%rax)
	movb	$112, 54(%rax)
	movups	%xmm0, 32(%rax)
	movq	(%rsp), %rax
	movq	(%r12), %rdx
	movq	%rax, 8(%r12)
	movb	$0, (%rdx,%rax)
	jmp	.L291
	.p2align 4,,10
	.p2align 3
.L300:
	xorl	%edx, %edx
	movq	%rsp, %rsi
	movq	$51, (%rsp)
	call	_ZNSt7__cxx1112basic_stringIcSt11char_traitsIcESaIcEE9_M_createERmm@PLT
	movq	(%rsp), %rdx
	movl	$25972, %ecx
	movdqa	.LC13(%rip), %xmm0
	movq	%rax, (%r12)
	movq	%rdx, 16(%r12)
	movups	%xmm0, (%rax)
	movdqa	.LC14(%rip), %xmm0
	movw	%cx, 48(%rax)
	movups	%xmm0, 16(%rax)
	movdqa	.LC15(%rip), %xmm0
	movb	$114, 50(%rax)
	movups	%xmm0, 32(%rax)
	movq	(%rsp), %rax
	movq	(%r12), %rdx
	movq	%rax, 8(%r12)
	movb	$0, (%rdx,%rax)
	jmp	.L291
	.p2align 4,,10
	.p2align 3
.L301:
	xorl	%edx, %edx
	movq	%rsp, %rsi
	movq	$56, (%rsp)
	call	_ZNSt7__cxx1112basic_stringIcSt11char_traitsIcESaIcEE9_M_createERmm@PLT
	movq	(%rsp), %rdx
	movdqa	.LC16(%rip), %xmm0
	movabsq	$7022344801645520244, %rcx
	movq	%rax, (%r12)
	movq	%rdx, 16(%r12)
	movups	%xmm0, (%rax)
	movdqa	.LC17(%rip), %xmm0
	movq	%rcx, 48(%rax)
	movups	%xmm0, 16(%rax)
	movdqa	.LC18(%rip), %xmm0
	movups	%xmm0, 32(%rax)
	movq	(%rsp), %rax
	movq	(%r12), %rdx
	movq	%rax, 8(%r12)
	movb	$0, (%rdx,%rax)
	jmp	.L291
.L303:
	call	__stack_chk_fail@PLT
	.cfi_endproc
.LFE2770:
	.size	_ZNK4asio5error6detail14netdb_category7messageB5cxx11Ei, .-_ZNK4asio5error6detail14netdb_category7messageB5cxx11Ei
	.section	.text._ZNSt23_Sp_counted_ptr_inplaceIN7asiopal8ExecutorESaIS1_ELN9__gnu_cxx12_Lock_policyE2EE10_M_disposeEv,"axG",@progbits,_ZNSt23_Sp_counted_ptr_inplaceIN7asiopal8ExecutorESaIS1_ELN9__gnu_cxx12_Lock_policyE2EE10_M_disposeEv,comdat
	.align 2
	.p2align 4
	.weak	_ZNSt23_Sp_counted_ptr_inplaceIN7asiopal8ExecutorESaIS1_ELN9__gnu_cxx12_Lock_policyE2EE10_M_disposeEv
	.type	_ZNSt23_Sp_counted_ptr_inplaceIN7asiopal8ExecutorESaIS1_ELN9__gnu_cxx12_Lock_policyE2EE10_M_disposeEv, @function
_ZNSt23_Sp_counted_ptr_inplaceIN7asiopal8ExecutorESaIS1_ELN9__gnu_cxx12_Lock_policyE2EE10_M_disposeEv:
.LFB12173:
	.cfi_startproc
	movq	_ZTVN7asiopal8ExecutorE@GOTPCREL(%rip), %rax
	pushq	%r12
	.cfi_def_cfa_offset 16
	.cfi_offset 12, -16
	pushq	%rbp
	.cfi_def_cfa_offset 24
	.cfi_offset 6, -24
	pushq	%rbx
	.cfi_def_cfa_offset 32
	.cfi_offset 3, -32
	movq	48(%rdi), %rbp
	addq	$16, %rax
	movq	%rdi, %rbx
	movq	%rax, 16(%rdi)
	testq	%rbp, %rbp
	je	.L306
	movq	_ZL28__gthrw___pthread_key_createPjPFvPvE@GOTPCREL(%rip), %r12
	testq	%r12, %r12
	jne	.L318
	movl	8(%rbp), %eax
	leal	-1(%rax), %edx
	movl	%edx, 8(%rbp)
.L308:
	cmpl	$1, %eax
	je	.L319
.L306:
	movq	32(%rbx), %rdi
	testq	%rdi, %rdi
	je	.L304
	cmpq	$0, _ZL28__gthrw___pthread_key_createPjPFvPvE@GOTPCREL(%rip)
	jne	.L320
	movl	12(%rdi), %eax
	leal	-1(%rax), %edx
	movl	%edx, 12(%rdi)
.L315:
	cmpl	$1, %eax
	je	.L321
.L304:
	popq	%rbx
	.cfi_remember_state
	.cfi_def_cfa_offset 24
	popq	%rbp
	.cfi_def_cfa_offset 16
	popq	%r12
	.cfi_def_cfa_offset 8
	ret
	.p2align 4,,10
	.p2align 3
.L319:
	.cfi_restore_state
	movq	0(%rbp), %rax
	movq	%rbp, %rdi
	call	*16(%rax)
	testq	%r12, %r12
	jne	.L322
	movl	12(%rbp), %eax
	leal	-1(%rax), %edx
	movl	%edx, 12(%rbp)
.L311:
	cmpl	$1, %eax
	jne	.L306
	movq	0(%rbp), %rax
	movq	%rbp, %rdi
	call	*24(%rax)
	jmp	.L306
	.p2align 4,,10
	.p2align 3
.L321:
	movq	(%rdi), %rax
	popq	%rbx
	.cfi_remember_state
	.cfi_def_cfa_offset 24
	popq	%rbp
	.cfi_def_cfa_offset 16
	popq	%r12
	.cfi_def_cfa_offset 8
	movq	24(%rax), %rax
	jmp	*%rax
	.p2align 4,,10
	.p2align 3
.L318:
	.cfi_restore_state
	movl	$-1, %eax
	lock xaddl	%eax, 8(%rbp)
	jmp	.L308
	.p2align 4,,10
	.p2align 3
.L320:
	movl	$-1, %eax
	lock xaddl	%eax, 12(%rdi)
	jmp	.L315
	.p2align 4,,10
	.p2align 3
.L322:
	movl	$-1, %eax
	lock xaddl	%eax, 12(%rbp)
	jmp	.L311
	.cfi_endproc
.LFE12173:
	.size	_ZNSt23_Sp_counted_ptr_inplaceIN7asiopal8ExecutorESaIS1_ELN9__gnu_cxx12_Lock_policyE2EE10_M_disposeEv, .-_ZNSt23_Sp_counted_ptr_inplaceIN7asiopal8ExecutorESaIS1_ELN9__gnu_cxx12_Lock_policyE2EE10_M_disposeEv
	.section	.text._ZN7openpal6LoggerD2Ev,"axG",@progbits,_ZN7openpal6LoggerD5Ev,comdat
	.align 2
	.p2align 4
	.weak	_ZN7openpal6LoggerD2Ev
	.type	_ZN7openpal6LoggerD2Ev, @function
_ZN7openpal6LoggerD2Ev:
.LFB2043:
	.cfi_startproc
	pushq	%r12
	.cfi_def_cfa_offset 16
	.cfi_offset 12, -16
	pushq	%rbp
	.cfi_def_cfa_offset 24
	.cfi_offset 6, -24
	pushq	%rbx
	.cfi_def_cfa_offset 32
	.cfi_offset 3, -32
	movq	24(%rdi), %rbp
	movq	%rdi, %rbx
	testq	%rbp, %rbp
	je	.L325
	movq	_ZL28__gthrw___pthread_key_createPjPFvPvE@GOTPCREL(%rip), %r12
	testq	%r12, %r12
	jne	.L339
	movl	8(%rbp), %eax
	leal	-1(%rax), %edx
	movl	%edx, 8(%rbp)
.L327:
	cmpl	$1, %eax
	je	.L340
.L325:
	movq	8(%rbx), %rbp
	testq	%rbp, %rbp
	je	.L323
	movq	_ZL28__gthrw___pthread_key_createPjPFvPvE@GOTPCREL(%rip), %r12
	testq	%r12, %r12
	jne	.L341
	movl	8(%rbp), %eax
	leal	-1(%rax), %edx
	movl	%edx, 8(%rbp)
.L334:
	cmpl	$1, %eax
	je	.L342
.L323:
	popq	%rbx
	.cfi_remember_state
	.cfi_def_cfa_offset 24
	popq	%rbp
	.cfi_def_cfa_offset 16
	popq	%r12
	.cfi_def_cfa_offset 8
	ret
	.p2align 4,,10
	.p2align 3
.L340:
	.cfi_restore_state
	movq	0(%rbp), %rax
	movq	%rbp, %rdi
	call	*16(%rax)
	testq	%r12, %r12
	jne	.L343
	movl	12(%rbp), %eax
	leal	-1(%rax), %edx
	movl	%edx, 12(%rbp)
.L330:
	cmpl	$1, %eax
	jne	.L325
	movq	0(%rbp), %rax
	movq	%rbp, %rdi
	call	*24(%rax)
	jmp	.L325
	.p2align 4,,10
	.p2align 3
.L342:
	movq	0(%rbp), %rax
	movq	%rbp, %rdi
	call	*16(%rax)
	testq	%r12, %r12
	jne	.L344
	movl	12(%rbp), %eax
	leal	-1(%rax), %edx
	movl	%edx, 12(%rbp)
.L337:
	cmpl	$1, %eax
	jne	.L323
	movq	0(%rbp), %rax
	popq	%rbx
	.cfi_remember_state
	.cfi_def_cfa_offset 24
	movq	%rbp, %rdi
	popq	%rbp
	.cfi_def_cfa_offset 16
	popq	%r12
	.cfi_def_cfa_offset 8
	movq	24(%rax), %rax
	jmp	*%rax
	.p2align 4,,10
	.p2align 3
.L339:
	.cfi_restore_state
	movl	$-1, %eax
	lock xaddl	%eax, 8(%rbp)
	jmp	.L327
	.p2align 4,,10
	.p2align 3
.L341:
	movl	$-1, %eax
	lock xaddl	%eax, 8(%rbp)
	jmp	.L334
	.p2align 4,,10
	.p2align 3
.L343:
	movl	$-1, %eax
	lock xaddl	%eax, 12(%rbp)
	jmp	.L330
	.p2align 4,,10
	.p2align 3
.L344:
	movl	$-1, %eax
	lock xaddl	%eax, 12(%rbp)
	jmp	.L337
	.cfi_endproc
.LFE2043:
	.size	_ZN7openpal6LoggerD2Ev, .-_ZN7openpal6LoggerD2Ev
	.weak	_ZN7openpal6LoggerD1Ev
	.set	_ZN7openpal6LoggerD1Ev,_ZN7openpal6LoggerD2Ev
	.section	.rodata._ZNSt12system_errorC2ESt10error_codePKc.str1.1,"aMS",@progbits,1
.LC23:
	.string	": "
	.section	.text._ZNSt12system_errorC2ESt10error_codePKc,"axG",@progbits,_ZNSt12system_errorC5ESt10error_codePKc,comdat
	.align 2
	.p2align 4
	.weak	_ZNSt12system_errorC2ESt10error_codePKc
	.type	_ZNSt12system_errorC2ESt10error_codePKc, @function
_ZNSt12system_errorC2ESt10error_codePKc:
.LFB2668:
	.cfi_startproc
	.cfi_personality 0x9b,DW.ref.__gxx_personality_v0
	.cfi_lsda 0x1b,.LLSDA2668
	pushq	%r14
	.cfi_def_cfa_offset 16
	.cfi_offset 14, -16
	movq	%rcx, %r14
	pushq	%r13
	.cfi_def_cfa_offset 24
	.cfi_offset 13, -24
	pushq	%r12
	.cfi_def_cfa_offset 32
	.cfi_offset 12, -32
	movq	%rsi, %r12
	pushq	%rbp
	.cfi_def_cfa_offset 40
	.cfi_offset 6, -40
	movq	%rdx, %rbp
	pushq	%rbx
	.cfi_def_cfa_offset 48
	.cfi_offset 3, -48
	movq	%rdi, %rbx
	subq	$112, %rsp
	.cfi_def_cfa_offset 160
	movq	%fs:40, %rax
	movq	%rax, 104(%rsp)
	xorl	%eax, %eax
	movq	(%rdx), %rax
	leaq	64(%rsp), %r13
	movl	%esi, %edx
	movq	%r13, %rdi
	movq	%rbp, %rsi
.LEHB0:
	call	*32(%rax)
.LEHE0:
	movl	$2, %r8d
	xorl	%edx, %edx
	xorl	%esi, %esi
	leaq	.LC23(%rip), %rcx
	movq	%r13, %rdi
.LEHB1:
	call	_ZNSt7__cxx1112basic_stringIcSt11char_traitsIcESaIcEE10_M_replaceEmmPKcm@PLT
.LEHE1:
	leaq	48(%rsp), %r13
	leaq	16(%rax), %rdx
	movq	%r13, 32(%rsp)
	movq	(%rax), %rcx
	cmpq	%rdx, %rcx
	je	.L365
	movq	%rcx, 32(%rsp)
	movq	16(%rax), %rcx
	movq	%rcx, 48(%rsp)
.L347:
	movq	8(%rax), %rcx
	movb	$0, 16(%rax)
	movq	%r14, %rdi
	movq	%rcx, 40(%rsp)
	movq	%rdx, (%rax)
	movq	$0, 8(%rax)
	call	strlen@PLT
	leaq	32(%rsp), %rdi
	movq	%r14, %rcx
	xorl	%edx, %edx
	movq	%rax, %r8
	xorl	%esi, %esi
.LEHB2:
	call	_ZNSt7__cxx1112basic_stringIcSt11char_traitsIcESaIcEE10_M_replaceEmmPKcm@PLT
.LEHE2:
	leaq	16(%rsp), %r14
	leaq	16(%rax), %rdx
	movq	%r14, (%rsp)
	movq	(%rax), %rcx
	cmpq	%rdx, %rcx
	je	.L366
	movq	%rcx, (%rsp)
	movq	16(%rax), %rcx
	movq	%rcx, 16(%rsp)
.L349:
	movq	8(%rax), %rcx
	movb	$0, 16(%rax)
	movq	%rsp, %rsi
	movq	%rbx, %rdi
	movq	%rcx, 8(%rsp)
	movq	%rdx, (%rax)
	movq	$0, 8(%rax)
.LEHB3:
	call	_ZNSt13runtime_errorC2ERKNSt7__cxx1112basic_stringIcSt11char_traitsIcESaIcEEE@PLT
.LEHE3:
	movq	(%rsp), %rdi
	cmpq	%r14, %rdi
	je	.L350
	movq	16(%rsp), %rax
	leaq	1(%rax), %rsi
	call	_ZdlPvm@PLT
.L350:
	movq	32(%rsp), %rdi
	cmpq	%r13, %rdi
	je	.L351
	movq	48(%rsp), %rax
	leaq	1(%rax), %rsi
	call	_ZdlPvm@PLT
.L351:
	movq	64(%rsp), %rdi
	leaq	80(%rsp), %rax
	cmpq	%rax, %rdi
	je	.L352
	movq	80(%rsp), %rax
	leaq	1(%rax), %rsi
	call	_ZdlPvm@PLT
.L352:
	movq	_ZTVSt12system_error@GOTPCREL(%rip), %rax
	movq	%r12, 16(%rbx)
	movq	%rbp, 24(%rbx)
	addq	$16, %rax
	movq	%rax, (%rbx)
	movq	104(%rsp), %rax
	subq	%fs:40, %rax
	jne	.L367
	addq	$112, %rsp
	.cfi_remember_state
	.cfi_def_cfa_offset 48
	popq	%rbx
	.cfi_def_cfa_offset 40
	popq	%rbp
	.cfi_def_cfa_offset 32
	popq	%r12
	.cfi_def_cfa_offset 24
	popq	%r13
	.cfi_def_cfa_offset 16
	popq	%r14
	.cfi_def_cfa_offset 8
	ret
	.p2align 4,,10
	.p2align 3
.L365:
	.cfi_restore_state
	movdqu	16(%rax), %xmm0
	movaps	%xmm0, 48(%rsp)
	jmp	.L347
	.p2align 4,,10
	.p2align 3
.L366:
	movdqu	16(%rax), %xmm1
	movaps	%xmm1, 16(%rsp)
	jmp	.L349
.L367:
	call	__stack_chk_fail@PLT
.L362:
	movq	%rax, %rbp
	jmp	.L353
.L360:
	movq	%rax, %rbp
	jmp	.L357
.L361:
	movq	%rax, %rbp
	jmp	.L355
.L353:
	movq	(%rsp), %rdi
	cmpq	%r14, %rdi
	je	.L355
	movq	16(%rsp), %rax
	leaq	1(%rax), %rsi
	call	_ZdlPvm@PLT
.L355:
	movq	32(%rsp), %rdi
	cmpq	%r13, %rdi
	je	.L357
	movq	48(%rsp), %rax
	leaq	1(%rax), %rsi
	call	_ZdlPvm@PLT
.L357:
	movq	64(%rsp), %rdi
	leaq	80(%rsp), %rax
	cmpq	%rax, %rdi
	je	.L358
	movq	80(%rsp), %rax
	leaq	1(%rax), %rsi
	call	_ZdlPvm@PLT
.L358:
	movq	%rbp, %rdi
.LEHB4:
	call	_Unwind_Resume@PLT
.LEHE4:
	.cfi_endproc
.LFE2668:
	.section	.gcc_except_table._ZNSt12system_errorC2ESt10error_codePKc,"aG",@progbits,_ZNSt12system_errorC5ESt10error_codePKc,comdat
.LLSDA2668:
	.byte	0xff
	.byte	0xff
	.byte	0x1
	.uleb128 .LLSDACSE2668-.LLSDACSB2668
.LLSDACSB2668:
	.uleb128 .LEHB0-.LFB2668
	.uleb128 .LEHE0-.LEHB0
	.uleb128 0
	.uleb128 0
	.uleb128 .LEHB1-.LFB2668
	.uleb128 .LEHE1-.LEHB1
	.uleb128 .L360-.LFB2668
	.uleb128 0
	.uleb128 .LEHB2-.LFB2668
	.uleb128 .LEHE2-.LEHB2
	.uleb128 .L361-.LFB2668
	.uleb128 0
	.uleb128 .LEHB3-.LFB2668
	.uleb128 .LEHE3-.LEHB3
	.uleb128 .L362-.LFB2668
	.uleb128 0
	.uleb128 .LEHB4-.LFB2668
	.uleb128 .LEHE4-.LEHB4
	.uleb128 0
	.uleb128 0
.LLSDACSE2668:
	.section	.text._ZNSt12system_errorC2ESt10error_codePKc,"axG",@progbits,_ZNSt12system_errorC5ESt10error_codePKc,comdat
	.size	_ZNSt12system_errorC2ESt10error_codePKc, .-_ZNSt12system_errorC2ESt10error_codePKc
	.weak	_ZNSt12system_errorC1ESt10error_codePKc
	.set	_ZNSt12system_errorC1ESt10error_codePKc,_ZNSt12system_errorC2ESt10error_codePKc
	.section	.text._ZN4asio15system_categoryEv,"axG",@progbits,_ZN4asio15system_categoryEv,comdat
	.p2align 4
	.weak	_ZN4asio15system_categoryEv
	.type	_ZN4asio15system_categoryEv, @function
_ZN4asio15system_categoryEv:
.LFB2733:
	.cfi_startproc
	pushq	%r12
	.cfi_def_cfa_offset 16
	.cfi_offset 12, -16
	pushq	%rbp
	.cfi_def_cfa_offset 24
	.cfi_offset 6, -24
	subq	$8, %rsp
	.cfi_def_cfa_offset 32
	movq	_ZGVZN4asio15system_categoryEvE8instance@GOTPCREL(%rip), %rbp
	movzbl	0(%rbp), %eax
	testb	%al, %al
	je	.L369
.L376:
	movq	_ZZN4asio15system_categoryEvE8instance@GOTPCREL(%rip), %r12
	addq	$8, %rsp
	.cfi_remember_state
	.cfi_def_cfa_offset 24
	popq	%rbp
	.cfi_def_cfa_offset 16
	movq	%r12, %rax
	popq	%r12
	.cfi_def_cfa_offset 8
	ret
	.p2align 4,,10
	.p2align 3
.L369:
	.cfi_restore_state
	movq	%rbp, %rdi
	call	__cxa_guard_acquire@PLT
	testl	%eax, %eax
	je	.L376
	movq	_ZZN4asio15system_categoryEvE8instance@GOTPCREL(%rip), %r12
	movq	_ZN4asio6detail15system_categoryD1Ev@GOTPCREL(%rip), %rdi
	leaq	__dso_handle(%rip), %rdx
	movq	%r12, %rsi
	call	__cxa_atexit@PLT
	movq	%rbp, %rdi
	call	__cxa_guard_release@PLT
	addq	$8, %rsp
	.cfi_def_cfa_offset 24
	movq	%r12, %rax
	popq	%rbp
	.cfi_def_cfa_offset 16
	popq	%r12
	.cfi_def_cfa_offset 8
	ret
	.cfi_endproc
.LFE2733:
	.size	_ZN4asio15system_categoryEv, .-_ZN4asio15system_categoryEv
	.section	.text._ZNSt23_Sp_counted_ptr_inplaceIN8asiodnp315MasterTCPServerESaIS1_ELN9__gnu_cxx12_Lock_policyE2EE10_M_disposeEv,"axG",@progbits,_ZNSt23_Sp_counted_ptr_inplaceIN8asiodnp315MasterTCPServerESaIS1_ELN9__gnu_cxx12_Lock_policyE2EE10_M_disposeEv,comdat
	.align 2
	.p2align 4
	.weak	_ZNSt23_Sp_counted_ptr_inplaceIN8asiodnp315MasterTCPServerESaIS1_ELN9__gnu_cxx12_Lock_policyE2EE10_M_disposeEv
	.type	_ZNSt23_Sp_counted_ptr_inplaceIN8asiodnp315MasterTCPServerESaIS1_ELN9__gnu_cxx12_Lock_policyE2EE10_M_disposeEv, @function
_ZNSt23_Sp_counted_ptr_inplaceIN8asiodnp315MasterTCPServerESaIS1_ELN9__gnu_cxx12_Lock_policyE2EE10_M_disposeEv:
.LFB12145:
	.cfi_startproc
	.cfi_personality 0x9b,DW.ref.__gxx_personality_v0
	.cfi_lsda 0x1b,.LLSDA12145
	pushq	%r15
	.cfi_def_cfa_offset 16
	.cfi_offset 15, -16
	pushq	%r14
	.cfi_def_cfa_offset 24
	.cfi_offset 14, -24
	pushq	%r13
	.cfi_def_cfa_offset 32
	.cfi_offset 13, -32
	pushq	%r12
	.cfi_def_cfa_offset 40
	.cfi_offset 12, -40
	pushq	%rbp
	.cfi_def_cfa_offset 48
	.cfi_offset 6, -48
	pushq	%rbx
	.cfi_def_cfa_offset 56
	.cfi_offset 3, -56
	movq	%rdi, %rbx
	subq	$72, %rsp
	.cfi_def_cfa_offset 128
	movq	248(%rdi), %r12
	movq	%fs:40, %rax
	movq	%rax, 56(%rsp)
	movq	_ZTVN8asiodnp315MasterTCPServerE@GOTPCREL(%rip), %rax
	addq	$16, %rax
	movq	%rax, 16(%rdi)
	testq	%r12, %r12
	je	.L379
	movq	_ZL28__gthrw___pthread_key_createPjPFvPvE@GOTPCREL(%rip), %rbp
	testq	%rbp, %rbp
	jne	.L638
	movl	8(%r12), %eax
	leal	-1(%rax), %edx
	movl	%edx, 8(%r12)
.L381:
	cmpl	$1, %eax
	je	.L639
.L379:
	movq	232(%rbx), %r12
	testq	%r12, %r12
	je	.L386
	movq	_ZL28__gthrw___pthread_key_createPjPFvPvE@GOTPCREL(%rip), %rbp
	testq	%rbp, %rbp
	jne	.L640
	movl	8(%r12), %eax
	leal	-1(%rax), %edx
	movl	%edx, 8(%r12)
.L388:
	cmpl	$1, %eax
	je	.L641
.L386:
	movq	_ZTVN7asiopal9TCPServerE@GOTPCREL(%rip), %rax
	movl	152(%rbx), %r12d
	addq	$16, %rax
	movq	%rax, 16(%rbx)
	cmpl	$-1, %r12d
	jne	.L642
.L392:
	movl	120(%rbx), %r12d
	cmpl	$-1, %r12d
	jne	.L643
.L438:
	movq	80(%rbx), %r12
	testq	%r12, %r12
	je	.L485
	movq	_ZL28__gthrw___pthread_key_createPjPFvPvE@GOTPCREL(%rip), %rbp
	testq	%rbp, %rbp
	jne	.L644
	movl	8(%r12), %eax
	leal	-1(%rax), %edx
	movl	%edx, 8(%r12)
.L487:
	cmpl	$1, %eax
	je	.L645
.L485:
	movq	64(%rbx), %r12
	testq	%r12, %r12
	je	.L492
	movq	_ZL28__gthrw___pthread_key_createPjPFvPvE@GOTPCREL(%rip), %rbp
	testq	%rbp, %rbp
	jne	.L646
	movl	8(%r12), %eax
	leal	-1(%rax), %edx
	movl	%edx, 8(%r12)
.L494:
	cmpl	$1, %eax
	je	.L647
.L492:
	movq	48(%rbx), %r12
	testq	%r12, %r12
	je	.L499
	movq	_ZL28__gthrw___pthread_key_createPjPFvPvE@GOTPCREL(%rip), %rbp
	testq	%rbp, %rbp
	jne	.L648
	movl	8(%r12), %eax
	leal	-1(%rax), %edx
	movl	%edx, 8(%r12)
.L501:
	cmpl	$1, %eax
	je	.L649
.L499:
	movq	32(%rbx), %rdi
	testq	%rdi, %rdi
	je	.L377
	cmpq	$0, _ZL28__gthrw___pthread_key_createPjPFvPvE@GOTPCREL(%rip)
	jne	.L650
	movl	12(%rdi), %eax
	leal	-1(%rax), %edx
	movl	%edx, 12(%rdi)
.L508:
	cmpl	$1, %eax
	je	.L651
.L377:
	movq	56(%rsp), %rax
	subq	%fs:40, %rax
	jne	.L629
	addq	$72, %rsp
	.cfi_remember_state
	.cfi_def_cfa_offset 56
	popq	%rbx
	.cfi_def_cfa_offset 48
	popq	%rbp
	.cfi_def_cfa_offset 40
	popq	%r12
	.cfi_def_cfa_offset 32
	popq	%r13
	.cfi_def_cfa_offset 24
	popq	%r14
	.cfi_def_cfa_offset 16
	popq	%r15
	.cfi_def_cfa_offset 8
	ret
	.p2align 4,,10
	.p2align 3
.L643:
	.cfi_restore_state
	movq	128(%rbx), %rbp
	testq	%rbp, %rbp
	je	.L467
	movq	144(%rbx), %rax
	movzbl	124(%rbx), %r13d
	movq	40(%rax), %rax
	movq	%rax, 16(%rsp)
	leaq	40(%rbp), %rax
	movq	%rax, %rdi
	movq	%rax, 24(%rsp)
	call	pthread_mutex_lock@PLT
	movq	128(%rbx), %r11
	cmpb	$0, 144(%r11)
	jne	.L440
	andl	$64, %r13d
	jne	.L652
.L441:
	movq	$0, 8(%rsp)
	xorl	%ebp, %ebp
	movl	$0, 4(%rsp)
.L450:
	movslq	4(%rsp), %r10
	movq	%r10, %rax
	salq	$4, %rax
	movq	96(%rax,%r11), %r14
	testq	%r14, %r14
	je	.L517
	movq	_ZGVZN4asio15system_categoryEvE8instance@GOTPCREL(%rip), %r15
	movq	_ZZN4asio15system_categoryEvE8instance@GOTPCREL(%rip), %r13
	movq	%rax, %r12
	movzbl	(%r15), %eax
	testb	%al, %al
	je	.L653
	.p2align 4,,10
	.p2align 3
.L445:
	movq	128(%rbx), %r11
	movl	$125, 24(%r14)
	movq	%r13, 32(%r14)
	leaq	(%r11,%r12), %rdi
	movq	96(%rdi), %rax
	testq	%rax, %rax
	je	.L447
	movq	(%rax), %rdx
	movq	%rdx, 96(%rdi)
	testq	%rdx, %rdx
	je	.L654
	movq	$0, (%rax)
	movq	$0, (%r14)
	testq	%rbp, %rbp
	je	.L655
.L511:
	movq	%r14, 0(%rbp)
	testq	%rdx, %rdx
	je	.L442
.L449:
	movzbl	(%r15), %eax
	movq	%r14, %rbp
	movq	%rdx, %r14
	testb	%al, %al
	jne	.L445
.L653:
	movq	%r15, %rdi
	call	__cxa_guard_acquire@PLT
	testl	%eax, %eax
	je	.L445
	movq	_ZN4asio6detail15system_categoryD1Ev@GOTPCREL(%rip), %rdi
	leaq	__dso_handle(%rip), %rdx
	movq	%r13, %rsi
	call	__cxa_atexit@PLT
	movq	%r15, %rdi
	call	__cxa_guard_release@PLT
	jmp	.L445
	.p2align 4,,10
	.p2align 3
.L642:
	movq	160(%rbx), %rbp
	testq	%rbp, %rbp
	je	.L421
	movq	176(%rbx), %rax
	movzbl	156(%rbx), %r13d
	movq	40(%rax), %rax
	movq	%rax, 16(%rsp)
	leaq	40(%rbp), %rax
	movq	%rax, %rdi
	movq	%rax, 24(%rsp)
	call	pthread_mutex_lock@PLT
	movq	160(%rbx), %r11
	cmpb	$0, 144(%r11)
	jne	.L394
	andl	$64, %r13d
	jne	.L656
.L395:
	movq	$0, 8(%rsp)
	xorl	%ebp, %ebp
	movl	$0, 4(%rsp)
.L404:
	movslq	4(%rsp), %r10
	movq	%r10, %rax
	salq	$4, %rax
	movq	96(%rax,%r11), %r14
	testq	%r14, %r14
	je	.L514
	movq	_ZGVZN4asio15system_categoryEvE8instance@GOTPCREL(%rip), %r15
	movq	_ZZN4asio15system_categoryEvE8instance@GOTPCREL(%rip), %r13
	movq	%rax, %r12
	movzbl	(%r15), %eax
	testb	%al, %al
	je	.L657
	.p2align 4,,10
	.p2align 3
.L399:
	movq	160(%rbx), %r11
	movl	$125, 24(%r14)
	movq	%r13, 32(%r14)
	leaq	(%r11,%r12), %rdi
	movq	96(%rdi), %rax
	testq	%rax, %rax
	je	.L401
	movq	(%rax), %rdx
	movq	%rdx, 96(%rdi)
	testq	%rdx, %rdx
	je	.L658
	movq	$0, (%rax)
	movq	$0, (%r14)
	testq	%rbp, %rbp
	je	.L659
.L512:
	movq	%r14, 0(%rbp)
	testq	%rdx, %rdx
	je	.L396
.L403:
	movzbl	(%r15), %eax
	movq	%r14, %rbp
	movq	%rdx, %r14
	testb	%al, %al
	jne	.L399
.L657:
	movq	%r15, %rdi
	call	__cxa_guard_acquire@PLT
	testl	%eax, %eax
	je	.L399
	movq	_ZN4asio6detail15system_categoryD1Ev@GOTPCREL(%rip), %rdi
	leaq	__dso_handle(%rip), %rdx
	movq	%r13, %rsi
	call	__cxa_atexit@PLT
	movq	%r15, %rdi
	call	__cxa_guard_release@PLT
	jmp	.L399
	.p2align 4,,10
	.p2align 3
.L440:
	movq	24(%rsp), %rdi
	call	pthread_mutex_unlock@PLT
.L627:
	movl	120(%rbx), %r12d
	cmpl	$-1, %r12d
	je	.L438
.L467:
	call	__errno_location@PLT
	movzbl	124(%rbx), %r13d
	movq	%rax, %rbp
	testb	$8, %r13b
	jne	.L623
	movq	_ZGVZN4asio15system_categoryEvE8instance@GOTPCREL(%rip), %r15
.L469:
	movl	$0, 0(%rbp)
	movl	%r12d, %edi
	call	close@PLT
	movl	%eax, %r13d
	movzbl	(%r15), %eax
	testb	%al, %al
	je	.L660
.L474:
	testl	%r13d, %r13d
	je	.L438
	movl	0(%rbp), %r13d
	movzbl	(%r15), %eax
	testb	%al, %al
	je	.L661
.L478:
	cmpl	$11, %r13d
	je	.L480
.L637:
	movzbl	(%r15), %eax
	testb	%al, %al
	jne	.L438
	movq	%r15, %rdi
	call	__cxa_guard_acquire@PLT
	testl	%eax, %eax
	je	.L438
	movq	_ZZN4asio15system_categoryEvE8instance@GOTPCREL(%rip), %rsi
	movq	_ZN4asio6detail15system_categoryD1Ev@GOTPCREL(%rip), %rdi
	leaq	__dso_handle(%rip), %rdx
	call	__cxa_atexit@PLT
	movq	%r15, %rdi
	call	__cxa_guard_release@PLT
	jmp	.L438
	.p2align 4,,10
	.p2align 3
.L394:
	movq	24(%rsp), %rdi
	call	pthread_mutex_unlock@PLT
.L625:
	movl	152(%rbx), %r12d
	cmpl	$-1, %r12d
	je	.L392
.L421:
	call	__errno_location@PLT
	movzbl	156(%rbx), %r13d
	movq	%rax, %rbp
	testb	$8, %r13b
	jne	.L622
	movq	_ZGVZN4asio15system_categoryEvE8instance@GOTPCREL(%rip), %r15
.L423:
	movl	$0, 0(%rbp)
	movl	%r12d, %edi
	call	close@PLT
	movl	%eax, %r14d
	movzbl	(%r15), %eax
	testb	%al, %al
	je	.L662
.L428:
	testl	%r14d, %r14d
	je	.L392
	movl	0(%rbp), %r14d
	movzbl	(%r15), %eax
	testb	%al, %al
	je	.L663
.L432:
	cmpl	$11, %r14d
	je	.L434
.L635:
	movzbl	(%r15), %eax
	testb	%al, %al
	jne	.L392
	movq	%r15, %rdi
	call	__cxa_guard_acquire@PLT
	testl	%eax, %eax
	je	.L392
	movq	_ZZN4asio15system_categoryEvE8instance@GOTPCREL(%rip), %r13
	movq	_ZN4asio6detail15system_categoryD1Ev@GOTPCREL(%rip), %rdi
	leaq	__dso_handle(%rip), %rdx
	movq	%r13, %rsi
	call	__cxa_atexit@PLT
	movq	%r15, %rdi
	call	__cxa_guard_release@PLT
	jmp	.L392
	.p2align 4,,10
	.p2align 3
.L639:
	movq	(%r12), %rax
	movq	%r12, %rdi
	call	*16(%rax)
	testq	%rbp, %rbp
	jne	.L664
	movl	12(%r12), %eax
	leal	-1(%rax), %edx
	movl	%edx, 12(%r12)
.L384:
	cmpl	$1, %eax
	jne	.L379
	movq	(%r12), %rax
	movq	%r12, %rdi
	call	*24(%rax)
	jmp	.L379
	.p2align 4,,10
	.p2align 3
.L641:
	movq	(%r12), %rax
	movq	%r12, %rdi
	call	*16(%rax)
	testq	%rbp, %rbp
	jne	.L665
	movl	12(%r12), %eax
	leal	-1(%rax), %edx
	movl	%edx, 12(%r12)
.L391:
	cmpl	$1, %eax
	jne	.L386
	movq	(%r12), %rax
	movq	%r12, %rdi
	call	*24(%rax)
	jmp	.L386
	.p2align 4,,10
	.p2align 3
.L645:
	movq	(%r12), %rax
	movq	%r12, %rdi
	call	*16(%rax)
	testq	%rbp, %rbp
	jne	.L666
	movl	12(%r12), %eax
	leal	-1(%rax), %edx
	movl	%edx, 12(%r12)
.L490:
	cmpl	$1, %eax
	jne	.L485
	movq	(%r12), %rax
	movq	%r12, %rdi
	call	*24(%rax)
	jmp	.L485
	.p2align 4,,10
	.p2align 3
.L647:
	movq	(%r12), %rax
	movq	%r12, %rdi
	call	*16(%rax)
	testq	%rbp, %rbp
	jne	.L667
	movl	12(%r12), %eax
	leal	-1(%rax), %edx
	movl	%edx, 12(%r12)
.L497:
	cmpl	$1, %eax
	jne	.L492
	movq	(%r12), %rax
	movq	%r12, %rdi
	call	*24(%rax)
	jmp	.L492
	.p2align 4,,10
	.p2align 3
.L651:
	movq	56(%rsp), %rax
	subq	%fs:40, %rax
	jne	.L629
	movq	(%rdi), %rax
	movq	24(%rax), %rax
	addq	$72, %rsp
	.cfi_remember_state
	.cfi_def_cfa_offset 56
	popq	%rbx
	.cfi_def_cfa_offset 48
	popq	%rbp
	.cfi_def_cfa_offset 40
	popq	%r12
	.cfi_def_cfa_offset 32
	popq	%r13
	.cfi_def_cfa_offset 24
	popq	%r14
	.cfi_def_cfa_offset 16
	popq	%r15
	.cfi_def_cfa_offset 8
	jmp	*%rax
	.p2align 4,,10
	.p2align 3
.L649:
	.cfi_restore_state
	movq	(%r12), %rax
	movq	%r12, %rdi
	call	*16(%rax)
	testq	%rbp, %rbp
	jne	.L668
	movl	12(%r12), %eax
	leal	-1(%rax), %edx
	movl	%edx, 12(%r12)
.L504:
	cmpl	$1, %eax
	jne	.L499
	movq	(%r12), %rax
	movq	%r12, %rdi
	call	*24(%rax)
	jmp	.L499
	.p2align 4,,10
	.p2align 3
.L644:
	movl	$-1, %eax
	lock xaddl	%eax, 8(%r12)
	jmp	.L487
	.p2align 4,,10
	.p2align 3
.L638:
	movl	$-1, %eax
	lock xaddl	%eax, 8(%r12)
	jmp	.L381
	.p2align 4,,10
	.p2align 3
.L648:
	movl	$-1, %eax
	lock xaddl	%eax, 8(%r12)
	jmp	.L501
	.p2align 4,,10
	.p2align 3
.L650:
	movl	$-1, %eax
	lock xaddl	%eax, 12(%rdi)
	jmp	.L508
	.p2align 4,,10
	.p2align 3
.L640:
	movl	$-1, %eax
	lock xaddl	%eax, 8(%r12)
	jmp	.L388
	.p2align 4,,10
	.p2align 3
.L646:
	movl	$-1, %eax
	lock xaddl	%eax, 8(%r12)
	jmp	.L494
	.p2align 4,,10
	.p2align 3
.L401:
	movq	$0, (%r14)
	testq	%rbp, %rbp
	je	.L521
	movq	%r14, 0(%rbp)
.L396:
	addl	$1, 4(%rsp)
	movl	4(%rsp), %eax
	cmpl	$3, %eax
	je	.L669
.L516:
	movq	%r14, %rbp
	jmp	.L404
	.p2align 4,,10
	.p2align 3
.L447:
	movq	$0, (%r14)
	testq	%rbp, %rbp
	je	.L520
	movq	%r14, 0(%rbp)
.L442:
	addl	$1, 4(%rsp)
	movl	4(%rsp), %eax
	cmpl	$3, %eax
	je	.L670
.L519:
	movq	%r14, %rbp
	jmp	.L450
	.p2align 4,,10
	.p2align 3
.L658:
	movq	$0, 104(%rdi)
	movq	$0, (%rax)
	movq	$0, (%r14)
	testq	%rbp, %rbp
	jne	.L512
	.p2align 4,,10
	.p2align 3
.L521:
	addl	$1, 4(%rsp)
	movl	4(%rsp), %eax
	movq	%r14, 8(%rsp)
	cmpl	$3, %eax
	jne	.L516
.L669:
	movl	$-1, 88(%r11)
	movq	24(%rsp), %rdi
	movb	$1, 144(%r11)
	call	pthread_mutex_unlock@PLT
	movq	16(%rsp), %r15
	movq	160(%rbx), %rbp
	leaq	120(%r15), %r12
	movq	%r12, %rdi
	call	pthread_mutex_lock@PLT
	cmpq	160(%r15), %rbp
	je	.L671
.L405:
	movq	32(%rbp), %rax
	testq	%rax, %rax
	je	.L406
	movq	24(%rbp), %rdx
	movq	%rdx, 24(%rax)
.L406:
	movq	24(%rbp), %rax
	testq	%rax, %rax
	je	.L407
	movq	32(%rbp), %rdx
	movq	%rdx, 32(%rax)
.L407:
	movq	16(%rsp), %r15
	movq	%r12, %rdi
	movq	168(%r15), %rax
	movq	$0, 32(%rbp)
	movq	%rax, 24(%rbp)
	movq	%rbp, 168(%r15)
	call	pthread_mutex_unlock@PLT
	cmpq	$0, 8(%rsp)
	movq	$0, 160(%rbx)
	je	.L625
	movq	40(%r15), %rbp
	cmpb	$0, 40(%rbp)
	je	.L409
	data16	leaq	_ZN4asio6detail15keyword_tss_ptrINS0_10call_stackINS0_15task_io_serviceENS0_27task_io_service_thread_infoEE7contextEE6value_E@tlsgd(%rip), %rdi
	.value	0x6666
	rex64
	call	__tls_get_addr@PLT
	movq	(%rax), %rax
	testq	%rax, %rax
	jne	.L412
	jmp	.L409
	.p2align 4,,10
	.p2align 3
.L410:
	movq	16(%rax), %rax
	testq	%rax, %rax
	je	.L409
.L412:
	cmpq	(%rax), %rbp
	jne	.L410
	movq	8(%rax), %rax
	testq	%rax, %rax
	je	.L409
	movq	16(%rax), %rdx
	movq	8(%rsp), %rsi
	testq	%rdx, %rdx
	je	.L413
	movq	%rsi, (%rdx)
.L414:
	movq	%r14, 16(%rax)
	jmp	.L625
	.p2align 4,,10
	.p2align 3
.L654:
	movq	$0, 104(%rdi)
	movq	$0, (%rax)
	movq	$0, (%r14)
	testq	%rbp, %rbp
	jne	.L511
	.p2align 4,,10
	.p2align 3
.L520:
	addl	$1, 4(%rsp)
	movl	4(%rsp), %eax
	movq	%r14, 8(%rsp)
	cmpl	$3, %eax
	jne	.L519
.L670:
	movl	$-1, 88(%r11)
	movq	24(%rsp), %rdi
	movb	$1, 144(%r11)
	call	pthread_mutex_unlock@PLT
	movq	16(%rsp), %r15
	movq	128(%rbx), %rbp
	leaq	120(%r15), %r12
	movq	%r12, %rdi
	call	pthread_mutex_lock@PLT
	cmpq	160(%r15), %rbp
	je	.L672
.L451:
	movq	32(%rbp), %rax
	testq	%rax, %rax
	je	.L452
	movq	24(%rbp), %rdx
	movq	%rdx, 24(%rax)
.L452:
	movq	24(%rbp), %rax
	testq	%rax, %rax
	je	.L453
	movq	32(%rbp), %rdx
	movq	%rdx, 32(%rax)
.L453:
	movq	16(%rsp), %r15
	movq	%r12, %rdi
	movq	168(%r15), %rax
	movq	$0, 32(%rbp)
	movq	%rax, 24(%rbp)
	movq	%rbp, 168(%r15)
	call	pthread_mutex_unlock@PLT
	cmpq	$0, 8(%rsp)
	movq	$0, 128(%rbx)
	je	.L627
	movq	40(%r15), %rbp
	cmpb	$0, 40(%rbp)
	je	.L455
	data16	leaq	_ZN4asio6detail15keyword_tss_ptrINS0_10call_stackINS0_15task_io_serviceENS0_27task_io_service_thread_infoEE7contextEE6value_E@tlsgd(%rip), %rdi
	.value	0x6666
	rex64
	call	__tls_get_addr@PLT
	movq	(%rax), %rax
	testq	%rax, %rax
	jne	.L458
	jmp	.L455
	.p2align 4,,10
	.p2align 3
.L456:
	movq	16(%rax), %rax
	testq	%rax, %rax
	je	.L455
.L458:
	cmpq	(%rax), %rbp
	jne	.L456
	movq	8(%rax), %rax
	testq	%rax, %rax
	je	.L455
	movq	16(%rax), %rdx
	movq	8(%rsp), %rcx
	testq	%rdx, %rdx
	je	.L459
	movq	%rcx, (%rdx)
.L460:
	movq	%r14, 16(%rax)
	jmp	.L627
	.p2align 4,,10
	.p2align 3
.L655:
	movq	%r14, 8(%rsp)
	jmp	.L449
	.p2align 4,,10
	.p2align 3
.L659:
	movq	%r14, 8(%rsp)
	jmp	.L403
	.p2align 4,,10
	.p2align 3
.L660:
	movq	%r15, %rdi
	call	__cxa_guard_acquire@PLT
	testl	%eax, %eax
	je	.L474
	movq	_ZZN4asio15system_categoryEvE8instance@GOTPCREL(%rip), %rsi
	movq	_ZN4asio6detail15system_categoryD1Ev@GOTPCREL(%rip), %rdi
	leaq	__dso_handle(%rip), %rdx
	call	__cxa_atexit@PLT
	movq	%r15, %rdi
	call	__cxa_guard_release@PLT
	jmp	.L474
	.p2align 4,,10
	.p2align 3
.L662:
	movq	%r15, %rdi
	call	__cxa_guard_acquire@PLT
	testl	%eax, %eax
	je	.L428
	movq	_ZZN4asio15system_categoryEvE8instance@GOTPCREL(%rip), %r13
	movq	_ZN4asio6detail15system_categoryD1Ev@GOTPCREL(%rip), %rdi
	leaq	__dso_handle(%rip), %rdx
	movq	%r13, %rsi
	call	__cxa_atexit@PLT
	movq	%r15, %rdi
	call	__cxa_guard_release@PLT
	jmp	.L428
	.p2align 4,,10
	.p2align 3
.L622:
	orl	$8, %r13d
	leaq	40(%rsp), %rcx
	movl	$8, %r8d
	movl	%r12d, %edi
	movb	%r13b, 156(%rbx)
	movl	$13, %edx
	movl	$1, %esi
	movl	$0, (%rax)
	movq	$0, 40(%rsp)
	call	setsockopt@PLT
	movq	_ZGVZN4asio15system_categoryEvE8instance@GOTPCREL(%rip), %r15
	movzbl	(%r15), %eax
	testb	%al, %al
	jne	.L423
	movq	%r15, %rdi
	call	__cxa_guard_acquire@PLT
	testl	%eax, %eax
	je	.L423
	movq	_ZZN4asio15system_categoryEvE8instance@GOTPCREL(%rip), %r13
	movq	_ZN4asio6detail15system_categoryD1Ev@GOTPCREL(%rip), %rdi
	leaq	__dso_handle(%rip), %rdx
	movq	%r13, %rsi
	call	__cxa_atexit@PLT
	movq	%r15, %rdi
	call	__cxa_guard_release@PLT
	jmp	.L423
	.p2align 4,,10
	.p2align 3
.L623:
	orl	$8, %r13d
	leaq	40(%rsp), %rcx
	movl	$8, %r8d
	movl	%r12d, %edi
	movb	%r13b, 124(%rbx)
	movl	$13, %edx
	movl	$1, %esi
	movl	$0, (%rax)
	movq	$0, 40(%rsp)
	call	setsockopt@PLT
	movq	_ZGVZN4asio15system_categoryEvE8instance@GOTPCREL(%rip), %r15
	movzbl	(%r15), %eax
	testb	%al, %al
	jne	.L469
	movq	%r15, %rdi
	call	__cxa_guard_acquire@PLT
	testl	%eax, %eax
	je	.L469
	movq	_ZZN4asio15system_categoryEvE8instance@GOTPCREL(%rip), %rsi
	movq	_ZN4asio6detail15system_categoryD1Ev@GOTPCREL(%rip), %rdi
	leaq	__dso_handle(%rip), %rdx
	call	__cxa_atexit@PLT
	movq	%r15, %rdi
	call	__cxa_guard_release@PLT
	jmp	.L469
	.p2align 4,,10
	.p2align 3
.L455:
	leaq	48(%rbp), %r12
	movq	%r12, %rdi
	call	pthread_mutex_lock@PLT
	movq	200(%rbp), %rax
	testq	%rax, %rax
	je	.L462
	movq	8(%rsp), %rcx
	movq	%rcx, (%rax)
.L463:
	movq	136(%rbp), %rax
	movq	%r14, 200(%rbp)
	orq	$1, %rax
	movq	%rax, 136(%rbp)
	cmpq	$1, %rax
	je	.L464
	movq	%r12, %rdi
	call	pthread_mutex_unlock@PLT
	leaq	88(%rbp), %rdi
	call	pthread_cond_signal@PLT
	jmp	.L627
.L464:
	cmpb	$0, 176(%rbp)
	jne	.L466
	movq	144(%rbp), %rax
	testq	%rax, %rax
	je	.L466
	movb	$1, 176(%rbp)
	leaq	88(%rax), %rdx
	leaq	40(%rsp), %rcx
	movl	$3, %esi
	movq	%rdx, 44(%rsp)
	movl	88(%rax), %edx
	movl	$-2147483639, 40(%rsp)
	movl	96(%rax), %edi
	call	epoll_ctl@PLT
.L466:
	movq	%r12, %rdi
	call	pthread_mutex_unlock@PLT
	jmp	.L627
	.p2align 4,,10
	.p2align 3
.L409:
	leaq	48(%rbp), %r12
	movq	%r12, %rdi
	call	pthread_mutex_lock@PLT
	movq	200(%rbp), %rax
	testq	%rax, %rax
	je	.L416
	movq	8(%rsp), %rcx
	movq	%rcx, (%rax)
.L417:
	movq	136(%rbp), %rax
	movq	%r14, 200(%rbp)
	orq	$1, %rax
	movq	%rax, 136(%rbp)
	cmpq	$1, %rax
	je	.L418
	movq	%r12, %rdi
	call	pthread_mutex_unlock@PLT
	leaq	88(%rbp), %rdi
	call	pthread_cond_signal@PLT
	jmp	.L625
.L418:
	cmpb	$0, 176(%rbp)
	jne	.L420
	movq	144(%rbp), %rax
	testq	%rax, %rax
	je	.L420
	movb	$1, 176(%rbp)
	leaq	88(%rax), %rdx
	leaq	40(%rsp), %rcx
	movl	$3, %esi
	movq	%rdx, 44(%rsp)
	movl	88(%rax), %edx
	movl	$-2147483639, 40(%rsp)
	movl	96(%rax), %edi
	call	epoll_ctl@PLT
.L420:
	movq	%r12, %rdi
	call	pthread_mutex_unlock@PLT
	jmp	.L625
	.p2align 4,,10
	.p2align 3
.L664:
	movl	$-1, %eax
	lock xaddl	%eax, 12(%r12)
	jmp	.L384
	.p2align 4,,10
	.p2align 3
.L665:
	movl	$-1, %eax
	lock xaddl	%eax, 12(%r12)
	jmp	.L391
	.p2align 4,,10
	.p2align 3
.L667:
	movl	$-1, %eax
	lock xaddl	%eax, 12(%r12)
	jmp	.L497
	.p2align 4,,10
	.p2align 3
.L666:
	movl	$-1, %eax
	lock xaddl	%eax, 12(%r12)
	jmp	.L490
	.p2align 4,,10
	.p2align 3
.L668:
	movl	$-1, %eax
	lock xaddl	%eax, 12(%r12)
	jmp	.L504
	.p2align 4,,10
	.p2align 3
.L514:
	movq	%rbp, %r14
	jmp	.L396
	.p2align 4,,10
	.p2align 3
.L656:
	movq	16(%rsp), %rax
	movl	$0, 40(%rsp)
	leaq	40(%rsp), %rcx
	movl	%r12d, %edx
	movq	$0, 44(%rsp)
	movl	$2, %esi
	movl	96(%rax), %edi
	call	epoll_ctl@PLT
	movq	160(%rbx), %r11
	jmp	.L395
	.p2align 4,,10
	.p2align 3
.L652:
	movq	16(%rsp), %rax
	movl	$0, 40(%rsp)
	leaq	40(%rsp), %rcx
	movl	%r12d, %edx
	movq	$0, 44(%rsp)
	movl	$2, %esi
	movl	96(%rax), %edi
	call	epoll_ctl@PLT
	movq	128(%rbx), %r11
	jmp	.L441
	.p2align 4,,10
	.p2align 3
.L517:
	movq	%rbp, %r14
	jmp	.L442
	.p2align 4,,10
	.p2align 3
.L672:
	movq	24(%rbp), %rax
	movq	16(%rsp), %rcx
	movq	%rax, 160(%rcx)
	jmp	.L451
	.p2align 4,,10
	.p2align 3
.L671:
	movq	24(%rbp), %rax
	movq	16(%rsp), %rcx
	movq	%rax, 160(%rcx)
	jmp	.L405
.L663:
	movq	%r15, %rdi
	call	__cxa_guard_acquire@PLT
	testl	%eax, %eax
	je	.L432
	movq	_ZZN4asio15system_categoryEvE8instance@GOTPCREL(%rip), %r13
	movq	_ZN4asio6detail15system_categoryD1Ev@GOTPCREL(%rip), %rdi
	leaq	__dso_handle(%rip), %rdx
	movq	%r13, %rsi
	call	__cxa_atexit@PLT
	movq	%r15, %rdi
	call	__cxa_guard_release@PLT
	jmp	.L432
.L661:
	movq	%r15, %rdi
	call	__cxa_guard_acquire@PLT
	testl	%eax, %eax
	je	.L478
	movq	_ZZN4asio15system_categoryEvE8instance@GOTPCREL(%rip), %rsi
	movq	_ZN4asio6detail15system_categoryD1Ev@GOTPCREL(%rip), %rdi
	leaq	__dso_handle(%rip), %rdx
	call	__cxa_atexit@PLT
	movq	%r15, %rdi
	call	__cxa_guard_release@PLT
	jmp	.L478
.L480:
	movl	%r12d, %edi
	leaq	40(%rsp), %rdx
	movl	$21537, %esi
	xorl	%eax, %eax
	movl	$0, 40(%rsp)
	call	ioctl@PLT
	andb	$-4, 124(%rbx)
	movl	%r12d, %edi
	movl	$0, 0(%rbp)
	call	close@PLT
	jmp	.L637
.L434:
	movl	%r12d, %edi
	leaq	40(%rsp), %rdx
	movl	$21537, %esi
	xorl	%eax, %eax
	movl	$0, 40(%rsp)
	call	ioctl@PLT
	andb	$-4, 156(%rbx)
	movl	%r12d, %edi
	movl	$0, 0(%rbp)
	call	close@PLT
	jmp	.L635
.L462:
	movq	8(%rsp), %rax
	movq	%rax, 192(%rbp)
	jmp	.L463
.L416:
	movq	8(%rsp), %rax
	movq	%rax, 192(%rbp)
	jmp	.L417
.L413:
	movq	%rsi, 8(%rax)
	jmp	.L414
.L459:
	movq	%rcx, 8(%rax)
	jmp	.L460
.L629:
	call	__stack_chk_fail@PLT
	.cfi_endproc
.LFE12145:
	.section	.gcc_except_table._ZNSt23_Sp_counted_ptr_inplaceIN8asiodnp315MasterTCPServerESaIS1_ELN9__gnu_cxx12_Lock_policyE2EE10_M_disposeEv,"aG",@progbits,_ZNSt23_Sp_counted_ptr_inplaceIN8asiodnp315MasterTCPServerESaIS1_ELN9__gnu_cxx12_Lock_policyE2EE10_M_disposeEv,comdat
.LLSDA12145:
	.byte	0xff
	.byte	0xff
	.byte	0x1
	.uleb128 .LLSDACSE12145-.LLSDACSB12145
.LLSDACSB12145:
.LLSDACSE12145:
	.section	.text._ZNSt23_Sp_counted_ptr_inplaceIN8asiodnp315MasterTCPServerESaIS1_ELN9__gnu_cxx12_Lock_policyE2EE10_M_disposeEv,"axG",@progbits,_ZNSt23_Sp_counted_ptr_inplaceIN8asiodnp315MasterTCPServerESaIS1_ELN9__gnu_cxx12_Lock_policyE2EE10_M_disposeEv,comdat
	.size	_ZNSt23_Sp_counted_ptr_inplaceIN8asiodnp315MasterTCPServerESaIS1_ELN9__gnu_cxx12_Lock_policyE2EE10_M_disposeEv, .-_ZNSt23_Sp_counted_ptr_inplaceIN8asiodnp315MasterTCPServerESaIS1_ELN9__gnu_cxx12_Lock_policyE2EE10_M_disposeEv
	.section	.text.unlikely._ZN4asio6detail14do_throw_errorERKSt10error_codePKc,"axG",@progbits,_ZN4asio6detail14do_throw_errorERKSt10error_codePKc,comdat
	.weak	_ZN4asio6detail14do_throw_errorERKSt10error_codePKc
	.type	_ZN4asio6detail14do_throw_errorERKSt10error_codePKc, @function
_ZN4asio6detail14do_throw_errorERKSt10error_codePKc:
.LFB2763:
	.cfi_startproc
	.cfi_personality 0x9b,DW.ref.__gxx_personality_v0
	.cfi_lsda 0x1b,.LLSDA2763
	pushq	%r12
	.cfi_def_cfa_offset 16
	.cfi_offset 12, -16
	movq	%rsi, %rcx
	pushq	%rbp
	.cfi_def_cfa_offset 24
	.cfi_offset 6, -24
	subq	$56, %rsp
	.cfi_def_cfa_offset 80
	movq	8(%rdi), %rdx
	movl	(%rdi), %esi
	movq	%fs:40, %rax
	movq	%rax, 40(%rsp)
	xorl	%eax, %eax
	leaq	8(%rsp), %r12
	movq	%r12, %rdi
.LEHB5:
	call	_ZNSt12system_errorC1ESt10error_codePKc@PLT
.LEHE5:
	movl	$32, %edi
	call	__cxa_allocate_exception@PLT
	movq	%r12, %rsi
	movq	%rax, %rdi
	movq	%rax, %rbp
	call	_ZNSt13runtime_errorC2ERKS_@PLT
	movq	_ZTVSt12system_error@GOTPCREL(%rip), %rax
	movq	%rbp, %rdi
	movups	24(%rsp), %xmm0
	movq	_ZNSt12system_errorD1Ev@GOTPCREL(%rip), %rdx
	movq	_ZTISt12system_error@GOTPCREL(%rip), %rsi
	addq	$16, %rax
	movups	%xmm0, 16(%rbp)
	movq	%rax, 0(%rbp)
.LEHB6:
	call	__cxa_throw@PLT
.LEHE6:
.L676:
	movq	%rax, %rbp
.L674:
	movq	%r12, %rdi
	call	_ZNSt12system_errorD1Ev@PLT
	movq	%rbp, %rdi
.LEHB7:
	call	_Unwind_Resume@PLT
.LEHE7:
	.cfi_endproc
.LFE2763:
	.section	.gcc_except_table._ZN4asio6detail14do_throw_errorERKSt10error_codePKc,"aG",@progbits,_ZN4asio6detail14do_throw_errorERKSt10error_codePKc,comdat
.LLSDA2763:
	.byte	0xff
	.byte	0xff
	.byte	0x1
	.uleb128 .LLSDACSE2763-.LLSDACSB2763
.LLSDACSB2763:
	.uleb128 .LEHB5-.LFB2763
	.uleb128 .LEHE5-.LEHB5
	.uleb128 0
	.uleb128 0
	.uleb128 .LEHB6-.LFB2763
	.uleb128 .LEHE6-.LEHB6
	.uleb128 .L676-.LFB2763
	.uleb128 0
	.uleb128 .LEHB7-.LFB2763
	.uleb128 .LEHE7-.LEHB7
	.uleb128 0
	.uleb128 0
.LLSDACSE2763:
	.section	.text.unlikely._ZN4asio6detail14do_throw_errorERKSt10error_codePKc,"axG",@progbits,_ZN4asio6detail14do_throw_errorERKSt10error_codePKc,comdat
	.size	_ZN4asio6detail14do_throw_errorERKSt10error_codePKc, .-_ZN4asio6detail14do_throw_errorERKSt10error_codePKc
	.section	.text._ZN8asiodnp39IOHandlerD2Ev,"axG",@progbits,_ZN8asiodnp39IOHandlerD5Ev,comdat
	.align 2
	.p2align 4
	.weak	_ZN8asiodnp39IOHandlerD2Ev
	.type	_ZN8asiodnp39IOHandlerD2Ev, @function
_ZN8asiodnp39IOHandlerD2Ev:
.LFB8096:
	.cfi_startproc
	pushq	%r15
	.cfi_def_cfa_offset 16
	.cfi_offset 15, -16
	pushq	%r14
	.cfi_def_cfa_offset 24
	.cfi_offset 14, -24
	pushq	%r13
	.cfi_def_cfa_offset 32
	.cfi_offset 13, -32
	pushq	%r12
	.cfi_def_cfa_offset 40
	.cfi_offset 12, -40
	movq	%rdi, %r12
	pushq	%rbp
	.cfi_def_cfa_offset 48
	.cfi_offset 6, -48
	pushq	%rbx
	.cfi_def_cfa_offset 56
	.cfi_offset 3, -56
	subq	$56, %rsp
	.cfi_def_cfa_offset 112
	movq	_ZTVN8asiodnp39IOHandlerE@GOTPCREL(%rip), %rax
	leaq	104(%rax), %rdx
	addq	$16, %rax
	movq	%rax, %xmm0
	movq	_ZTVN8opendnp317MultidropTaskLockE@GOTPCREL(%rip), %rax
	movq	%rdx, %xmm1
	punpcklqdq	%xmm1, %xmm0
	addq	$16, %rax
	movups	%xmm0, (%rdi)
	movq	%rax, 648(%rdi)
	movq	712(%rdi), %rdi
	testq	%rdi, %rdi
	je	.L679
	movq	784(%r12), %rax
	movq	752(%r12), %rbx
	leaq	8(%rax), %rbp
	cmpq	%rbx, %rbp
	jbe	.L680
	.p2align 4,,10
	.p2align 3
.L681:
	movq	(%rbx), %rdi
	movl	$512, %esi
	addq	$8, %rbx
	call	_ZdlPvm@PLT
	cmpq	%rbx, %rbp
	ja	.L681
	movq	712(%r12), %rdi
.L680:
	movq	720(%r12), %rax
	leaq	0(,%rax,8), %rsi
	call	_ZdlPvm@PLT
.L679:
	movq	680(%r12), %rdi
	call	_ZNSt8_Rb_treeIPN8opendnp317IScheduleCallbackES2_St9_IdentityIS2_ESt4lessIS2_ESaIS2_EE8_M_eraseEPSt13_Rb_tree_nodeIS2_E.isra.0
	movq	640(%r12), %rbp
	testq	%rbp, %rbp
	je	.L683
	movq	_ZL28__gthrw___pthread_key_createPjPFvPvE@GOTPCREL(%rip), %rax
	movq	%rax, 8(%rsp)
	testq	%rax, %rax
	jne	.L808
	movl	8(%rbp), %eax
	leal	-1(%rax), %edx
	movl	%edx, 8(%rbp)
.L685:
	cmpl	$1, %eax
	je	.L809
.L683:
	movq	240(%r12), %rbp
	testq	%rbp, %rbp
	je	.L690
	movq	_ZL28__gthrw___pthread_key_createPjPFvPvE@GOTPCREL(%rip), %rax
	movq	%rax, 8(%rsp)
	testq	%rax, %rax
	jne	.L810
	movl	8(%rbp), %eax
	leal	-1(%rax), %edx
	movl	%edx, 8(%rbp)
.L692:
	cmpl	$1, %eax
	je	.L811
.L690:
	movq	224(%r12), %rbp
	testq	%rbp, %rbp
	je	.L697
	movq	_ZL28__gthrw___pthread_key_createPjPFvPvE@GOTPCREL(%rip), %rax
	movq	%rax, 8(%rsp)
	testq	%rax, %rax
	jne	.L812
	movl	8(%rbp), %eax
	leal	-1(%rax), %edx
	movl	%edx, 8(%rbp)
.L699:
	cmpl	$1, %eax
	je	.L813
.L697:
	movq	168(%r12), %rbx
	movq	184(%r12), %rax
	movq	192(%r12), %r13
	movq	152(%r12), %rbp
	movq	%rbx, 32(%rsp)
	movq	176(%r12), %rbx
	movq	%rax, 24(%rsp)
	movq	208(%r12), %rax
	movq	%rbx, 40(%rsp)
	addq	$8, %rbx
	movq	%rax, 16(%rsp)
	cmpq	%rbx, %rax
	jbe	.L717
	movq	_ZL28__gthrw___pthread_key_createPjPFvPvE@GOTPCREL(%rip), %rax
	movq	%rax, 8(%rsp)
	.p2align 4,,10
	.p2align 3
.L703:
	movq	(%rbx), %r14
	cmpq	$0, 8(%rsp)
	leaq	512(%r14), %r15
	je	.L712
	jmp	.L716
	.p2align 4,,10
	.p2align 3
.L709:
	addq	$32, %r14
	cmpq	%r14, %r15
	je	.L711
.L712:
	movq	24(%r14), %rdi
	testq	%rdi, %rdi
	je	.L709
	movl	8(%rdi), %edx
	leal	-1(%rdx), %esi
	movl	%esi, 8(%rdi)
	cmpl	$1, %edx
	jne	.L709
	movq	(%rdi), %rdx
	movq	%rdi, (%rsp)
	call	*16(%rdx)
	movq	(%rsp), %rdi
	movl	12(%rdi), %edx
	leal	-1(%rdx), %esi
	movl	%esi, 12(%rdi)
	cmpl	$1, %edx
	jne	.L709
	movq	(%rdi), %rdx
	addq	$32, %r14
	call	*24(%rdx)
	cmpq	%r14, %r15
	jne	.L712
	.p2align 4,,10
	.p2align 3
.L711:
	addq	$8, %rbx
	cmpq	%rbx, 16(%rsp)
	ja	.L703
.L717:
	movq	40(%rsp), %rsi
	cmpq	%rsi, 16(%rsp)
	je	.L814
	cmpq	32(%rsp), %rbp
	je	.L727
	cmpq	$0, _ZL28__gthrw___pthread_key_createPjPFvPvE@GOTPCREL(%rip)
	jne	.L722
	movq	24(%rbp), %r14
	testq	%r14, %r14
	jne	.L723
	.p2align 4,,10
	.p2align 3
.L725:
	addq	$32, %rbp
	cmpq	32(%rsp), %rbp
	je	.L727
.L728:
	movq	24(%rbp), %r14
	testq	%r14, %r14
	je	.L725
.L723:
	movl	8(%r14), %eax
	leal	-1(%rax), %edx
	movl	%edx, 8(%r14)
	cmpl	$1, %eax
	jne	.L725
	movq	(%r14), %rax
	movq	%r14, %rdi
	call	*16(%rax)
	movl	12(%r14), %eax
	leal	-1(%rax), %edx
	movl	%edx, 12(%r14)
	cmpl	$1, %eax
	jne	.L725
	movq	(%r14), %rax
	movq	%r14, %rdi
	addq	$32, %rbp
	call	*24(%rax)
	cmpq	32(%rsp), %rbp
	jne	.L728
.L727:
	cmpq	%r13, 24(%rsp)
	je	.L737
	cmpq	$0, _ZL28__gthrw___pthread_key_createPjPFvPvE@GOTPCREL(%rip)
	jne	.L732
	movq	24(%r13), %rbp
	testq	%rbp, %rbp
	jne	.L733
	.p2align 4,,10
	.p2align 3
.L735:
	addq	$32, %r13
	cmpq	%r13, 24(%rsp)
	je	.L737
.L738:
	movq	24(%r13), %rbp
	testq	%rbp, %rbp
	je	.L735
.L733:
	movl	8(%rbp), %eax
	leal	-1(%rax), %edx
	movl	%edx, 8(%rbp)
	cmpl	$1, %eax
	jne	.L735
	movq	0(%rbp), %rax
	movq	%rbp, %rdi
	call	*16(%rax)
	movl	12(%rbp), %eax
	leal	-1(%rax), %edx
	movl	%edx, 12(%rbp)
	cmpl	$1, %eax
	jne	.L735
	movq	0(%rbp), %rax
	movq	%rbp, %rdi
	addq	$32, %r13
	call	*24(%rax)
	cmpq	%r13, 24(%rsp)
	jne	.L738
	.p2align 4,,10
	.p2align 3
.L737:
	movq	136(%r12), %rdi
	testq	%rdi, %rdi
	je	.L721
	movq	208(%r12), %rax
	movq	176(%r12), %rbx
	leaq	8(%rax), %rbp
	cmpq	%rbx, %rbp
	jbe	.L751
	.p2align 4,,10
	.p2align 3
.L752:
	movq	(%rbx), %rdi
	movl	$512, %esi
	addq	$8, %rbx
	call	_ZdlPvm@PLT
	cmpq	%rbx, %rbp
	ja	.L752
	movq	136(%r12), %rdi
.L751:
	movq	144(%r12), %rax
	leaq	0(,%rax,8), %rsi
	call	_ZdlPvm@PLT
.L721:
	movq	120(%r12), %rbx
	movq	112(%r12), %rbp
	cmpq	%rbp, %rbx
	je	.L753
	cmpq	$0, _ZL28__gthrw___pthread_key_createPjPFvPvE@GOTPCREL(%rip)
	je	.L760
	jmp	.L754
	.p2align 4,,10
	.p2align 3
.L757:
	addq	$24, %rbp
	cmpq	%rbp, %rbx
	je	.L759
.L760:
	movq	16(%rbp), %r13
	testq	%r13, %r13
	je	.L757
	movl	8(%r13), %eax
	leal	-1(%rax), %edx
	movl	%edx, 8(%r13)
	cmpl	$1, %eax
	jne	.L757
	movq	0(%r13), %rax
	movq	%r13, %rdi
	call	*16(%rax)
	movl	12(%r13), %eax
	leal	-1(%rax), %edx
	movl	%edx, 12(%r13)
	cmpl	$1, %eax
	jne	.L757
	movq	0(%r13), %rax
	addq	$24, %rbp
	movq	%r13, %rdi
	call	*24(%rax)
	cmpq	%rbp, %rbx
	jne	.L760
	.p2align 4,,10
	.p2align 3
.L759:
	movq	112(%r12), %rbp
.L753:
	testq	%rbp, %rbp
	je	.L764
	movq	128(%r12), %rsi
	movq	%rbp, %rdi
	subq	%rbp, %rsi
	call	_ZdlPvm@PLT
.L764:
	movq	72(%r12), %rbp
	testq	%rbp, %rbp
	je	.L766
	movq	_ZL28__gthrw___pthread_key_createPjPFvPvE@GOTPCREL(%rip), %rax
	movq	%rax, 8(%rsp)
	testq	%rax, %rax
	jne	.L815
	movl	8(%rbp), %eax
	leal	-1(%rax), %edx
	movl	%edx, 8(%rbp)
.L768:
	cmpl	$1, %eax
	je	.L816
.L766:
	movq	56(%r12), %rbp
	testq	%rbp, %rbp
	je	.L773
	movq	_ZL28__gthrw___pthread_key_createPjPFvPvE@GOTPCREL(%rip), %rax
	movq	%rax, 8(%rsp)
	testq	%rax, %rax
	jne	.L817
	movl	8(%rbp), %eax
	leal	-1(%rax), %edx
	movl	%edx, 8(%rbp)
.L775:
	cmpl	$1, %eax
	je	.L818
.L773:
	movq	40(%r12), %rbp
	testq	%rbp, %rbp
	je	.L780
	movq	_ZL28__gthrw___pthread_key_createPjPFvPvE@GOTPCREL(%rip), %rax
	movq	%rax, 8(%rsp)
	testq	%rax, %rax
	jne	.L819
	movl	8(%rbp), %eax
	leal	-1(%rax), %edx
	movl	%edx, 8(%rbp)
.L782:
	cmpl	$1, %eax
	je	.L820
.L780:
	movq	24(%r12), %rdi
	testq	%rdi, %rdi
	je	.L678
	cmpq	$0, _ZL28__gthrw___pthread_key_createPjPFvPvE@GOTPCREL(%rip)
	jne	.L821
	movl	12(%rdi), %eax
	leal	-1(%rax), %edx
	movl	%edx, 12(%rdi)
.L789:
	cmpl	$1, %eax
	je	.L822
.L678:
	addq	$56, %rsp
	.cfi_remember_state
	.cfi_def_cfa_offset 56
	popq	%rbx
	.cfi_def_cfa_offset 48
	popq	%rbp
	.cfi_def_cfa_offset 40
	popq	%r12
	.cfi_def_cfa_offset 32
	popq	%r13
	.cfi_def_cfa_offset 24
	popq	%r14
	.cfi_def_cfa_offset 16
	popq	%r15
	.cfi_def_cfa_offset 8
	ret
	.p2align 4,,10
	.p2align 3
.L824:
	.cfi_restore_state
	movq	(%rdi), %rcx
	movq	%rdi, (%rsp)
	call	*16(%rcx)
	movq	(%rsp), %rdi
	movl	$-1, %ecx
	lock xaddl	%ecx, 12(%rdi)
	cmpl	$1, %ecx
	je	.L823
	.p2align 4,,10
	.p2align 3
.L714:
	addq	$32, %r14
	cmpq	%r14, %r15
	je	.L711
.L716:
	movq	24(%r14), %rdi
	testq	%rdi, %rdi
	je	.L714
	lock subl	$1, 8(%rdi)
	jne	.L714
	jmp	.L824
	.p2align 4,,10
	.p2align 3
.L823:
	movq	(%rdi), %rcx
	call	*24(%rcx)
	jmp	.L714
.L826:
	movq	(%r14), %rax
	movq	%r14, %rdi
	call	*16(%rax)
	lock subl	$1, 12(%r14)
	je	.L825
	.p2align 4,,10
	.p2align 3
.L730:
	addq	$32, %rbp
	cmpq	%rbp, 32(%rsp)
	je	.L727
.L722:
	movq	24(%rbp), %r14
	testq	%r14, %r14
	je	.L730
	lock subl	$1, 8(%r14)
	jne	.L730
	jmp	.L826
.L828:
	movq	0(%rbp), %rax
	movq	%rbp, %rdi
	call	*16(%rax)
	lock subl	$1, 12(%rbp)
	je	.L827
	.p2align 4,,10
	.p2align 3
.L740:
	addq	$32, %r13
	cmpq	%r13, 24(%rsp)
	je	.L737
.L732:
	movq	24(%r13), %rbp
	testq	%rbp, %rbp
	je	.L740
	lock subl	$1, 8(%rbp)
	jne	.L740
	jmp	.L828
.L830:
	movq	0(%r13), %rax
	movq	%r13, %rdi
	call	*16(%rax)
	lock subl	$1, 12(%r13)
	je	.L829
	.p2align 4,,10
	.p2align 3
.L762:
	addq	$24, %rbp
	cmpq	%rbp, %rbx
	je	.L759
.L754:
	movq	16(%rbp), %r13
	testq	%r13, %r13
	je	.L762
	lock subl	$1, 8(%r13)
	jne	.L762
	jmp	.L830
.L814:
	cmpq	%rbp, 24(%rsp)
	je	.L737
	cmpq	$0, _ZL28__gthrw___pthread_key_createPjPFvPvE@GOTPCREL(%rip)
	jne	.L742
	movq	24(%rbp), %r13
	testq	%r13, %r13
	jne	.L743
	.p2align 4,,10
	.p2align 3
.L745:
	addq	$32, %rbp
	cmpq	%rbp, 24(%rsp)
	je	.L737
	movq	24(%rbp), %r13
	testq	%r13, %r13
	je	.L745
.L743:
	movl	8(%r13), %eax
	leal	-1(%rax), %edx
	movl	%edx, 8(%r13)
	cmpl	$1, %eax
	jne	.L745
	movq	0(%r13), %rax
	movq	%r13, %rdi
	call	*16(%rax)
	movl	12(%r13), %eax
	leal	-1(%rax), %edx
	movl	%edx, 12(%r13)
	cmpl	$1, %eax
	jne	.L745
	movq	0(%r13), %rax
	movq	%r13, %rdi
	call	*24(%rax)
	jmp	.L745
.L832:
	movq	0(%r13), %rax
	movq	%r13, %rdi
	call	*16(%rax)
	lock subl	$1, 12(%r13)
	je	.L831
	.p2align 4,,10
	.p2align 3
.L749:
	addq	$32, %rbp
	cmpq	%rbp, 24(%rsp)
	je	.L737
.L742:
	movq	24(%rbp), %r13
	testq	%r13, %r13
	je	.L749
	lock subl	$1, 8(%r13)
	jne	.L749
	jmp	.L832
.L816:
	movq	0(%rbp), %rax
	movq	%rbp, %rdi
	call	*16(%rax)
	cmpq	$0, 8(%rsp)
	jne	.L833
	movl	12(%rbp), %eax
	leal	-1(%rax), %edx
	movl	%edx, 12(%rbp)
.L771:
	cmpl	$1, %eax
	jne	.L766
	movq	0(%rbp), %rax
	movq	%rbp, %rdi
	call	*24(%rax)
	jmp	.L766
.L818:
	movq	0(%rbp), %rax
	movq	%rbp, %rdi
	call	*16(%rax)
	cmpq	$0, 8(%rsp)
	jne	.L834
	movl	12(%rbp), %eax
	leal	-1(%rax), %edx
	movl	%edx, 12(%rbp)
.L778:
	cmpl	$1, %eax
	jne	.L773
	movq	0(%rbp), %rax
	movq	%rbp, %rdi
	call	*24(%rax)
	jmp	.L773
.L820:
	movq	0(%rbp), %rax
	movq	%rbp, %rdi
	call	*16(%rax)
	cmpq	$0, 8(%rsp)
	jne	.L835
	movl	12(%rbp), %eax
	leal	-1(%rax), %edx
	movl	%edx, 12(%rbp)
.L785:
	cmpl	$1, %eax
	jne	.L780
	movq	0(%rbp), %rax
	movq	%rbp, %rdi
	call	*24(%rax)
	jmp	.L780
.L822:
	movq	(%rdi), %rax
	movq	24(%rax), %rax
	addq	$56, %rsp
	.cfi_remember_state
	.cfi_def_cfa_offset 56
	popq	%rbx
	.cfi_def_cfa_offset 48
	popq	%rbp
	.cfi_def_cfa_offset 40
	popq	%r12
	.cfi_def_cfa_offset 32
	popq	%r13
	.cfi_def_cfa_offset 24
	popq	%r14
	.cfi_def_cfa_offset 16
	popq	%r15
	.cfi_def_cfa_offset 8
	jmp	*%rax
.L811:
	.cfi_restore_state
	movq	0(%rbp), %rax
	movq	%rbp, %rdi
	call	*16(%rax)
	cmpq	$0, 8(%rsp)
	jne	.L836
	movl	12(%rbp), %eax
	leal	-1(%rax), %edx
	movl	%edx, 12(%rbp)
.L695:
	cmpl	$1, %eax
	jne	.L690
	movq	0(%rbp), %rax
	movq	%rbp, %rdi
	call	*24(%rax)
	jmp	.L690
.L813:
	movq	0(%rbp), %rax
	movq	%rbp, %rdi
	call	*16(%rax)
	cmpq	$0, 8(%rsp)
	jne	.L837
	movl	12(%rbp), %eax
	leal	-1(%rax), %edx
	movl	%edx, 12(%rbp)
.L702:
	cmpl	$1, %eax
	jne	.L697
	movq	0(%rbp), %rax
	movq	%rbp, %rdi
	call	*24(%rax)
	jmp	.L697
.L809:
	movq	0(%rbp), %rax
	movq	%rbp, %rdi
	call	*16(%rax)
	cmpq	$0, 8(%rsp)
	jne	.L838
	movl	12(%rbp), %eax
	leal	-1(%rax), %edx
	movl	%edx, 12(%rbp)
.L688:
	cmpl	$1, %eax
	jne	.L683
	movq	0(%rbp), %rax
	movq	%rbp, %rdi
	call	*24(%rax)
	jmp	.L683
.L808:
	movl	$-1, %eax
	lock xaddl	%eax, 8(%rbp)
	jmp	.L685
.L812:
	movl	$-1, %eax
	lock xaddl	%eax, 8(%rbp)
	jmp	.L699
.L815:
	movl	$-1, %eax
	lock xaddl	%eax, 8(%rbp)
	jmp	.L768
.L817:
	movl	$-1, %eax
	lock xaddl	%eax, 8(%rbp)
	jmp	.L775
.L819:
	movl	$-1, %eax
	lock xaddl	%eax, 8(%rbp)
	jmp	.L782
.L821:
	movl	$-1, %eax
	lock xaddl	%eax, 12(%rdi)
	jmp	.L789
.L810:
	movl	$-1, %eax
	lock xaddl	%eax, 8(%rbp)
	jmp	.L692
.L829:
	movq	0(%r13), %rax
	movq	%r13, %rdi
	call	*24(%rax)
	jmp	.L762
.L825:
	movq	(%r14), %rax
	movq	%r14, %rdi
	call	*24(%rax)
	jmp	.L730
.L827:
	movq	0(%rbp), %rax
	movq	%rbp, %rdi
	call	*24(%rax)
	jmp	.L740
.L836:
	movl	$-1, %eax
	lock xaddl	%eax, 12(%rbp)
	jmp	.L695
.L838:
	movl	$-1, %eax
	lock xaddl	%eax, 12(%rbp)
	jmp	.L688
.L833:
	movl	$-1, %eax
	lock xaddl	%eax, 12(%rbp)
	jmp	.L771
.L834:
	movl	$-1, %eax
	lock xaddl	%eax, 12(%rbp)
	jmp	.L778
.L835:
	movl	$-1, %eax
	lock xaddl	%eax, 12(%rbp)
	jmp	.L785
.L837:
	movl	$-1, %eax
	lock xaddl	%eax, 12(%rbp)
	jmp	.L702
.L831:
	movq	0(%r13), %rax
	movq	%r13, %rdi
	call	*24(%rax)
	jmp	.L749
	.cfi_endproc
.LFE8096:
	.size	_ZN8asiodnp39IOHandlerD2Ev, .-_ZN8asiodnp39IOHandlerD2Ev
	.set	.LTHUNK2,_ZN8asiodnp39IOHandlerD2Ev
	.p2align 4
	.weak	_ZThn8_N8asiodnp39IOHandlerD1Ev
	.type	_ZThn8_N8asiodnp39IOHandlerD1Ev, @function
_ZThn8_N8asiodnp39IOHandlerD1Ev:
.LFB12396:
	.cfi_startproc
	subq	$8, %rdi
	jmp	.LTHUNK2
	.cfi_endproc
.LFE12396:
	.size	_ZThn8_N8asiodnp39IOHandlerD1Ev, .-_ZThn8_N8asiodnp39IOHandlerD1Ev
	.weak	_ZN8asiodnp39IOHandlerD1Ev
	.set	_ZN8asiodnp39IOHandlerD1Ev,_ZN8asiodnp39IOHandlerD2Ev
	.section	.text._ZNSt23_Sp_counted_ptr_inplaceIN8asiodnp315SerialIOHandlerESaIS1_ELN9__gnu_cxx12_Lock_policyE2EE10_M_disposeEv,"axG",@progbits,_ZNSt23_Sp_counted_ptr_inplaceIN8asiodnp315SerialIOHandlerESaIS1_ELN9__gnu_cxx12_Lock_policyE2EE10_M_disposeEv,comdat
	.align 2
	.p2align 4
	.weak	_ZNSt23_Sp_counted_ptr_inplaceIN8asiodnp315SerialIOHandlerESaIS1_ELN9__gnu_cxx12_Lock_policyE2EE10_M_disposeEv
	.type	_ZNSt23_Sp_counted_ptr_inplaceIN8asiodnp315SerialIOHandlerESaIS1_ELN9__gnu_cxx12_Lock_policyE2EE10_M_disposeEv, @function
_ZNSt23_Sp_counted_ptr_inplaceIN8asiodnp315SerialIOHandlerESaIS1_ELN9__gnu_cxx12_Lock_policyE2EE10_M_disposeEv:
.LFB12110:
	.cfi_startproc
	movq	_ZTVN8asiodnp315SerialIOHandlerE@GOTPCREL(%rip), %rax
	pushq	%r12
	.cfi_def_cfa_offset 16
	.cfi_offset 12, -16
	leaq	16(%rdi), %r12
	pushq	%rbp
	.cfi_def_cfa_offset 24
	.cfi_offset 6, -24
	leaq	104(%rax), %rdx
	addq	$16, %rax
	pushq	%rbx
	.cfi_def_cfa_offset 32
	.cfi_offset 3, -32
	movq	%rdi, %rbx
	movq	%rax, %xmm0
	movq	%rdx, %xmm1
	addq	$912, %rdi
	punpcklqdq	%xmm1, %xmm0
	movups	%xmm0, -896(%rdi)
	call	_ZN7openpal8TimerRefD1Ev@PLT
	movq	856(%rbx), %rdi
	leaq	872(%rbx), %rax
	cmpq	%rax, %rdi
	je	.L840
	movq	872(%rbx), %rax
	leaq	1(%rax), %rsi
	call	_ZdlPvm@PLT
.L840:
	movq	824(%rbx), %rbp
	testq	%rbp, %rbp
	je	.L842
	movq	_ZL28__gthrw___pthread_key_createPjPFvPvE@GOTPCREL(%rip), %rbx
	testq	%rbx, %rbx
	jne	.L849
	movl	8(%rbp), %eax
	leal	-1(%rax), %edx
	movl	%edx, 8(%rbp)
.L844:
	cmpl	$1, %eax
	je	.L850
.L842:
	popq	%rbx
	.cfi_remember_state
	.cfi_def_cfa_offset 24
	movq	%r12, %rdi
	popq	%rbp
	.cfi_def_cfa_offset 16
	popq	%r12
	.cfi_def_cfa_offset 8
	jmp	_ZN8asiodnp39IOHandlerD2Ev@PLT
	.p2align 4,,10
	.p2align 3
.L850:
	.cfi_restore_state
	movq	0(%rbp), %rax
	movq	%rbp, %rdi
	call	*16(%rax)
	testq	%rbx, %rbx
	jne	.L851
	movl	12(%rbp), %eax
	leal	-1(%rax), %edx
	movl	%edx, 12(%rbp)
.L847:
	cmpl	$1, %eax
	jne	.L842
	movq	0(%rbp), %rax
	movq	%rbp, %rdi
	call	*24(%rax)
	jmp	.L842
	.p2align 4,,10
	.p2align 3
.L849:
	movl	$-1, %eax
	lock xaddl	%eax, 8(%rbp)
	jmp	.L844
	.p2align 4,,10
	.p2align 3
.L851:
	movl	$-1, %eax
	lock xaddl	%eax, 12(%rbp)
	jmp	.L847
	.cfi_endproc
.LFE12110:
	.size	_ZNSt23_Sp_counted_ptr_inplaceIN8asiodnp315SerialIOHandlerESaIS1_ELN9__gnu_cxx12_Lock_policyE2EE10_M_disposeEv, .-_ZNSt23_Sp_counted_ptr_inplaceIN8asiodnp315SerialIOHandlerESaIS1_ELN9__gnu_cxx12_Lock_policyE2EE10_M_disposeEv
	.section	.text._ZNSt23_Sp_counted_ptr_inplaceIN8asiodnp318TCPServerIOHandlerESaIS1_ELN9__gnu_cxx12_Lock_policyE2EE10_M_disposeEv,"axG",@progbits,_ZNSt23_Sp_counted_ptr_inplaceIN8asiodnp318TCPServerIOHandlerESaIS1_ELN9__gnu_cxx12_Lock_policyE2EE10_M_disposeEv,comdat
	.align 2
	.p2align 4
	.weak	_ZNSt23_Sp_counted_ptr_inplaceIN8asiodnp318TCPServerIOHandlerESaIS1_ELN9__gnu_cxx12_Lock_policyE2EE10_M_disposeEv
	.type	_ZNSt23_Sp_counted_ptr_inplaceIN8asiodnp318TCPServerIOHandlerESaIS1_ELN9__gnu_cxx12_Lock_policyE2EE10_M_disposeEv, @function
_ZNSt23_Sp_counted_ptr_inplaceIN8asiodnp318TCPServerIOHandlerESaIS1_ELN9__gnu_cxx12_Lock_policyE2EE10_M_disposeEv:
.LFB12124:
	.cfi_startproc
	pushq	%r13
	.cfi_def_cfa_offset 16
	.cfi_offset 13, -16
	leaq	16(%rdi), %r13
	pushq	%r12
	.cfi_def_cfa_offset 24
	.cfi_offset 12, -24
	pushq	%rbp
	.cfi_def_cfa_offset 32
	.cfi_offset 6, -32
	pushq	%rbx
	.cfi_def_cfa_offset 40
	.cfi_offset 3, -40
	movq	%rdi, %rbx
	subq	$8, %rsp
	.cfi_def_cfa_offset 48
	movq	_ZTVN8asiodnp318TCPServerIOHandlerE@GOTPCREL(%rip), %rax
	movq	880(%rdi), %rbp
	leaq	104(%rax), %rdx
	addq	$16, %rax
	movq	%rax, %xmm0
	movq	%rdx, %xmm1
	punpcklqdq	%xmm1, %xmm0
	movups	%xmm0, 16(%rdi)
	testq	%rbp, %rbp
	je	.L854
	movq	_ZL28__gthrw___pthread_key_createPjPFvPvE@GOTPCREL(%rip), %r12
	testq	%r12, %r12
	jne	.L869
	movl	8(%rbp), %eax
	leal	-1(%rax), %edx
	movl	%edx, 8(%rbp)
.L856:
	cmpl	$1, %eax
	je	.L870
.L854:
	movq	832(%rbx), %rdi
	leaq	848(%rbx), %rax
	cmpq	%rax, %rdi
	je	.L860
	movq	848(%rbx), %rax
	leaq	1(%rax), %rsi
	call	_ZdlPvm@PLT
.L860:
	movq	824(%rbx), %rbp
	testq	%rbp, %rbp
	je	.L862
	movq	_ZL28__gthrw___pthread_key_createPjPFvPvE@GOTPCREL(%rip), %r12
	testq	%r12, %r12
	jne	.L871
	movl	8(%rbp), %eax
	leal	-1(%rax), %edx
	movl	%edx, 8(%rbp)
.L864:
	cmpl	$1, %eax
	je	.L872
.L862:
	addq	$8, %rsp
	.cfi_remember_state
	.cfi_def_cfa_offset 40
	movq	%r13, %rdi
	popq	%rbx
	.cfi_def_cfa_offset 32
	popq	%rbp
	.cfi_def_cfa_offset 24
	popq	%r12
	.cfi_def_cfa_offset 16
	popq	%r13
	.cfi_def_cfa_offset 8
	jmp	_ZN8asiodnp39IOHandlerD2Ev@PLT
	.p2align 4,,10
	.p2align 3
.L870:
	.cfi_restore_state
	movq	0(%rbp), %rax
	movq	%rbp, %rdi
	call	*16(%rax)
	testq	%r12, %r12
	jne	.L873
	movl	12(%rbp), %eax
	leal	-1(%rax), %edx
	movl	%edx, 12(%rbp)
.L859:
	cmpl	$1, %eax
	jne	.L854
	movq	0(%rbp), %rax
	movq	%rbp, %rdi
	call	*24(%rax)
	jmp	.L854
	.p2align 4,,10
	.p2align 3
.L872:
	movq	0(%rbp), %rax
	movq	%rbp, %rdi
	call	*16(%rax)
	testq	%r12, %r12
	jne	.L874
	movl	12(%rbp), %eax
	leal	-1(%rax), %edx
	movl	%edx, 12(%rbp)
.L867:
	cmpl	$1, %eax
	jne	.L862
	movq	0(%rbp), %rax
	movq	%rbp, %rdi
	call	*24(%rax)
	jmp	.L862
	.p2align 4,,10
	.p2align 3
.L869:
	movl	$-1, %eax
	lock xaddl	%eax, 8(%rbp)
	jmp	.L856
	.p2align 4,,10
	.p2align 3
.L871:
	movl	$-1, %eax
	lock xaddl	%eax, 8(%rbp)
	jmp	.L864
	.p2align 4,,10
	.p2align 3
.L873:
	movl	$-1, %eax
	lock xaddl	%eax, 12(%rbp)
	jmp	.L859
	.p2align 4,,10
	.p2align 3
.L874:
	movl	$-1, %eax
	lock xaddl	%eax, 12(%rbp)
	jmp	.L867
	.cfi_endproc
.LFE12124:
	.size	_ZNSt23_Sp_counted_ptr_inplaceIN8asiodnp318TCPServerIOHandlerESaIS1_ELN9__gnu_cxx12_Lock_policyE2EE10_M_disposeEv, .-_ZNSt23_Sp_counted_ptr_inplaceIN8asiodnp318TCPServerIOHandlerESaIS1_ELN9__gnu_cxx12_Lock_policyE2EE10_M_disposeEv
	.section	.text._ZNSt23_Sp_counted_ptr_inplaceIN8asiodnp318TCPClientIOHandlerESaIS1_ELN9__gnu_cxx12_Lock_policyE2EE10_M_disposeEv,"axG",@progbits,_ZNSt23_Sp_counted_ptr_inplaceIN8asiodnp318TCPClientIOHandlerESaIS1_ELN9__gnu_cxx12_Lock_policyE2EE10_M_disposeEv,comdat
	.align 2
	.p2align 4
	.weak	_ZNSt23_Sp_counted_ptr_inplaceIN8asiodnp318TCPClientIOHandlerESaIS1_ELN9__gnu_cxx12_Lock_policyE2EE10_M_disposeEv
	.type	_ZNSt23_Sp_counted_ptr_inplaceIN8asiodnp318TCPClientIOHandlerESaIS1_ELN9__gnu_cxx12_Lock_policyE2EE10_M_disposeEv, @function
_ZNSt23_Sp_counted_ptr_inplaceIN8asiodnp318TCPClientIOHandlerESaIS1_ELN9__gnu_cxx12_Lock_policyE2EE10_M_disposeEv:
.LFB12131:
	.cfi_startproc
	pushq	%r13
	.cfi_def_cfa_offset 16
	.cfi_offset 13, -16
	pushq	%r12
	.cfi_def_cfa_offset 24
	.cfi_offset 12, -24
	leaq	16(%rdi), %r12
	pushq	%rbp
	.cfi_def_cfa_offset 32
	.cfi_offset 6, -32
	pushq	%rbx
	.cfi_def_cfa_offset 40
	.cfi_offset 3, -40
	movq	%rdi, %rbx
	addq	$944, %rdi
	subq	$8, %rsp
	.cfi_def_cfa_offset 48
	movq	_ZTVN8asiodnp318TCPClientIOHandlerE@GOTPCREL(%rip), %rax
	leaq	104(%rax), %rdx
	addq	$16, %rax
	movq	%rax, %xmm0
	movq	%rdx, %xmm1
	punpcklqdq	%xmm1, %xmm0
	movups	%xmm0, -928(%rdi)
	call	_ZN7openpal8TimerRefD1Ev@PLT
	movq	936(%rbx), %rbp
	testq	%rbp, %rbp
	je	.L877
	movq	_ZL28__gthrw___pthread_key_createPjPFvPvE@GOTPCREL(%rip), %r13
	testq	%r13, %r13
	jne	.L893
	movl	8(%rbp), %eax
	leal	-1(%rax), %edx
	movl	%edx, 8(%rbp)
.L879:
	cmpl	$1, %eax
	je	.L894
.L877:
	movq	896(%rbx), %rdi
	leaq	912(%rbx), %rax
	cmpq	%rax, %rdi
	je	.L883
	movq	912(%rbx), %rax
	leaq	1(%rax), %rsi
	call	_ZdlPvm@PLT
.L883:
	movq	856(%rbx), %rdi
	leaq	872(%rbx), %rax
	cmpq	%rax, %rdi
	je	.L884
	movq	872(%rbx), %rax
	leaq	1(%rax), %rsi
	call	_ZdlPvm@PLT
.L884:
	movq	824(%rbx), %rbp
	testq	%rbp, %rbp
	je	.L886
	movq	_ZL28__gthrw___pthread_key_createPjPFvPvE@GOTPCREL(%rip), %r13
	testq	%r13, %r13
	jne	.L895
	movl	8(%rbp), %eax
	leal	-1(%rax), %edx
	movl	%edx, 8(%rbp)
.L888:
	cmpl	$1, %eax
	je	.L896
.L886:
	addq	$8, %rsp
	.cfi_remember_state
	.cfi_def_cfa_offset 40
	movq	%r12, %rdi
	popq	%rbx
	.cfi_def_cfa_offset 32
	popq	%rbp
	.cfi_def_cfa_offset 24
	popq	%r12
	.cfi_def_cfa_offset 16
	popq	%r13
	.cfi_def_cfa_offset 8
	jmp	_ZN8asiodnp39IOHandlerD2Ev@PLT
	.p2align 4,,10
	.p2align 3
.L894:
	.cfi_restore_state
	movq	0(%rbp), %rax
	movq	%rbp, %rdi
	call	*16(%rax)
	testq	%r13, %r13
	jne	.L897
	movl	12(%rbp), %eax
	leal	-1(%rax), %edx
	movl	%edx, 12(%rbp)
.L882:
	cmpl	$1, %eax
	jne	.L877
	movq	0(%rbp), %rax
	movq	%rbp, %rdi
	call	*24(%rax)
	jmp	.L877
	.p2align 4,,10
	.p2align 3
.L896:
	movq	0(%rbp), %rax
	movq	%rbp, %rdi
	call	*16(%rax)
	testq	%r13, %r13
	jne	.L898
	movl	12(%rbp), %eax
	leal	-1(%rax), %edx
	movl	%edx, 12(%rbp)
.L891:
	cmpl	$1, %eax
	jne	.L886
	movq	0(%rbp), %rax
	movq	%rbp, %rdi
	call	*24(%rax)
	jmp	.L886
	.p2align 4,,10
	.p2align 3
.L893:
	movl	$-1, %eax
	lock xaddl	%eax, 8(%rbp)
	jmp	.L879
	.p2align 4,,10
	.p2align 3
.L895:
	movl	$-1, %eax
	lock xaddl	%eax, 8(%rbp)
	jmp	.L888
	.p2align 4,,10
	.p2align 3
.L897:
	movl	$-1, %eax
	lock xaddl	%eax, 12(%rbp)
	jmp	.L882
	.p2align 4,,10
	.p2align 3
.L898:
	movl	$-1, %eax
	lock xaddl	%eax, 12(%rbp)
	jmp	.L891
	.cfi_endproc
.LFE12131:
	.size	_ZNSt23_Sp_counted_ptr_inplaceIN8asiodnp318TCPClientIOHandlerESaIS1_ELN9__gnu_cxx12_Lock_policyE2EE10_M_disposeEv, .-_ZNSt23_Sp_counted_ptr_inplaceIN8asiodnp318TCPClientIOHandlerESaIS1_ELN9__gnu_cxx12_Lock_policyE2EE10_M_disposeEv
	.section	.text._ZN8asiodnp39IOHandlerD0Ev,"axG",@progbits,_ZN8asiodnp39IOHandlerD5Ev,comdat
	.align 2
	.p2align 4
	.weak	_ZN8asiodnp39IOHandlerD0Ev
	.type	_ZN8asiodnp39IOHandlerD0Ev, @function
_ZN8asiodnp39IOHandlerD0Ev:
.LFB8098:
	.cfi_startproc
	pushq	%rbp
	.cfi_def_cfa_offset 16
	.cfi_offset 6, -16
	movq	%rdi, %rbp
	call	_ZN8asiodnp39IOHandlerD1Ev@PLT
	movq	%rbp, %rdi
	movl	$800, %esi
	popq	%rbp
	.cfi_def_cfa_offset 8
	jmp	_ZdlPvm@PLT
	.cfi_endproc
.LFE8098:
	.size	_ZN8asiodnp39IOHandlerD0Ev, .-_ZN8asiodnp39IOHandlerD0Ev
	.p2align 4
	.weak	_ZThn8_N8asiodnp39IOHandlerD0Ev
	.type	_ZThn8_N8asiodnp39IOHandlerD0Ev, @function
_ZThn8_N8asiodnp39IOHandlerD0Ev:
.LFB12371:
	.cfi_startproc
	pushq	%rbp
	.cfi_def_cfa_offset 16
	.cfi_offset 6, -16
	leaq	-8(%rdi), %rbp
	movq	%rbp, %rdi
	call	_ZN8asiodnp39IOHandlerD1Ev@PLT
	movq	%rbp, %rdi
	movl	$800, %esi
	popq	%rbp
	.cfi_def_cfa_offset 8
	jmp	_ZdlPvm@PLT
	.cfi_endproc
.LFE12371:
	.size	_ZThn8_N8asiodnp39IOHandlerD0Ev, .-_ZThn8_N8asiodnp39IOHandlerD0Ev
	.text
	.align 2
	.p2align 4
	.globl	_ZN8asiodnp315DNP3ManagerImpl8ShutdownEv
	.type	_ZN8asiodnp315DNP3ManagerImpl8ShutdownEv, @function
_ZN8asiodnp315DNP3ManagerImpl8ShutdownEv:
.LFB8229:
	.cfi_startproc
	pushq	%rbp
	.cfi_def_cfa_offset 16
	.cfi_offset 6, -16
	pushq	%rbx
	.cfi_def_cfa_offset 24
	.cfi_offset 3, -24
	movq	%rdi, %rbx
	subq	$8, %rsp
	.cfi_def_cfa_offset 32
	movq	256(%rdi), %rdi
	testq	%rdi, %rdi
	je	.L903
	call	_ZN7asiopal15ResourceManager8ShutdownEv@PLT
	movq	264(%rbx), %rbp
	pxor	%xmm0, %xmm0
	movups	%xmm0, 256(%rbx)
	testq	%rbp, %rbp
	je	.L903
	movq	_ZL28__gthrw___pthread_key_createPjPFvPvE@GOTPCREL(%rip), %rbx
	testq	%rbx, %rbx
	jne	.L915
	movl	8(%rbp), %eax
	leal	-1(%rax), %edx
	movl	%edx, 8(%rbp)
.L908:
	cmpl	$1, %eax
	jne	.L903
	movq	0(%rbp), %rax
	movq	%rbp, %rdi
	call	*16(%rax)
	testq	%rbx, %rbx
	jne	.L916
	movl	12(%rbp), %eax
	leal	-1(%rax), %edx
	movl	%edx, 12(%rbp)
.L910:
	cmpl	$1, %eax
	je	.L917
.L903:
	addq	$8, %rsp
	.cfi_remember_state
	.cfi_def_cfa_offset 24
	popq	%rbx
	.cfi_def_cfa_offset 16
	popq	%rbp
	.cfi_def_cfa_offset 8
	ret
	.p2align 4,,10
	.p2align 3
.L915:
	.cfi_restore_state
	movl	$-1, %eax
	lock xaddl	%eax, 8(%rbp)
	jmp	.L908
	.p2align 4,,10
	.p2align 3
.L917:
	movq	0(%rbp), %rax
	movq	%rbp, %rdi
	movq	24(%rax), %rax
	addq	$8, %rsp
	.cfi_remember_state
	.cfi_def_cfa_offset 24
	popq	%rbx
	.cfi_def_cfa_offset 16
	popq	%rbp
	.cfi_def_cfa_offset 8
	jmp	*%rax
	.p2align 4,,10
	.p2align 3
.L916:
	.cfi_restore_state
	movl	$-1, %eax
	lock xaddl	%eax, 12(%rbp)
	jmp	.L910
	.cfi_endproc
.LFE8229:
	.size	_ZN8asiodnp315DNP3ManagerImpl8ShutdownEv, .-_ZN8asiodnp315DNP3ManagerImpl8ShutdownEv
	.align 2
	.p2align 4
	.globl	_ZN8asiodnp315DNP3ManagerImplD2Ev
	.type	_ZN8asiodnp315DNP3ManagerImplD2Ev, @function
_ZN8asiodnp315DNP3ManagerImplD2Ev:
.LFB8227:
	.cfi_startproc
	.cfi_personality 0x9b,DW.ref.__gxx_personality_v0
	.cfi_lsda 0x1b,.LLSDA8227
	pushq	%r12
	.cfi_def_cfa_offset 16
	.cfi_offset 12, -16
	pushq	%rbp
	.cfi_def_cfa_offset 24
	.cfi_offset 6, -24
	pushq	%rbx
	.cfi_def_cfa_offset 32
	.cfi_offset 3, -32
	movq	%rdi, %rbx
	call	_ZN8asiodnp315DNP3ManagerImpl8ShutdownEv@PLT
	movq	264(%rbx), %rbp
	testq	%rbp, %rbp
	je	.L920
	movq	_ZL28__gthrw___pthread_key_createPjPFvPvE@GOTPCREL(%rip), %r12
	testq	%r12, %r12
	jne	.L948
	movl	8(%rbp), %eax
	leal	-1(%rax), %edx
	movl	%edx, 8(%rbp)
.L922:
	cmpl	$1, %eax
	je	.L949
.L920:
	leaq	48(%rbx), %rdi
	call	_ZN7asiopal10ThreadPoolD1Ev@PLT
	movq	40(%rbx), %rbp
	testq	%rbp, %rbp
	je	.L927
	movq	_ZL28__gthrw___pthread_key_createPjPFvPvE@GOTPCREL(%rip), %r12
	testq	%r12, %r12
	jne	.L950
	movl	8(%rbp), %eax
	leal	-1(%rax), %edx
	movl	%edx, 8(%rbp)
.L929:
	cmpl	$1, %eax
	je	.L951
.L927:
	movq	24(%rbx), %rbp
	testq	%rbp, %rbp
	je	.L934
	movq	_ZL28__gthrw___pthread_key_createPjPFvPvE@GOTPCREL(%rip), %r12
	testq	%r12, %r12
	jne	.L952
	movl	8(%rbp), %eax
	leal	-1(%rax), %edx
	movl	%edx, 8(%rbp)
.L936:
	cmpl	$1, %eax
	je	.L953
.L934:
	movq	8(%rbx), %rbp
	testq	%rbp, %rbp
	je	.L918
	movq	_ZL28__gthrw___pthread_key_createPjPFvPvE@GOTPCREL(%rip), %r12
	testq	%r12, %r12
	jne	.L954
	movl	8(%rbp), %eax
	leal	-1(%rax), %edx
	movl	%edx, 8(%rbp)
.L943:
	cmpl	$1, %eax
	je	.L955
.L918:
	popq	%rbx
	.cfi_remember_state
	.cfi_def_cfa_offset 24
	popq	%rbp
	.cfi_def_cfa_offset 16
	popq	%r12
	.cfi_def_cfa_offset 8
	ret
	.p2align 4,,10
	.p2align 3
.L949:
	.cfi_restore_state
	movq	0(%rbp), %rax
	movq	%rbp, %rdi
	call	*16(%rax)
	testq	%r12, %r12
	jne	.L956
	movl	12(%rbp), %eax
	leal	-1(%rax), %edx
	movl	%edx, 12(%rbp)
.L925:
	cmpl	$1, %eax
	jne	.L920
	movq	0(%rbp), %rax
	movq	%rbp, %rdi
	call	*24(%rax)
	jmp	.L920
	.p2align 4,,10
	.p2align 3
.L951:
	movq	0(%rbp), %rax
	movq	%rbp, %rdi
	call	*16(%rax)
	testq	%r12, %r12
	jne	.L957
	movl	12(%rbp), %eax
	leal	-1(%rax), %edx
	movl	%edx, 12(%rbp)
.L932:
	cmpl	$1, %eax
	jne	.L927
	movq	0(%rbp), %rax
	movq	%rbp, %rdi
	call	*24(%rax)
	jmp	.L927
	.p2align 4,,10
	.p2align 3
.L953:
	movq	0(%rbp), %rax
	movq	%rbp, %rdi
	call	*16(%rax)
	testq	%r12, %r12
	jne	.L958
	movl	12(%rbp), %eax
	leal	-1(%rax), %edx
	movl	%edx, 12(%rbp)
.L939:
	cmpl	$1, %eax
	jne	.L934
	movq	0(%rbp), %rax
	movq	%rbp, %rdi
	call	*24(%rax)
	jmp	.L934
	.p2align 4,,10
	.p2align 3
.L955:
	movq	0(%rbp), %rax
	movq	%rbp, %rdi
	call	*16(%rax)
	testq	%r12, %r12
	jne	.L959
	movl	12(%rbp), %eax
	leal	-1(%rax), %edx
	movl	%edx, 12(%rbp)
.L946:
	cmpl	$1, %eax
	jne	.L918
	movq	0(%rbp), %rax
	popq	%rbx
	.cfi_remember_state
	.cfi_def_cfa_offset 24
	movq	%rbp, %rdi
	popq	%rbp
	.cfi_def_cfa_offset 16
	popq	%r12
	.cfi_def_cfa_offset 8
	movq	24(%rax), %rax
	jmp	*%rax
	.p2align 4,,10
	.p2align 3
.L952:
	.cfi_restore_state
	movl	$-1, %eax
	lock xaddl	%eax, 8(%rbp)
	jmp	.L936
	.p2align 4,,10
	.p2align 3
.L948:
	movl	$-1, %eax
	lock xaddl	%eax, 8(%rbp)
	jmp	.L922
	.p2align 4,,10
	.p2align 3
.L950:
	movl	$-1, %eax
	lock xaddl	%eax, 8(%rbp)
	jmp	.L929
	.p2align 4,,10
	.p2align 3
.L954:
	movl	$-1, %eax
	lock xaddl	%eax, 8(%rbp)
	jmp	.L943
	.p2align 4,,10
	.p2align 3
.L956:
	movl	$-1, %eax
	lock xaddl	%eax, 12(%rbp)
	jmp	.L925
	.p2align 4,,10
	.p2align 3
.L959:
	movl	$-1, %eax
	lock xaddl	%eax, 12(%rbp)
	jmp	.L946
	.p2align 4,,10
	.p2align 3
.L957:
	movl	$-1, %eax
	lock xaddl	%eax, 12(%rbp)
	jmp	.L932
	.p2align 4,,10
	.p2align 3
.L958:
	movl	$-1, %eax
	lock xaddl	%eax, 12(%rbp)
	jmp	.L939
	.cfi_endproc
.LFE8227:
	.section	.gcc_except_table,"a",@progbits
.LLSDA8227:
	.byte	0xff
	.byte	0xff
	.byte	0x1
	.uleb128 .LLSDACSE8227-.LLSDACSB8227
.LLSDACSB8227:
.LLSDACSE8227:
	.text
	.size	_ZN8asiodnp315DNP3ManagerImplD2Ev, .-_ZN8asiodnp315DNP3ManagerImplD2Ev
	.globl	_ZN8asiodnp315DNP3ManagerImplD1Ev
	.set	_ZN8asiodnp315DNP3ManagerImplD1Ev,_ZN8asiodnp315DNP3ManagerImplD2Ev
	.align 2
	.p2align 4
	.globl	_ZN8asiodnp315DNP3ManagerImpl12AddTLSClientERKNSt7__cxx1112basic_stringIcSt11char_traitsIcESaIcEEEjRKN7asiopal12ChannelRetryES8_S8_tRKNS9_9TLSConfigESt10shared_ptrINS_16IChannelListenerEERSt10error_code
	.type	_ZN8asiodnp315DNP3ManagerImpl12AddTLSClientERKNSt7__cxx1112basic_stringIcSt11char_traitsIcESaIcEEEjRKN7asiopal12ChannelRetryES8_S8_tRKNS9_9TLSConfigESt10shared_ptrINS_16IChannelListenerEERSt10error_code, @function
_ZN8asiodnp315DNP3ManagerImpl12AddTLSClientERKNSt7__cxx1112basic_stringIcSt11char_traitsIcESaIcEEEjRKN7asiopal12ChannelRetryES8_S8_tRKNS9_9TLSConfigESt10shared_ptrINS_16IChannelListenerEERSt10error_code:
.LFB8257:
	.cfi_startproc
	movq	40(%rsp), %rdx
	movq	_ZN8asiodnp313ErrorCategory8instanceE@GOTPCREL(%rip), %rcx
	pxor	%xmm0, %xmm0
	movq	%rdi, %rax
	movl	$1, (%rdx)
	movq	%rcx, 8(%rdx)
	movups	%xmm0, (%rdi)
	ret
	.cfi_endproc
.LFE8257:
	.size	_ZN8asiodnp315DNP3ManagerImpl12AddTLSClientERKNSt7__cxx1112basic_stringIcSt11char_traitsIcESaIcEEEjRKN7asiopal12ChannelRetryES8_S8_tRKNS9_9TLSConfigESt10shared_ptrINS_16IChannelListenerEERSt10error_code, .-_ZN8asiodnp315DNP3ManagerImpl12AddTLSClientERKNSt7__cxx1112basic_stringIcSt11char_traitsIcESaIcEEEjRKN7asiopal12ChannelRetryES8_S8_tRKNS9_9TLSConfigESt10shared_ptrINS_16IChannelListenerEERSt10error_code
	.align 2
	.p2align 4
	.globl	_ZN8asiodnp315DNP3ManagerImpl12AddTLSServerERKNSt7__cxx1112basic_stringIcSt11char_traitsIcESaIcEEEjRKN7asiopal12ChannelRetryES8_tRKNS9_9TLSConfigESt10shared_ptrINS_16IChannelListenerEERSt10error_code
	.type	_ZN8asiodnp315DNP3ManagerImpl12AddTLSServerERKNSt7__cxx1112basic_stringIcSt11char_traitsIcESaIcEEEjRKN7asiopal12ChannelRetryES8_tRKNS9_9TLSConfigESt10shared_ptrINS_16IChannelListenerEERSt10error_code, @function
_ZN8asiodnp315DNP3ManagerImpl12AddTLSServerERKNSt7__cxx1112basic_stringIcSt11char_traitsIcESaIcEEEjRKN7asiopal12ChannelRetryES8_tRKNS9_9TLSConfigESt10shared_ptrINS_16IChannelListenerEERSt10error_code:
.LFB8258:
	.cfi_startproc
	movq	32(%rsp), %rdx
	movq	_ZN8asiodnp313ErrorCategory8instanceE@GOTPCREL(%rip), %rcx
	pxor	%xmm0, %xmm0
	movq	%rdi, %rax
	movl	$1, (%rdx)
	movq	%rcx, 8(%rdx)
	movups	%xmm0, (%rdi)
	ret
	.cfi_endproc
.LFE8258:
	.size	_ZN8asiodnp315DNP3ManagerImpl12AddTLSServerERKNSt7__cxx1112basic_stringIcSt11char_traitsIcESaIcEEEjRKN7asiopal12ChannelRetryES8_tRKNS9_9TLSConfigESt10shared_ptrINS_16IChannelListenerEERSt10error_code, .-_ZN8asiodnp315DNP3ManagerImpl12AddTLSServerERKNSt7__cxx1112basic_stringIcSt11char_traitsIcESaIcEEEjRKN7asiopal12ChannelRetryES8_tRKNS9_9TLSConfigESt10shared_ptrINS_16IChannelListenerEERSt10error_code
	.align 2
	.p2align 4
	.globl	_ZN8asiodnp315DNP3ManagerImpl14CreateListenerENSt7__cxx1112basic_stringIcSt11char_traitsIcESaIcEEEN7openpal10LogFiltersEN7asiopal10IPEndpointERKNS9_9TLSConfigERKSt10shared_ptrINS_16IListenCallbacksEERSt10error_code
	.type	_ZN8asiodnp315DNP3ManagerImpl14CreateListenerENSt7__cxx1112basic_stringIcSt11char_traitsIcESaIcEEEN7openpal10LogFiltersEN7asiopal10IPEndpointERKNS9_9TLSConfigERKSt10shared_ptrINS_16IListenCallbacksEERSt10error_code, @function
_ZN8asiodnp315DNP3ManagerImpl14CreateListenerENSt7__cxx1112basic_stringIcSt11char_traitsIcESaIcEEEN7openpal10LogFiltersEN7asiopal10IPEndpointERKNS9_9TLSConfigERKSt10shared_ptrINS_16IListenCallbacksEERSt10error_code:
.LFB8268:
	.cfi_startproc
	movq	16(%rsp), %rdx
	movq	_ZN8asiodnp313ErrorCategory8instanceE@GOTPCREL(%rip), %rcx
	pxor	%xmm0, %xmm0
	movq	%rdi, %rax
	movl	$1, (%rdx)
	movq	%rcx, 8(%rdx)
	movups	%xmm0, (%rdi)
	ret
	.cfi_endproc
.LFE8268:
	.size	_ZN8asiodnp315DNP3ManagerImpl14CreateListenerENSt7__cxx1112basic_stringIcSt11char_traitsIcESaIcEEEN7openpal10LogFiltersEN7asiopal10IPEndpointERKNS9_9TLSConfigERKSt10shared_ptrINS_16IListenCallbacksEERSt10error_code, .-_ZN8asiodnp315DNP3ManagerImpl14CreateListenerENSt7__cxx1112basic_stringIcSt11char_traitsIcESaIcEEEN7openpal10LogFiltersEN7asiopal10IPEndpointERKNS9_9TLSConfigERKSt10shared_ptrINS_16IListenCallbacksEERSt10error_code
	.section	.text._ZNSt16_Sp_counted_baseILN9__gnu_cxx12_Lock_policyE2EE10_M_releaseEv,"axG",@progbits,_ZNSt16_Sp_counted_baseILN9__gnu_cxx12_Lock_policyE2EE10_M_releaseEv,comdat
	.align 2
	.p2align 4
	.weak	_ZNSt16_Sp_counted_baseILN9__gnu_cxx12_Lock_policyE2EE10_M_releaseEv
	.type	_ZNSt16_Sp_counted_baseILN9__gnu_cxx12_Lock_policyE2EE10_M_releaseEv, @function
_ZNSt16_Sp_counted_baseILN9__gnu_cxx12_Lock_policyE2EE10_M_releaseEv:
.LFB9595:
	.cfi_startproc
	pushq	%rbp
	.cfi_def_cfa_offset 16
	.cfi_offset 6, -16
	movq	%rdi, %rbp
	pushq	%rbx
	.cfi_def_cfa_offset 24
	.cfi_offset 3, -24
	subq	$8, %rsp
	.cfi_def_cfa_offset 32
	movq	_ZL28__gthrw___pthread_key_createPjPFvPvE@GOTPCREL(%rip), %rbx
	testq	%rbx, %rbx
	jne	.L972
	movl	8(%rdi), %eax
	leal	-1(%rax), %edx
	movl	%edx, 8(%rdi)
.L965:
	cmpl	$1, %eax
	je	.L973
.L963:
	addq	$8, %rsp
	.cfi_remember_state
	.cfi_def_cfa_offset 24
	popq	%rbx
	.cfi_def_cfa_offset 16
	popq	%rbp
	.cfi_def_cfa_offset 8
	ret
	.p2align 4,,10
	.p2align 3
.L973:
	.cfi_restore_state
	movq	0(%rbp), %rax
	movq	%rbp, %rdi
	call	*16(%rax)
	testq	%rbx, %rbx
	jne	.L974
	movl	12(%rbp), %eax
	leal	-1(%rax), %edx
	movl	%edx, 12(%rbp)
.L969:
	cmpl	$1, %eax
	jne	.L963
	movq	0(%rbp), %rax
	movq	%rbp, %rdi
	movq	24(%rax), %rax
	addq	$8, %rsp
	.cfi_remember_state
	.cfi_def_cfa_offset 24
	popq	%rbx
	.cfi_def_cfa_offset 16
	popq	%rbp
	.cfi_def_cfa_offset 8
	jmp	*%rax
	.p2align 4,,10
	.p2align 3
.L972:
	.cfi_restore_state
	movl	$-1, %eax
	lock xaddl	%eax, 8(%rdi)
	jmp	.L965
	.p2align 4,,10
	.p2align 3
.L974:
	movl	$-1, %eax
	lock xaddl	%eax, 12(%rbp)
	jmp	.L969
	.cfi_endproc
.LFE9595:
	.size	_ZNSt16_Sp_counted_baseILN9__gnu_cxx12_Lock_policyE2EE10_M_releaseEv, .-_ZNSt16_Sp_counted_baseILN9__gnu_cxx12_Lock_policyE2EE10_M_releaseEv
	.section	.rodata.str1.1,"aMS",@progbits,1
.LC25:
	.string	"mutex"
.LC26:
	.string	"event"
	.section	.text.unlikely,"ax",@progbits
	.align 2
.LCOLDB27:
	.text
.LHOTB27:
	.align 2
	.p2align 4
	.globl	_ZN8asiodnp315DNP3ManagerImplC2EjSt10shared_ptrIN7openpal11ILogHandlerEESt8functionIFvvEES7_
	.type	_ZN8asiodnp315DNP3ManagerImplC2EjSt10shared_ptrIN7openpal11ILogHandlerEESt8functionIFvvEES7_, @function
_ZN8asiodnp315DNP3ManagerImplC2EjSt10shared_ptrIN7openpal11ILogHandlerEESt8functionIFvvEES7_:
.LFB8224:
	.cfi_startproc
	.cfi_personality 0x9b,DW.ref.__gxx_personality_v0
	.cfi_lsda 0x1b,.LLSDA8224
	pushq	%r15
	.cfi_def_cfa_offset 16
	.cfi_offset 15, -16
	pushq	%r14
	.cfi_def_cfa_offset 24
	.cfi_offset 14, -24
	pushq	%r13
	.cfi_def_cfa_offset 32
	.cfi_offset 13, -32
	movq	%rdi, %r13
	pushq	%r12
	.cfi_def_cfa_offset 40
	.cfi_offset 12, -40
	pushq	%rbp
	.cfi_def_cfa_offset 48
	.cfi_offset 6, -48
	pushq	%rbx
	.cfi_def_cfa_offset 56
	.cfi_offset 3, -56
	movq	%r8, %rbx
	subq	$152, %rsp
	.cfi_def_cfa_offset 208
	movl	%esi, 40(%rsp)
	leaq	96(%rsp), %r14
	movq	%rdx, %rsi
	movl	$25959, %edx
	movq	%rcx, 24(%rsp)
	leaq	112(%rsp), %rbp
	movl	$-1, %ecx
	movq	%fs:40, %rax
	movq	%rax, 136(%rsp)
	xorl	%eax, %eax
	movw	%dx, 116(%rsp)
	movq	%r14, %rdx
	movq	%rbp, 96(%rsp)
	movl	$1634623853, 112(%rsp)
	movb	$114, 118(%rsp)
	movq	$7, 104(%rsp)
	movb	$0, 119(%rsp)
.LEHB8:
	call	_ZN7openpal6LoggerC1ERKSt10shared_ptrINS_11ILogHandlerEERKNSt7__cxx1112basic_stringIcSt11char_traitsIcESaIcEEENS_10LogFiltersE@PLT
.LEHE8:
	movq	96(%rsp), %rdi
	cmpq	%rbp, %rdi
	je	.L976
	movq	112(%rsp), %rax
	leaq	1(%rax), %rsi
	call	_ZdlPvm@PLT
.L976:
	movq	$0, 32(%r13)
	leaq	32(%r13), %rax
	movl	$40, %edi
	movq	%rax, 8(%rsp)
.LEHB9:
	call	_Znwm@PLT
.LEHE9:
	movq	%rax, %r12
	movq	.LC24(%rip), %rax
	pxor	%xmm0, %xmm0
	movl	$64, %edi
	movups	%xmm0, 16(%r12)
	leaq	24(%r12), %r15
	movq	%rax, 8(%r12)
	movq	_ZTVSt23_Sp_counted_ptr_inplaceIN7asiopal2IOESaIS1_ELN9__gnu_cxx12_Lock_policyE2EE@GOTPCREL(%rip), %rax
	movq	$0, 32(%r12)
	addq	$16, %rax
	movq	%rax, (%r12)
	movq	_ZTVN7asiopal2IOE@GOTPCREL(%rip), %rax
	addq	$16, %rax
	movq	%rax, 16(%r12)
.LEHB10:
	call	_Znwm@PLT
.LEHE10:
	movq	%rax, 16(%rsp)
	addq	$8, %rax
	xorl	%esi, %esi
	movq	%rax, %rdi
	movq	%rax, 32(%rsp)
	call	pthread_mutex_init@PLT
	movl	%eax, %ebp
	movq	_ZGVZN4asio15system_categoryEvE8instance@GOTPCREL(%rip), %rax
	movzbl	(%rax), %eax
	testb	%al, %al
	je	.L977
.L1063:
	movq	_ZZN4asio15system_categoryEvE8instance@GOTPCREL(%rip), %rax
	movq	%rax, 8(%rsp)
.L978:
	movl	%ebp, 48(%rsp)
	movq	%rax, 56(%rsp)
	testl	%ebp, %ebp
	jne	.L1056
	movq	16(%rsp), %rax
	movl	$216, %edi
	movq	%r15, 48(%rax)
.LEHB11:
	call	_Znwm@PLT
.LEHE11:
	movq	%r15, 24(%rax)
	movq	%rax, %rbp
	xorl	%esi, %esi
	movq	$0, 8(%rax)
	leaq	48(%rbp), %r15
	movq	$0, 16(%rax)
	movq	%r15, %rdi
	movq	$0, 32(%rax)
	movq	_ZTVN4asio6detail15task_io_serviceE@GOTPCREL(%rip), %rax
	movb	$0, 40(%rbp)
	addq	$16, %rax
	movq	%rax, 0(%rbp)
	call	pthread_mutex_init@PLT
	movl	%eax, %ecx
	movq	_ZGVZN4asio15system_categoryEvE8instance@GOTPCREL(%rip), %rax
	movzbl	(%rax), %eax
	testb	%al, %al
	je	.L1064
.L982:
	movq	8(%rsp), %rax
	movl	%ecx, 48(%rsp)
	movq	%rax, 56(%rsp)
	testl	%ecx, %ecx
	jne	.L1057
	movq	$0, 136(%rbp)
	leaq	88(%rbp), %rdi
	xorl	%esi, %esi
	call	pthread_cond_init@PLT
	movl	%eax, %ecx
	movq	_ZGVZN4asio15system_categoryEvE8instance@GOTPCREL(%rip), %rax
	movzbl	(%rax), %eax
	testb	%al, %al
	je	.L1065
.L986:
	movq	8(%rsp), %rax
	movl	%ecx, 48(%rsp)
	movq	%rax, 56(%rsp)
	testl	%ecx, %ecx
	jne	.L1058
	movq	16(%rsp), %rsi
	xorl	%eax, %eax
	pxor	%xmm0, %xmm0
	movq	%rbp, %xmm1
	movw	%ax, 208(%rbp)
	movq	_ZTIN4asio6detail14typeid_wrapperINS0_15task_io_serviceEEE@GOTPCREL(%rip), %rax
	movups	%xmm0, 144(%rbp)
	movups	%xmm0, 192(%rbp)
	movq	%rsi, %xmm0
	movq	%rax, 8(%rbp)
	punpcklqdq	%xmm1, %xmm0
	movq	16(%rbx), %rax
	movups	%xmm0, 24(%r12)
	movq	%r12, 40(%r13)
	addq	$16, %r12
	movq	$0, 160(%rbp)
	movl	$0, 168(%rbp)
	movb	$1, 176(%rbp)
	movq	$0, 184(%rbp)
	movq	%rbp, 56(%rsi)
	movq	$0, 16(%rbp)
	movq	$0, 32(%rbp)
	leaq	48(%r13), %rbp
	movq	%r12, 32(%r13)
	movq	$0, 112(%rsp)
	testq	%rax, %rax
	je	.L990
	movl	$2, %edx
	movq	%rbx, %rsi
	movq	%r14, %rdi
.LEHB12:
	call	*%rax
.LEHE12:
	movdqu	16(%rbx), %xmm2
	movaps	%xmm2, 112(%rsp)
.L990:
	movq	24(%rsp), %rax
	leaq	64(%rsp), %r12
	movq	$0, 80(%rsp)
	movq	16(%rax), %rax
	testq	%rax, %rax
	je	.L998
	movq	24(%rsp), %rbx
	movl	$2, %edx
	movq	%r12, %rdi
	movq	%rbx, %rsi
.LEHB13:
	call	*%rax
.LEHE13:
	movdqu	16(%rbx), %xmm3
	movaps	%xmm3, 80(%rsp)
.L998:
	movl	40(%rsp), %ecx
	movq	%r14, %r9
	movq	%r12, %r8
	leaq	32(%r13), %rdx
	movq	%r13, %rsi
	movq	%rbp, %rdi
.LEHB14:
	call	_ZN7asiopal10ThreadPoolC1ERKN7openpal6LoggerERKSt10shared_ptrINS_2IOEEjSt8functionIFvvEESC_@PLT
.LEHE14:
	movq	80(%rsp), %rax
	testq	%rax, %rax
	je	.L1006
	movl	$3, %edx
	movq	%r12, %rsi
	movq	%r12, %rdi
	call	*%rax
.L1006:
	movq	112(%rsp), %rax
	testq	%rax, %rax
	je	.L1007
	movl	$3, %edx
	movq	%r14, %rsi
	movq	%r14, %rdi
	call	*%rax
.L1007:
	movq	$0, 256(%r13)
	movl	$120, %edi
.LEHB15:
	call	_Znwm@PLT
.LEHE15:
	movq	%rax, %rdx
	movq	.LC24(%rip), %rax
	movl	$13, %ecx
	leaq	16(%rdx), %rdi
	movq	%rdx, 264(%r13)
	movq	%rax, 8(%rdx)
	movq	_ZTVSt23_Sp_counted_ptr_inplaceIN7asiopal15ResourceManagerESaIS1_ELN9__gnu_cxx12_Lock_policyE2EE@GOTPCREL(%rip), %rax
	addq	$16, %rax
	movq	%rax, (%rdx)
	xorl	%eax, %eax
	rep stosq
	movq	_ZTVN7asiopal15ResourceManagerE@GOTPCREL(%rip), %rax
	addq	$16, %rax
	movq	%rax, 16(%rdx)
	leaq	80(%rdx), %rax
	addq	$16, %rdx
	movq	%rax, 80(%rdx)
	movq	%rax, 88(%rdx)
	movq	%rdx, 256(%r13)
	movq	136(%rsp), %rax
	subq	%fs:40, %rax
	jne	.L1066
	addq	$152, %rsp
	.cfi_remember_state
	.cfi_def_cfa_offset 56
	popq	%rbx
	.cfi_def_cfa_offset 48
	popq	%rbp
	.cfi_def_cfa_offset 40
	popq	%r12
	.cfi_def_cfa_offset 32
	popq	%r13
	.cfi_def_cfa_offset 24
	popq	%r14
	.cfi_def_cfa_offset 16
	popq	%r15
	.cfi_def_cfa_offset 8
	ret
	.p2align 4,,10
	.p2align 3
.L977:
	.cfi_restore_state
	movq	_ZGVZN4asio15system_categoryEvE8instance@GOTPCREL(%rip), %rdi
	call	__cxa_guard_acquire@PLT
	testl	%eax, %eax
	je	.L1063
	movq	_ZZN4asio15system_categoryEvE8instance@GOTPCREL(%rip), %rax
	movq	_ZN4asio6detail15system_categoryD1Ev@GOTPCREL(%rip), %rdi
	leaq	__dso_handle(%rip), %rdx
	movq	%rax, %rsi
	movq	%rax, 8(%rsp)
	call	__cxa_atexit@PLT
	movq	_ZGVZN4asio15system_categoryEvE8instance@GOTPCREL(%rip), %rdi
	call	__cxa_guard_release@PLT
	movq	8(%rsp), %rax
	jmp	.L978
	.p2align 4,,10
	.p2align 3
.L1065:
	movq	_ZGVZN4asio15system_categoryEvE8instance@GOTPCREL(%rip), %rdi
	movl	%ecx, 44(%rsp)
	call	__cxa_guard_acquire@PLT
	movl	44(%rsp), %ecx
	testl	%eax, %eax
	je	.L986
	movq	8(%rsp), %rsi
	movq	_ZN4asio6detail15system_categoryD1Ev@GOTPCREL(%rip), %rdi
	leaq	__dso_handle(%rip), %rdx
	call	__cxa_atexit@PLT
	movq	_ZGVZN4asio15system_categoryEvE8instance@GOTPCREL(%rip), %rdi
	call	__cxa_guard_release@PLT
	movl	44(%rsp), %ecx
	jmp	.L986
	.p2align 4,,10
	.p2align 3
.L1064:
	movq	_ZGVZN4asio15system_categoryEvE8instance@GOTPCREL(%rip), %rdi
	movl	%ecx, 44(%rsp)
	call	__cxa_guard_acquire@PLT
	movl	44(%rsp), %ecx
	testl	%eax, %eax
	je	.L982
	movq	8(%rsp), %rsi
	movq	_ZN4asio6detail15system_categoryD1Ev@GOTPCREL(%rip), %rdi
	leaq	__dso_handle(%rip), %rdx
	call	__cxa_atexit@PLT
	movq	_ZGVZN4asio15system_categoryEvE8instance@GOTPCREL(%rip), %rdi
	call	__cxa_guard_release@PLT
	movl	44(%rsp), %ecx
	jmp	.L982
.L1066:
	call	__stack_chk_fail@PLT
.L1022:
	movq	%rax, %rbx
	jmp	.L993
.L1020:
	movq	%rax, %rbx
	jmp	.L995
.L1017:
	movq	%rax, %rbx
	jmp	.L996
.L1026:
	movq	%rax, %rbx
	jmp	.L1003
.L1025:
	movq	%rax, %rbx
	jmp	.L999
.L1018:
	movq	%rax, %rbx
	jmp	.L1010
.L1019:
	movq	%rax, %rbx
	jmp	.L1013
.L1016:
	movq	%rax, %r12
	jmp	.L1008
	.section	.gcc_except_table
.LLSDA8224:
	.byte	0xff
	.byte	0xff
	.byte	0x1
	.uleb128 .LLSDACSE8224-.LLSDACSB8224
.LLSDACSB8224:
	.uleb128 .LEHB8-.LFB8224
	.uleb128 .LEHE8-.LEHB8
	.uleb128 .L1016-.LFB8224
	.uleb128 0
	.uleb128 .LEHB9-.LFB8224
	.uleb128 .LEHE9-.LEHB9
	.uleb128 .L1017-.LFB8224
	.uleb128 0
	.uleb128 .LEHB10-.LFB8224
	.uleb128 .LEHE10-.LEHB10
	.uleb128 .L1020-.LFB8224
	.uleb128 0
	.uleb128 .LEHB11-.LFB8224
	.uleb128 .LEHE11-.LEHB11
	.uleb128 .L1022-.LFB8224
	.uleb128 0
	.uleb128 .LEHB12-.LFB8224
	.uleb128 .LEHE12-.LEHB12
	.uleb128 .L1025-.LFB8224
	.uleb128 0
	.uleb128 .LEHB13-.LFB8224
	.uleb128 .LEHE13-.LEHB13
	.uleb128 .L1026-.LFB8224
	.uleb128 0
	.uleb128 .LEHB14-.LFB8224
	.uleb128 .LEHE14-.LEHB14
	.uleb128 .L1018-.LFB8224
	.uleb128 0
	.uleb128 .LEHB15-.LFB8224
	.uleb128 .LEHE15-.LEHB15
	.uleb128 .L1019-.LFB8224
	.uleb128 0
.LLSDACSE8224:
	.text
	.cfi_endproc
	.section	.text.unlikely
	.cfi_startproc
	.cfi_personality 0x9b,DW.ref.__gxx_personality_v0
	.cfi_lsda 0x1b,.LLSDAC8224
	.type	_ZN8asiodnp315DNP3ManagerImplC2EjSt10shared_ptrIN7openpal11ILogHandlerEESt8functionIFvvEES7_.cold, @function
_ZN8asiodnp315DNP3ManagerImplC2EjSt10shared_ptrIN7openpal11ILogHandlerEESt8functionIFvvEES7_.cold:
.LFSB8224:
.L1058:
	.cfi_def_cfa_offset 208
	.cfi_offset 3, -56
	.cfi_offset 6, -48
	.cfi_offset 12, -40
	.cfi_offset 13, -32
	.cfi_offset 14, -24
	.cfi_offset 15, -16
	leaq	48(%rsp), %rdi
	leaq	.LC26(%rip), %rsi
.LEHB16:
	call	_ZN4asio6detail14do_throw_errorERKSt10error_codePKc@PLT
.LEHE16:
.L1057:
	leaq	48(%rsp), %rdi
	leaq	.LC25(%rip), %rsi
.LEHB17:
	call	_ZN4asio6detail14do_throw_errorERKSt10error_codePKc@PLT
.LEHE17:
.L1024:
	movq	%r15, %rdi
	movq	%rax, %rbx
	call	pthread_mutex_destroy@PLT
.L992:
	movl	$216, %esi
	movq	%rbp, %rdi
	call	_ZdlPvm@PLT
.L993:
	movq	32(%rsp), %rdi
	call	pthread_mutex_destroy@PLT
.L994:
	movq	16(%rsp), %rdi
	movl	$64, %esi
	call	_ZdlPvm@PLT
.L995:
	movl	$40, %esi
	movq	%r12, %rdi
	call	_ZdlPvm@PLT
.L996:
	movq	%r13, %rdi
	call	_ZN7openpal6LoggerD1Ev@PLT
	movq	%rbx, %rdi
.LEHB18:
	call	_Unwind_Resume@PLT
.LEHE18:
.L1023:
	movq	%rax, %rbx
	jmp	.L992
.L1056:
	leaq	48(%rsp), %rdi
	leaq	.LC25(%rip), %rsi
.LEHB19:
	call	_ZN4asio6detail14do_throw_errorERKSt10error_codePKc@PLT
.LEHE19:
.L1021:
	movq	%rax, %rbx
	jmp	.L994
.L1003:
	movq	80(%rsp), %rax
	testq	%rax, %rax
	je	.L1005
	movl	$3, %edx
	movq	%r12, %rsi
	movq	%r12, %rdi
	call	*%rax
	jmp	.L1005
.L999:
	movq	112(%rsp), %rax
	testq	%rax, %rax
	je	.L1001
	movl	$3, %edx
	movq	%r14, %rsi
	movq	%r14, %rdi
	call	*%rax
	jmp	.L1001
.L1013:
	movq	%rbp, %rdi
	call	_ZN7asiopal10ThreadPoolD1Ev@PLT
.L1001:
	movq	40(%r13), %rdi
	testq	%rdi, %rdi
	je	.L996
	call	_ZNSt16_Sp_counted_baseILN9__gnu_cxx12_Lock_policyE2EE10_M_releaseEv@PLT
	jmp	.L996
.L1010:
	movq	80(%rsp), %rax
	testq	%rax, %rax
	je	.L1005
	movl	$3, %edx
	movq	%r12, %rsi
	movq	%r12, %rdi
	call	*%rax
.L1005:
	movq	112(%rsp), %rax
	testq	%rax, %rax
	je	.L1001
	movl	$3, %edx
	movq	%r14, %rsi
	movq	%r14, %rdi
	call	*%rax
	jmp	.L1001
.L1008:
	movq	96(%rsp), %rdi
	cmpq	%rbp, %rdi
	je	.L1009
	movq	112(%rsp), %rax
	leaq	1(%rax), %rsi
	call	_ZdlPvm@PLT
.L1009:
	movq	%r12, %rdi
.LEHB20:
	call	_Unwind_Resume@PLT
.LEHE20:
	.cfi_endproc
.LFE8224:
	.section	.gcc_except_table
.LLSDAC8224:
	.byte	0xff
	.byte	0xff
	.byte	0x1
	.uleb128 .LLSDACSEC8224-.LLSDACSBC8224
.LLSDACSBC8224:
	.uleb128 .LEHB16-.LCOLDB27
	.uleb128 .LEHE16-.LEHB16
	.uleb128 .L1024-.LCOLDB27
	.uleb128 0
	.uleb128 .LEHB17-.LCOLDB27
	.uleb128 .LEHE17-.LEHB17
	.uleb128 .L1023-.LCOLDB27
	.uleb128 0
	.uleb128 .LEHB18-.LCOLDB27
	.uleb128 .LEHE18-.LEHB18
	.uleb128 0
	.uleb128 0
	.uleb128 .LEHB19-.LCOLDB27
	.uleb128 .LEHE19-.LEHB19
	.uleb128 .L1021-.LCOLDB27
	.uleb128 0
	.uleb128 .LEHB20-.LCOLDB27
	.uleb128 .LEHE20-.LEHB20
	.uleb128 0
	.uleb128 0
.LLSDACSEC8224:
	.section	.text.unlikely
	.text
	.size	_ZN8asiodnp315DNP3ManagerImplC2EjSt10shared_ptrIN7openpal11ILogHandlerEESt8functionIFvvEES7_, .-_ZN8asiodnp315DNP3ManagerImplC2EjSt10shared_ptrIN7openpal11ILogHandlerEESt8functionIFvvEES7_
	.section	.text.unlikely
	.size	_ZN8asiodnp315DNP3ManagerImplC2EjSt10shared_ptrIN7openpal11ILogHandlerEESt8functionIFvvEES7_.cold, .-_ZN8asiodnp315DNP3ManagerImplC2EjSt10shared_ptrIN7openpal11ILogHandlerEESt8functionIFvvEES7_.cold
.LCOLDE27:
	.text
.LHOTE27:
	.globl	_ZN8asiodnp315DNP3ManagerImplC1EjSt10shared_ptrIN7openpal11ILogHandlerEESt8functionIFvvEES7_
	.set	_ZN8asiodnp315DNP3ManagerImplC1EjSt10shared_ptrIN7openpal11ILogHandlerEESt8functionIFvvEES7_,_ZN8asiodnp315DNP3ManagerImplC2EjSt10shared_ptrIN7openpal11ILogHandlerEESt8functionIFvvEES7_
	.section	.text._ZNSt8_Rb_treeISt10shared_ptrIN7asiopal9IResourceEES3_St9_IdentityIS3_ESt4lessIS3_ESaIS3_EE16_M_insert_uniqueIS3_EESt4pairISt17_Rb_tree_iteratorIS3_EbEOT_,"axG",@progbits,_ZNSt8_Rb_treeISt10shared_ptrIN7asiopal9IResourceEES3_St9_IdentityIS3_ESt4lessIS3_ESaIS3_EE16_M_insert_uniqueIS3_EESt4pairISt17_Rb_tree_iteratorIS3_EbEOT_,comdat
	.align 2
	.p2align 4
	.weak	_ZNSt8_Rb_treeISt10shared_ptrIN7asiopal9IResourceEES3_St9_IdentityIS3_ESt4lessIS3_ESaIS3_EE16_M_insert_uniqueIS3_EESt4pairISt17_Rb_tree_iteratorIS3_EbEOT_
	.type	_ZNSt8_Rb_treeISt10shared_ptrIN7asiopal9IResourceEES3_St9_IdentityIS3_ESt4lessIS3_ESaIS3_EE16_M_insert_uniqueIS3_EESt4pairISt17_Rb_tree_iteratorIS3_EbEOT_, @function
_ZNSt8_Rb_treeISt10shared_ptrIN7asiopal9IResourceEES3_St9_IdentityIS3_ESt4lessIS3_ESaIS3_EE16_M_insert_uniqueIS3_EESt4pairISt17_Rb_tree_iteratorIS3_EbEOT_:
.LFB10516:
	.cfi_startproc
	pushq	%r15
	.cfi_def_cfa_offset 16
	.cfi_offset 15, -16
	pushq	%r14
	.cfi_def_cfa_offset 24
	.cfi_offset 14, -24
	leaq	8(%rdi), %r14
	pushq	%r13
	.cfi_def_cfa_offset 32
	.cfi_offset 13, -32
	movq	%rsi, %r13
	pushq	%r12
	.cfi_def_cfa_offset 40
	.cfi_offset 12, -40
	pushq	%rbp
	.cfi_def_cfa_offset 48
	.cfi_offset 6, -48
	movq	%rdi, %rbp
	pushq	%rbx
	.cfi_def_cfa_offset 56
	.cfi_offset 3, -56
	subq	$8, %rsp
	.cfi_def_cfa_offset 64
	movq	16(%rdi), %r12
	testq	%r12, %r12
	je	.L1068
	movq	(%rsi), %rbx
	.p2align 4,,10
	.p2align 3
.L1073:
	movq	32(%r12), %rax
	movq	16(%r12), %rdx
	movq	24(%r12), %rcx
	cmpq	%rax, %rbx
	jb	.L1069
	testq	%rcx, %rcx
	je	.L1070
	movq	%rcx, %r12
	jmp	.L1073
	.p2align 4,,10
	.p2align 3
.L1069:
	testq	%rdx, %rdx
	je	.L1072
	movq	%rdx, %r12
	jmp	.L1073
	.p2align 4,,10
	.p2align 3
.L1070:
	cmpq	%rax, %rbx
	jbe	.L1078
.L1077:
	movl	$1, %r15d
	cmpq	%r12, %r14
	jne	.L1083
.L1074:
	movl	$48, %edi
	call	_Znwm@PLT
	pxor	%xmm0, %xmm0
	movq	%r12, %rdx
	movq	%r14, %rcx
	movdqu	0(%r13), %xmm1
	movq	%rax, %rsi
	movl	%r15d, %edi
	movq	%rax, %rbx
	movups	%xmm0, 0(%r13)
	movups	%xmm1, 32(%rax)
	call	_ZSt29_Rb_tree_insert_and_rebalancebPSt18_Rb_tree_node_baseS0_RS_@PLT
	addq	$1, 40(%rbp)
	addq	$8, %rsp
	.cfi_remember_state
	.cfi_def_cfa_offset 56
	movq	%rbx, %rax
	movl	$1, %edx
	popq	%rbx
	.cfi_def_cfa_offset 48
	popq	%rbp
	.cfi_def_cfa_offset 40
	popq	%r12
	.cfi_def_cfa_offset 32
	popq	%r13
	.cfi_def_cfa_offset 24
	popq	%r14
	.cfi_def_cfa_offset 16
	popq	%r15
	.cfi_def_cfa_offset 8
	ret
	.p2align 4,,10
	.p2align 3
.L1072:
	.cfi_restore_state
	cmpq	24(%rbp), %r12
	je	.L1077
.L1076:
	movq	%r12, %rdi
	call	_ZSt18_Rb_tree_decrementPSt18_Rb_tree_node_base@PLT
	cmpq	32(%rax), %rbx
	ja	.L1077
	movq	%rax, %r12
.L1078:
	addq	$8, %rsp
	.cfi_remember_state
	.cfi_def_cfa_offset 56
	movq	%r12, %rax
	xorl	%edx, %edx
	popq	%rbx
	.cfi_def_cfa_offset 48
	popq	%rbp
	.cfi_def_cfa_offset 40
	popq	%r12
	.cfi_def_cfa_offset 32
	popq	%r13
	.cfi_def_cfa_offset 24
	popq	%r14
	.cfi_def_cfa_offset 16
	popq	%r15
	.cfi_def_cfa_offset 8
	ret
	.p2align 4,,10
	.p2align 3
.L1083:
	.cfi_restore_state
	xorl	%r15d, %r15d
	cmpq	32(%r12), %rbx
	setb	%r15b
	jmp	.L1074
	.p2align 4,,10
	.p2align 3
.L1068:
	movq	%r14, %r12
	cmpq	%r14, 24(%rdi)
	je	.L1080
	movq	(%rsi), %rbx
	jmp	.L1076
.L1080:
	movl	$1, %r15d
	jmp	.L1074
	.cfi_endproc
.LFE10516:
	.size	_ZNSt8_Rb_treeISt10shared_ptrIN7asiopal9IResourceEES3_St9_IdentityIS3_ESt4lessIS3_ESaIS3_EE16_M_insert_uniqueIS3_EESt4pairISt17_Rb_tree_iteratorIS3_EbEOT_, .-_ZNSt8_Rb_treeISt10shared_ptrIN7asiopal9IResourceEES3_St9_IdentityIS3_ESt4lessIS3_ESaIS3_EE16_M_insert_uniqueIS3_EESt4pairISt17_Rb_tree_iteratorIS3_EbEOT_
	.section	.text.unlikely
	.align 2
.LCOLDB28:
	.text
.LHOTB28:
	.align 2
	.p2align 4
	.globl	_ZN8asiodnp315DNP3ManagerImpl12AddTCPClientERKNSt7__cxx1112basic_stringIcSt11char_traitsIcESaIcEEEjRKN7asiopal12ChannelRetryES8_S8_tSt10shared_ptrINS_16IChannelListenerEE
	.type	_ZN8asiodnp315DNP3ManagerImpl12AddTCPClientERKNSt7__cxx1112basic_stringIcSt11char_traitsIcESaIcEEEjRKN7asiopal12ChannelRetryES8_S8_tSt10shared_ptrINS_16IChannelListenerEE, @function
_ZN8asiodnp315DNP3ManagerImpl12AddTCPClientERKNSt7__cxx1112basic_stringIcSt11char_traitsIcESaIcEEEjRKN7asiopal12ChannelRetryES8_S8_tSt10shared_ptrINS_16IChannelListenerEE:
.LFB8230:
	.cfi_startproc
	.cfi_personality 0x9b,DW.ref.__gxx_personality_v0
	.cfi_lsda 0x1b,.LLSDA8230
	pushq	%rbp
	.cfi_def_cfa_offset 16
	.cfi_offset 6, -16
	movq	%rsp, %rbp
	.cfi_def_cfa_register 6
	pushq	%r15
	.cfi_offset 15, -24
	movq	%rsi, %r15
	pushq	%r14
	pushq	%r13
	.cfi_offset 14, -32
	.cfi_offset 13, -40
	movq	%r9, %r13
	pushq	%r12
	pushq	%rbx
	.cfi_offset 12, -48
	.cfi_offset 3, -56
	movq	%rdx, %rbx
	subq	$248, %rsp
	movq	16(%rbp), %rax
	movq	%rdi, -184(%rbp)
	movl	%ecx, -224(%rbp)
	movq	_ZL28__gthrw___pthread_key_createPjPFvPvE@GOTPCREL(%rip), %r14
	movq	%rax, -240(%rbp)
	movl	24(%rbp), %eax
	movq	%r8, -232(%rbp)
	movl	%eax, -244(%rbp)
	movq	32(%rbp), %rax
	movq	%rax, -256(%rbp)
	movq	%fs:40, %rax
	movq	%rax, -56(%rbp)
	movq	256(%rsi), %rax
	movq	%rax, -192(%rbp)
	addq	$8, %rax
	movq	%rax, -216(%rbp)
	testq	%r14, %r14
	je	.L1085
	movq	%rax, %rdi
	call	_ZL26__gthrw_pthread_mutex_lockP15pthread_mutex_t@PLT
	testl	%eax, %eax
	jne	.L1295
.L1085:
	movq	-192(%rbp), %rax
	cmpb	$0, 48(%rax)
	je	.L1086
	movq	-184(%rbp), %rax
	pxor	%xmm0, %xmm0
	movups	%xmm0, (%rax)
.L1087:
	testq	%r14, %r14
	je	.L1084
	movq	-216(%rbp), %rdi
	call	_ZL28__gthrw_pthread_mutex_unlockP15pthread_mutex_t@PLT
.L1084:
	movq	-56(%rbp), %rax
	subq	%fs:40, %rax
	jne	.L1296
	movq	-184(%rbp), %rax
	leaq	-40(%rbp), %rsp
	popq	%rbx
	popq	%r12
	popq	%r13
	popq	%r14
	popq	%r15
	popq	%rbp
	.cfi_remember_state
	.cfi_def_cfa 7, 8
	ret
	.p2align 4,,10
	.p2align 3
.L1086:
	.cfi_restore_state
	movl	$56, %edi
.LEHB21:
	call	_Znwm@PLT
.LEHE21:
	movq	%rax, %rcx
	movq	%rax, -208(%rbp)
	leaq	8(%rax), %rax
	movq	8(%rbx), %r12
	movq	%rax, -288(%rbp)
	leaq	16(%rcx), %rdx
	leaq	32(%rcx), %rdi
	movq	.LC24(%rip), %rax
	movq	%rdx, -272(%rbp)
	movq	%rax, 8(%rcx)
	movq	_ZTVSt23_Sp_counted_ptr_inplaceIN7openpal6Logger8SettingsESaIS2_ELN9__gnu_cxx12_Lock_policyE2EE@GOTPCREL(%rip), %rax
	movq	%rdi, 16(%rcx)
	addq	$16, %rax
	movq	%rax, (%rcx)
	movq	(%rbx), %rax
	movq	%rax, %rdx
	movq	%rax, -280(%rbp)
	addq	%r12, %rdx
	je	.L1088
	testq	%rax, %rax
	je	.L1297
.L1088:
	movq	%r12, -128(%rbp)
	cmpq	$15, %r12
	ja	.L1298
	cmpq	$1, %r12
	jne	.L1091
	movq	-280(%rbp), %rax
	movq	-208(%rbp), %rdx
	movzbl	(%rax), %eax
	movb	%al, 32(%rdx)
	leaq	-128(%rbp), %rax
	movq	%rax, -264(%rbp)
.L1092:
	movq	-208(%rbp), %rax
	movl	-224(%rbp), %edx
	movq	%r12, 24(%rax)
	movb	$0, (%rdi,%r12)
	movdqu	(%r15), %xmm2
	movl	%edx, 48(%rax)
	movq	8(%r15), %rax
	movaps	%xmm2, -128(%rbp)
	testq	%rax, %rax
	je	.L1094
	testq	%r14, %r14
	jne	.L1299
	addl	$1, 8(%rax)
.L1094:
	movq	-272(%rbp), %xmm0
	movhps	-208(%rbp), %xmm0
	movaps	%xmm0, -112(%rbp)
	testq	%r14, %r14
	jne	.L1300
	movq	-208(%rbp), %rbx
	addl	$1, 8(%rbx)
	movl	8(%rbx), %eax
	leal	-1(%rax), %edx
	movl	%edx, 8(%rbx)
.L1099:
	cmpl	$1, %eax
	je	.L1301
.L1101:
	movl	$72, %edi
	leaq	32(%r15), %r12
	movq	$0, -176(%rbp)
.LEHB22:
	call	_Znwm@PLT
.LEHE22:
	movq	%rax, %rbx
	movq	.LC24(%rip), %rax
	movq	%r12, %rsi
	movq	%rbx, -208(%rbp)
	leaq	16(%rbx), %rbx
	movq	%rax, -8(%rbx)
	movq	_ZTVSt23_Sp_counted_ptr_inplaceIN7asiopal8ExecutorESaIS1_ELN9__gnu_cxx12_Lock_policyE2EE@GOTPCREL(%rip), %rax
	addq	$16, %rax
	movq	%rax, -16(%rbx)
	movq	%rbx, %rdi
.LEHB23:
	call	_ZN7asiopal8ExecutorC1ERKSt10shared_ptrINS_2IOEE@PLT
.LEHE23:
	movq	-208(%rbp), %rax
	movq	%rbx, %xmm0
	movq	%rax, %xmm6
	movq	32(%rax), %rdi
	punpcklqdq	%xmm6, %xmm0
	movaps	%xmm0, -176(%rbp)
	testq	%rdi, %rdi
	je	.L1302
	movl	8(%rdi), %eax
	testl	%eax, %eax
	je	.L1303
.L1109:
	movq	0(%r13), %rax
	movq	8(%r13), %r13
	leaq	-80(%rbp), %r12
	movq	%r12, -96(%rbp)
	movq	%rax, %rdx
	movq	%rax, %rbx
	addq	%r13, %rdx
	je	.L1117
	testq	%rax, %rax
	je	.L1304
.L1117:
	movq	%r13, -144(%rbp)
	cmpq	$15, %r13
	ja	.L1305
	cmpq	$1, %r13
	jne	.L1120
	movzbl	(%rbx), %eax
	movb	%al, -80(%rbp)
	movq	%r12, %rax
.L1121:
	movq	%r13, -88(%rbp)
	movl	$960, %edi
	movb	$0, (%rax,%r13)
	movzwl	-244(%rbp), %eax
	movw	%ax, -64(%rbp)
.LEHB24:
	call	_Znwm@PLT
.LEHE24:
	movq	%rax, %rsi
	leaq	8(%rax), %rax
	subq	$8, %rsp
	movq	-232(%rbp), %r8
	movq	%rax, -224(%rbp)
	leaq	16(%rsi), %rbx
	movq	.LC24(%rip), %rax
	leaq	-176(%rbp), %r13
	movq	%rsi, -208(%rbp)
	movq	-256(%rbp), %rdx
	movq	%r13, %rcx
	movq	%rbx, %rdi
	movq	%rax, 8(%rsi)
	movq	_ZTVSt23_Sp_counted_ptr_inplaceIN8asiodnp318TCPClientIOHandlerESaIS1_ELN9__gnu_cxx12_Lock_policyE2EE@GOTPCREL(%rip), %rax
	leaq	-96(%rbp), %r9
	addq	$16, %rax
	movq	%rax, (%rsi)
	movq	-264(%rbp), %rsi
	pushq	-240(%rbp)
.LEHB25:
	.cfi_escape 0x2e,0x10
	call	_ZN8asiodnp318TCPClientIOHandlerC1ERKN7openpal6LoggerERKSt10shared_ptrINS_16IChannelListenerEERKS5_IN7asiopal8ExecutorEERKNSA_12ChannelRetryERKNSA_10IPEndpointERKNSt7__cxx1112basic_stringIcSt11char_traitsIcESaIcEEE@PLT
.LEHE25:
	movq	-208(%rbp), %rsi
	popq	%rax
	popq	%rdx
	movq	40(%rsi), %rdi
	testq	%rdi, %rdi
	je	.L1123
	movl	8(%rdi), %eax
	testl	%eax, %eax
	je	.L1123
.L1126:
	movq	-96(%rbp), %rdi
	cmpq	%r12, %rdi
	je	.L1133
	movq	-80(%rbp), %rax
	leaq	1(%rax), %rsi
	call	_ZdlPvm@PLT
.L1133:
	movdqu	256(%r15), %xmm3
	movq	264(%r15), %rax
	movaps	%xmm3, -144(%rbp)
	testq	%rax, %rax
	je	.L1134
	testq	%r14, %r14
	jne	.L1306
	addl	$1, 8(%rax)
.L1134:
	movq	%rbx, %xmm0
	movhps	-208(%rbp), %xmm0
	movaps	%xmm0, -160(%rbp)
	testq	%r14, %r14
	jne	.L1307
	movq	-208(%rbp), %rax
	addl	$1, 8(%rax)
.L1136:
	movl	$136, %edi
.LEHB26:
	.cfi_escape 0x2e,0
	call	_Znwm@PLT
.LEHE26:
	movq	%rax, %r12
	leaq	8(%rax), %r15
	movq	.LC24(%rip), %rax
	movq	-264(%rbp), %rsi
	leaq	16(%r12), %rbx
	leaq	-160(%rbp), %rcx
	movq	%r13, %rdx
	movq	%rax, 8(%r12)
	movq	_ZTVSt23_Sp_counted_ptr_inplaceIN8asiodnp311DNP3ChannelESaIS1_ELN9__gnu_cxx12_Lock_policyE2EE@GOTPCREL(%rip), %rax
	leaq	-144(%rbp), %r8
	movq	%rbx, %rdi
	addq	$16, %rax
	movq	%rax, (%r12)
.LEHB27:
	call	_ZN8asiodnp311DNP3ChannelC1ERKN7openpal6LoggerERKSt10shared_ptrIN7asiopal8ExecutorEERKS5_INS_9IOHandlerEERKS5_INS6_16IResourceManagerEE@PLT
.LEHE27:
	movq	32(%r12), %rdi
	testq	%rdi, %rdi
	je	.L1138
	movl	8(%rdi), %eax
	testl	%eax, %eax
	je	.L1138
.L1141:
	movq	-152(%rbp), %r13
	testq	%r13, %r13
	je	.L1149
	testq	%r14, %r14
	jne	.L1308
	movl	8(%r13), %eax
	leal	-1(%rax), %edx
	movl	%edx, 8(%r13)
.L1151:
	cmpl	$1, %eax
	je	.L1309
.L1149:
	movq	-136(%rbp), %r13
	testq	%r13, %r13
	je	.L1160
	testq	%r14, %r14
	jne	.L1310
	movl	8(%r13), %eax
	leal	-1(%rax), %edx
	movl	%edx, 8(%r13)
.L1157:
	cmpl	$1, %eax
	je	.L1311
.L1160:
	testq	%r14, %r14
	jne	.L1312
	movq	-208(%rbp), %rcx
	movl	8(%rcx), %eax
	leal	-1(%rax), %edx
	movl	%edx, 8(%rcx)
.L1161:
	cmpl	$1, %eax
	je	.L1313
.L1163:
	movq	-168(%rbp), %rax
	movq	%rax, %r13
	testq	%rax, %rax
	je	.L1168
	testq	%r14, %r14
	jne	.L1314
	movl	8(%rax), %eax
	leal	-1(%rax), %edx
	movl	%edx, 8(%r13)
.L1170:
	cmpl	$1, %eax
	je	.L1315
.L1168:
	movq	-104(%rbp), %rax
	movq	%rax, %r13
	testq	%rax, %rax
	je	.L1175
	testq	%r14, %r14
	jne	.L1316
	movl	8(%rax), %eax
	leal	-1(%rax), %edx
	movl	%edx, 8(%r13)
.L1177:
	cmpl	$1, %eax
	je	.L1317
.L1175:
	movq	-120(%rbp), %rax
	movq	%rax, %r13
	testq	%rax, %rax
	je	.L1186
	testq	%r14, %r14
	jne	.L1318
	movl	8(%rax), %eax
	leal	-1(%rax), %edx
	movl	%edx, 8(%r13)
.L1183:
	cmpl	$1, %eax
	je	.L1319
.L1186:
	movq	%rbx, %xmm1
	movq	%r12, %xmm5
	punpcklqdq	%xmm5, %xmm1
	movaps	%xmm1, -208(%rbp)
	movaps	%xmm1, -128(%rbp)
	testq	%r14, %r14
	jne	.L1320
	addl	$1, 8(%r12)
.L1192:
	movq	-192(%rbp), %rdi
	movq	-264(%rbp), %rsi
	addq	$56, %rdi
.LEHB28:
	call	_ZNSt8_Rb_treeISt10shared_ptrIN7asiopal9IResourceEES3_St9_IdentityIS3_ESt4lessIS3_ESaIS3_EE16_M_insert_uniqueIS3_EESt4pairISt17_Rb_tree_iteratorIS3_EbEOT_@PLT
.LEHE28:
	movq	-120(%rbp), %rax
	movq	%rax, %rbx
	testq	%rax, %rax
	je	.L1194
	testq	%r14, %r14
	jne	.L1321
	movl	8(%rax), %eax
	leal	-1(%rax), %edx
	movl	%edx, 8(%rbx)
.L1196:
	cmpl	$1, %eax
	je	.L1322
.L1194:
	movq	-184(%rbp), %rax
	movdqa	-208(%rbp), %xmm4
	movups	%xmm4, (%rax)
	jmp	.L1087
	.p2align 4,,10
	.p2align 3
.L1091:
	leaq	-128(%rbp), %rax
	movq	%rax, -264(%rbp)
	testq	%r12, %r12
	je	.L1092
	jmp	.L1090
	.p2align 4,,10
	.p2align 3
.L1138:
	movq	%rbx, 24(%r12)
	testq	%r14, %r14
	jne	.L1323
	addl	$1, 12(%r12)
.L1142:
	testq	%rdi, %rdi
	je	.L1144
	testq	%r14, %r14
	jne	.L1324
	movl	12(%rdi), %eax
	leal	-1(%rax), %edx
	movl	%edx, 12(%rdi)
.L1146:
	cmpl	$1, %eax
	jne	.L1144
	movq	(%rdi), %rax
	call	*24(%rax)
	.p2align 4,,10
	.p2align 3
.L1144:
	movq	%r12, 32(%r12)
	jmp	.L1141
	.p2align 4,,10
	.p2align 3
.L1123:
	movq	-208(%rbp), %rax
	movq	%rbx, 32(%rax)
	testq	%r14, %r14
	jne	.L1325
	addl	$1, 12(%rax)
.L1127:
	testq	%rdi, %rdi
	je	.L1129
	testq	%r14, %r14
	jne	.L1326
	movl	12(%rdi), %eax
	leal	-1(%rax), %edx
	movl	%edx, 12(%rdi)
.L1131:
	cmpl	$1, %eax
	jne	.L1129
	movq	(%rdi), %rax
	call	*24(%rax)
	.p2align 4,,10
	.p2align 3
.L1129:
	movq	-208(%rbp), %rax
	movq	%rax, 40(%rax)
	jmp	.L1126
	.p2align 4,,10
	.p2align 3
.L1120:
	testq	%r13, %r13
	jne	.L1327
	movq	%r12, %rax
	jmp	.L1121
	.p2align 4,,10
	.p2align 3
.L1298:
	leaq	-128(%rbp), %rax
	movq	-272(%rbp), %rdi
	xorl	%edx, %edx
	movq	%rax, %rsi
	movq	%rax, -264(%rbp)
.LEHB29:
	call	_ZNSt7__cxx1112basic_stringIcSt11char_traitsIcESaIcEE9_M_createERmm@PLT
.LEHE29:
	movq	-208(%rbp), %rdx
	movq	%rax, %rdi
	movq	%rax, 16(%rdx)
	movq	-128(%rbp), %rax
	movq	%rax, 32(%rdx)
.L1090:
	movq	-280(%rbp), %rsi
	movq	%r12, %rdx
	call	memcpy@PLT
	movq	-208(%rbp), %rax
	movq	-128(%rbp), %r12
	movq	16(%rax), %rdi
	jmp	.L1092
	.p2align 4,,10
	.p2align 3
.L1305:
	leaq	-144(%rbp), %rsi
	leaq	-96(%rbp), %rdi
	xorl	%edx, %edx
.LEHB30:
	call	_ZNSt7__cxx1112basic_stringIcSt11char_traitsIcESaIcEE9_M_createERmm@PLT
.LEHE30:
	movq	%rax, -96(%rbp)
	movq	%rax, %rdi
	movq	-144(%rbp), %rax
	movq	%rax, -80(%rbp)
.L1119:
	movq	%r13, %rdx
	movq	%rbx, %rsi
	call	memcpy@PLT
	movq	-144(%rbp), %r13
	movq	-96(%rbp), %rax
	jmp	.L1121
	.p2align 4,,10
	.p2align 3
.L1302:
	movq	%rbx, 24(%rax)
	movq	%rax, %r12
.L1218:
	testq	%r14, %r14
	jne	.L1328
	addl	$1, 12(%r12)
.L1110:
	testq	%rdi, %rdi
	je	.L1113
	testq	%r14, %r14
	jne	.L1329
	movl	12(%rdi), %eax
	leal	-1(%rax), %edx
	movl	%edx, 12(%rdi)
.L1115:
	cmpl	$1, %eax
	jne	.L1113
	movq	(%rdi), %rax
	call	*24(%rax)
	.p2align 4,,10
	.p2align 3
.L1113:
	movq	-208(%rbp), %rax
	movq	%r12, 32(%rax)
	jmp	.L1109
	.p2align 4,,10
	.p2align 3
.L1301:
	movq	-208(%rbp), %rdi
	movq	(%rdi), %rax
	call	*16(%rax)
	testq	%r14, %r14
	jne	.L1330
	movq	-208(%rbp), %rbx
	movl	12(%rbx), %eax
	leal	-1(%rax), %edx
	movl	%edx, 12(%rbx)
.L1103:
	cmpl	$1, %eax
	jne	.L1101
	movq	-208(%rbp), %rdi
	movq	(%rdi), %rax
	call	*24(%rax)
	jmp	.L1101
	.p2align 4,,10
	.p2align 3
.L1313:
	movq	-208(%rbp), %rdi
	movq	(%rdi), %rax
	call	*16(%rax)
	testq	%r14, %r14
	jne	.L1331
	movq	-208(%rbp), %rcx
	movl	12(%rcx), %eax
	leal	-1(%rax), %edx
	movl	%edx, 12(%rcx)
.L1165:
	cmpl	$1, %eax
	jne	.L1163
	movq	-208(%rbp), %rdi
	movq	(%rdi), %rax
	call	*24(%rax)
	jmp	.L1163
	.p2align 4,,10
	.p2align 3
.L1317:
	movq	0(%r13), %rax
	movq	%r13, %rdi
	call	*16(%rax)
	testq	%r14, %r14
	jne	.L1332
	movl	12(%r13), %eax
	leal	-1(%rax), %edx
	movl	%edx, 12(%r13)
.L1180:
	cmpl	$1, %eax
	jne	.L1175
	movq	0(%r13), %rax
	movq	%r13, %rdi
	call	*24(%rax)
	jmp	.L1175
	.p2align 4,,10
	.p2align 3
.L1319:
	movq	0(%r13), %rax
	movq	%r13, %rdi
	call	*16(%rax)
	testq	%r14, %r14
	jne	.L1333
	movl	12(%r13), %eax
	leal	-1(%rax), %edx
	movl	%edx, 12(%r13)
.L1185:
	cmpl	$1, %eax
	jne	.L1186
	movq	0(%r13), %rax
	movq	%r13, %rdi
	call	*24(%rax)
	jmp	.L1186
	.p2align 4,,10
	.p2align 3
.L1309:
	movq	0(%r13), %rax
	movq	%r13, %rdi
	call	*16(%rax)
	testq	%r14, %r14
	jne	.L1334
	movl	12(%r13), %eax
	leal	-1(%rax), %edx
	movl	%edx, 12(%r13)
.L1154:
	cmpl	$1, %eax
	jne	.L1149
	movq	0(%r13), %rax
	movq	%r13, %rdi
	call	*24(%rax)
	jmp	.L1149
	.p2align 4,,10
	.p2align 3
.L1311:
	movq	0(%r13), %rax
	movq	%r13, %rdi
	call	*16(%rax)
	testq	%r14, %r14
	jne	.L1335
	movl	12(%r13), %eax
	leal	-1(%rax), %edx
	movl	%edx, 12(%r13)
.L1159:
	cmpl	$1, %eax
	jne	.L1160
	movq	0(%r13), %rax
	movq	%r13, %rdi
	call	*24(%rax)
	jmp	.L1160
	.p2align 4,,10
	.p2align 3
.L1315:
	movq	0(%r13), %rax
	movq	%r13, %rdi
	call	*16(%rax)
	testq	%r14, %r14
	jne	.L1336
	movl	12(%r13), %eax
	leal	-1(%rax), %edx
	movl	%edx, 12(%r13)
.L1173:
	cmpl	$1, %eax
	jne	.L1168
	movq	0(%r13), %rax
	movq	%r13, %rdi
	call	*24(%rax)
	jmp	.L1168
	.p2align 4,,10
	.p2align 3
.L1314:
	movl	$-1, %eax
	lock xaddl	%eax, 8(%r13)
	jmp	.L1170
	.p2align 4,,10
	.p2align 3
.L1316:
	movl	$-1, %eax
	lock xaddl	%eax, 8(%r13)
	jmp	.L1177
	.p2align 4,,10
	.p2align 3
.L1318:
	movl	$-1, %eax
	lock xaddl	%eax, 8(%r13)
	jmp	.L1183
	.p2align 4,,10
	.p2align 3
.L1308:
	movl	$-1, %eax
	lock xaddl	%eax, 8(%r13)
	jmp	.L1151
	.p2align 4,,10
	.p2align 3
.L1310:
	movl	$-1, %eax
	lock xaddl	%eax, 8(%r13)
	jmp	.L1157
	.p2align 4,,10
	.p2align 3
.L1312:
	movq	-224(%rbp), %rdx
	movl	$-1, %eax
	lock xaddl	%eax, (%rdx)
	jmp	.L1161
	.p2align 4,,10
	.p2align 3
.L1303:
	movq	-208(%rbp), %rax
	movq	-168(%rbp), %r12
	movq	%rbx, 24(%rax)
	testq	%r12, %r12
	je	.L1110
	jmp	.L1218
	.p2align 4,,10
	.p2align 3
.L1329:
	movl	$-1, %eax
	lock xaddl	%eax, 12(%rdi)
	jmp	.L1115
	.p2align 4,,10
	.p2align 3
.L1324:
	movl	$-1, %eax
	lock xaddl	%eax, 12(%rdi)
	jmp	.L1146
	.p2align 4,,10
	.p2align 3
.L1326:
	movl	$-1, %eax
	lock xaddl	%eax, 12(%rdi)
	jmp	.L1131
	.p2align 4,,10
	.p2align 3
.L1333:
	movl	$-1, %eax
	lock xaddl	%eax, 12(%r13)
	jmp	.L1185
	.p2align 4,,10
	.p2align 3
.L1332:
	movl	$-1, %eax
	lock xaddl	%eax, 12(%r13)
	jmp	.L1180
	.p2align 4,,10
	.p2align 3
.L1331:
	movq	-208(%rbp), %rdx
	movl	$-1, %eax
	lock xaddl	%eax, 12(%rdx)
	jmp	.L1165
	.p2align 4,,10
	.p2align 3
.L1330:
	movq	-208(%rbp), %rdx
	movl	$-1, %eax
	lock xaddl	%eax, 12(%rdx)
	jmp	.L1103
	.p2align 4,,10
	.p2align 3
.L1336:
	movl	$-1, %eax
	lock xaddl	%eax, 12(%r13)
	jmp	.L1173
	.p2align 4,,10
	.p2align 3
.L1335:
	movl	$-1, %eax
	lock xaddl	%eax, 12(%r13)
	jmp	.L1159
	.p2align 4,,10
	.p2align 3
.L1334:
	movl	$-1, %eax
	lock xaddl	%eax, 12(%r13)
	jmp	.L1154
	.p2align 4,,10
	.p2align 3
.L1307:
	movq	-224(%rbp), %rax
	lock addl	$1, (%rax)
	jmp	.L1136
	.p2align 4,,10
	.p2align 3
.L1306:
	lock addl	$1, 8(%rax)
	jmp	.L1134
	.p2align 4,,10
	.p2align 3
.L1300:
	movq	-288(%rbp), %rax
	lock addl	$1, (%rax)
	movq	%rax, %rdx
	movl	$-1, %eax
	lock xaddl	%eax, (%rdx)
	jmp	.L1099
	.p2align 4,,10
	.p2align 3
.L1299:
	lock addl	$1, 8(%rax)
	jmp	.L1094
	.p2align 4,,10
	.p2align 3
.L1322:
	movq	(%rbx), %rax
	movq	%rbx, %rdi
	call	*16(%rax)
	testq	%r14, %r14
	jne	.L1337
	movl	12(%rbx), %eax
	leal	-1(%rax), %edx
	movl	%edx, 12(%rbx)
.L1199:
	cmpl	$1, %eax
	jne	.L1194
	movq	(%rbx), %rax
	movq	%rbx, %rdi
	call	*24(%rax)
	jmp	.L1194
	.p2align 4,,10
	.p2align 3
.L1321:
	movl	$-1, %eax
	lock xaddl	%eax, 8(%rbx)
	jmp	.L1196
	.p2align 4,,10
	.p2align 3
.L1320:
	lock addl	$1, (%r15)
	jmp	.L1192
	.p2align 4,,10
	.p2align 3
.L1328:
	lock addl	$1, 12(%r12)
	movq	-208(%rbp), %rax
	movq	32(%rax), %rdi
	jmp	.L1110
	.p2align 4,,10
	.p2align 3
.L1325:
	lock addl	$1, 12(%rax)
	movq	40(%rax), %rdi
	jmp	.L1127
	.p2align 4,,10
	.p2align 3
.L1323:
	lock addl	$1, 12(%r12)
	movq	32(%r12), %rdi
	jmp	.L1142
	.p2align 4,,10
	.p2align 3
.L1337:
	movl	$-1, %eax
	lock xaddl	%eax, 12(%rbx)
	jmp	.L1199
.L1296:
	call	__stack_chk_fail@PLT
.L1295:
	movl	%eax, %edi
.LEHB31:
	call	_ZSt20__throw_system_errori@PLT
.LEHE31:
.L1327:
	movq	%r12, %rdi
	jmp	.L1119
.L1297:
	leaq	.LC4(%rip), %rdi
.LEHB32:
	call	_ZSt19__throw_logic_errorPKc@PLT
.LEHE32:
.L1304:
	leaq	.LC4(%rip), %rdi
.LEHB33:
	call	_ZSt19__throw_logic_errorPKc@PLT
.LEHE33:
.L1224:
	movq	%rax, %rbx
	jmp	.L1188
.L1227:
	movq	%rax, %rbx
	jmp	.L1095
.L1221:
	movq	%rax, %rbx
	jmp	.L1096
.L1226:
	movq	%rax, %rbx
	jmp	.L1125
.L1229:
	movq	%rax, %rbx
	jmp	.L1124
.L1223:
	movq	%rax, %rbx
	jmp	.L1108
.L1222:
	movq	%rax, %rbx
	jmp	.L1201
.L1225:
	movq	%rax, %rbx
	jmp	.L1140
.L1230:
	movq	%rax, %rbx
	jmp	.L1139
.L1228:
	movq	%rax, %rbx
	jmp	.L1107
	.section	.gcc_except_table
.LLSDA8230:
	.byte	0xff
	.byte	0xff
	.byte	0x1
	.uleb128 .LLSDACSE8230-.LLSDACSB8230
.LLSDACSB8230:
	.uleb128 .LEHB21-.LFB8230
	.uleb128 .LEHE21-.LEHB21
	.uleb128 .L1221-.LFB8230
	.uleb128 0
	.uleb128 .LEHB22-.LFB8230
	.uleb128 .LEHE22-.LEHB22
	.uleb128 .L1223-.LFB8230
	.uleb128 0
	.uleb128 .LEHB23-.LFB8230
	.uleb128 .LEHE23-.LEHB23
	.uleb128 .L1228-.LFB8230
	.uleb128 0
	.uleb128 .LEHB24-.LFB8230
	.uleb128 .LEHE24-.LEHB24
	.uleb128 .L1226-.LFB8230
	.uleb128 0
	.uleb128 .LEHB25-.LFB8230
	.uleb128 .LEHE25-.LEHB25
	.uleb128 .L1229-.LFB8230
	.uleb128 0
	.uleb128 .LEHB26-.LFB8230
	.uleb128 .LEHE26-.LEHB26
	.uleb128 .L1225-.LFB8230
	.uleb128 0
	.uleb128 .LEHB27-.LFB8230
	.uleb128 .LEHE27-.LEHB27
	.uleb128 .L1230-.LFB8230
	.uleb128 0
	.uleb128 .LEHB28-.LFB8230
	.uleb128 .LEHE28-.LEHB28
	.uleb128 .L1222-.LFB8230
	.uleb128 0
	.uleb128 .LEHB29-.LFB8230
	.uleb128 .LEHE29-.LEHB29
	.uleb128 .L1227-.LFB8230
	.uleb128 0
	.uleb128 .LEHB30-.LFB8230
	.uleb128 .LEHE30-.LEHB30
	.uleb128 .L1224-.LFB8230
	.uleb128 0
	.uleb128 .LEHB31-.LFB8230
	.uleb128 .LEHE31-.LEHB31
	.uleb128 0
	.uleb128 0
	.uleb128 .LEHB32-.LFB8230
	.uleb128 .LEHE32-.LEHB32
	.uleb128 .L1227-.LFB8230
	.uleb128 0
	.uleb128 .LEHB33-.LFB8230
	.uleb128 .LEHE33-.LEHB33
	.uleb128 .L1224-.LFB8230
	.uleb128 0
.LLSDACSE8230:
	.text
	.cfi_endproc
	.section	.text.unlikely
	.cfi_startproc
	.cfi_personality 0x9b,DW.ref.__gxx_personality_v0
	.cfi_lsda 0x1b,.LLSDAC8230
	.type	_ZN8asiodnp315DNP3ManagerImpl12AddTCPClientERKNSt7__cxx1112basic_stringIcSt11char_traitsIcESaIcEEEjRKN7asiopal12ChannelRetryES8_S8_tSt10shared_ptrINS_16IChannelListenerEE.cold, @function
_ZN8asiodnp315DNP3ManagerImpl12AddTCPClientERKNSt7__cxx1112basic_stringIcSt11char_traitsIcESaIcEEEjRKN7asiopal12ChannelRetryES8_S8_tSt10shared_ptrINS_16IChannelListenerEE.cold:
.LFSB8230:
.L1124:
	.cfi_def_cfa 6, 16
	.cfi_offset 3, -56
	.cfi_offset 6, -16
	.cfi_offset 12, -48
	.cfi_offset 13, -40
	.cfi_offset 14, -32
	.cfi_offset 15, -24
	movq	-208(%rbp), %rdi
	movl	$960, %esi
	call	_ZdlPvm@PLT
.L1125:
	movq	-96(%rbp), %rdi
	cmpq	%r12, %rdi
	je	.L1188
	movq	-80(%rbp), %rax
	leaq	1(%rax), %rsi
	call	_ZdlPvm@PLT
.L1188:
	movq	-168(%rbp), %rdi
	testq	%rdi, %rdi
	je	.L1108
	call	_ZNSt16_Sp_counted_baseILN9__gnu_cxx12_Lock_policyE2EE10_M_releaseEv@PLT
.L1108:
	movq	-264(%rbp), %rdi
	call	_ZN7openpal6LoggerD1Ev@PLT
	jmp	.L1096
.L1095:
	movq	-208(%rbp), %rdi
	movl	$56, %esi
	call	_ZdlPvm@PLT
.L1096:
	testq	%r14, %r14
	je	.L1203
	movq	-216(%rbp), %rdi
	call	_ZL28__gthrw_pthread_mutex_unlockP15pthread_mutex_t@PLT
.L1203:
	movq	%rbx, %rdi
.LEHB34:
	call	_Unwind_Resume@PLT
.LEHE34:
.L1201:
	movq	-120(%rbp), %rdi
	testq	%rdi, %rdi
	je	.L1202
	call	_ZNSt16_Sp_counted_baseILN9__gnu_cxx12_Lock_policyE2EE10_M_releaseEv@PLT
.L1202:
	movq	%r12, %rdi
	call	_ZNSt16_Sp_counted_baseILN9__gnu_cxx12_Lock_policyE2EE10_M_releaseEv@PLT
	jmp	.L1096
.L1139:
	movl	$136, %esi
	movq	%r12, %rdi
	call	_ZdlPvm@PLT
.L1140:
	movq	-152(%rbp), %rdi
	testq	%rdi, %rdi
	je	.L1189
	call	_ZNSt16_Sp_counted_baseILN9__gnu_cxx12_Lock_policyE2EE10_M_releaseEv@PLT
.L1189:
	movq	-136(%rbp), %rdi
	testq	%rdi, %rdi
	je	.L1190
	call	_ZNSt16_Sp_counted_baseILN9__gnu_cxx12_Lock_policyE2EE10_M_releaseEv@PLT
.L1190:
	movq	-208(%rbp), %rdi
	call	_ZNSt16_Sp_counted_baseILN9__gnu_cxx12_Lock_policyE2EE10_M_releaseEv@PLT
	jmp	.L1188
.L1107:
	movq	-208(%rbp), %rdi
	movl	$72, %esi
	call	_ZdlPvm@PLT
	jmp	.L1108
	.cfi_endproc
.LFE8230:
	.section	.gcc_except_table
.LLSDAC8230:
	.byte	0xff
	.byte	0xff
	.byte	0x1
	.uleb128 .LLSDACSEC8230-.LLSDACSBC8230
.LLSDACSBC8230:
	.uleb128 .LEHB34-.LCOLDB28
	.uleb128 .LEHE34-.LEHB34
	.uleb128 0
	.uleb128 0
.LLSDACSEC8230:
	.section	.text.unlikely
	.text
	.size	_ZN8asiodnp315DNP3ManagerImpl12AddTCPClientERKNSt7__cxx1112basic_stringIcSt11char_traitsIcESaIcEEEjRKN7asiopal12ChannelRetryES8_S8_tSt10shared_ptrINS_16IChannelListenerEE, .-_ZN8asiodnp315DNP3ManagerImpl12AddTCPClientERKNSt7__cxx1112basic_stringIcSt11char_traitsIcESaIcEEEjRKN7asiopal12ChannelRetryES8_S8_tSt10shared_ptrINS_16IChannelListenerEE
	.section	.text.unlikely
	.size	_ZN8asiodnp315DNP3ManagerImpl12AddTCPClientERKNSt7__cxx1112basic_stringIcSt11char_traitsIcESaIcEEEjRKN7asiopal12ChannelRetryES8_S8_tSt10shared_ptrINS_16IChannelListenerEE.cold, .-_ZN8asiodnp315DNP3ManagerImpl12AddTCPClientERKNSt7__cxx1112basic_stringIcSt11char_traitsIcESaIcEEEjRKN7asiopal12ChannelRetryES8_S8_tSt10shared_ptrINS_16IChannelListenerEE.cold
.LCOLDE28:
	.text
.LHOTE28:
	.section	.text.unlikely
	.align 2
.LCOLDB29:
	.text
.LHOTB29:
	.align 2
	.p2align 4
	.globl	_ZN8asiodnp315DNP3ManagerImpl12AddTCPServerERKNSt7__cxx1112basic_stringIcSt11char_traitsIcESaIcEEEjRKN7asiopal12ChannelRetryES8_tSt10shared_ptrINS_16IChannelListenerEE
	.type	_ZN8asiodnp315DNP3ManagerImpl12AddTCPServerERKNSt7__cxx1112basic_stringIcSt11char_traitsIcESaIcEEEjRKN7asiopal12ChannelRetryES8_tSt10shared_ptrINS_16IChannelListenerEE, @function
_ZN8asiodnp315DNP3ManagerImpl12AddTCPServerERKNSt7__cxx1112basic_stringIcSt11char_traitsIcESaIcEEEjRKN7asiopal12ChannelRetryES8_tSt10shared_ptrINS_16IChannelListenerEE:
.LFB8253:
	.cfi_startproc
	.cfi_personality 0x9b,DW.ref.__gxx_personality_v0
	.cfi_lsda 0x1b,.LLSDA8253
	pushq	%r15
	.cfi_def_cfa_offset 16
	.cfi_offset 15, -16
	pushq	%r14
	.cfi_def_cfa_offset 24
	.cfi_offset 14, -24
	movq	%rsi, %r14
	pushq	%r13
	.cfi_def_cfa_offset 32
	.cfi_offset 13, -32
	pushq	%r12
	.cfi_def_cfa_offset 40
	.cfi_offset 12, -40
	movq	%rdi, %r12
	pushq	%rbp
	.cfi_def_cfa_offset 48
	.cfi_offset 6, -48
	pushq	%rbx
	.cfi_def_cfa_offset 56
	.cfi_offset 3, -56
	movq	%rdx, %rbx
	subq	$248, %rsp
	.cfi_def_cfa_offset 304
	movq	_ZL28__gthrw___pthread_key_createPjPFvPvE@GOTPCREL(%rip), %r15
	movl	304(%rsp), %eax
	movl	%ecx, 16(%rsp)
	movq	%r9, 40(%rsp)
	movl	%eax, 52(%rsp)
	movq	312(%rsp), %rax
	movq	%rax, 56(%rsp)
	movq	%fs:40, %rax
	movq	%rax, 232(%rsp)
	movq	256(%rsi), %rax
	movq	%rax, 8(%rsp)
	addq	$8, %rax
	movq	%rax, 32(%rsp)
	testq	%r15, %r15
	je	.L1339
	movq	%rax, %rdi
	call	_ZL26__gthrw_pthread_mutex_lockP15pthread_mutex_t@PLT
	testl	%eax, %eax
	jne	.L1554
.L1339:
	movq	8(%rsp), %rax
	cmpb	$0, 48(%rax)
	je	.L1340
	pxor	%xmm0, %xmm0
	movups	%xmm0, (%r12)
.L1341:
	testq	%r15, %r15
	je	.L1338
	movq	32(%rsp), %rdi
	call	_ZL28__gthrw_pthread_mutex_unlockP15pthread_mutex_t@PLT
.L1338:
	movq	232(%rsp), %rax
	subq	%fs:40, %rax
	jne	.L1555
	addq	$248, %rsp
	.cfi_remember_state
	.cfi_def_cfa_offset 56
	movq	%r12, %rax
	popq	%rbx
	.cfi_def_cfa_offset 48
	popq	%rbp
	.cfi_def_cfa_offset 40
	popq	%r12
	.cfi_def_cfa_offset 32
	popq	%r13
	.cfi_def_cfa_offset 24
	popq	%r14
	.cfi_def_cfa_offset 16
	popq	%r15
	.cfi_def_cfa_offset 8
	ret
	.p2align 4,,10
	.p2align 3
.L1340:
	.cfi_restore_state
	movl	$0, 96(%rsp)
	call	_ZNSt3_V215system_categoryEv@PLT
	movl	$56, %edi
	movq	%rax, 104(%rsp)
.LEHB35:
	call	_Znwm@PLT
.LEHE35:
	movq	%rax, %rbp
	leaq	8(%rax), %rax
	movq	8(%rbx), %r13
	movq	%rax, 88(%rsp)
	movq	.LC24(%rip), %rax
	leaq	32(%rbp), %rdi
	movq	%rdi, 16(%rbp)
	movq	%rax, 8(%rbp)
	movq	_ZTVSt23_Sp_counted_ptr_inplaceIN7openpal6Logger8SettingsESaIS2_ELN9__gnu_cxx12_Lock_policyE2EE@GOTPCREL(%rip), %rax
	addq	$16, %rax
	movq	%rax, 0(%rbp)
	leaq	16(%rbp), %rax
	movq	%rax, 72(%rsp)
	movq	(%rbx), %rax
	movq	%rax, %rcx
	movq	%rax, 80(%rsp)
	addq	%r13, %rcx
	je	.L1342
	testq	%rax, %rax
	je	.L1556
.L1342:
	movq	%r13, 160(%rsp)
	cmpq	$15, %r13
	ja	.L1557
	cmpq	$1, %r13
	jne	.L1345
	movq	80(%rsp), %rax
	movzbl	(%rax), %eax
	movb	%al, 32(%rbp)
	leaq	160(%rsp), %rax
	movq	%rax, 64(%rsp)
.L1346:
	movl	16(%rsp), %eax
	movq	%r13, 24(%rbp)
	movb	$0, (%rdi,%r13)
	movdqu	(%r14), %xmm3
	movl	%eax, 48(%rbp)
	movq	8(%r14), %rax
	movaps	%xmm3, 160(%rsp)
	testq	%rax, %rax
	je	.L1348
	testq	%r15, %r15
	jne	.L1558
	addl	$1, 8(%rax)
.L1348:
	movq	72(%rsp), %xmm0
	movq	%rbp, %xmm6
	punpcklqdq	%xmm6, %xmm0
	movaps	%xmm0, 176(%rsp)
	testq	%r15, %r15
	jne	.L1559
	addl	$1, 8(%rbp)
	movl	8(%rbp), %eax
	leal	-1(%rax), %edx
	movl	%edx, 8(%rbp)
.L1353:
	cmpl	$1, %eax
	je	.L1560
.L1355:
	movl	$72, %edi
	leaq	32(%r14), %r13
	movq	$0, 112(%rsp)
.LEHB36:
	call	_Znwm@PLT
.LEHE36:
	movq	%rax, %rbp
	movq	.LC24(%rip), %rax
	movq	%r13, %rsi
	leaq	16(%rbp), %rbx
	movq	%rax, 8(%rbp)
	movq	_ZTVSt23_Sp_counted_ptr_inplaceIN7asiopal8ExecutorESaIS1_ELN9__gnu_cxx12_Lock_policyE2EE@GOTPCREL(%rip), %rax
	movq	%rbx, %rdi
	addq	$16, %rax
	movq	%rax, 0(%rbp)
.LEHB37:
	call	_ZN7asiopal8ExecutorC1ERKSt10shared_ptrINS_2IOEE@PLT
.LEHE37:
	movq	%rbx, %xmm0
	movq	%rbp, %xmm4
	movq	32(%rbp), %rdi
	punpcklqdq	%xmm4, %xmm0
	movaps	%xmm0, 112(%rsp)
	testq	%rdi, %rdi
	je	.L1561
	movl	8(%rdi), %eax
	testl	%eax, %eax
	je	.L1562
.L1363:
	movq	40(%rsp), %rax
	leaq	208(%rsp), %rbx
	movq	%rbx, 192(%rsp)
	movq	(%rax), %rbp
	movq	8(%rax), %r13
	movq	%rbp, %rax
	addq	%r13, %rax
	je	.L1371
	testq	%rbp, %rbp
	je	.L1563
.L1371:
	movq	%r13, 144(%rsp)
	cmpq	$15, %r13
	ja	.L1564
	cmpq	$1, %r13
	jne	.L1374
	movzbl	0(%rbp), %eax
	movb	%al, 208(%rsp)
	movq	%rbx, %rax
.L1375:
	movq	%r13, 200(%rsp)
	movl	$888, %edi
	movb	$0, (%rax,%r13)
	movzwl	52(%rsp), %eax
	movw	%ax, 224(%rsp)
.LEHB38:
	call	_Znwm@PLT
.LEHE38:
	movq	%rax, %rbp
	leaq	8(%rax), %rax
	movq	56(%rsp), %rdx
	movq	64(%rsp), %rsi
	movq	%rax, 40(%rsp)
	movq	.LC24(%rip), %rax
	leaq	16(%rbp), %r13
	leaq	96(%rsp), %r9
	leaq	192(%rsp), %r8
	movq	%r13, %rdi
	movq	%rax, 8(%rbp)
	movq	_ZTVSt23_Sp_counted_ptr_inplaceIN8asiodnp318TCPServerIOHandlerESaIS1_ELN9__gnu_cxx12_Lock_policyE2EE@GOTPCREL(%rip), %rax
	addq	$16, %rax
	movq	%rax, 0(%rbp)
	leaq	112(%rsp), %rax
	movq	%rax, %rcx
	movq	%rax, 16(%rsp)
.LEHB39:
	call	_ZN8asiodnp318TCPServerIOHandlerC1ERKN7openpal6LoggerERKSt10shared_ptrINS_16IChannelListenerEERKS5_IN7asiopal8ExecutorEERKNSA_10IPEndpointERSt10error_code@PLT
.LEHE39:
	movq	40(%rbp), %rdi
	testq	%rdi, %rdi
	je	.L1377
	movl	8(%rdi), %eax
	testl	%eax, %eax
	je	.L1377
.L1380:
	movq	192(%rsp), %rdi
	cmpq	%rbx, %rdi
	je	.L1387
	movq	208(%rsp), %rax
	leaq	1(%rax), %rsi
	call	_ZdlPvm@PLT
.L1387:
	movl	96(%rsp), %eax
	testl	%eax, %eax
	je	.L1388
	xorl	%ebx, %ebx
	xorl	%r13d, %r13d
.L1389:
	testq	%r15, %r15
	jne	.L1565
	movl	8(%rbp), %eax
	leal	-1(%rax), %edx
	movl	%edx, 8(%rbp)
.L1418:
	cmpl	$1, %eax
	je	.L1566
.L1420:
	movq	120(%rsp), %rbp
	testq	%rbp, %rbp
	je	.L1425
	testq	%r15, %r15
	jne	.L1567
	movl	8(%rbp), %eax
	leal	-1(%rax), %edx
	movl	%edx, 8(%rbp)
.L1427:
	cmpl	$1, %eax
	je	.L1568
.L1425:
	movq	184(%rsp), %rbp
	testq	%rbp, %rbp
	je	.L1432
	testq	%r15, %r15
	jne	.L1569
	movl	8(%rbp), %eax
	leal	-1(%rax), %edx
	movl	%edx, 8(%rbp)
.L1434:
	cmpl	$1, %eax
	je	.L1570
.L1432:
	movq	168(%rsp), %rbp
	testq	%rbp, %rbp
	je	.L1439
	testq	%r15, %r15
	jne	.L1571
	movl	8(%rbp), %eax
	leal	-1(%rax), %edx
	movl	%edx, 8(%rbp)
.L1441:
	cmpl	$1, %eax
	je	.L1572
.L1439:
	testq	%rbx, %rbx
	je	.L1573
	movq	%rbx, %xmm1
	movq	%r13, %xmm7
	punpcklqdq	%xmm7, %xmm1
	movaps	%xmm1, 16(%rsp)
	movaps	%xmm1, 160(%rsp)
	testq	%r13, %r13
	je	.L1452
	testq	%r15, %r15
	jne	.L1574
	addl	$1, 8(%r13)
.L1452:
	movq	8(%rsp), %rdi
	movq	64(%rsp), %rsi
	addq	$56, %rdi
.LEHB40:
	call	_ZNSt8_Rb_treeISt10shared_ptrIN7asiopal9IResourceEES3_St9_IdentityIS3_ESt4lessIS3_ESaIS3_EE16_M_insert_uniqueIS3_EESt4pairISt17_Rb_tree_iteratorIS3_EbEOT_@PLT
.LEHE40:
	movq	168(%rsp), %rbp
	testq	%rbp, %rbp
	je	.L1446
	testq	%r15, %r15
	jne	.L1575
	movl	8(%rbp), %eax
	leal	-1(%rax), %edx
	movl	%edx, 8(%rbp)
.L1457:
	cmpl	$1, %eax
	je	.L1576
	.p2align 4,,10
	.p2align 3
.L1446:
	movdqa	16(%rsp), %xmm5
	movups	%xmm5, (%r12)
	jmp	.L1341
	.p2align 4,,10
	.p2align 3
.L1345:
	leaq	160(%rsp), %rax
	movq	%rax, 64(%rsp)
	testq	%r13, %r13
	je	.L1346
	jmp	.L1344
	.p2align 4,,10
	.p2align 3
.L1377:
	movq	%r13, 32(%rbp)
	testq	%r15, %r15
	jne	.L1577
	addl	$1, 12(%rbp)
.L1381:
	testq	%rdi, %rdi
	je	.L1383
	testq	%r15, %r15
	jne	.L1578
	movl	12(%rdi), %eax
	leal	-1(%rax), %edx
	movl	%edx, 12(%rdi)
.L1385:
	cmpl	$1, %eax
	jne	.L1383
	movq	(%rdi), %rax
	call	*24(%rax)
	.p2align 4,,10
	.p2align 3
.L1383:
	movq	%rbp, 40(%rbp)
	jmp	.L1380
	.p2align 4,,10
	.p2align 3
.L1573:
	movq	%rbx, %xmm2
	movq	%r13, %xmm7
	punpcklqdq	%xmm7, %xmm2
	movaps	%xmm2, 16(%rsp)
	jmp	.L1446
	.p2align 4,,10
	.p2align 3
.L1374:
	testq	%r13, %r13
	jne	.L1579
	movq	%rbx, %rax
	jmp	.L1375
	.p2align 4,,10
	.p2align 3
.L1557:
	leaq	160(%rsp), %rax
	movq	72(%rsp), %rdi
	xorl	%edx, %edx
	movq	%rax, %rsi
	movq	%rax, 64(%rsp)
.LEHB41:
	call	_ZNSt7__cxx1112basic_stringIcSt11char_traitsIcESaIcEE9_M_createERmm@PLT
.LEHE41:
	movq	%rax, 16(%rbp)
	movq	%rax, %rdi
	movq	160(%rsp), %rax
	movq	%rax, 32(%rbp)
.L1344:
	movq	80(%rsp), %rsi
	movq	%r13, %rdx
	call	memcpy@PLT
	movq	160(%rsp), %r13
	movq	16(%rbp), %rdi
	jmp	.L1346
	.p2align 4,,10
	.p2align 3
.L1564:
	leaq	144(%rsp), %rsi
	leaq	192(%rsp), %rdi
	xorl	%edx, %edx
.LEHB42:
	call	_ZNSt7__cxx1112basic_stringIcSt11char_traitsIcESaIcEE9_M_createERmm@PLT
.LEHE42:
	movq	%rax, 192(%rsp)
	movq	%rax, %rdi
	movq	144(%rsp), %rax
	movq	%rax, 208(%rsp)
.L1373:
	movq	%r13, %rdx
	movq	%rbp, %rsi
	call	memcpy@PLT
	movq	144(%rsp), %r13
	movq	192(%rsp), %rax
	jmp	.L1375
	.p2align 4,,10
	.p2align 3
.L1388:
	movdqu	256(%r14), %xmm6
	movq	264(%r14), %rax
	movaps	%xmm6, 144(%rsp)
	testq	%rax, %rax
	je	.L1390
	testq	%r15, %r15
	jne	.L1580
	addl	$1, 8(%rax)
.L1390:
	movq	%r13, %xmm0
	movq	%rbp, %xmm3
	punpcklqdq	%xmm3, %xmm0
	movaps	%xmm0, 128(%rsp)
	testq	%r15, %r15
	jne	.L1581
	addl	$1, 8(%rbp)
.L1392:
	movl	$136, %edi
.LEHB43:
	call	_Znwm@PLT
.LEHE43:
	movq	%rax, %r13
	movq	.LC24(%rip), %rax
	movq	16(%rsp), %rdx
	leaq	128(%rsp), %rcx
	leaq	16(%r13), %rbx
	movq	64(%rsp), %rsi
	leaq	144(%rsp), %r8
	movq	%rax, 8(%r13)
	movq	_ZTVSt23_Sp_counted_ptr_inplaceIN8asiodnp311DNP3ChannelESaIS1_ELN9__gnu_cxx12_Lock_policyE2EE@GOTPCREL(%rip), %rax
	movq	%rbx, %rdi
	addq	$16, %rax
	movq	%rax, 0(%r13)
.LEHB44:
	call	_ZN8asiodnp311DNP3ChannelC1ERKN7openpal6LoggerERKSt10shared_ptrIN7asiopal8ExecutorEERKS5_INS_9IOHandlerEERKS5_INS6_16IResourceManagerEE@PLT
.LEHE44:
	movq	32(%r13), %rdi
	testq	%rdi, %rdi
	je	.L1394
	movl	8(%rdi), %eax
	testl	%eax, %eax
	je	.L1394
.L1397:
	movq	136(%rsp), %r14
	testq	%r14, %r14
	je	.L1405
	testq	%r15, %r15
	jne	.L1582
	movl	8(%r14), %eax
	leal	-1(%rax), %edx
	movl	%edx, 8(%r14)
.L1407:
	cmpl	$1, %eax
	je	.L1583
.L1405:
	movq	152(%rsp), %r14
	testq	%r14, %r14
	je	.L1389
	testq	%r15, %r15
	jne	.L1584
	movl	8(%r14), %eax
	leal	-1(%rax), %edx
	movl	%edx, 8(%r14)
.L1414:
	cmpl	$1, %eax
	jne	.L1389
	movq	(%r14), %rax
	movq	%r14, %rdi
	call	*16(%rax)
	testq	%r15, %r15
	jne	.L1585
	movl	12(%r14), %eax
	leal	-1(%rax), %edx
	movl	%edx, 12(%r14)
.L1417:
	cmpl	$1, %eax
	jne	.L1389
	movq	(%r14), %rax
	movq	%r14, %rdi
	call	*24(%rax)
	jmp	.L1389
	.p2align 4,,10
	.p2align 3
.L1394:
	movq	%rbx, 24(%r13)
	testq	%r15, %r15
	jne	.L1586
	addl	$1, 12(%r13)
.L1398:
	testq	%rdi, %rdi
	je	.L1400
	testq	%r15, %r15
	jne	.L1587
	movl	12(%rdi), %eax
	leal	-1(%rax), %edx
	movl	%edx, 12(%rdi)
.L1402:
	cmpl	$1, %eax
	jne	.L1400
	movq	(%rdi), %rax
	call	*24(%rax)
	.p2align 4,,10
	.p2align 3
.L1400:
	movq	%r13, 32(%r13)
	jmp	.L1397
	.p2align 4,,10
	.p2align 3
.L1561:
	movq	%rbx, 24(%rbp)
	movq	%rbp, %r13
.L1478:
	testq	%r15, %r15
	jne	.L1588
	addl	$1, 12(%r13)
.L1364:
	testq	%rdi, %rdi
	je	.L1367
	testq	%r15, %r15
	jne	.L1589
	movl	12(%rdi), %eax
	leal	-1(%rax), %edx
	movl	%edx, 12(%rdi)
.L1369:
	cmpl	$1, %eax
	jne	.L1367
	movq	(%rdi), %rax
	call	*24(%rax)
	.p2align 4,,10
	.p2align 3
.L1367:
	movq	%r13, 32(%rbp)
	jmp	.L1363
	.p2align 4,,10
	.p2align 3
.L1566:
	movq	0(%rbp), %rax
	movq	%rbp, %rdi
	call	*16(%rax)
	testq	%r15, %r15
	jne	.L1590
	movl	12(%rbp), %eax
	leal	-1(%rax), %edx
	movl	%edx, 12(%rbp)
.L1422:
	cmpl	$1, %eax
	jne	.L1420
	movq	0(%rbp), %rax
	movq	%rbp, %rdi
	call	*24(%rax)
	jmp	.L1420
	.p2align 4,,10
	.p2align 3
.L1560:
	movq	0(%rbp), %rax
	movq	%rbp, %rdi
	call	*16(%rax)
	testq	%r15, %r15
	jne	.L1591
	movl	12(%rbp), %eax
	leal	-1(%rax), %edx
	movl	%edx, 12(%rbp)
.L1357:
	cmpl	$1, %eax
	jne	.L1355
	movq	0(%rbp), %rax
	movq	%rbp, %rdi
	call	*24(%rax)
	jmp	.L1355
	.p2align 4,,10
	.p2align 3
.L1570:
	movq	0(%rbp), %rax
	movq	%rbp, %rdi
	call	*16(%rax)
	testq	%r15, %r15
	jne	.L1592
	movl	12(%rbp), %eax
	leal	-1(%rax), %edx
	movl	%edx, 12(%rbp)
.L1437:
	cmpl	$1, %eax
	jne	.L1432
	movq	0(%rbp), %rax
	movq	%rbp, %rdi
	call	*24(%rax)
	jmp	.L1432
	.p2align 4,,10
	.p2align 3
.L1568:
	movq	0(%rbp), %rax
	movq	%rbp, %rdi
	call	*16(%rax)
	testq	%r15, %r15
	jne	.L1593
	movl	12(%rbp), %eax
	leal	-1(%rax), %edx
	movl	%edx, 12(%rbp)
.L1430:
	cmpl	$1, %eax
	jne	.L1425
	movq	0(%rbp), %rax
	movq	%rbp, %rdi
	call	*24(%rax)
	jmp	.L1425
	.p2align 4,,10
	.p2align 3
.L1572:
	movq	0(%rbp), %rax
	movq	%rbp, %rdi
	call	*16(%rax)
	testq	%r15, %r15
	jne	.L1594
	movl	12(%rbp), %eax
	leal	-1(%rax), %edx
	movl	%edx, 12(%rbp)
.L1444:
	cmpl	$1, %eax
	jne	.L1439
	movq	0(%rbp), %rax
	movq	%rbp, %rdi
	call	*24(%rax)
	jmp	.L1439
	.p2align 4,,10
	.p2align 3
.L1571:
	movl	$-1, %eax
	lock xaddl	%eax, 8(%rbp)
	jmp	.L1441
	.p2align 4,,10
	.p2align 3
.L1569:
	movl	$-1, %eax
	lock xaddl	%eax, 8(%rbp)
	jmp	.L1434
	.p2align 4,,10
	.p2align 3
.L1567:
	movl	$-1, %eax
	lock xaddl	%eax, 8(%rbp)
	jmp	.L1427
	.p2align 4,,10
	.p2align 3
.L1565:
	movq	40(%rsp), %rcx
	movl	$-1, %eax
	lock xaddl	%eax, (%rcx)
	jmp	.L1418
	.p2align 4,,10
	.p2align 3
.L1562:
	movq	120(%rsp), %r13
	movq	%rbx, 24(%rbp)
	testq	%r13, %r13
	je	.L1364
	jmp	.L1478
	.p2align 4,,10
	.p2align 3
.L1589:
	movl	$-1, %eax
	lock xaddl	%eax, 12(%rdi)
	jmp	.L1369
	.p2align 4,,10
	.p2align 3
.L1578:
	movl	$-1, %eax
	lock xaddl	%eax, 12(%rdi)
	jmp	.L1385
	.p2align 4,,10
	.p2align 3
.L1590:
	movl	$-1, %eax
	lock xaddl	%eax, 12(%rbp)
	jmp	.L1422
	.p2align 4,,10
	.p2align 3
.L1594:
	movl	$-1, %eax
	lock xaddl	%eax, 12(%rbp)
	jmp	.L1444
	.p2align 4,,10
	.p2align 3
.L1593:
	movl	$-1, %eax
	lock xaddl	%eax, 12(%rbp)
	jmp	.L1430
	.p2align 4,,10
	.p2align 3
.L1592:
	movl	$-1, %eax
	lock xaddl	%eax, 12(%rbp)
	jmp	.L1437
	.p2align 4,,10
	.p2align 3
.L1591:
	movl	$-1, %eax
	lock xaddl	%eax, 12(%rbp)
	jmp	.L1357
	.p2align 4,,10
	.p2align 3
.L1559:
	movq	88(%rsp), %rax
	lock addl	$1, (%rax)
	movq	%rax, %rcx
	movl	$-1, %eax
	lock xaddl	%eax, (%rcx)
	jmp	.L1353
	.p2align 4,,10
	.p2align 3
.L1558:
	lock addl	$1, 8(%rax)
	jmp	.L1348
	.p2align 4,,10
	.p2align 3
.L1576:
	movq	0(%rbp), %rax
	movq	%rbp, %rdi
	call	*16(%rax)
	testq	%r15, %r15
	jne	.L1595
	movl	12(%rbp), %eax
	leal	-1(%rax), %edx
	movl	%edx, 12(%rbp)
.L1460:
	cmpl	$1, %eax
	jne	.L1446
	movq	0(%rbp), %rax
	movq	%rbp, %rdi
	call	*24(%rax)
	jmp	.L1446
	.p2align 4,,10
	.p2align 3
.L1575:
	movl	$-1, %eax
	lock xaddl	%eax, 8(%rbp)
	jmp	.L1457
	.p2align 4,,10
	.p2align 3
.L1583:
	movq	(%r14), %rax
	movq	%r14, %rdi
	call	*16(%rax)
	testq	%r15, %r15
	jne	.L1596
	movl	12(%r14), %eax
	leal	-1(%rax), %edx
	movl	%edx, 12(%r14)
.L1410:
	cmpl	$1, %eax
	jne	.L1405
	movq	(%r14), %rax
	movq	%r14, %rdi
	call	*24(%rax)
	jmp	.L1405
	.p2align 4,,10
	.p2align 3
.L1584:
	movl	$-1, %eax
	lock xaddl	%eax, 8(%r14)
	jmp	.L1414
	.p2align 4,,10
	.p2align 3
.L1582:
	movl	$-1, %eax
	lock xaddl	%eax, 8(%r14)
	jmp	.L1407
	.p2align 4,,10
	.p2align 3
.L1574:
	lock addl	$1, 8(%r13)
	jmp	.L1452
	.p2align 4,,10
	.p2align 3
.L1577:
	lock addl	$1, 12(%rbp)
	movq	40(%rbp), %rdi
	jmp	.L1381
	.p2align 4,,10
	.p2align 3
.L1588:
	lock addl	$1, 12(%r13)
	movq	32(%rbp), %rdi
	jmp	.L1364
	.p2align 4,,10
	.p2align 3
.L1581:
	movq	40(%rsp), %rax
	lock addl	$1, (%rax)
	jmp	.L1392
	.p2align 4,,10
	.p2align 3
.L1580:
	lock addl	$1, 8(%rax)
	jmp	.L1390
	.p2align 4,,10
	.p2align 3
.L1595:
	movl	$-1, %eax
	lock xaddl	%eax, 12(%rbp)
	jmp	.L1460
.L1596:
	movl	$-1, %eax
	lock xaddl	%eax, 12(%r14)
	jmp	.L1410
.L1585:
	movl	$-1, %eax
	lock xaddl	%eax, 12(%r14)
	jmp	.L1417
.L1587:
	movl	$-1, %eax
	lock xaddl	%eax, 12(%rdi)
	jmp	.L1402
	.p2align 4,,10
	.p2align 3
.L1586:
	lock addl	$1, 12(%r13)
	movq	32(%r13), %rdi
	jmp	.L1398
.L1555:
	call	__stack_chk_fail@PLT
.L1554:
	movl	%eax, %edi
.LEHB45:
	call	_ZSt20__throw_system_errori@PLT
.LEHE45:
.L1556:
	leaq	.LC4(%rip), %rdi
.LEHB46:
	call	_ZSt19__throw_logic_errorPKc@PLT
.LEHE46:
.L1563:
	leaq	.LC4(%rip), %rdi
.LEHB47:
	call	_ZSt19__throw_logic_errorPKc@PLT
.LEHE47:
.L1579:
	movq	%rbx, %rdi
	jmp	.L1373
.L1490:
	movq	%rax, %rbx
	jmp	.L1395
.L1489:
	movq	%rax, %r12
	jmp	.L1378
.L1486:
	movq	%rax, %r12
	jmp	.L1379
.L1487:
	movq	%rax, %rbx
	jmp	.L1349
.L1488:
	movq	%rax, %rbx
	jmp	.L1361
.L1483:
	movq	%rax, %rbx
	jmp	.L1362
.L1482:
	movq	%rax, %rbp
	jmp	.L1462
.L1481:
	movq	%rax, %rbp
	jmp	.L1350
.L1485:
	movq	%rax, %rbx
	jmp	.L1396
.L1484:
	movq	%rax, %rbx
	jmp	.L1448
	.section	.gcc_except_table
.LLSDA8253:
	.byte	0xff
	.byte	0xff
	.byte	0x1
	.uleb128 .LLSDACSE8253-.LLSDACSB8253
.LLSDACSB8253:
	.uleb128 .LEHB35-.LFB8253
	.uleb128 .LEHE35-.LEHB35
	.uleb128 .L1481-.LFB8253
	.uleb128 0
	.uleb128 .LEHB36-.LFB8253
	.uleb128 .LEHE36-.LEHB36
	.uleb128 .L1483-.LFB8253
	.uleb128 0
	.uleb128 .LEHB37-.LFB8253
	.uleb128 .LEHE37-.LEHB37
	.uleb128 .L1488-.LFB8253
	.uleb128 0
	.uleb128 .LEHB38-.LFB8253
	.uleb128 .LEHE38-.LEHB38
	.uleb128 .L1486-.LFB8253
	.uleb128 0
	.uleb128 .LEHB39-.LFB8253
	.uleb128 .LEHE39-.LEHB39
	.uleb128 .L1489-.LFB8253
	.uleb128 0
	.uleb128 .LEHB40-.LFB8253
	.uleb128 .LEHE40-.LEHB40
	.uleb128 .L1482-.LFB8253
	.uleb128 0
	.uleb128 .LEHB41-.LFB8253
	.uleb128 .LEHE41-.LEHB41
	.uleb128 .L1487-.LFB8253
	.uleb128 0
	.uleb128 .LEHB42-.LFB8253
	.uleb128 .LEHE42-.LEHB42
	.uleb128 .L1484-.LFB8253
	.uleb128 0
	.uleb128 .LEHB43-.LFB8253
	.uleb128 .LEHE43-.LEHB43
	.uleb128 .L1485-.LFB8253
	.uleb128 0
	.uleb128 .LEHB44-.LFB8253
	.uleb128 .LEHE44-.LEHB44
	.uleb128 .L1490-.LFB8253
	.uleb128 0
	.uleb128 .LEHB45-.LFB8253
	.uleb128 .LEHE45-.LEHB45
	.uleb128 0
	.uleb128 0
	.uleb128 .LEHB46-.LFB8253
	.uleb128 .LEHE46-.LEHB46
	.uleb128 .L1487-.LFB8253
	.uleb128 0
	.uleb128 .LEHB47-.LFB8253
	.uleb128 .LEHE47-.LEHB47
	.uleb128 .L1484-.LFB8253
	.uleb128 0
.LLSDACSE8253:
	.text
	.cfi_endproc
	.section	.text.unlikely
	.cfi_startproc
	.cfi_personality 0x9b,DW.ref.__gxx_personality_v0
	.cfi_lsda 0x1b,.LLSDAC8253
	.type	_ZN8asiodnp315DNP3ManagerImpl12AddTCPServerERKNSt7__cxx1112basic_stringIcSt11char_traitsIcESaIcEEEjRKN7asiopal12ChannelRetryES8_tSt10shared_ptrINS_16IChannelListenerEE.cold, @function
_ZN8asiodnp315DNP3ManagerImpl12AddTCPServerERKNSt7__cxx1112basic_stringIcSt11char_traitsIcESaIcEEEjRKN7asiopal12ChannelRetryES8_tSt10shared_ptrINS_16IChannelListenerEE.cold:
.LFSB8253:
.L1395:
	.cfi_def_cfa_offset 304
	.cfi_offset 3, -56
	.cfi_offset 6, -48
	.cfi_offset 12, -40
	.cfi_offset 13, -32
	.cfi_offset 14, -24
	.cfi_offset 15, -16
	movl	$136, %esi
	movq	%r13, %rdi
	call	_ZdlPvm@PLT
.L1396:
	movq	136(%rsp), %rdi
	testq	%rdi, %rdi
	je	.L1449
	call	_ZNSt16_Sp_counted_baseILN9__gnu_cxx12_Lock_policyE2EE10_M_releaseEv@PLT
.L1449:
	movq	152(%rsp), %rdi
	testq	%rdi, %rdi
	jne	.L1597
.L1450:
	movq	%rbp, %rdi
	call	_ZNSt16_Sp_counted_baseILN9__gnu_cxx12_Lock_policyE2EE10_M_releaseEv@PLT
.L1448:
	movq	120(%rsp), %rdi
	testq	%rdi, %rdi
	je	.L1362
	call	_ZNSt16_Sp_counted_baseILN9__gnu_cxx12_Lock_policyE2EE10_M_releaseEv@PLT
.L1362:
	movq	64(%rsp), %rdi
	movq	%rbx, %rbp
	call	_ZN7openpal6LoggerD1Ev@PLT
.L1350:
	testq	%r15, %r15
	je	.L1465
	movq	32(%rsp), %rdi
	call	_ZL28__gthrw_pthread_mutex_unlockP15pthread_mutex_t@PLT
.L1465:
	movq	%rbp, %rdi
.LEHB48:
	call	_Unwind_Resume@PLT
.LEHE48:
.L1378:
	movl	$888, %esi
	movq	%rbp, %rdi
	call	_ZdlPvm@PLT
.L1379:
	movq	192(%rsp), %rdi
	cmpq	%rbx, %rdi
	je	.L1447
	movq	208(%rsp), %rax
	leaq	1(%rax), %rsi
	call	_ZdlPvm@PLT
.L1447:
	movq	%r12, %rbx
	jmp	.L1448
.L1597:
	call	_ZNSt16_Sp_counted_baseILN9__gnu_cxx12_Lock_policyE2EE10_M_releaseEv@PLT
	jmp	.L1450
.L1349:
	movq	%rbp, %rdi
	movl	$56, %esi
	movq	%rbx, %rbp
	call	_ZdlPvm@PLT
	jmp	.L1350
.L1361:
	movl	$72, %esi
	movq	%rbp, %rdi
	call	_ZdlPvm@PLT
	jmp	.L1362
.L1462:
	movq	168(%rsp), %rdi
	testq	%rdi, %rdi
	je	.L1463
	call	_ZNSt16_Sp_counted_baseILN9__gnu_cxx12_Lock_policyE2EE10_M_releaseEv@PLT
.L1463:
	testq	%r13, %r13
	je	.L1350
	movq	%r13, %rdi
	call	_ZNSt16_Sp_counted_baseILN9__gnu_cxx12_Lock_policyE2EE10_M_releaseEv@PLT
	jmp	.L1350
	.cfi_endproc
.LFE8253:
	.section	.gcc_except_table
.LLSDAC8253:
	.byte	0xff
	.byte	0xff
	.byte	0x1
	.uleb128 .LLSDACSEC8253-.LLSDACSBC8253
.LLSDACSBC8253:
	.uleb128 .LEHB48-.LCOLDB29
	.uleb128 .LEHE48-.LEHB48
	.uleb128 0
	.uleb128 0
.LLSDACSEC8253:
	.section	.text.unlikely
	.text
	.size	_ZN8asiodnp315DNP3ManagerImpl12AddTCPServerERKNSt7__cxx1112basic_stringIcSt11char_traitsIcESaIcEEEjRKN7asiopal12ChannelRetryES8_tSt10shared_ptrINS_16IChannelListenerEE, .-_ZN8asiodnp315DNP3ManagerImpl12AddTCPServerERKNSt7__cxx1112basic_stringIcSt11char_traitsIcESaIcEEEjRKN7asiopal12ChannelRetryES8_tSt10shared_ptrINS_16IChannelListenerEE
	.section	.text.unlikely
	.size	_ZN8asiodnp315DNP3ManagerImpl12AddTCPServerERKNSt7__cxx1112basic_stringIcSt11char_traitsIcESaIcEEEjRKN7asiopal12ChannelRetryES8_tSt10shared_ptrINS_16IChannelListenerEE.cold, .-_ZN8asiodnp315DNP3ManagerImpl12AddTCPServerERKNSt7__cxx1112basic_stringIcSt11char_traitsIcESaIcEEEjRKN7asiopal12ChannelRetryES8_tSt10shared_ptrINS_16IChannelListenerEE.cold
.LCOLDE29:
	.text
.LHOTE29:
	.section	.text.unlikely
	.align 2
.LCOLDB30:
	.text
.LHOTB30:
	.align 2
	.p2align 4
	.globl	_ZN8asiodnp315DNP3ManagerImpl9AddSerialERKNSt7__cxx1112basic_stringIcSt11char_traitsIcESaIcEEEjRKN7asiopal12ChannelRetryENS9_14SerialSettingsESt10shared_ptrINS_16IChannelListenerEE
	.type	_ZN8asiodnp315DNP3ManagerImpl9AddSerialERKNSt7__cxx1112basic_stringIcSt11char_traitsIcESaIcEEEjRKN7asiopal12ChannelRetryENS9_14SerialSettingsESt10shared_ptrINS_16IChannelListenerEE, @function
_ZN8asiodnp315DNP3ManagerImpl9AddSerialERKNSt7__cxx1112basic_stringIcSt11char_traitsIcESaIcEEEjRKN7asiopal12ChannelRetryENS9_14SerialSettingsESt10shared_ptrINS_16IChannelListenerEE:
.LFB8255:
	.cfi_startproc
	.cfi_personality 0x9b,DW.ref.__gxx_personality_v0
	.cfi_lsda 0x1b,.LLSDA8255
	pushq	%r15
	.cfi_def_cfa_offset 16
	.cfi_offset 15, -16
	pushq	%r14
	.cfi_def_cfa_offset 24
	.cfi_offset 14, -24
	movq	%rdi, %r14
	pushq	%r13
	.cfi_def_cfa_offset 32
	.cfi_offset 13, -32
	movl	%ecx, %r13d
	pushq	%r12
	.cfi_def_cfa_offset 40
	.cfi_offset 12, -40
	movq	%rdx, %r12
	pushq	%rbp
	.cfi_def_cfa_offset 48
	.cfi_offset 6, -48
	pushq	%rbx
	.cfi_def_cfa_offset 56
	.cfi_offset 3, -56
	movq	%rsi, %rbx
	subq	$184, %rsp
	.cfi_def_cfa_offset 240
	movq	_ZL28__gthrw___pthread_key_createPjPFvPvE@GOTPCREL(%rip), %r15
	movq	240(%rsp), %rax
	movq	%r8, 16(%rsp)
	movq	%r9, 32(%rsp)
	movq	%rax, 40(%rsp)
	movq	%fs:40, %rax
	movq	%rax, 168(%rsp)
	movq	256(%rsi), %rax
	movq	%rax, (%rsp)
	addq	$8, %rax
	movq	%rax, 8(%rsp)
	testq	%r15, %r15
	je	.L1599
	movq	%rax, %rdi
	call	_ZL26__gthrw_pthread_mutex_lockP15pthread_mutex_t@PLT
	testl	%eax, %eax
	jne	.L1793
.L1599:
	movq	(%rsp), %rax
	cmpb	$0, 48(%rax)
	je	.L1600
	pxor	%xmm0, %xmm0
	movups	%xmm0, (%r14)
.L1601:
	testq	%r15, %r15
	je	.L1598
	movq	8(%rsp), %rdi
	call	_ZL28__gthrw_pthread_mutex_unlockP15pthread_mutex_t@PLT
.L1598:
	movq	168(%rsp), %rax
	subq	%fs:40, %rax
	jne	.L1794
	addq	$184, %rsp
	.cfi_remember_state
	.cfi_def_cfa_offset 56
	movq	%r14, %rax
	popq	%rbx
	.cfi_def_cfa_offset 48
	popq	%rbp
	.cfi_def_cfa_offset 40
	popq	%r12
	.cfi_def_cfa_offset 32
	popq	%r13
	.cfi_def_cfa_offset 24
	popq	%r14
	.cfi_def_cfa_offset 16
	popq	%r15
	.cfi_def_cfa_offset 8
	ret
	.p2align 4,,10
	.p2align 3
.L1600:
	.cfi_restore_state
	movl	$56, %edi
.LEHB49:
	call	_Znwm@PLT
.LEHE49:
	movq	%rax, %rbp
	leaq	8(%rax), %rax
	movq	%rax, 72(%rsp)
	movq	.LC24(%rip), %rax
	leaq	32(%rbp), %rdi
	movq	%rdi, 16(%rbp)
	movq	%rax, 8(%rbp)
	movq	_ZTVSt23_Sp_counted_ptr_inplaceIN7openpal6Logger8SettingsESaIS2_ELN9__gnu_cxx12_Lock_policyE2EE@GOTPCREL(%rip), %rax
	addq	$16, %rax
	movq	%rax, 0(%rbp)
	leaq	16(%rbp), %rax
	movq	%rax, 56(%rsp)
	movq	(%r12), %rax
	movq	8(%r12), %r12
	movq	%rax, %rcx
	movq	%rax, 64(%rsp)
	addq	%r12, %rcx
	je	.L1602
	testq	%rax, %rax
	je	.L1795
.L1602:
	movq	%r12, 128(%rsp)
	cmpq	$15, %r12
	ja	.L1796
	cmpq	$1, %r12
	jne	.L1605
	movq	64(%rsp), %rax
	movzbl	(%rax), %eax
	movb	%al, 32(%rbp)
	leaq	128(%rsp), %rax
	movq	%rax, 48(%rsp)
.L1606:
	movq	%r12, 24(%rbp)
	movb	$0, (%rdi,%r12)
	movdqu	(%rbx), %xmm2
	movq	8(%rbx), %rax
	movl	%r13d, 48(%rbp)
	movaps	%xmm2, 128(%rsp)
	testq	%rax, %rax
	je	.L1608
	testq	%r15, %r15
	jne	.L1797
	addl	$1, 8(%rax)
.L1608:
	movq	56(%rsp), %xmm0
	movq	%rbp, %xmm7
	punpcklqdq	%xmm7, %xmm0
	movaps	%xmm0, 144(%rsp)
	testq	%r15, %r15
	jne	.L1798
	addl	$1, 8(%rbp)
	movl	8(%rbp), %eax
	leal	-1(%rax), %edx
	movl	%edx, 8(%rbp)
.L1613:
	cmpl	$1, %eax
	je	.L1799
.L1615:
	movl	$72, %edi
	leaq	32(%rbx), %r13
	movq	$0, 80(%rsp)
.LEHB50:
	call	_Znwm@PLT
.LEHE50:
	movq	%rax, %rbp
	movq	.LC24(%rip), %rax
	movq	%r13, %rsi
	leaq	16(%rbp), %r12
	movq	%rax, 8(%rbp)
	movq	_ZTVSt23_Sp_counted_ptr_inplaceIN7asiopal8ExecutorESaIS1_ELN9__gnu_cxx12_Lock_policyE2EE@GOTPCREL(%rip), %rax
	movq	%r12, %rdi
	addq	$16, %rax
	movq	%rax, 0(%rbp)
.LEHB51:
	call	_ZN7asiopal8ExecutorC1ERKSt10shared_ptrINS_2IOEE@PLT
.LEHE51:
	movq	%r12, %xmm0
	movq	%rbp, %xmm3
	movq	32(%rbp), %rdi
	punpcklqdq	%xmm3, %xmm0
	movaps	%xmm0, 80(%rsp)
	testq	%rdi, %rdi
	je	.L1800
	movl	8(%rdi), %eax
	testl	%eax, %eax
	je	.L1801
.L1623:
	movl	$928, %edi
.LEHB52:
	call	_Znwm@PLT
.LEHE52:
	movq	%rax, %rbp
	leaq	8(%rax), %rax
	leaq	80(%rsp), %r13
	movq	32(%rsp), %r9
	movq	%rax, 56(%rsp)
	movq	.LC24(%rip), %rax
	leaq	16(%rbp), %r12
	movq	%r13, %rcx
	movq	16(%rsp), %r8
	movq	40(%rsp), %rdx
	movq	%r12, %rdi
	movq	%rax, 8(%rbp)
	movq	_ZTVSt23_Sp_counted_ptr_inplaceIN8asiodnp315SerialIOHandlerESaIS1_ELN9__gnu_cxx12_Lock_policyE2EE@GOTPCREL(%rip), %rax
	movq	48(%rsp), %rsi
	addq	$16, %rax
	movq	%rax, 0(%rbp)
.LEHB53:
	call	_ZN8asiodnp315SerialIOHandlerC1ERKN7openpal6LoggerERKSt10shared_ptrINS_16IChannelListenerEERKS5_IN7asiopal8ExecutorEERKNSA_12ChannelRetryERKNSA_14SerialSettingsE@PLT
.LEHE53:
	movq	40(%rbp), %rdi
	testq	%rdi, %rdi
	je	.L1632
	movl	8(%rdi), %eax
	testl	%eax, %eax
	je	.L1632
.L1635:
	movdqu	256(%rbx), %xmm4
	movq	264(%rbx), %rax
	movaps	%xmm4, 112(%rsp)
	testq	%rax, %rax
	je	.L1642
	testq	%r15, %r15
	jne	.L1802
	addl	$1, 8(%rax)
.L1642:
	movq	%r12, %xmm0
	movq	%rbp, %xmm6
	punpcklqdq	%xmm6, %xmm0
	movaps	%xmm0, 96(%rsp)
	testq	%r15, %r15
	jne	.L1803
	addl	$1, 8(%rbp)
.L1644:
	movl	$136, %edi
.LEHB54:
	call	_Znwm@PLT
.LEHE54:
	movq	%rax, %r12
	leaq	8(%rax), %rax
	movq	48(%rsp), %rsi
	movq	%r13, %rdx
	movq	%rax, 32(%rsp)
	leaq	16(%r12), %rbx
	leaq	96(%rsp), %rcx
	movq	.LC24(%rip), %rax
	leaq	112(%rsp), %r8
	movq	%rbx, %rdi
	movq	%rax, 8(%r12)
	movq	_ZTVSt23_Sp_counted_ptr_inplaceIN8asiodnp311DNP3ChannelESaIS1_ELN9__gnu_cxx12_Lock_policyE2EE@GOTPCREL(%rip), %rax
	addq	$16, %rax
	movq	%rax, (%r12)
.LEHB55:
	call	_ZN8asiodnp311DNP3ChannelC1ERKN7openpal6LoggerERKSt10shared_ptrIN7asiopal8ExecutorEERKS5_INS_9IOHandlerEERKS5_INS6_16IResourceManagerEE@PLT
.LEHE55:
	movq	32(%r12), %rdi
	testq	%rdi, %rdi
	je	.L1646
	movl	8(%rdi), %eax
	testl	%eax, %eax
	je	.L1646
.L1649:
	movq	104(%rsp), %r13
	testq	%r13, %r13
	je	.L1657
	testq	%r15, %r15
	jne	.L1804
	movl	8(%r13), %eax
	leal	-1(%rax), %edx
	movl	%edx, 8(%r13)
.L1659:
	cmpl	$1, %eax
	je	.L1805
.L1657:
	movq	120(%rsp), %r13
	testq	%r13, %r13
	je	.L1668
	testq	%r15, %r15
	jne	.L1806
	movl	8(%r13), %eax
	leal	-1(%rax), %edx
	movl	%edx, 8(%r13)
.L1665:
	cmpl	$1, %eax
	je	.L1807
.L1668:
	testq	%r15, %r15
	jne	.L1808
	movl	8(%rbp), %eax
	leal	-1(%rax), %edx
	movl	%edx, 8(%rbp)
.L1669:
	cmpl	$1, %eax
	je	.L1809
.L1671:
	movq	88(%rsp), %rbp
	testq	%rbp, %rbp
	je	.L1676
	testq	%r15, %r15
	jne	.L1810
	movl	8(%rbp), %eax
	leal	-1(%rax), %edx
	movl	%edx, 8(%rbp)
.L1678:
	cmpl	$1, %eax
	je	.L1811
.L1676:
	movq	152(%rsp), %rbp
	testq	%rbp, %rbp
	je	.L1683
	testq	%r15, %r15
	jne	.L1812
	movl	8(%rbp), %eax
	leal	-1(%rax), %edx
	movl	%edx, 8(%rbp)
.L1685:
	cmpl	$1, %eax
	je	.L1813
.L1683:
	movq	136(%rsp), %rbp
	testq	%rbp, %rbp
	je	.L1694
	testq	%r15, %r15
	jne	.L1814
	movl	8(%rbp), %eax
	leal	-1(%rax), %edx
	movl	%edx, 8(%rbp)
.L1691:
	cmpl	$1, %eax
	je	.L1815
.L1694:
	movq	%rbx, %xmm1
	movq	%r12, %xmm6
	punpcklqdq	%xmm6, %xmm1
	movaps	%xmm1, 16(%rsp)
	movaps	%xmm1, 128(%rsp)
	testq	%r15, %r15
	jne	.L1816
	addl	$1, 8(%r12)
.L1698:
	movq	(%rsp), %rdi
	movq	48(%rsp), %rsi
	addq	$56, %rdi
.LEHB56:
	call	_ZNSt8_Rb_treeISt10shared_ptrIN7asiopal9IResourceEES3_St9_IdentityIS3_ESt4lessIS3_ESaIS3_EE16_M_insert_uniqueIS3_EESt4pairISt17_Rb_tree_iteratorIS3_EbEOT_@PLT
.LEHE56:
	movq	136(%rsp), %rbp
	testq	%rbp, %rbp
	je	.L1700
	testq	%r15, %r15
	jne	.L1817
	movl	8(%rbp), %eax
	leal	-1(%rax), %edx
	movl	%edx, 8(%rbp)
.L1702:
	cmpl	$1, %eax
	je	.L1818
.L1700:
	movdqa	16(%rsp), %xmm5
	movups	%xmm5, (%r14)
	jmp	.L1601
	.p2align 4,,10
	.p2align 3
.L1605:
	leaq	128(%rsp), %rax
	movq	%rax, 48(%rsp)
	testq	%r12, %r12
	je	.L1606
	jmp	.L1604
	.p2align 4,,10
	.p2align 3
.L1646:
	movq	%rbx, 24(%r12)
	testq	%r15, %r15
	jne	.L1819
	addl	$1, 12(%r12)
.L1650:
	testq	%rdi, %rdi
	je	.L1652
	testq	%r15, %r15
	jne	.L1820
	movl	12(%rdi), %eax
	leal	-1(%rax), %edx
	movl	%edx, 12(%rdi)
.L1654:
	cmpl	$1, %eax
	jne	.L1652
	movq	(%rdi), %rax
	call	*24(%rax)
	.p2align 4,,10
	.p2align 3
.L1652:
	movq	%r12, 32(%r12)
	jmp	.L1649
	.p2align 4,,10
	.p2align 3
.L1632:
	movq	%r12, 32(%rbp)
	testq	%r15, %r15
	jne	.L1821
	addl	$1, 12(%rbp)
.L1636:
	testq	%rdi, %rdi
	je	.L1638
	testq	%r15, %r15
	jne	.L1822
	movl	12(%rdi), %eax
	leal	-1(%rax), %edx
	movl	%edx, 12(%rdi)
.L1640:
	cmpl	$1, %eax
	jne	.L1638
	movq	(%rdi), %rax
	call	*24(%rax)
	.p2align 4,,10
	.p2align 3
.L1638:
	movq	%rbp, 40(%rbp)
	jmp	.L1635
	.p2align 4,,10
	.p2align 3
.L1796:
	leaq	128(%rsp), %rax
	movq	56(%rsp), %rdi
	xorl	%edx, %edx
	movq	%rax, %rsi
	movq	%rax, 48(%rsp)
.LEHB57:
	call	_ZNSt7__cxx1112basic_stringIcSt11char_traitsIcESaIcEE9_M_createERmm@PLT
.LEHE57:
	movq	%rax, 16(%rbp)
	movq	%rax, %rdi
	movq	128(%rsp), %rax
	movq	%rax, 32(%rbp)
.L1604:
	movq	64(%rsp), %rsi
	movq	%r12, %rdx
	call	memcpy@PLT
	movq	128(%rsp), %r12
	movq	16(%rbp), %rdi
	jmp	.L1606
	.p2align 4,,10
	.p2align 3
.L1800:
	movq	%r12, 24(%rbp)
	movq	%rbp, %r13
.L1724:
	testq	%r15, %r15
	jne	.L1823
	addl	$1, 12(%r13)
.L1624:
	testq	%rdi, %rdi
	je	.L1627
	testq	%r15, %r15
	jne	.L1824
	movl	12(%rdi), %eax
	leal	-1(%rax), %edx
	movl	%edx, 12(%rdi)
.L1629:
	cmpl	$1, %eax
	jne	.L1627
	movq	(%rdi), %rax
	call	*24(%rax)
	.p2align 4,,10
	.p2align 3
.L1627:
	movq	%r13, 32(%rbp)
	jmp	.L1623
	.p2align 4,,10
	.p2align 3
.L1799:
	movq	0(%rbp), %rax
	movq	%rbp, %rdi
	call	*16(%rax)
	testq	%r15, %r15
	jne	.L1825
	movl	12(%rbp), %eax
	leal	-1(%rax), %edx
	movl	%edx, 12(%rbp)
.L1617:
	cmpl	$1, %eax
	jne	.L1615
	movq	0(%rbp), %rax
	movq	%rbp, %rdi
	call	*24(%rax)
	jmp	.L1615
	.p2align 4,,10
	.p2align 3
.L1813:
	movq	0(%rbp), %rax
	movq	%rbp, %rdi
	call	*16(%rax)
	testq	%r15, %r15
	jne	.L1826
	movl	12(%rbp), %eax
	leal	-1(%rax), %edx
	movl	%edx, 12(%rbp)
.L1688:
	cmpl	$1, %eax
	jne	.L1683
	movq	0(%rbp), %rax
	movq	%rbp, %rdi
	call	*24(%rax)
	jmp	.L1683
	.p2align 4,,10
	.p2align 3
.L1815:
	movq	0(%rbp), %rax
	movq	%rbp, %rdi
	call	*16(%rax)
	testq	%r15, %r15
	jne	.L1827
	movl	12(%rbp), %eax
	leal	-1(%rax), %edx
	movl	%edx, 12(%rbp)
.L1693:
	cmpl	$1, %eax
	jne	.L1694
	movq	0(%rbp), %rax
	movq	%rbp, %rdi
	call	*24(%rax)
	jmp	.L1694
	.p2align 4,,10
	.p2align 3
.L1809:
	movq	0(%rbp), %rax
	movq	%rbp, %rdi
	call	*16(%rax)
	testq	%r15, %r15
	jne	.L1828
	movl	12(%rbp), %eax
	leal	-1(%rax), %edx
	movl	%edx, 12(%rbp)
.L1673:
	cmpl	$1, %eax
	jne	.L1671
	movq	0(%rbp), %rax
	movq	%rbp, %rdi
	call	*24(%rax)
	jmp	.L1671
	.p2align 4,,10
	.p2align 3
.L1811:
	movq	0(%rbp), %rax
	movq	%rbp, %rdi
	call	*16(%rax)
	testq	%r15, %r15
	jne	.L1829
	movl	12(%rbp), %eax
	leal	-1(%rax), %edx
	movl	%edx, 12(%rbp)
.L1681:
	cmpl	$1, %eax
	jne	.L1676
	movq	0(%rbp), %rax
	movq	%rbp, %rdi
	call	*24(%rax)
	jmp	.L1676
	.p2align 4,,10
	.p2align 3
.L1805:
	movq	0(%r13), %rax
	movq	%r13, %rdi
	call	*16(%rax)
	testq	%r15, %r15
	jne	.L1830
	movl	12(%r13), %eax
	leal	-1(%rax), %edx
	movl	%edx, 12(%r13)
.L1662:
	cmpl	$1, %eax
	jne	.L1657
	movq	0(%r13), %rax
	movq	%r13, %rdi
	call	*24(%rax)
	jmp	.L1657
	.p2align 4,,10
	.p2align 3
.L1807:
	movq	0(%r13), %rax
	movq	%r13, %rdi
	call	*16(%rax)
	testq	%r15, %r15
	jne	.L1831
	movl	12(%r13), %eax
	leal	-1(%rax), %edx
	movl	%edx, 12(%r13)
.L1667:
	cmpl	$1, %eax
	jne	.L1668
	movq	0(%r13), %rax
	movq	%r13, %rdi
	call	*24(%rax)
	jmp	.L1668
	.p2align 4,,10
	.p2align 3
.L1806:
	movl	$-1, %eax
	lock xaddl	%eax, 8(%r13)
	jmp	.L1665
	.p2align 4,,10
	.p2align 3
.L1814:
	movl	$-1, %eax
	lock xaddl	%eax, 8(%rbp)
	jmp	.L1691
	.p2align 4,,10
	.p2align 3
.L1808:
	movq	56(%rsp), %rsi
	movl	$-1, %eax
	lock xaddl	%eax, (%rsi)
	jmp	.L1669
	.p2align 4,,10
	.p2align 3
.L1810:
	movl	$-1, %eax
	lock xaddl	%eax, 8(%rbp)
	jmp	.L1678
	.p2align 4,,10
	.p2align 3
.L1804:
	movl	$-1, %eax
	lock xaddl	%eax, 8(%r13)
	jmp	.L1659
	.p2align 4,,10
	.p2align 3
.L1812:
	movl	$-1, %eax
	lock xaddl	%eax, 8(%rbp)
	jmp	.L1685
	.p2align 4,,10
	.p2align 3
.L1801:
	movq	88(%rsp), %r13
	movq	%r12, 24(%rbp)
	testq	%r13, %r13
	je	.L1624
	jmp	.L1724
	.p2align 4,,10
	.p2align 3
.L1820:
	movl	$-1, %eax
	lock xaddl	%eax, 12(%rdi)
	jmp	.L1654
	.p2align 4,,10
	.p2align 3
.L1824:
	movl	$-1, %eax
	lock xaddl	%eax, 12(%rdi)
	jmp	.L1629
	.p2align 4,,10
	.p2align 3
.L1822:
	movl	$-1, %eax
	lock xaddl	%eax, 12(%rdi)
	jmp	.L1640
	.p2align 4,,10
	.p2align 3
.L1828:
	movl	$-1, %eax
	lock xaddl	%eax, 12(%rbp)
	jmp	.L1673
	.p2align 4,,10
	.p2align 3
.L1827:
	movl	$-1, %eax
	lock xaddl	%eax, 12(%rbp)
	jmp	.L1693
	.p2align 4,,10
	.p2align 3
.L1830:
	movl	$-1, %eax
	lock xaddl	%eax, 12(%r13)
	jmp	.L1662
	.p2align 4,,10
	.p2align 3
.L1829:
	movl	$-1, %eax
	lock xaddl	%eax, 12(%rbp)
	jmp	.L1681
	.p2align 4,,10
	.p2align 3
.L1826:
	movl	$-1, %eax
	lock xaddl	%eax, 12(%rbp)
	jmp	.L1688
	.p2align 4,,10
	.p2align 3
.L1825:
	movl	$-1, %eax
	lock xaddl	%eax, 12(%rbp)
	jmp	.L1617
	.p2align 4,,10
	.p2align 3
.L1831:
	movl	$-1, %eax
	lock xaddl	%eax, 12(%r13)
	jmp	.L1667
	.p2align 4,,10
	.p2align 3
.L1798:
	movq	72(%rsp), %rax
	lock addl	$1, (%rax)
	movq	%rax, %rsi
	movl	$-1, %eax
	lock xaddl	%eax, (%rsi)
	jmp	.L1613
	.p2align 4,,10
	.p2align 3
.L1797:
	lock addl	$1, 8(%rax)
	jmp	.L1608
	.p2align 4,,10
	.p2align 3
.L1803:
	movq	56(%rsp), %rax
	lock addl	$1, (%rax)
	jmp	.L1644
	.p2align 4,,10
	.p2align 3
.L1802:
	lock addl	$1, 8(%rax)
	jmp	.L1642
	.p2align 4,,10
	.p2align 3
.L1818:
	movq	0(%rbp), %rax
	movq	%rbp, %rdi
	call	*16(%rax)
	testq	%r15, %r15
	jne	.L1832
	movl	12(%rbp), %eax
	leal	-1(%rax), %edx
	movl	%edx, 12(%rbp)
.L1705:
	cmpl	$1, %eax
	jne	.L1700
	movq	0(%rbp), %rax
	movq	%rbp, %rdi
	call	*24(%rax)
	jmp	.L1700
	.p2align 4,,10
	.p2align 3
.L1817:
	movl	$-1, %eax
	lock xaddl	%eax, 8(%rbp)
	jmp	.L1702
	.p2align 4,,10
	.p2align 3
.L1816:
	movq	32(%rsp), %rax
	lock addl	$1, (%rax)
	jmp	.L1698
	.p2align 4,,10
	.p2align 3
.L1823:
	lock addl	$1, 12(%r13)
	movq	32(%rbp), %rdi
	jmp	.L1624
	.p2align 4,,10
	.p2align 3
.L1819:
	lock addl	$1, 12(%r12)
	movq	32(%r12), %rdi
	jmp	.L1650
	.p2align 4,,10
	.p2align 3
.L1821:
	lock addl	$1, 12(%rbp)
	movq	40(%rbp), %rdi
	jmp	.L1636
	.p2align 4,,10
	.p2align 3
.L1832:
	movl	$-1, %eax
	lock xaddl	%eax, 12(%rbp)
	jmp	.L1705
.L1794:
	call	__stack_chk_fail@PLT
.L1793:
	movl	%eax, %edi
.LEHB58:
	call	_ZSt20__throw_system_errori@PLT
.LEHE58:
.L1795:
	leaq	.LC4(%rip), %rdi
.LEHB59:
	call	_ZSt19__throw_logic_errorPKc@PLT
.LEHE59:
.L1726:
	movq	%rax, %rbp
	jmp	.L1610
.L1732:
	movq	%rax, %rbx
	jmp	.L1621
.L1731:
	movq	%rax, %rbx
	jmp	.L1609
.L1733:
	movq	%rax, %rbx
	jmp	.L1633
.L1734:
	movq	%rax, %rbx
	jmp	.L1647
.L1728:
	movq	%rax, %rbx
	jmp	.L1622
.L1727:
	movq	%rax, %rbp
	jmp	.L1707
.L1729:
	movq	%rax, %rbx
	jmp	.L1634
.L1730:
	movq	%rax, %rbx
	jmp	.L1648
	.section	.gcc_except_table
.LLSDA8255:
	.byte	0xff
	.byte	0xff
	.byte	0x1
	.uleb128 .LLSDACSE8255-.LLSDACSB8255
.LLSDACSB8255:
	.uleb128 .LEHB49-.LFB8255
	.uleb128 .LEHE49-.LEHB49
	.uleb128 .L1726-.LFB8255
	.uleb128 0
	.uleb128 .LEHB50-.LFB8255
	.uleb128 .LEHE50-.LEHB50
	.uleb128 .L1728-.LFB8255
	.uleb128 0
	.uleb128 .LEHB51-.LFB8255
	.uleb128 .LEHE51-.LEHB51
	.uleb128 .L1732-.LFB8255
	.uleb128 0
	.uleb128 .LEHB52-.LFB8255
	.uleb128 .LEHE52-.LEHB52
	.uleb128 .L1729-.LFB8255
	.uleb128 0
	.uleb128 .LEHB53-.LFB8255
	.uleb128 .LEHE53-.LEHB53
	.uleb128 .L1733-.LFB8255
	.uleb128 0
	.uleb128 .LEHB54-.LFB8255
	.uleb128 .LEHE54-.LEHB54
	.uleb128 .L1730-.LFB8255
	.uleb128 0
	.uleb128 .LEHB55-.LFB8255
	.uleb128 .LEHE55-.LEHB55
	.uleb128 .L1734-.LFB8255
	.uleb128 0
	.uleb128 .LEHB56-.LFB8255
	.uleb128 .LEHE56-.LEHB56
	.uleb128 .L1727-.LFB8255
	.uleb128 0
	.uleb128 .LEHB57-.LFB8255
	.uleb128 .LEHE57-.LEHB57
	.uleb128 .L1731-.LFB8255
	.uleb128 0
	.uleb128 .LEHB58-.LFB8255
	.uleb128 .LEHE58-.LEHB58
	.uleb128 0
	.uleb128 0
	.uleb128 .LEHB59-.LFB8255
	.uleb128 .LEHE59-.LEHB59
	.uleb128 .L1731-.LFB8255
	.uleb128 0
.LLSDACSE8255:
	.text
	.cfi_endproc
	.section	.text.unlikely
	.cfi_startproc
	.cfi_personality 0x9b,DW.ref.__gxx_personality_v0
	.cfi_lsda 0x1b,.LLSDAC8255
	.type	_ZN8asiodnp315DNP3ManagerImpl9AddSerialERKNSt7__cxx1112basic_stringIcSt11char_traitsIcESaIcEEEjRKN7asiopal12ChannelRetryENS9_14SerialSettingsESt10shared_ptrINS_16IChannelListenerEE.cold, @function
_ZN8asiodnp315DNP3ManagerImpl9AddSerialERKNSt7__cxx1112basic_stringIcSt11char_traitsIcESaIcEEEjRKN7asiopal12ChannelRetryENS9_14SerialSettingsESt10shared_ptrINS_16IChannelListenerEE.cold:
.LFSB8255:
.L1621:
	.cfi_def_cfa_offset 240
	.cfi_offset 3, -56
	.cfi_offset 6, -48
	.cfi_offset 12, -40
	.cfi_offset 13, -32
	.cfi_offset 14, -24
	.cfi_offset 15, -16
	movl	$72, %esi
	movq	%rbp, %rdi
	call	_ZdlPvm@PLT
.L1622:
	movq	48(%rsp), %rdi
	movq	%rbx, %rbp
	call	_ZN7openpal6LoggerD1Ev@PLT
.L1610:
	testq	%r15, %r15
	je	.L1709
	movq	8(%rsp), %rdi
	call	_ZL28__gthrw_pthread_mutex_unlockP15pthread_mutex_t@PLT
.L1709:
	movq	%rbp, %rdi
.LEHB60:
	call	_Unwind_Resume@PLT
.LEHE60:
.L1609:
	movq	%rbp, %rdi
	movl	$56, %esi
	movq	%rbx, %rbp
	call	_ZdlPvm@PLT
	jmp	.L1610
.L1707:
	movq	136(%rsp), %rdi
	testq	%rdi, %rdi
	je	.L1708
	call	_ZNSt16_Sp_counted_baseILN9__gnu_cxx12_Lock_policyE2EE10_M_releaseEv@PLT
.L1708:
	movq	%r12, %rdi
	call	_ZNSt16_Sp_counted_baseILN9__gnu_cxx12_Lock_policyE2EE10_M_releaseEv@PLT
	jmp	.L1610
.L1647:
	movl	$136, %esi
	movq	%r12, %rdi
	call	_ZdlPvm@PLT
.L1648:
	movq	104(%rsp), %rdi
	testq	%rdi, %rdi
	je	.L1695
	call	_ZNSt16_Sp_counted_baseILN9__gnu_cxx12_Lock_policyE2EE10_M_releaseEv@PLT
.L1695:
	movq	120(%rsp), %rdi
	testq	%rdi, %rdi
	jne	.L1833
.L1696:
	movq	%rbp, %rdi
	call	_ZNSt16_Sp_counted_baseILN9__gnu_cxx12_Lock_policyE2EE10_M_releaseEv@PLT
.L1634:
	movq	88(%rsp), %rdi
	testq	%rdi, %rdi
	je	.L1622
	call	_ZNSt16_Sp_counted_baseILN9__gnu_cxx12_Lock_policyE2EE10_M_releaseEv@PLT
	jmp	.L1622
.L1833:
	call	_ZNSt16_Sp_counted_baseILN9__gnu_cxx12_Lock_policyE2EE10_M_releaseEv@PLT
	jmp	.L1696
.L1633:
	movl	$928, %esi
	movq	%rbp, %rdi
	call	_ZdlPvm@PLT
	jmp	.L1634
	.cfi_endproc
.LFE8255:
	.section	.gcc_except_table
.LLSDAC8255:
	.byte	0xff
	.byte	0xff
	.byte	0x1
	.uleb128 .LLSDACSEC8255-.LLSDACSBC8255
.LLSDACSBC8255:
	.uleb128 .LEHB60-.LCOLDB30
	.uleb128 .LEHE60-.LEHB60
	.uleb128 0
	.uleb128 0
.LLSDACSEC8255:
	.section	.text.unlikely
	.text
	.size	_ZN8asiodnp315DNP3ManagerImpl9AddSerialERKNSt7__cxx1112basic_stringIcSt11char_traitsIcESaIcEEEjRKN7asiopal12ChannelRetryENS9_14SerialSettingsESt10shared_ptrINS_16IChannelListenerEE, .-_ZN8asiodnp315DNP3ManagerImpl9AddSerialERKNSt7__cxx1112basic_stringIcSt11char_traitsIcESaIcEEEjRKN7asiopal12ChannelRetryENS9_14SerialSettingsESt10shared_ptrINS_16IChannelListenerEE
	.section	.text.unlikely
	.size	_ZN8asiodnp315DNP3ManagerImpl9AddSerialERKNSt7__cxx1112basic_stringIcSt11char_traitsIcESaIcEEEjRKN7asiopal12ChannelRetryENS9_14SerialSettingsESt10shared_ptrINS_16IChannelListenerEE.cold, .-_ZN8asiodnp315DNP3ManagerImpl9AddSerialERKNSt7__cxx1112basic_stringIcSt11char_traitsIcESaIcEEEjRKN7asiopal12ChannelRetryENS9_14SerialSettingsESt10shared_ptrINS_16IChannelListenerEE.cold
.LCOLDE30:
	.text
.LHOTE30:
	.section	.text.unlikely
	.align 2
.LCOLDB31:
	.text
.LHOTB31:
	.align 2
	.p2align 4
	.globl	_ZN8asiodnp315DNP3ManagerImpl14CreateListenerENSt7__cxx1112basic_stringIcSt11char_traitsIcESaIcEEEN7openpal10LogFiltersEN7asiopal10IPEndpointERKSt10shared_ptrINS_16IListenCallbacksEERSt10error_code
	.type	_ZN8asiodnp315DNP3ManagerImpl14CreateListenerENSt7__cxx1112basic_stringIcSt11char_traitsIcESaIcEEEN7openpal10LogFiltersEN7asiopal10IPEndpointERKSt10shared_ptrINS_16IListenCallbacksEERSt10error_code, @function
_ZN8asiodnp315DNP3ManagerImpl14CreateListenerENSt7__cxx1112basic_stringIcSt11char_traitsIcESaIcEEEN7openpal10LogFiltersEN7asiopal10IPEndpointERKSt10shared_ptrINS_16IListenCallbacksEERSt10error_code:
.LFB8259:
	.cfi_startproc
	.cfi_personality 0x9b,DW.ref.__gxx_personality_v0
	.cfi_lsda 0x1b,.LLSDA8259
	pushq	%rbp
	.cfi_def_cfa_offset 16
	.cfi_offset 6, -16
	movq	%rsp, %rbp
	.cfi_def_cfa_register 6
	pushq	%r15
	pushq	%r14
	pushq	%r13
	pushq	%r12
	.cfi_offset 15, -24
	.cfi_offset 14, -32
	.cfi_offset 13, -40
	.cfi_offset 12, -48
	movq	%rdi, %r12
	pushq	%rbx
	.cfi_offset 3, -56
	movq	%rsi, %rbx
	subq	$168, %rsp
	movq	16(%rbp), %rax
	movq	%rdx, -136(%rbp)
	movl	%ecx, -160(%rbp)
	movq	%r8, -144(%rbp)
	movq	%r9, -168(%rbp)
	movq	%rax, -128(%rbp)
	movq	%fs:40, %rax
	movq	%rax, -56(%rbp)
	movq	256(%rsi), %rax
	cmpq	$0, _ZL28__gthrw___pthread_key_createPjPFvPvE@GOTPCREL(%rip)
	movq	%rax, -120(%rbp)
	leaq	8(%rax), %r14
	je	.L1835
	movq	%r14, %rdi
	call	_ZL26__gthrw_pthread_mutex_lockP15pthread_mutex_t@PLT
	testl	%eax, %eax
	jne	.L1972
.L1835:
	movq	-120(%rbp), %rax
	cmpb	$0, 48(%rax)
	je	.L1836
	pxor	%xmm0, %xmm0
	cmpq	$0, _ZL28__gthrw___pthread_key_createPjPFvPvE@GOTPCREL(%rip)
	movups	%xmm0, (%r12)
	je	.L1837
.L1916:
	movq	%r14, %rdi
	call	_ZL28__gthrw_pthread_mutex_unlockP15pthread_mutex_t@PLT
	cmpq	$0, (%r12)
	je	.L1837
.L1834:
	movq	-56(%rbp), %rax
	subq	%fs:40, %rax
	jne	.L1973
	leaq	-40(%rbp), %rsp
	movq	%r12, %rax
	popq	%rbx
	popq	%r12
	popq	%r13
	popq	%r14
	popq	%r15
	popq	%rbp
	.cfi_remember_state
	.cfi_def_cfa 7, 8
	ret
	.p2align 4,,10
	.p2align 3
.L1837:
	.cfi_restore_state
	movq	-128(%rbp), %rbx
	movq	_ZN8asiodnp313ErrorCategory8instanceE@GOTPCREL(%rip), %rax
	movl	$0, (%rbx)
	movq	%rax, 8(%rbx)
	jmp	.L1834
	.p2align 4,,10
	.p2align 3
.L1836:
	leaq	256(%rbx), %rax
	movl	$72, %edi
	movq	$0, -112(%rbp)
	leaq	32(%rbx), %r15
	movq	%rax, -192(%rbp)
.LEHB61:
	call	_Znwm@PLT
.LEHE61:
	movq	%rax, %r13
	movq	.LC24(%rip), %rax
	movq	%r15, %rsi
	movq	%rax, 8(%r13)
	movq	_ZTVSt23_Sp_counted_ptr_inplaceIN7asiopal8ExecutorESaIS1_ELN9__gnu_cxx12_Lock_policyE2EE@GOTPCREL(%rip), %rax
	addq	$16, %rax
	movq	%rax, 0(%r13)
	leaq	16(%r13), %rax
	movq	%rax, %rdi
	movq	%rax, -176(%rbp)
	movq	%rax, %r15
.LEHB62:
	call	_ZN7asiopal8ExecutorC1ERKSt10shared_ptrINS_2IOEE@PLT
.LEHE62:
	movq	%r15, %xmm0
	movq	%r13, %xmm2
	movq	32(%r13), %rdi
	punpcklqdq	%xmm2, %xmm0
	movaps	%xmm0, -112(%rbp)
	testq	%rdi, %rdi
	je	.L1974
	movl	8(%rdi), %eax
	testl	%eax, %eax
	je	.L1975
.L1843:
	movl	$56, %edi
.LEHB63:
	call	_Znwm@PLT
.LEHE63:
	movq	%rax, %r13
	leaq	8(%rax), %rax
	movq	-136(%rbp), %rsi
	movq	%rax, -200(%rbp)
	movq	.LC24(%rip), %rax
	leaq	32(%r13), %rdi
	movq	8(%rsi), %r15
	movq	%rdi, 16(%r13)
	movq	%rax, 8(%r13)
	movq	_ZTVSt23_Sp_counted_ptr_inplaceIN7openpal6Logger8SettingsESaIS2_ELN9__gnu_cxx12_Lock_policyE2EE@GOTPCREL(%rip), %rax
	addq	$16, %rax
	movq	%rax, 0(%r13)
	leaq	16(%r13), %rax
	movq	%rax, -184(%rbp)
	movq	(%rsi), %rax
	movq	%rax, %rsi
	movq	%rax, -136(%rbp)
	addq	%r15, %rsi
	je	.L1851
	testq	%rax, %rax
	je	.L1976
.L1851:
	movq	%r15, -96(%rbp)
	cmpq	$15, %r15
	ja	.L1977
	cmpq	$1, %r15
	jne	.L1854
	movq	-136(%rbp), %rax
	movzbl	(%rax), %eax
	movb	%al, 32(%r13)
	leaq	-96(%rbp), %rax
	movq	%rax, -176(%rbp)
.L1855:
	movl	-160(%rbp), %eax
	movq	%r15, 24(%r13)
	movb	$0, (%rdi,%r15)
	movdqu	(%rbx), %xmm3
	movl	%eax, 48(%r13)
	movq	8(%rbx), %rax
	movaps	%xmm3, -96(%rbp)
	testq	%rax, %rax
	je	.L1857
	cmpq	$0, _ZL28__gthrw___pthread_key_createPjPFvPvE@GOTPCREL(%rip)
	jne	.L1978
	addl	$1, 8(%rax)
.L1857:
	movq	-184(%rbp), %xmm0
	movq	%r13, %xmm5
	cmpq	$0, _ZL28__gthrw___pthread_key_createPjPFvPvE@GOTPCREL(%rip)
	punpcklqdq	%xmm5, %xmm0
	movaps	%xmm0, -80(%rbp)
	jne	.L1979
	addl	$1, 8(%r13)
	movl	8(%r13), %eax
	leal	-1(%rax), %edx
	movl	%edx, 8(%r13)
.L1862:
	cmpl	$1, %eax
	je	.L1980
.L1864:
	movl	$256, %edi
.LEHB64:
	call	_Znwm@PLT
.LEHE64:
	movq	%rax, %r15
	movq	%rax, -136(%rbp)
	leaq	8(%rax), %r13
	movq	.LC24(%rip), %rax
	subq	$8, %rsp
	leaq	16(%r15), %rbx
	movq	-192(%rbp), %r9
	movq	-168(%rbp), %r8
	movq	%rax, 8(%r15)
	movq	_ZTVSt23_Sp_counted_ptr_inplaceIN8asiodnp315MasterTCPServerESaIS1_ELN9__gnu_cxx12_Lock_policyE2EE@GOTPCREL(%rip), %rax
	leaq	-112(%rbp), %rdx
	movq	%rbx, %rdi
	movq	-144(%rbp), %rcx
	movq	-176(%rbp), %rsi
	addq	$16, %rax
	movq	%rax, (%r15)
	pushq	-128(%rbp)
.LEHB65:
	.cfi_escape 0x2e,0x10
	call	_ZN8asiodnp315MasterTCPServerC1ERKN7openpal6LoggerERKSt10shared_ptrIN7asiopal8ExecutorEERKNS6_10IPEndpointERKS5_INS_16IListenCallbacksEERKS5_INS6_15ResourceManagerEERSt10error_code@PLT
.LEHE65:
	movq	32(%r15), %rdi
	popq	%rdx
	popq	%rcx
	testq	%rdi, %rdi
	je	.L1873
	movl	8(%rdi), %eax
	testl	%eax, %eax
	je	.L1873
	movq	-128(%rbp), %rax
	movl	(%rax), %eax
	testl	%eax, %eax
	je	.L1881
.L1884:
	movq	-72(%rbp), %r15
	testq	%r15, %r15
	je	.L1885
	cmpq	$0, _ZL28__gthrw___pthread_key_createPjPFvPvE@GOTPCREL(%rip)
	jne	.L1981
	movl	8(%r15), %eax
	leal	-1(%rax), %edx
	movl	%edx, 8(%r15)
.L1888:
	cmpl	$1, %eax
	je	.L1982
.L1885:
	movq	-88(%rbp), %r15
	testq	%r15, %r15
	je	.L1892
	cmpq	$0, _ZL28__gthrw___pthread_key_createPjPFvPvE@GOTPCREL(%rip)
	jne	.L1983
	movl	8(%r15), %eax
	leal	-1(%rax), %edx
	movl	%edx, 8(%r15)
.L1894:
	cmpl	$1, %eax
	je	.L1984
.L1892:
	movq	-104(%rbp), %r15
	testq	%r15, %r15
	je	.L1899
	cmpq	$0, _ZL28__gthrw___pthread_key_createPjPFvPvE@GOTPCREL(%rip)
	jne	.L1985
	movl	8(%r15), %eax
	leal	-1(%rax), %edx
	movl	%edx, 8(%r15)
.L1901:
	cmpl	$1, %eax
	je	.L1986
.L1899:
	movq	%rbx, %xmm1
	cmpq	$0, _ZL28__gthrw___pthread_key_createPjPFvPvE@GOTPCREL(%rip)
	movhps	-136(%rbp), %xmm1
	movaps	%xmm1, -160(%rbp)
	movaps	%xmm1, -96(%rbp)
	jne	.L1987
	movq	-136(%rbp), %rax
	addl	$1, 8(%rax)
.L1908:
	movq	-120(%rbp), %rdi
	movq	-176(%rbp), %rsi
	addq	$56, %rdi
.LEHB66:
	.cfi_escape 0x2e,0
	call	_ZNSt8_Rb_treeISt10shared_ptrIN7asiopal9IResourceEES3_St9_IdentityIS3_ESt4lessIS3_ESaIS3_EE16_M_insert_uniqueIS3_EESt4pairISt17_Rb_tree_iteratorIS3_EbEOT_@PLT
.LEHE66:
	movq	-88(%rbp), %rax
	movq	%rax, %rbx
	testq	%rax, %rax
	je	.L1910
	cmpq	$0, _ZL28__gthrw___pthread_key_createPjPFvPvE@GOTPCREL(%rip)
	jne	.L1988
	movl	8(%rax), %eax
	leal	-1(%rax), %edx
	movl	%edx, 8(%rbx)
.L1912:
	cmpl	$1, %eax
	je	.L1989
.L1910:
	movdqa	-160(%rbp), %xmm4
	cmpq	$0, _ZL28__gthrw___pthread_key_createPjPFvPvE@GOTPCREL(%rip)
	movups	%xmm4, (%r12)
	jne	.L1916
	jmp	.L1834
	.p2align 4,,10
	.p2align 3
.L1974:
	movq	-176(%rbp), %rax
	movq	%r13, %r15
	movq	%rax, 24(%r13)
.L1925:
	cmpq	$0, _ZL28__gthrw___pthread_key_createPjPFvPvE@GOTPCREL(%rip)
	jne	.L1990
	addl	$1, 12(%r15)
.L1844:
	testq	%rdi, %rdi
	je	.L1847
	cmpq	$0, _ZL28__gthrw___pthread_key_createPjPFvPvE@GOTPCREL(%rip)
	jne	.L1991
	movl	12(%rdi), %eax
	leal	-1(%rax), %edx
	movl	%edx, 12(%rdi)
.L1849:
	cmpl	$1, %eax
	jne	.L1847
	movq	(%rdi), %rax
	call	*24(%rax)
	.p2align 4,,10
	.p2align 3
.L1847:
	movq	%r15, 32(%r13)
	jmp	.L1843
	.p2align 4,,10
	.p2align 3
.L1873:
	movq	-136(%rbp), %rax
	cmpq	$0, _ZL28__gthrw___pthread_key_createPjPFvPvE@GOTPCREL(%rip)
	movq	%rbx, 24(%rax)
	jne	.L1992
	addl	$1, 12(%rax)
.L1875:
	testq	%rdi, %rdi
	je	.L1877
	cmpq	$0, _ZL28__gthrw___pthread_key_createPjPFvPvE@GOTPCREL(%rip)
	jne	.L1993
	movl	12(%rdi), %eax
	leal	-1(%rax), %edx
	movl	%edx, 12(%rdi)
.L1879:
	cmpl	$1, %eax
	jne	.L1877
	movq	(%rdi), %rax
	call	*24(%rax)
	.p2align 4,,10
	.p2align 3
.L1877:
	movq	-136(%rbp), %rax
	movq	%rax, 32(%rax)
	movq	-128(%rbp), %rax
	movl	(%rax), %eax
	testl	%eax, %eax
	jne	.L1884
.L1881:
	movq	%rbx, %rdi
.LEHB67:
	call	_ZN7asiopal9TCPServer11StartAcceptEv@PLT
.LEHE67:
	jmp	.L1884
	.p2align 4,,10
	.p2align 3
.L1854:
	leaq	-96(%rbp), %rax
	movq	%rax, -176(%rbp)
	testq	%r15, %r15
	je	.L1855
	jmp	.L1853
	.p2align 4,,10
	.p2align 3
.L1977:
	leaq	-96(%rbp), %rax
	movq	-184(%rbp), %rdi
	xorl	%edx, %edx
	movq	%rax, %rsi
	movq	%rax, -176(%rbp)
.LEHB68:
	call	_ZNSt7__cxx1112basic_stringIcSt11char_traitsIcESaIcEE9_M_createERmm@PLT
.LEHE68:
	movq	%rax, 16(%r13)
	movq	%rax, %rdi
	movq	-96(%rbp), %rax
	movq	%rax, 32(%r13)
.L1853:
	movq	-136(%rbp), %rsi
	movq	%r15, %rdx
	call	memcpy@PLT
	movq	-96(%rbp), %r15
	movq	16(%r13), %rdi
	jmp	.L1855
	.p2align 4,,10
	.p2align 3
.L1980:
	movq	0(%r13), %rax
	movq	%r13, %rdi
	call	*16(%rax)
	cmpq	$0, _ZL28__gthrw___pthread_key_createPjPFvPvE@GOTPCREL(%rip)
	jne	.L1994
	movl	12(%r13), %eax
	leal	-1(%rax), %edx
	movl	%edx, 12(%r13)
.L1866:
	cmpl	$1, %eax
	jne	.L1864
	movq	0(%r13), %rax
	movq	%r13, %rdi
	call	*24(%rax)
	jmp	.L1864
	.p2align 4,,10
	.p2align 3
.L1982:
	movq	(%r15), %rax
	movq	%r15, %rdi
	call	*16(%rax)
	cmpq	$0, _ZL28__gthrw___pthread_key_createPjPFvPvE@GOTPCREL(%rip)
	jne	.L1995
	movl	12(%r15), %eax
	leal	-1(%rax), %edx
	movl	%edx, 12(%r15)
.L1890:
	cmpl	$1, %eax
	jne	.L1885
	movq	(%r15), %rax
	movq	%r15, %rdi
	call	*24(%rax)
	jmp	.L1885
	.p2align 4,,10
	.p2align 3
.L1984:
	movq	(%r15), %rax
	movq	%r15, %rdi
	call	*16(%rax)
	cmpq	$0, _ZL28__gthrw___pthread_key_createPjPFvPvE@GOTPCREL(%rip)
	jne	.L1996
	movl	12(%r15), %eax
	leal	-1(%rax), %edx
	movl	%edx, 12(%r15)
.L1897:
	cmpl	$1, %eax
	jne	.L1892
	movq	(%r15), %rax
	movq	%r15, %rdi
	call	*24(%rax)
	jmp	.L1892
	.p2align 4,,10
	.p2align 3
.L1986:
	movq	(%r15), %rax
	movq	%r15, %rdi
	call	*16(%rax)
	cmpq	$0, _ZL28__gthrw___pthread_key_createPjPFvPvE@GOTPCREL(%rip)
	jne	.L1997
	movl	12(%r15), %eax
	leal	-1(%rax), %edx
	movl	%edx, 12(%r15)
.L1904:
	cmpl	$1, %eax
	jne	.L1899
	movq	(%r15), %rax
	movq	%r15, %rdi
	call	*24(%rax)
	jmp	.L1899
	.p2align 4,,10
	.p2align 3
.L1983:
	movl	$-1, %eax
	lock xaddl	%eax, 8(%r15)
	jmp	.L1894
	.p2align 4,,10
	.p2align 3
.L1985:
	movl	$-1, %eax
	lock xaddl	%eax, 8(%r15)
	jmp	.L1901
	.p2align 4,,10
	.p2align 3
.L1981:
	movl	$-1, %eax
	lock xaddl	%eax, 8(%r15)
	jmp	.L1888
	.p2align 4,,10
	.p2align 3
.L1975:
	movq	-176(%rbp), %rax
	movq	-104(%rbp), %r15
	movq	%rax, 24(%r13)
	testq	%r15, %r15
	je	.L1844
	jmp	.L1925
	.p2align 4,,10
	.p2align 3
.L1991:
	movl	$-1, %eax
	lock xaddl	%eax, 12(%rdi)
	jmp	.L1849
	.p2align 4,,10
	.p2align 3
.L1993:
	movl	$-1, %eax
	lock xaddl	%eax, 12(%rdi)
	jmp	.L1879
	.p2align 4,,10
	.p2align 3
.L1996:
	movl	$-1, %eax
	lock xaddl	%eax, 12(%r15)
	jmp	.L1897
	.p2align 4,,10
	.p2align 3
.L1995:
	movl	$-1, %eax
	lock xaddl	%eax, 12(%r15)
	jmp	.L1890
	.p2align 4,,10
	.p2align 3
.L1994:
	movl	$-1, %eax
	lock xaddl	%eax, 12(%r13)
	jmp	.L1866
	.p2align 4,,10
	.p2align 3
.L1997:
	movl	$-1, %eax
	lock xaddl	%eax, 12(%r15)
	jmp	.L1904
	.p2align 4,,10
	.p2align 3
.L1979:
	movq	-200(%rbp), %rax
	lock addl	$1, (%rax)
	movq	%rax, %rdx
	movl	$-1, %eax
	lock xaddl	%eax, (%rdx)
	jmp	.L1862
	.p2align 4,,10
	.p2align 3
.L1978:
	lock addl	$1, 8(%rax)
	jmp	.L1857
	.p2align 4,,10
	.p2align 3
.L1989:
	movq	(%rbx), %rax
	movq	%rbx, %rdi
	call	*16(%rax)
	cmpq	$0, _ZL28__gthrw___pthread_key_createPjPFvPvE@GOTPCREL(%rip)
	jne	.L1998
	movl	12(%rbx), %eax
	leal	-1(%rax), %edx
	movl	%edx, 12(%rbx)
.L1915:
	cmpl	$1, %eax
	jne	.L1910
	movq	(%rbx), %rax
	movq	%rbx, %rdi
	call	*24(%rax)
	jmp	.L1910
	.p2align 4,,10
	.p2align 3
.L1988:
	movl	$-1, %eax
	lock xaddl	%eax, 8(%rbx)
	jmp	.L1912
	.p2align 4,,10
	.p2align 3
.L1987:
	lock addl	$1, 0(%r13)
	jmp	.L1908
	.p2align 4,,10
	.p2align 3
.L1990:
	lock addl	$1, 12(%r15)
	movq	32(%r13), %rdi
	jmp	.L1844
	.p2align 4,,10
	.p2align 3
.L1992:
	lock addl	$1, 12(%rax)
	movq	32(%rax), %rdi
	jmp	.L1875
	.p2align 4,,10
	.p2align 3
.L1998:
	movl	$-1, %eax
	lock xaddl	%eax, 12(%rbx)
	jmp	.L1915
.L1973:
	call	__stack_chk_fail@PLT
.L1972:
	movl	%eax, %edi
.LEHB69:
	call	_ZSt20__throw_system_errori@PLT
.LEHE69:
.L1976:
	leaq	.LC4(%rip), %rdi
.LEHB70:
	call	_ZSt19__throw_logic_errorPKc@PLT
.LEHE70:
.L1933:
	movq	%rax, %rbx
	jmp	.L1886
.L1930:
	movq	%rax, %rbx
	jmp	.L1872
.L1932:
	movq	%rax, %rbx
	jmp	.L1858
.L1929:
	movq	%rax, %rbx
	jmp	.L1859
.L1928:
	movq	%rax, %rbx
	jmp	.L1918
.L1934:
	movq	%rax, %rbx
	jmp	.L1871
.L1927:
	movq	%rax, %rbx
	jmp	.L1842
.L1931:
	movq	%rax, %rbx
	jmp	.L1841
	.section	.gcc_except_table
.LLSDA8259:
	.byte	0xff
	.byte	0xff
	.byte	0x1
	.uleb128 .LLSDACSE8259-.LLSDACSB8259
.LLSDACSB8259:
	.uleb128 .LEHB61-.LFB8259
	.uleb128 .LEHE61-.LEHB61
	.uleb128 .L1927-.LFB8259
	.uleb128 0
	.uleb128 .LEHB62-.LFB8259
	.uleb128 .LEHE62-.LEHB62
	.uleb128 .L1931-.LFB8259
	.uleb128 0
	.uleb128 .LEHB63-.LFB8259
	.uleb128 .LEHE63-.LEHB63
	.uleb128 .L1929-.LFB8259
	.uleb128 0
	.uleb128 .LEHB64-.LFB8259
	.uleb128 .LEHE64-.LEHB64
	.uleb128 .L1930-.LFB8259
	.uleb128 0
	.uleb128 .LEHB65-.LFB8259
	.uleb128 .LEHE65-.LEHB65
	.uleb128 .L1934-.LFB8259
	.uleb128 0
	.uleb128 .LEHB66-.LFB8259
	.uleb128 .LEHE66-.LEHB66
	.uleb128 .L1928-.LFB8259
	.uleb128 0
	.uleb128 .LEHB67-.LFB8259
	.uleb128 .LEHE67-.LEHB67
	.uleb128 .L1933-.LFB8259
	.uleb128 0
	.uleb128 .LEHB68-.LFB8259
	.uleb128 .LEHE68-.LEHB68
	.uleb128 .L1932-.LFB8259
	.uleb128 0
	.uleb128 .LEHB69-.LFB8259
	.uleb128 .LEHE69-.LEHB69
	.uleb128 0
	.uleb128 0
	.uleb128 .LEHB70-.LFB8259
	.uleb128 .LEHE70-.LEHB70
	.uleb128 .L1932-.LFB8259
	.uleb128 0
.LLSDACSE8259:
	.text
	.cfi_endproc
	.section	.text.unlikely
	.cfi_startproc
	.cfi_personality 0x9b,DW.ref.__gxx_personality_v0
	.cfi_lsda 0x1b,.LLSDAC8259
	.type	_ZN8asiodnp315DNP3ManagerImpl14CreateListenerENSt7__cxx1112basic_stringIcSt11char_traitsIcESaIcEEEN7openpal10LogFiltersEN7asiopal10IPEndpointERKSt10shared_ptrINS_16IListenCallbacksEERSt10error_code.cold, @function
_ZN8asiodnp315DNP3ManagerImpl14CreateListenerENSt7__cxx1112basic_stringIcSt11char_traitsIcESaIcEEEN7openpal10LogFiltersEN7asiopal10IPEndpointERKSt10shared_ptrINS_16IListenCallbacksEERSt10error_code.cold:
.LFSB8259:
.L1886:
	.cfi_def_cfa 6, 16
	.cfi_offset 3, -56
	.cfi_offset 6, -16
	.cfi_offset 12, -48
	.cfi_offset 13, -40
	.cfi_offset 14, -32
	.cfi_offset 15, -24
	movq	-136(%rbp), %rdi
	call	_ZNSt16_Sp_counted_baseILN9__gnu_cxx12_Lock_policyE2EE10_M_releaseEv@PLT
.L1872:
	movq	-176(%rbp), %rdi
	call	_ZN7openpal6LoggerD1Ev@PLT
.L1859:
	movq	-104(%rbp), %rdi
	testq	%rdi, %rdi
	je	.L1842
	call	_ZNSt16_Sp_counted_baseILN9__gnu_cxx12_Lock_policyE2EE10_M_releaseEv@PLT
.L1842:
	cmpq	$0, _ZL28__gthrw___pthread_key_createPjPFvPvE@GOTPCREL(%rip)
	je	.L1920
	movq	%r14, %rdi
	call	_ZL28__gthrw_pthread_mutex_unlockP15pthread_mutex_t@PLT
.L1920:
	movq	%rbx, %rdi
.LEHB71:
	call	_Unwind_Resume@PLT
.LEHE71:
.L1858:
	movl	$56, %esi
	movq	%r13, %rdi
	call	_ZdlPvm@PLT
	jmp	.L1859
.L1918:
	movq	-88(%rbp), %rdi
	testq	%rdi, %rdi
	je	.L1919
	call	_ZNSt16_Sp_counted_baseILN9__gnu_cxx12_Lock_policyE2EE10_M_releaseEv@PLT
.L1919:
	movq	-136(%rbp), %rdi
	call	_ZNSt16_Sp_counted_baseILN9__gnu_cxx12_Lock_policyE2EE10_M_releaseEv@PLT
	jmp	.L1842
.L1871:
	movq	-136(%rbp), %rdi
	movl	$256, %esi
	call	_ZdlPvm@PLT
	jmp	.L1872
.L1841:
	movl	$72, %esi
	movq	%r13, %rdi
	call	_ZdlPvm@PLT
	jmp	.L1842
	.cfi_endproc
.LFE8259:
	.section	.gcc_except_table
.LLSDAC8259:
	.byte	0xff
	.byte	0xff
	.byte	0x1
	.uleb128 .LLSDACSEC8259-.LLSDACSBC8259
.LLSDACSBC8259:
	.uleb128 .LEHB71-.LCOLDB31
	.uleb128 .LEHE71-.LEHB71
	.uleb128 0
	.uleb128 0
.LLSDACSEC8259:
	.section	.text.unlikely
	.text
	.size	_ZN8asiodnp315DNP3ManagerImpl14CreateListenerENSt7__cxx1112basic_stringIcSt11char_traitsIcESaIcEEEN7openpal10LogFiltersEN7asiopal10IPEndpointERKSt10shared_ptrINS_16IListenCallbacksEERSt10error_code, .-_ZN8asiodnp315DNP3ManagerImpl14CreateListenerENSt7__cxx1112basic_stringIcSt11char_traitsIcESaIcEEEN7openpal10LogFiltersEN7asiopal10IPEndpointERKSt10shared_ptrINS_16IListenCallbacksEERSt10error_code
	.section	.text.unlikely
	.size	_ZN8asiodnp315DNP3ManagerImpl14CreateListenerENSt7__cxx1112basic_stringIcSt11char_traitsIcESaIcEEEN7openpal10LogFiltersEN7asiopal10IPEndpointERKSt10shared_ptrINS_16IListenCallbacksEERSt10error_code.cold, .-_ZN8asiodnp315DNP3ManagerImpl14CreateListenerENSt7__cxx1112basic_stringIcSt11char_traitsIcESaIcEEEN7openpal10LogFiltersEN7asiopal10IPEndpointERKSt10shared_ptrINS_16IListenCallbacksEERSt10error_code.cold
.LCOLDE31:
	.text
.LHOTE31:
	.section	.text._ZNSt8_Rb_treeISt10shared_ptrIN7asiopal9IResourceEES3_St9_IdentityIS3_ESt4lessIS3_ESaIS3_EE8_M_eraseEPSt13_Rb_tree_nodeIS3_E,"axG",@progbits,_ZNSt8_Rb_treeISt10shared_ptrIN7asiopal9IResourceEES3_St9_IdentityIS3_ESt4lessIS3_ESaIS3_EE8_M_eraseEPSt13_Rb_tree_nodeIS3_E,comdat
	.align 2
	.p2align 4
	.weak	_ZNSt8_Rb_treeISt10shared_ptrIN7asiopal9IResourceEES3_St9_IdentityIS3_ESt4lessIS3_ESaIS3_EE8_M_eraseEPSt13_Rb_tree_nodeIS3_E
	.type	_ZNSt8_Rb_treeISt10shared_ptrIN7asiopal9IResourceEES3_St9_IdentityIS3_ESt4lessIS3_ESaIS3_EE8_M_eraseEPSt13_Rb_tree_nodeIS3_E, @function
_ZNSt8_Rb_treeISt10shared_ptrIN7asiopal9IResourceEES3_St9_IdentityIS3_ESt4lessIS3_ESaIS3_EE8_M_eraseEPSt13_Rb_tree_nodeIS3_E:
.LFB11990:
	.cfi_startproc
	pushq	%r15
	.cfi_def_cfa_offset 16
	.cfi_offset 15, -16
	pushq	%r14
	.cfi_def_cfa_offset 24
	.cfi_offset 14, -24
	pushq	%r13
	.cfi_def_cfa_offset 32
	.cfi_offset 13, -32
	pushq	%r12
	.cfi_def_cfa_offset 40
	.cfi_offset 12, -40
	pushq	%rbp
	.cfi_def_cfa_offset 48
	.cfi_offset 6, -48
	pushq	%rbx
	.cfi_def_cfa_offset 56
	.cfi_offset 3, -56
	subq	$56, %rsp
	.cfi_def_cfa_offset 112
	movq	%rdi, 8(%rsp)
	movq	%rsi, 40(%rsp)
	testq	%rsi, %rsi
	je	.L1999
.L2081:
	movq	40(%rsp), %rax
	movq	24(%rax), %rax
	movq	%rax, 16(%rsp)
	testq	%rax, %rax
	je	.L2001
.L2073:
	movq	16(%rsp), %rax
	movq	24(%rax), %rax
	movq	%rax, 24(%rsp)
	testq	%rax, %rax
	je	.L2002
.L2065:
	movq	24(%rsp), %rax
	movq	24(%rax), %rax
	movq	%rax, 32(%rsp)
	testq	%rax, %rax
	je	.L2003
.L2057:
	movq	32(%rsp), %rax
	movq	24(%rax), %rbp
	testq	%rbp, %rbp
	je	.L2004
.L2049:
	movq	24(%rbp), %r13
	testq	%r13, %r13
	je	.L2005
.L2041:
	movq	24(%r13), %r14
	testq	%r14, %r14
	je	.L2006
.L2033:
	movq	24(%r14), %r12
	testq	%r12, %r12
	je	.L2007
.L2025:
	movq	24(%r12), %r15
	testq	%r15, %r15
	je	.L2008
	cmpq	$0, _ZL28__gthrw___pthread_key_createPjPFvPvE@GOTPCREL(%rip)
	jne	.L2009
.L2014:
	movq	24(%r15), %rsi
	movq	8(%rsp), %rdi
	call	_ZNSt8_Rb_treeISt10shared_ptrIN7asiopal9IResourceEES3_St9_IdentityIS3_ESt4lessIS3_ESaIS3_EE8_M_eraseEPSt13_Rb_tree_nodeIS3_E@PLT
	movq	%r15, %r8
	movq	16(%r15), %r15
	movq	40(%r8), %rbx
	testq	%rbx, %rbx
	je	.L2012
	movl	8(%rbx), %edx
	leal	-1(%rdx), %ecx
	movl	%ecx, 8(%rbx)
	cmpl	$1, %edx
	je	.L2013
.L2012:
	movl	$48, %esi
	movq	%r8, %rdi
	call	_ZdlPvm@PLT
	testq	%r15, %r15
	jne	.L2014
.L2008:
	movq	40(%r12), %rdi
	movq	16(%r12), %rbx
	testq	%rdi, %rdi
	je	.L2019
	movq	_ZL28__gthrw___pthread_key_createPjPFvPvE@GOTPCREL(%rip), %r15
	testq	%r15, %r15
	jne	.L2123
	movl	8(%rdi), %edx
	leal	-1(%rdx), %ecx
	movl	%ecx, 8(%rdi)
.L2021:
	cmpl	$1, %edx
	je	.L2124
.L2019:
	movl	$48, %esi
	movq	%r12, %rdi
	call	_ZdlPvm@PLT
	testq	%rbx, %rbx
	je	.L2007
	movq	%rbx, %r12
	jmp	.L2025
	.p2align 4,,10
	.p2align 3
.L2009:
	movq	24(%r15), %rsi
	movq	8(%rsp), %rdi
	movq	%r15, %rbx
	call	_ZNSt8_Rb_treeISt10shared_ptrIN7asiopal9IResourceEES3_St9_IdentityIS3_ESt4lessIS3_ESaIS3_EE8_M_eraseEPSt13_Rb_tree_nodeIS3_E@PLT
	movq	40(%rbx), %rdi
	movq	16(%r15), %r15
	testq	%rdi, %rdi
	je	.L2016
	lock subl	$1, 8(%rdi)
	je	.L2125
.L2016:
	movl	$48, %esi
	movq	%rbx, %rdi
	call	_ZdlPvm@PLT
	testq	%r15, %r15
	jne	.L2009
	jmp	.L2008
.L2005:
	movq	40(%rbp), %r12
	movq	16(%rbp), %rbx
	testq	%r12, %r12
	je	.L2043
	movq	_ZL28__gthrw___pthread_key_createPjPFvPvE@GOTPCREL(%rip), %r15
	testq	%r15, %r15
	jne	.L2126
	movl	8(%r12), %edx
	leal	-1(%rdx), %ecx
	movl	%ecx, 8(%r12)
.L2045:
	cmpl	$1, %edx
	je	.L2127
.L2043:
	movl	$48, %esi
	movq	%rbp, %rdi
	call	_ZdlPvm@PLT
	testq	%rbx, %rbx
	je	.L2004
	movq	%rbx, %rbp
	jmp	.L2049
	.p2align 4,,10
	.p2align 3
.L2124:
	movq	(%rdi), %rdx
	movq	%rdi, (%rsp)
	call	*16(%rdx)
	testq	%r15, %r15
	movq	(%rsp), %rdi
	jne	.L2128
	movl	12(%rdi), %eax
	leal	-1(%rax), %edx
	movl	%edx, 12(%rdi)
.L2024:
	cmpl	$1, %eax
	jne	.L2019
	movq	(%rdi), %rax
	call	*24(%rax)
	jmp	.L2019
	.p2align 4,,10
	.p2align 3
.L2128:
	movl	$-1, %eax
	lock xaddl	%eax, 12(%rdi)
	jmp	.L2024
	.p2align 4,,10
	.p2align 3
.L2123:
	movl	$-1, %edx
	lock xaddl	%edx, 8(%rdi)
	jmp	.L2021
	.p2align 4,,10
	.p2align 3
.L2013:
	movq	(%rbx), %rdx
	movq	%r8, (%rsp)
	movq	%rbx, %rdi
	call	*16(%rdx)
	movl	12(%rbx), %edx
	movq	(%rsp), %r8
	leal	-1(%rdx), %ecx
	cmpl	$1, %edx
	movl	%ecx, 12(%rbx)
	jne	.L2012
	movq	(%rbx), %rdx
	movq	%rbx, %rdi
	call	*24(%rdx)
	movq	(%rsp), %r8
	jmp	.L2012
	.p2align 4,,10
	.p2align 3
.L2006:
	movq	40(%r13), %r12
	movq	16(%r13), %rbx
	testq	%r12, %r12
	je	.L2035
	movq	_ZL28__gthrw___pthread_key_createPjPFvPvE@GOTPCREL(%rip), %r15
	testq	%r15, %r15
	jne	.L2129
	movl	8(%r12), %edx
	leal	-1(%rdx), %ecx
	movl	%ecx, 8(%r12)
.L2037:
	cmpl	$1, %edx
	je	.L2130
.L2035:
	movl	$48, %esi
	movq	%r13, %rdi
	call	_ZdlPvm@PLT
	testq	%rbx, %rbx
	je	.L2005
	movq	%rbx, %r13
	jmp	.L2041
.L2130:
	movq	(%r12), %rdx
	movq	%r12, %rdi
	call	*16(%rdx)
	testq	%r15, %r15
	jne	.L2131
	movl	12(%r12), %eax
	leal	-1(%rax), %edx
	movl	%edx, 12(%r12)
.L2040:
	cmpl	$1, %eax
	jne	.L2035
	movq	(%r12), %rax
	movq	%r12, %rdi
	call	*24(%rax)
	jmp	.L2035
.L2129:
	movl	$-1, %edx
	lock xaddl	%edx, 8(%r12)
	jmp	.L2037
.L2004:
	movq	32(%rsp), %rax
	movq	40(%rax), %rbp
	movq	16(%rax), %rbx
	testq	%rbp, %rbp
	je	.L2051
	movq	_ZL28__gthrw___pthread_key_createPjPFvPvE@GOTPCREL(%rip), %r15
	testq	%r15, %r15
	jne	.L2132
	movl	8(%rbp), %edx
	leal	-1(%rdx), %ecx
	movl	%ecx, 8(%rbp)
.L2053:
	cmpl	$1, %edx
	je	.L2133
.L2051:
	movq	32(%rsp), %rdi
	movl	$48, %esi
	call	_ZdlPvm@PLT
	testq	%rbx, %rbx
	je	.L2003
	movq	%rbx, 32(%rsp)
	jmp	.L2057
.L2131:
	movl	$-1, %eax
	lock xaddl	%eax, 12(%r12)
	jmp	.L2040
.L2127:
	movq	(%r12), %rdx
	movq	%r12, %rdi
	call	*16(%rdx)
	testq	%r15, %r15
	jne	.L2134
	movl	12(%r12), %eax
	leal	-1(%rax), %edx
	movl	%edx, 12(%r12)
.L2048:
	cmpl	$1, %eax
	jne	.L2043
	movq	(%r12), %rax
	movq	%r12, %rdi
	call	*24(%rax)
	jmp	.L2043
.L2126:
	movl	$-1, %edx
	lock xaddl	%edx, 8(%r12)
	jmp	.L2045
	.p2align 4,,10
	.p2align 3
.L2125:
	movq	(%rdi), %rdx
	movq	%rdi, (%rsp)
	call	*16(%rdx)
	movq	(%rsp), %rdi
	movl	$-1, %edx
	lock xaddl	%edx, 12(%rdi)
	cmpl	$1, %edx
	jne	.L2016
	movq	(%rdi), %rdx
	call	*24(%rdx)
	jmp	.L2016
	.p2align 4,,10
	.p2align 3
.L2007:
	movq	40(%r14), %r12
	movq	16(%r14), %rbx
	testq	%r12, %r12
	je	.L2027
	movq	_ZL28__gthrw___pthread_key_createPjPFvPvE@GOTPCREL(%rip), %r15
	testq	%r15, %r15
	jne	.L2135
	movl	8(%r12), %edx
	leal	-1(%rdx), %ecx
	movl	%ecx, 8(%r12)
.L2029:
	cmpl	$1, %edx
	je	.L2136
.L2027:
	movl	$48, %esi
	movq	%r14, %rdi
	call	_ZdlPvm@PLT
	testq	%rbx, %rbx
	je	.L2006
	movq	%rbx, %r14
	jmp	.L2033
	.p2align 4,,10
	.p2align 3
.L2136:
	movq	(%r12), %rdx
	movq	%r12, %rdi
	call	*16(%rdx)
	testq	%r15, %r15
	jne	.L2137
	movl	12(%r12), %eax
