	.file	"Executor.cpp"
	.text
	.section	.rodata._ZNK4asio6detail15system_category4nameEv.str1.1,"aMS",@progbits,1
.LC0:
	.string	"asio.system"
	.section	.text._ZNK4asio6detail15system_category4nameEv,"axG",@progbits,_ZNK4asio6detail15system_category4nameEv,comdat
	.align 2
	.p2align 4
	.weak	_ZNK4asio6detail15system_category4nameEv
	.type	_ZNK4asio6detail15system_category4nameEv, @function
_ZNK4asio6detail15system_category4nameEv:
.LFB2373:
	.cfi_startproc
	leaq	.LC0(%rip), %rax
	ret
	.cfi_endproc
.LFE2373:
	.size	_ZNK4asio6detail15system_category4nameEv, .-_ZNK4asio6detail15system_category4nameEv
	.section	.rodata._ZNK4asio5error6detail14netdb_category4nameEv.str1.1,"aMS",@progbits,1
.LC1:
	.string	"asio.netdb"
	.section	.text._ZNK4asio5error6detail14netdb_category4nameEv,"axG",@progbits,_ZNK4asio5error6detail14netdb_category4nameEv,comdat
	.align 2
	.p2align 4
	.weak	_ZNK4asio5error6detail14netdb_category4nameEv
	.type	_ZNK4asio5error6detail14netdb_category4nameEv, @function
_ZNK4asio5error6detail14netdb_category4nameEv:
.LFB2413:
	.cfi_startproc
	leaq	.LC1(%rip), %rax
	ret
	.cfi_endproc
.LFE2413:
	.size	_ZNK4asio5error6detail14netdb_category4nameEv, .-_ZNK4asio5error6detail14netdb_category4nameEv
	.section	.rodata._ZNK4asio5error6detail17addrinfo_category4nameEv.str1.1,"aMS",@progbits,1
.LC2:
	.string	"asio.addrinfo"
	.section	.text._ZNK4asio5error6detail17addrinfo_category4nameEv,"axG",@progbits,_ZNK4asio5error6detail17addrinfo_category4nameEv,comdat
	.align 2
	.p2align 4
	.weak	_ZNK4asio5error6detail17addrinfo_category4nameEv
	.type	_ZNK4asio5error6detail17addrinfo_category4nameEv, @function
_ZNK4asio5error6detail17addrinfo_category4nameEv:
.LFB2419:
	.cfi_startproc
	leaq	.LC2(%rip), %rax
	ret
	.cfi_endproc
.LFE2419:
	.size	_ZNK4asio5error6detail17addrinfo_category4nameEv, .-_ZNK4asio5error6detail17addrinfo_category4nameEv
	.section	.rodata._ZNK4asio5error6detail13misc_category4nameEv.str1.1,"aMS",@progbits,1
.LC3:
	.string	"asio.misc"
	.section	.text._ZNK4asio5error6detail13misc_category4nameEv,"axG",@progbits,_ZNK4asio5error6detail13misc_category4nameEv,comdat
	.align 2
	.p2align 4
	.weak	_ZNK4asio5error6detail13misc_category4nameEv
	.type	_ZNK4asio5error6detail13misc_category4nameEv, @function
_ZNK4asio5error6detail13misc_category4nameEv:
.LFB2425:
	.cfi_startproc
	leaq	.LC3(%rip), %rax
	ret
	.cfi_endproc
.LFE2425:
	.size	_ZNK4asio5error6detail13misc_category4nameEv, .-_ZNK4asio5error6detail13misc_category4nameEv
	.section	.text._ZN4asio10io_service7service12fork_serviceENS0_10fork_eventE,"axG",@progbits,_ZN4asio10io_service7service12fork_serviceENS0_10fork_eventE,comdat
	.align 2
	.p2align 4
	.weak	_ZN4asio10io_service7service12fork_serviceENS0_10fork_eventE
	.type	_ZN4asio10io_service7service12fork_serviceENS0_10fork_eventE, @function
_ZN4asio10io_service7service12fork_serviceENS0_10fork_eventE:
.LFB3405:
	.cfi_startproc
	ret
	.cfi_endproc
.LFE3405:
	.size	_ZN4asio10io_service7service12fork_serviceENS0_10fork_eventE, .-_ZN4asio10io_service7service12fork_serviceENS0_10fork_eventE
	.section	.text._ZNSt13__future_base13_State_baseV217_M_complete_asyncEv,"axG",@progbits,_ZNSt13__future_base13_State_baseV217_M_complete_asyncEv,comdat
	.align 2
	.p2align 4
	.weak	_ZNSt13__future_base13_State_baseV217_M_complete_asyncEv
	.type	_ZNSt13__future_base13_State_baseV217_M_complete_asyncEv, @function
_ZNSt13__future_base13_State_baseV217_M_complete_asyncEv:
.LFB6723:
	.cfi_startproc
	ret
	.cfi_endproc
.LFE6723:
	.size	_ZNSt13__future_base13_State_baseV217_M_complete_asyncEv, .-_ZNSt13__future_base13_State_baseV217_M_complete_asyncEv
	.section	.text._ZNKSt13__future_base13_State_baseV221_M_is_deferred_futureEv,"axG",@progbits,_ZNKSt13__future_base13_State_baseV221_M_is_deferred_futureEv,comdat
	.align 2
	.p2align 4
	.weak	_ZNKSt13__future_base13_State_baseV221_M_is_deferred_futureEv
	.type	_ZNKSt13__future_base13_State_baseV221_M_is_deferred_futureEv, @function
_ZNKSt13__future_base13_State_baseV221_M_is_deferred_futureEv:
.LFB6724:
	.cfi_startproc
	xorl	%eax, %eax
	ret
	.cfi_endproc
.LFE6724:
	.size	_ZNKSt13__future_base13_State_baseV221_M_is_deferred_futureEv, .-_ZNKSt13__future_base13_State_baseV221_M_is_deferred_futureEv
	.section	.text._ZZSt9call_onceIMNSt13__future_base13_State_baseV2EFvPSt8functionIFSt10unique_ptrINS0_12_Result_baseENS4_8_DeleterEEvEEPbEJPS1_S9_SA_EEvRSt9once_flagOT_DpOT0_ENUlvE0_4_FUNEv,"axG",@progbits,_ZZSt9call_onceIMNSt13__future_base13_State_baseV2EFvPSt8functionIFSt10unique_ptrINS0_12_Result_baseENS4_8_DeleterEEvEEPbEJPS1_S9_SA_EEvRSt9once_flagOT_DpOT0_ENUlvE0_4_FUNEv,comdat
	.p2align 4
	.weak	_ZZSt9call_onceIMNSt13__future_base13_State_baseV2EFvPSt8functionIFSt10unique_ptrINS0_12_Result_baseENS4_8_DeleterEEvEEPbEJPS1_S9_SA_EEvRSt9once_flagOT_DpOT0_ENUlvE0_4_FUNEv
	.type	_ZZSt9call_onceIMNSt13__future_base13_State_baseV2EFvPSt8functionIFSt10unique_ptrINS0_12_Result_baseENS4_8_DeleterEEvEEPbEJPS1_S9_SA_EEvRSt9once_flagOT_DpOT0_ENUlvE0_4_FUNEv, @function
_ZZSt9call_onceIMNSt13__future_base13_State_baseV2EFvPSt8functionIFSt10unique_ptrINS0_12_Result_baseENS4_8_DeleterEEvEEPbEJPS1_S9_SA_EEvRSt9once_flagOT_DpOT0_ENUlvE0_4_FUNEv:
.LFB7691:
	.cfi_startproc
	subq	$8, %rsp
	.cfi_def_cfa_offset 16
	data16	leaq	_ZSt15__once_callable@tlsgd(%rip), %rdi
	.value	0x6666
	rex64
	call	__tls_get_addr@PLT
	movq	(%rax), %rax
	movq	(%rax), %rdx
	movq	24(%rax), %rsi
	movq	16(%rax), %rcx
	movq	8(%rax), %rax
	movq	8(%rdx), %rdi
	addq	(%rax), %rdi
	movq	(%rdx), %rax
	testb	$1, %al
	je	.L10
	movq	(%rdi), %rdx
	movq	-1(%rdx,%rax), %rax
.L10:
	movq	(%rsi), %rdx
	movq	(%rcx), %rsi
	addq	$8, %rsp
	.cfi_def_cfa_offset 8
	jmp	*%rax
	.cfi_endproc
.LFE7691:
	.size	_ZZSt9call_onceIMNSt13__future_base13_State_baseV2EFvPSt8functionIFSt10unique_ptrINS0_12_Result_baseENS4_8_DeleterEEvEEPbEJPS1_S9_SA_EEvRSt9once_flagOT_DpOT0_ENUlvE0_4_FUNEv, .-_ZZSt9call_onceIMNSt13__future_base13_State_baseV2EFvPSt8functionIFSt10unique_ptrINS0_12_Result_baseENS4_8_DeleterEEvEEPbEJPS1_S9_SA_EEvRSt9once_flagOT_DpOT0_ENUlvE0_4_FUNEv
	.section	.text._ZNSt15__exception_ptr12__dest_thunkISt12future_errorEEvPv,"axG",@progbits,_ZNSt15__exception_ptr12__dest_thunkISt12future_errorEEvPv,comdat
	.p2align 4
	.weak	_ZNSt15__exception_ptr12__dest_thunkISt12future_errorEEvPv
	.type	_ZNSt15__exception_ptr12__dest_thunkISt12future_errorEEvPv, @function
_ZNSt15__exception_ptr12__dest_thunkISt12future_errorEEvPv:
.LFB8180:
	.cfi_startproc
	movq	(%rdi), %rax
	jmp	*(%rax)
	.cfi_endproc
.LFE8180:
	.size	_ZNSt15__exception_ptr12__dest_thunkISt12future_errorEEvPv, .-_ZNSt15__exception_ptr12__dest_thunkISt12future_errorEEvPv
	.text
	.p2align 4
	.type	_ZNSt17_Function_handlerIFvvEZN7asiopal8Executor18BlockUntilAndFlushERKSt8functionIS0_EEUlvE_E9_M_invokeERKSt9_Any_data, @function
_ZNSt17_Function_handlerIFvvEZN7asiopal8Executor18BlockUntilAndFlushERKSt8functionIS0_EEUlvE_E9_M_invokeERKSt9_Any_data:
.LFB8317:
	.cfi_startproc
	ret
	.cfi_endproc
.LFE8317:
	.size	_ZNSt17_Function_handlerIFvvEZN7asiopal8Executor18BlockUntilAndFlushERKSt8functionIS0_EEUlvE_E9_M_invokeERKSt9_Any_data, .-_ZNSt17_Function_handlerIFvvEZN7asiopal8Executor18BlockUntilAndFlushERKSt8functionIS0_EEUlvE_E9_M_invokeERKSt9_Any_data
	.section	.text._ZNSt17_Function_handlerIFSt10unique_ptrINSt13__future_base12_Result_baseENS2_8_DeleterEEvENS1_13_State_baseV27_SetterIbObEEE9_M_invokeERKSt9_Any_data,"axG",@progbits,_ZNSt17_Function_handlerIFSt10unique_ptrINSt13__future_base12_Result_baseENS2_8_DeleterEEvENS1_13_State_baseV27_SetterIbObEEE9_M_invokeERKSt9_Any_data,comdat
	.p2align 4
	.weak	_ZNSt17_Function_handlerIFSt10unique_ptrINSt13__future_base12_Result_baseENS2_8_DeleterEEvENS1_13_State_baseV27_SetterIbObEEE9_M_invokeERKSt9_Any_data
	.type	_ZNSt17_Function_handlerIFSt10unique_ptrINSt13__future_base12_Result_baseENS2_8_DeleterEEvENS1_13_State_baseV27_SetterIbObEEE9_M_invokeERKSt9_Any_data, @function
_ZNSt17_Function_handlerIFSt10unique_ptrINSt13__future_base12_Result_baseENS2_8_DeleterEEvENS1_13_State_baseV27_SetterIbObEEE9_M_invokeERKSt9_Any_data:
.LFB8573:
	.cfi_startproc
	movq	(%rsi), %rcx
	movq	8(%rsi), %rsi
	movq	%rdi, %rax
	movq	16(%rcx), %rdx
	movzbl	(%rsi), %esi
	movb	$1, 17(%rdx)
	movb	%sil, 16(%rdx)
	movq	$0, 16(%rcx)
	movq	%rdx, (%rdi)
	ret
	.cfi_endproc
.LFE8573:
	.size	_ZNSt17_Function_handlerIFSt10unique_ptrINSt13__future_base12_Result_baseENS2_8_DeleterEEvENS1_13_State_baseV27_SetterIbObEEE9_M_invokeERKSt9_Any_data, .-_ZNSt17_Function_handlerIFSt10unique_ptrINSt13__future_base12_Result_baseENS2_8_DeleterEEvENS1_13_State_baseV27_SetterIbObEEE9_M_invokeERKSt9_Any_data
	.section	.text._ZNSt13__future_base13_State_baseV2D2Ev,"axG",@progbits,_ZNSt13__future_base13_State_baseV2D5Ev,comdat
	.align 2
	.p2align 4
	.weak	_ZNSt13__future_base13_State_baseV2D2Ev
	.type	_ZNSt13__future_base13_State_baseV2D2Ev, @function
_ZNSt13__future_base13_State_baseV2D2Ev:
.LFB9452:
	.cfi_startproc
	.cfi_personality 0x9b,DW.ref.__gxx_personality_v0
	.cfi_lsda 0x1b,.LLSDA9452
	movq	_ZTVNSt13__future_base13_State_baseV2E@GOTPCREL(%rip), %rax
	addq	$16, %rax
	movq	%rax, (%rdi)
	movq	8(%rdi), %rdi
	testq	%rdi, %rdi
	je	.L24
	subq	$8, %rsp
	.cfi_def_cfa_offset 16
	movq	(%rdi), %rax
	call	*(%rax)
	addq	$8, %rsp
	.cfi_def_cfa_offset 8
	ret
	.p2align 4,,10
	.p2align 3
.L24:
	ret
	.cfi_endproc
.LFE9452:
	.globl	__gxx_personality_v0
	.section	.gcc_except_table._ZNSt13__future_base13_State_baseV2D2Ev,"aG",@progbits,_ZNSt13__future_base13_State_baseV2D5Ev,comdat
.LLSDA9452:
	.byte	0xff
	.byte	0xff
	.byte	0x1
	.uleb128 .LLSDACSE9452-.LLSDACSB9452
.LLSDACSB9452:
.LLSDACSE9452:
	.section	.text._ZNSt13__future_base13_State_baseV2D2Ev,"axG",@progbits,_ZNSt13__future_base13_State_baseV2D5Ev,comdat
	.size	_ZNSt13__future_base13_State_baseV2D2Ev, .-_ZNSt13__future_base13_State_baseV2D2Ev
	.weak	_ZNSt13__future_base13_State_baseV2D1Ev
	.set	_ZNSt13__future_base13_State_baseV2D1Ev,_ZNSt13__future_base13_State_baseV2D2Ev
	.section	.text._ZN4asio6detail7tss_ptrINS0_10call_stackINS0_15task_io_serviceENS0_27task_io_service_thread_infoEE7contextEED2Ev,"axG",@progbits,_ZN4asio6detail7tss_ptrINS0_10call_stackINS0_15task_io_serviceENS0_27task_io_service_thread_infoEE7contextEED5Ev,comdat
	.align 2
	.p2align 4
	.weak	_ZN4asio6detail7tss_ptrINS0_10call_stackINS0_15task_io_serviceENS0_27task_io_service_thread_infoEE7contextEED2Ev
	.type	_ZN4asio6detail7tss_ptrINS0_10call_stackINS0_15task_io_serviceENS0_27task_io_service_thread_infoEE7contextEED2Ev, @function
_ZN4asio6detail7tss_ptrINS0_10call_stackINS0_15task_io_serviceENS0_27task_io_service_thread_infoEE7contextEED2Ev:
.LFB9517:
	.cfi_startproc
	ret
	.cfi_endproc
.LFE9517:
	.size	_ZN4asio6detail7tss_ptrINS0_10call_stackINS0_15task_io_serviceENS0_27task_io_service_thread_infoEE7contextEED2Ev, .-_ZN4asio6detail7tss_ptrINS0_10call_stackINS0_15task_io_serviceENS0_27task_io_service_thread_infoEE7contextEED2Ev
	.weak	_ZN4asio6detail7tss_ptrINS0_10call_stackINS0_15task_io_serviceENS0_27task_io_service_thread_infoEE7contextEED1Ev
	.set	_ZN4asio6detail7tss_ptrINS0_10call_stackINS0_15task_io_serviceENS0_27task_io_service_thread_infoEE7contextEED1Ev,_ZN4asio6detail7tss_ptrINS0_10call_stackINS0_15task_io_serviceENS0_27task_io_service_thread_infoEE7contextEED2Ev
	.section	.text._ZN4asio6detail10service_idINS0_13epoll_reactorEED2Ev,"axG",@progbits,_ZN4asio6detail10service_idINS0_13epoll_reactorEED5Ev,comdat
	.align 2
	.p2align 4
	.weak	_ZN4asio6detail10service_idINS0_13epoll_reactorEED2Ev
	.type	_ZN4asio6detail10service_idINS0_13epoll_reactorEED2Ev, @function
_ZN4asio6detail10service_idINS0_13epoll_reactorEED2Ev:
.LFB9520:
	.cfi_startproc
	ret
	.cfi_endproc
.LFE9520:
	.size	_ZN4asio6detail10service_idINS0_13epoll_reactorEED2Ev, .-_ZN4asio6detail10service_idINS0_13epoll_reactorEED2Ev
	.weak	_ZN4asio6detail10service_idINS0_13epoll_reactorEED1Ev
	.set	_ZN4asio6detail10service_idINS0_13epoll_reactorEED1Ev,_ZN4asio6detail10service_idINS0_13epoll_reactorEED2Ev
	.section	.text._ZN4asio6detail10service_idINS0_15task_io_serviceEED2Ev,"axG",@progbits,_ZN4asio6detail10service_idINS0_15task_io_serviceEED5Ev,comdat
	.align 2
	.p2align 4
	.weak	_ZN4asio6detail10service_idINS0_15task_io_serviceEED2Ev
	.type	_ZN4asio6detail10service_idINS0_15task_io_serviceEED2Ev, @function
_ZN4asio6detail10service_idINS0_15task_io_serviceEED2Ev:
.LFB9523:
	.cfi_startproc
	ret
	.cfi_endproc
.LFE9523:
	.size	_ZN4asio6detail10service_idINS0_15task_io_serviceEED2Ev, .-_ZN4asio6detail10service_idINS0_15task_io_serviceEED2Ev
	.weak	_ZN4asio6detail10service_idINS0_15task_io_serviceEED1Ev
	.set	_ZN4asio6detail10service_idINS0_15task_io_serviceEED1Ev,_ZN4asio6detail10service_idINS0_15task_io_serviceEED2Ev
	.section	.text._ZN4asio6detail7tss_ptrINS0_10call_stackINS0_14strand_service11strand_implEhE7contextEED2Ev,"axG",@progbits,_ZN4asio6detail7tss_ptrINS0_10call_stackINS0_14strand_service11strand_implEhE7contextEED5Ev,comdat
	.align 2
	.p2align 4
	.weak	_ZN4asio6detail7tss_ptrINS0_10call_stackINS0_14strand_service11strand_implEhE7contextEED2Ev
	.type	_ZN4asio6detail7tss_ptrINS0_10call_stackINS0_14strand_service11strand_implEhE7contextEED2Ev, @function
_ZN4asio6detail7tss_ptrINS0_10call_stackINS0_14strand_service11strand_implEhE7contextEED2Ev:
.LFB9526:
	.cfi_startproc
	ret
	.cfi_endproc
.LFE9526:
	.size	_ZN4asio6detail7tss_ptrINS0_10call_stackINS0_14strand_service11strand_implEhE7contextEED2Ev, .-_ZN4asio6detail7tss_ptrINS0_10call_stackINS0_14strand_service11strand_implEhE7contextEED2Ev
	.weak	_ZN4asio6detail7tss_ptrINS0_10call_stackINS0_14strand_service11strand_implEhE7contextEED1Ev
	.set	_ZN4asio6detail7tss_ptrINS0_10call_stackINS0_14strand_service11strand_implEhE7contextEED1Ev,_ZN4asio6detail7tss_ptrINS0_10call_stackINS0_14strand_service11strand_implEhE7contextEED2Ev
	.section	.text._ZN4asio6detail10service_idINS0_14strand_serviceEED2Ev,"axG",@progbits,_ZN4asio6detail10service_idINS0_14strand_serviceEED5Ev,comdat
	.align 2
	.p2align 4
	.weak	_ZN4asio6detail10service_idINS0_14strand_serviceEED2Ev
	.type	_ZN4asio6detail10service_idINS0_14strand_serviceEED2Ev, @function
_ZN4asio6detail10service_idINS0_14strand_serviceEED2Ev:
.LFB9529:
	.cfi_startproc
	ret
	.cfi_endproc
.LFE9529:
	.size	_ZN4asio6detail10service_idINS0_14strand_serviceEED2Ev, .-_ZN4asio6detail10service_idINS0_14strand_serviceEED2Ev
	.weak	_ZN4asio6detail10service_idINS0_14strand_serviceEED1Ev
	.set	_ZN4asio6detail10service_idINS0_14strand_serviceEED1Ev,_ZN4asio6detail10service_idINS0_14strand_serviceEED2Ev
	.section	.text._ZNSt23_Sp_counted_ptr_inplaceIN7asiopal5TimerESaIS1_ELN9__gnu_cxx12_Lock_policyE2EED2Ev,"axG",@progbits,_ZNSt23_Sp_counted_ptr_inplaceIN7asiopal5TimerESaIS1_ELN9__gnu_cxx12_Lock_policyE2EED5Ev,comdat
	.align 2
	.p2align 4
	.weak	_ZNSt23_Sp_counted_ptr_inplaceIN7asiopal5TimerESaIS1_ELN9__gnu_cxx12_Lock_policyE2EED2Ev
	.type	_ZNSt23_Sp_counted_ptr_inplaceIN7asiopal5TimerESaIS1_ELN9__gnu_cxx12_Lock_policyE2EED2Ev, @function
_ZNSt23_Sp_counted_ptr_inplaceIN7asiopal5TimerESaIS1_ELN9__gnu_cxx12_Lock_policyE2EED2Ev:
.LFB9532:
	.cfi_startproc
	ret
	.cfi_endproc
.LFE9532:
	.size	_ZNSt23_Sp_counted_ptr_inplaceIN7asiopal5TimerESaIS1_ELN9__gnu_cxx12_Lock_policyE2EED2Ev, .-_ZNSt23_Sp_counted_ptr_inplaceIN7asiopal5TimerESaIS1_ELN9__gnu_cxx12_Lock_policyE2EED2Ev
	.weak	_ZNSt23_Sp_counted_ptr_inplaceIN7asiopal5TimerESaIS1_ELN9__gnu_cxx12_Lock_policyE2EED1Ev
	.set	_ZNSt23_Sp_counted_ptr_inplaceIN7asiopal5TimerESaIS1_ELN9__gnu_cxx12_Lock_policyE2EED1Ev,_ZNSt23_Sp_counted_ptr_inplaceIN7asiopal5TimerESaIS1_ELN9__gnu_cxx12_Lock_policyE2EED2Ev
	.section	.text._ZNSt23_Sp_counted_ptr_inplaceINSt13__future_base13_State_baseV2ESaIS1_ELN9__gnu_cxx12_Lock_policyE2EED2Ev,"axG",@progbits,_ZNSt23_Sp_counted_ptr_inplaceINSt13__future_base13_State_baseV2ESaIS1_ELN9__gnu_cxx12_Lock_policyE2EED5Ev,comdat
	.align 2
	.p2align 4
	.weak	_ZNSt23_Sp_counted_ptr_inplaceINSt13__future_base13_State_baseV2ESaIS1_ELN9__gnu_cxx12_Lock_policyE2EED2Ev
	.type	_ZNSt23_Sp_counted_ptr_inplaceINSt13__future_base13_State_baseV2ESaIS1_ELN9__gnu_cxx12_Lock_policyE2EED2Ev, @function
_ZNSt23_Sp_counted_ptr_inplaceINSt13__future_base13_State_baseV2ESaIS1_ELN9__gnu_cxx12_Lock_policyE2EED2Ev:
.LFB9546:
	.cfi_startproc
	ret
	.cfi_endproc
.LFE9546:
	.size	_ZNSt23_Sp_counted_ptr_inplaceINSt13__future_base13_State_baseV2ESaIS1_ELN9__gnu_cxx12_Lock_policyE2EED2Ev, .-_ZNSt23_Sp_counted_ptr_inplaceINSt13__future_base13_State_baseV2ESaIS1_ELN9__gnu_cxx12_Lock_policyE2EED2Ev
	.weak	_ZNSt23_Sp_counted_ptr_inplaceINSt13__future_base13_State_baseV2ESaIS1_ELN9__gnu_cxx12_Lock_policyE2EED1Ev
	.set	_ZNSt23_Sp_counted_ptr_inplaceINSt13__future_base13_State_baseV2ESaIS1_ELN9__gnu_cxx12_Lock_policyE2EED1Ev,_ZNSt23_Sp_counted_ptr_inplaceINSt13__future_base13_State_baseV2ESaIS1_ELN9__gnu_cxx12_Lock_policyE2EED2Ev
	.section	.text._ZNSt23_Sp_counted_ptr_inplaceINSt13__future_base13_State_baseV2ESaIS1_ELN9__gnu_cxx12_Lock_policyE2EE10_M_disposeEv,"axG",@progbits,_ZNSt23_Sp_counted_ptr_inplaceINSt13__future_base13_State_baseV2ESaIS1_ELN9__gnu_cxx12_Lock_policyE2EE10_M_disposeEv,comdat
	.align 2
	.p2align 4
	.weak	_ZNSt23_Sp_counted_ptr_inplaceINSt13__future_base13_State_baseV2ESaIS1_ELN9__gnu_cxx12_Lock_policyE2EE10_M_disposeEv
	.type	_ZNSt23_Sp_counted_ptr_inplaceINSt13__future_base13_State_baseV2ESaIS1_ELN9__gnu_cxx12_Lock_policyE2EE10_M_disposeEv, @function
_ZNSt23_Sp_counted_ptr_inplaceINSt13__future_base13_State_baseV2ESaIS1_ELN9__gnu_cxx12_Lock_policyE2EE10_M_disposeEv:
.LFB9549:
	.cfi_startproc
	movq	16(%rdi), %rax
	leaq	16(%rdi), %r8
	movq	%r8, %rdi
	movq	(%rax), %rax
	jmp	*%rax
	.cfi_endproc
.LFE9549:
	.size	_ZNSt23_Sp_counted_ptr_inplaceINSt13__future_base13_State_baseV2ESaIS1_ELN9__gnu_cxx12_Lock_policyE2EE10_M_disposeEv, .-_ZNSt23_Sp_counted_ptr_inplaceINSt13__future_base13_State_baseV2ESaIS1_ELN9__gnu_cxx12_Lock_policyE2EE10_M_disposeEv
	.section	.text._ZNSt13__future_base13_State_baseV2D0Ev,"axG",@progbits,_ZNSt13__future_base13_State_baseV2D5Ev,comdat
	.align 2
	.p2align 4
	.weak	_ZNSt13__future_base13_State_baseV2D0Ev
	.type	_ZNSt13__future_base13_State_baseV2D0Ev, @function
_ZNSt13__future_base13_State_baseV2D0Ev:
.LFB9454:
	.cfi_startproc
	.cfi_personality 0x9b,DW.ref.__gxx_personality_v0
	.cfi_lsda 0x1b,.LLSDA9454
	movq	_ZTVNSt13__future_base13_State_baseV2E@GOTPCREL(%rip), %rax
	pushq	%rbp
	.cfi_def_cfa_offset 16
	.cfi_offset 6, -16
	movq	%rdi, %rbp
	addq	$16, %rax
	movq	%rax, (%rdi)
	movq	8(%rdi), %rdi
	testq	%rdi, %rdi
	je	.L36
	movq	(%rdi), %rax
	call	*(%rax)
.L36:
	movq	%rbp, %rdi
	movl	$32, %esi
	popq	%rbp
	.cfi_def_cfa_offset 8
	jmp	_ZdlPvm@PLT
	.cfi_endproc
.LFE9454:
	.section	.gcc_except_table._ZNSt13__future_base13_State_baseV2D0Ev,"aG",@progbits,_ZNSt13__future_base13_State_baseV2D5Ev,comdat
.LLSDA9454:
	.byte	0xff
	.byte	0xff
	.byte	0x1
	.uleb128 .LLSDACSE9454-.LLSDACSB9454
.LLSDACSB9454:
.LLSDACSE9454:
	.section	.text._ZNSt13__future_base13_State_baseV2D0Ev,"axG",@progbits,_ZNSt13__future_base13_State_baseV2D5Ev,comdat
	.size	_ZNSt13__future_base13_State_baseV2D0Ev, .-_ZNSt13__future_base13_State_baseV2D0Ev
	.section	.text._ZNSt23_Sp_counted_ptr_inplaceINSt13__future_base13_State_baseV2ESaIS1_ELN9__gnu_cxx12_Lock_policyE2EED0Ev,"axG",@progbits,_ZNSt23_Sp_counted_ptr_inplaceINSt13__future_base13_State_baseV2ESaIS1_ELN9__gnu_cxx12_Lock_policyE2EED5Ev,comdat
	.align 2
	.p2align 4
	.weak	_ZNSt23_Sp_counted_ptr_inplaceINSt13__future_base13_State_baseV2ESaIS1_ELN9__gnu_cxx12_Lock_policyE2EED0Ev
	.type	_ZNSt23_Sp_counted_ptr_inplaceINSt13__future_base13_State_baseV2ESaIS1_ELN9__gnu_cxx12_Lock_policyE2EED0Ev, @function
_ZNSt23_Sp_counted_ptr_inplaceINSt13__future_base13_State_baseV2ESaIS1_ELN9__gnu_cxx12_Lock_policyE2EED0Ev:
.LFB9548:
	.cfi_startproc
	movl	$48, %esi
	jmp	_ZdlPvm@PLT
	.cfi_endproc
.LFE9548:
	.size	_ZNSt23_Sp_counted_ptr_inplaceINSt13__future_base13_State_baseV2ESaIS1_ELN9__gnu_cxx12_Lock_policyE2EED0Ev, .-_ZNSt23_Sp_counted_ptr_inplaceINSt13__future_base13_State_baseV2ESaIS1_ELN9__gnu_cxx12_Lock_policyE2EED0Ev
	.section	.text._ZNSt23_Sp_counted_ptr_inplaceIN7asiopal5TimerESaIS1_ELN9__gnu_cxx12_Lock_policyE2EED0Ev,"axG",@progbits,_ZNSt23_Sp_counted_ptr_inplaceIN7asiopal5TimerESaIS1_ELN9__gnu_cxx12_Lock_policyE2EED5Ev,comdat
	.align 2
	.p2align 4
	.weak	_ZNSt23_Sp_counted_ptr_inplaceIN7asiopal5TimerESaIS1_ELN9__gnu_cxx12_Lock_policyE2EED0Ev
	.type	_ZNSt23_Sp_counted_ptr_inplaceIN7asiopal5TimerESaIS1_ELN9__gnu_cxx12_Lock_policyE2EED0Ev, @function
_ZNSt23_Sp_counted_ptr_inplaceIN7asiopal5TimerESaIS1_ELN9__gnu_cxx12_Lock_policyE2EED0Ev:
.LFB9534:
	.cfi_startproc
	movl	$88, %esi
	jmp	_ZdlPvm@PLT
	.cfi_endproc
.LFE9534:
	.size	_ZNSt23_Sp_counted_ptr_inplaceIN7asiopal5TimerESaIS1_ELN9__gnu_cxx12_Lock_policyE2EED0Ev, .-_ZNSt23_Sp_counted_ptr_inplaceIN7asiopal5TimerESaIS1_ELN9__gnu_cxx12_Lock_policyE2EED0Ev
	.section	.text._ZNSt23_Sp_counted_ptr_inplaceIN7asiopal5TimerESaIS1_ELN9__gnu_cxx12_Lock_policyE2EE10_M_destroyEv,"axG",@progbits,_ZNSt23_Sp_counted_ptr_inplaceIN7asiopal5TimerESaIS1_ELN9__gnu_cxx12_Lock_policyE2EE10_M_destroyEv,comdat
	.align 2
	.p2align 4
	.weak	_ZNSt23_Sp_counted_ptr_inplaceIN7asiopal5TimerESaIS1_ELN9__gnu_cxx12_Lock_policyE2EE10_M_destroyEv
	.type	_ZNSt23_Sp_counted_ptr_inplaceIN7asiopal5TimerESaIS1_ELN9__gnu_cxx12_Lock_policyE2EE10_M_destroyEv, @function
_ZNSt23_Sp_counted_ptr_inplaceIN7asiopal5TimerESaIS1_ELN9__gnu_cxx12_Lock_policyE2EE10_M_destroyEv:
.LFB9536:
	.cfi_startproc
	movl	$88, %esi
	jmp	_ZdlPvm@PLT
	.cfi_endproc
.LFE9536:
	.size	_ZNSt23_Sp_counted_ptr_inplaceIN7asiopal5TimerESaIS1_ELN9__gnu_cxx12_Lock_policyE2EE10_M_destroyEv, .-_ZNSt23_Sp_counted_ptr_inplaceIN7asiopal5TimerESaIS1_ELN9__gnu_cxx12_Lock_policyE2EE10_M_destroyEv
	.section	.text._ZNSt23_Sp_counted_ptr_inplaceINSt13__future_base13_State_baseV2ESaIS1_ELN9__gnu_cxx12_Lock_policyE2EE10_M_destroyEv,"axG",@progbits,_ZNSt23_Sp_counted_ptr_inplaceINSt13__future_base13_State_baseV2ESaIS1_ELN9__gnu_cxx12_Lock_policyE2EE10_M_destroyEv,comdat
	.align 2
	.p2align 4
	.weak	_ZNSt23_Sp_counted_ptr_inplaceINSt13__future_base13_State_baseV2ESaIS1_ELN9__gnu_cxx12_Lock_policyE2EE10_M_destroyEv
	.type	_ZNSt23_Sp_counted_ptr_inplaceINSt13__future_base13_State_baseV2ESaIS1_ELN9__gnu_cxx12_Lock_policyE2EE10_M_destroyEv, @function
_ZNSt23_Sp_counted_ptr_inplaceINSt13__future_base13_State_baseV2ESaIS1_ELN9__gnu_cxx12_Lock_policyE2EE10_M_destroyEv:
.LFB9550:
	.cfi_startproc
	movl	$48, %esi
	jmp	_ZdlPvm@PLT
	.cfi_endproc
.LFE9550:
	.size	_ZNSt23_Sp_counted_ptr_inplaceINSt13__future_base13_State_baseV2ESaIS1_ELN9__gnu_cxx12_Lock_policyE2EE10_M_destroyEv, .-_ZNSt23_Sp_counted_ptr_inplaceINSt13__future_base13_State_baseV2ESaIS1_ELN9__gnu_cxx12_Lock_policyE2EE10_M_destroyEv
	.section	.text._ZN4asio6detail15system_categoryD2Ev,"axG",@progbits,_ZN4asio6detail15system_categoryD5Ev,comdat
	.align 2
	.p2align 4
	.weak	_ZN4asio6detail15system_categoryD2Ev
	.type	_ZN4asio6detail15system_categoryD2Ev, @function
_ZN4asio6detail15system_categoryD2Ev:
.LFB9496:
	.cfi_startproc
	movq	_ZTVN4asio6detail15system_categoryE@GOTPCREL(%rip), %rax
	addq	$16, %rax
	movq	%rax, (%rdi)
	jmp	_ZNSt3_V214error_categoryD2Ev@PLT
	.cfi_endproc
.LFE9496:
	.size	_ZN4asio6detail15system_categoryD2Ev, .-_ZN4asio6detail15system_categoryD2Ev
	.weak	_ZN4asio6detail15system_categoryD1Ev
	.set	_ZN4asio6detail15system_categoryD1Ev,_ZN4asio6detail15system_categoryD2Ev
	.section	.text._ZN4asio6detail15system_categoryD0Ev,"axG",@progbits,_ZN4asio6detail15system_categoryD5Ev,comdat
	.align 2
	.p2align 4
	.weak	_ZN4asio6detail15system_categoryD0Ev
	.type	_ZN4asio6detail15system_categoryD0Ev, @function
_ZN4asio6detail15system_categoryD0Ev:
.LFB9498:
	.cfi_startproc
	movq	_ZTVN4asio6detail15system_categoryE@GOTPCREL(%rip), %rax
	pushq	%rbp
	.cfi_def_cfa_offset 16
	.cfi_offset 6, -16
	movq	%rdi, %rbp
	addq	$16, %rax
	movq	%rax, (%rdi)
	call	_ZNSt3_V214error_categoryD2Ev@PLT
	movq	%rbp, %rdi
	movl	$8, %esi
	popq	%rbp
	.cfi_def_cfa_offset 8
	jmp	_ZdlPvm@PLT
	.cfi_endproc
.LFE9498:
	.size	_ZN4asio6detail15system_categoryD0Ev, .-_ZN4asio6detail15system_categoryD0Ev
	.section	.text._ZN4asio5error6detail14netdb_categoryD2Ev,"axG",@progbits,_ZN4asio5error6detail14netdb_categoryD5Ev,comdat
	.align 2
	.p2align 4
	.weak	_ZN4asio5error6detail14netdb_categoryD2Ev
	.type	_ZN4asio5error6detail14netdb_categoryD2Ev, @function
_ZN4asio5error6detail14netdb_categoryD2Ev:
.LFB9484:
	.cfi_startproc
	movq	_ZTVN4asio5error6detail14netdb_categoryE@GOTPCREL(%rip), %rax
	addq	$16, %rax
	movq	%rax, (%rdi)
	jmp	_ZNSt3_V214error_categoryD2Ev@PLT
	.cfi_endproc
.LFE9484:
	.size	_ZN4asio5error6detail14netdb_categoryD2Ev, .-_ZN4asio5error6detail14netdb_categoryD2Ev
	.weak	_ZN4asio5error6detail14netdb_categoryD1Ev
	.set	_ZN4asio5error6detail14netdb_categoryD1Ev,_ZN4asio5error6detail14netdb_categoryD2Ev
	.section	.text._ZN4asio5error6detail14netdb_categoryD0Ev,"axG",@progbits,_ZN4asio5error6detail14netdb_categoryD5Ev,comdat
	.align 2
	.p2align 4
	.weak	_ZN4asio5error6detail14netdb_categoryD0Ev
	.type	_ZN4asio5error6detail14netdb_categoryD0Ev, @function
_ZN4asio5error6detail14netdb_categoryD0Ev:
.LFB9486:
	.cfi_startproc
	movq	_ZTVN4asio5error6detail14netdb_categoryE@GOTPCREL(%rip), %rax
	pushq	%rbp
	.cfi_def_cfa_offset 16
	.cfi_offset 6, -16
	movq	%rdi, %rbp
	addq	$16, %rax
	movq	%rax, (%rdi)
	call	_ZNSt3_V214error_categoryD2Ev@PLT
	movq	%rbp, %rdi
	movl	$8, %esi
	popq	%rbp
	.cfi_def_cfa_offset 8
	jmp	_ZdlPvm@PLT
	.cfi_endproc
.LFE9486:
	.size	_ZN4asio5error6detail14netdb_categoryD0Ev, .-_ZN4asio5error6detail14netdb_categoryD0Ev
	.section	.text._ZN4asio5error6detail17addrinfo_categoryD2Ev,"axG",@progbits,_ZN4asio5error6detail17addrinfo_categoryD5Ev,comdat
	.align 2
	.p2align 4
	.weak	_ZN4asio5error6detail17addrinfo_categoryD2Ev
	.type	_ZN4asio5error6detail17addrinfo_categoryD2Ev, @function
_ZN4asio5error6detail17addrinfo_categoryD2Ev:
.LFB9480:
	.cfi_startproc
	movq	_ZTVN4asio5error6detail17addrinfo_categoryE@GOTPCREL(%rip), %rax
	addq	$16, %rax
	movq	%rax, (%rdi)
	jmp	_ZNSt3_V214error_categoryD2Ev@PLT
	.cfi_endproc
.LFE9480:
	.size	_ZN4asio5error6detail17addrinfo_categoryD2Ev, .-_ZN4asio5error6detail17addrinfo_categoryD2Ev
	.weak	_ZN4asio5error6detail17addrinfo_categoryD1Ev
	.set	_ZN4asio5error6detail17addrinfo_categoryD1Ev,_ZN4asio5error6detail17addrinfo_categoryD2Ev
	.section	.text._ZN4asio5error6detail17addrinfo_categoryD0Ev,"axG",@progbits,_ZN4asio5error6detail17addrinfo_categoryD5Ev,comdat
	.align 2
	.p2align 4
	.weak	_ZN4asio5error6detail17addrinfo_categoryD0Ev
	.type	_ZN4asio5error6detail17addrinfo_categoryD0Ev, @function
_ZN4asio5error6detail17addrinfo_categoryD0Ev:
.LFB9482:
	.cfi_startproc
	movq	_ZTVN4asio5error6detail17addrinfo_categoryE@GOTPCREL(%rip), %rax
	pushq	%rbp
	.cfi_def_cfa_offset 16
	.cfi_offset 6, -16
	movq	%rdi, %rbp
	addq	$16, %rax
	movq	%rax, (%rdi)
	call	_ZNSt3_V214error_categoryD2Ev@PLT
	movq	%rbp, %rdi
	movl	$8, %esi
	popq	%rbp
	.cfi_def_cfa_offset 8
	jmp	_ZdlPvm@PLT
	.cfi_endproc
.LFE9482:
	.size	_ZN4asio5error6detail17addrinfo_categoryD0Ev, .-_ZN4asio5error6detail17addrinfo_categoryD0Ev
	.section	.text._ZN4asio5error6detail13misc_categoryD2Ev,"axG",@progbits,_ZN4asio5error6detail13misc_categoryD5Ev,comdat
	.align 2
	.p2align 4
	.weak	_ZN4asio5error6detail13misc_categoryD2Ev
	.type	_ZN4asio5error6detail13misc_categoryD2Ev, @function
_ZN4asio5error6detail13misc_categoryD2Ev:
.LFB9476:
	.cfi_startproc
	movq	_ZTVN4asio5error6detail13misc_categoryE@GOTPCREL(%rip), %rax
	addq	$16, %rax
	movq	%rax, (%rdi)
	jmp	_ZNSt3_V214error_categoryD2Ev@PLT
	.cfi_endproc
.LFE9476:
	.size	_ZN4asio5error6detail13misc_categoryD2Ev, .-_ZN4asio5error6detail13misc_categoryD2Ev
	.weak	_ZN4asio5error6detail13misc_categoryD1Ev
	.set	_ZN4asio5error6detail13misc_categoryD1Ev,_ZN4asio5error6detail13misc_categoryD2Ev
	.section	.text._ZN4asio5error6detail13misc_categoryD0Ev,"axG",@progbits,_ZN4asio5error6detail13misc_categoryD5Ev,comdat
	.align 2
	.p2align 4
	.weak	_ZN4asio5error6detail13misc_categoryD0Ev
	.type	_ZN4asio5error6detail13misc_categoryD0Ev, @function
_ZN4asio5error6detail13misc_categoryD0Ev:
.LFB9478:
	.cfi_startproc
	movq	_ZTVN4asio5error6detail13misc_categoryE@GOTPCREL(%rip), %rax
	pushq	%rbp
	.cfi_def_cfa_offset 16
	.cfi_offset 6, -16
	movq	%rdi, %rbp
	addq	$16, %rax
	movq	%rax, (%rdi)
	call	_ZNSt3_V214error_categoryD2Ev@PLT
	movq	%rbp, %rdi
	movl	$8, %esi
	popq	%rbp
	.cfi_def_cfa_offset 8
	jmp	_ZdlPvm@PLT
	.cfi_endproc
.LFE9478:
	.size	_ZN4asio5error6detail13misc_categoryD0Ev, .-_ZN4asio5error6detail13misc_categoryD0Ev
	.section	.text._ZNSt13__future_base7_ResultIbED2Ev,"axG",@progbits,_ZNSt13__future_base7_ResultIbED5Ev,comdat
	.align 2
	.p2align 4
	.weak	_ZNSt13__future_base7_ResultIbED2Ev
	.type	_ZNSt13__future_base7_ResultIbED2Ev, @function
_ZNSt13__future_base7_ResultIbED2Ev:
.LFB9568:
	.cfi_startproc
	movq	_ZTVNSt13__future_base7_ResultIbEE@GOTPCREL(%rip), %rax
	addq	$16, %rax
	movq	%rax, (%rdi)
	jmp	_ZNSt13__future_base12_Result_baseD2Ev@PLT
	.cfi_endproc
.LFE9568:
	.size	_ZNSt13__future_base7_ResultIbED2Ev, .-_ZNSt13__future_base7_ResultIbED2Ev
	.weak	_ZNSt13__future_base7_ResultIbED1Ev
	.set	_ZNSt13__future_base7_ResultIbED1Ev,_ZNSt13__future_base7_ResultIbED2Ev
	.section	.text._ZNSt13__future_base7_ResultIbED0Ev,"axG",@progbits,_ZNSt13__future_base7_ResultIbED5Ev,comdat
	.align 2
	.p2align 4
	.weak	_ZNSt13__future_base7_ResultIbED0Ev
	.type	_ZNSt13__future_base7_ResultIbED0Ev, @function
_ZNSt13__future_base7_ResultIbED0Ev:
.LFB9570:
	.cfi_startproc
	movq	_ZTVNSt13__future_base7_ResultIbEE@GOTPCREL(%rip), %rax
	pushq	%rbp
	.cfi_def_cfa_offset 16
	.cfi_offset 6, -16
	movq	%rdi, %rbp
	addq	$16, %rax
	movq	%rax, (%rdi)
	call	_ZNSt13__future_base12_Result_baseD2Ev@PLT
	movq	%rbp, %rdi
	movl	$24, %esi
	popq	%rbp
	.cfi_def_cfa_offset 8
	jmp	_ZdlPvm@PLT
	.cfi_endproc
.LFE9570:
	.size	_ZNSt13__future_base7_ResultIbED0Ev, .-_ZNSt13__future_base7_ResultIbED0Ev
	.text
	.align 2
	.p2align 4
	.globl	_ZN7asiopal8Executor7GetTimeEv
	.type	_ZN7asiopal8Executor7GetTimeEv, @function
_ZN7asiopal8Executor7GetTimeEv:
.LFB6987:
	.cfi_startproc
	subq	$24, %rsp
	.cfi_def_cfa_offset 32
	movq	%fs:40, %rax
	movq	%rax, 8(%rsp)
	xorl	%eax, %eax
	call	_ZNSt6chrono3_V212steady_clock3nowEv@PLT
	movq	%rsp, %rdi
	movq	%rax, (%rsp)
	call	_ZN7asiopal15TimeConversions7ConvertERKNSt6chrono10time_pointINS1_3_V212steady_clockENS1_8durationIlSt5ratioILl1ELl1000000000EEEEEE@PLT
	movq	8(%rsp), %rdx
	subq	%fs:40, %rdx
	jne	.L63
	addq	$24, %rsp
	.cfi_remember_state
	.cfi_def_cfa_offset 8
	ret
.L63:
	.cfi_restore_state
	call	__stack_chk_fail@PLT
	.cfi_endproc
.LFE6987:
	.size	_ZN7asiopal8Executor7GetTimeEv, .-_ZN7asiopal8Executor7GetTimeEv
	.section	.text._ZNSt13__future_base13_State_baseV29_M_do_setEPSt8functionIFSt10unique_ptrINS_12_Result_baseENS3_8_DeleterEEvEEPb,"axG",@progbits,_ZNSt13__future_base13_State_baseV29_M_do_setEPSt8functionIFSt10unique_ptrINS_12_Result_baseENS3_8_DeleterEEvEEPb,comdat
	.align 2
	.p2align 4
	.weak	_ZNSt13__future_base13_State_baseV29_M_do_setEPSt8functionIFSt10unique_ptrINS_12_Result_baseENS3_8_DeleterEEvEEPb
	.type	_ZNSt13__future_base13_State_baseV29_M_do_setEPSt8functionIFSt10unique_ptrINS_12_Result_baseENS3_8_DeleterEEvEEPb, @function
_ZNSt13__future_base13_State_baseV29_M_do_setEPSt8functionIFSt10unique_ptrINS_12_Result_baseENS3_8_DeleterEEvEEPb:
.LFB6716:
	.cfi_startproc
	.cfi_personality 0x9b,DW.ref.__gxx_personality_v0
	.cfi_lsda 0x1b,.LLSDA6716
	pushq	%rbp
	.cfi_def_cfa_offset 16
	.cfi_offset 6, -16
	pushq	%rbx
	.cfi_def_cfa_offset 24
	.cfi_offset 3, -24
	subq	$24, %rsp
	.cfi_def_cfa_offset 48
	movq	%fs:40, %rax
	movq	%rax, 8(%rsp)
	xorl	%eax, %eax
	cmpq	$0, 16(%rsi)
	je	.L72
	movq	%rdi, %rbx
	movq	%rdx, %rbp
	movq	%rsp, %rdi
.LEHB0:
	call	*24(%rsi)
.LEHE0:
	movq	8(%rbx), %rdi
	movq	(%rsp), %rax
	movb	$1, 0(%rbp)
	movq	%rdi, (%rsp)
	movq	%rax, 8(%rbx)
	testq	%rdi, %rdi
	je	.L64
	movq	(%rdi), %rax
	call	*(%rax)
.L64:
	movq	8(%rsp), %rax
	subq	%fs:40, %rax
	jne	.L73
	addq	$24, %rsp
	.cfi_remember_state
	.cfi_def_cfa_offset 24
	popq	%rbx
	.cfi_def_cfa_offset 16
	popq	%rbp
	.cfi_def_cfa_offset 8
	ret
.L72:
	.cfi_restore_state
.LEHB1:
	call	_ZSt25__throw_bad_function_callv@PLT
.LEHE1:
.L73:
	call	__stack_chk_fail@PLT
	.cfi_endproc
.LFE6716:
	.section	.gcc_except_table._ZNSt13__future_base13_State_baseV29_M_do_setEPSt8functionIFSt10unique_ptrINS_12_Result_baseENS3_8_DeleterEEvEEPb,"aG",@progbits,_ZNSt13__future_base13_State_baseV29_M_do_setEPSt8functionIFSt10unique_ptrINS_12_Result_baseENS3_8_DeleterEEvEEPb,comdat
.LLSDA6716:
	.byte	0xff
	.byte	0xff
	.byte	0x1
	.uleb128 .LLSDACSE6716-.LLSDACSB6716
.LLSDACSB6716:
	.uleb128 .LEHB0-.LFB6716
	.uleb128 .LEHE0-.LEHB0
	.uleb128 0
	.uleb128 0
	.uleb128 .LEHB1-.LFB6716
	.uleb128 .LEHE1-.LEHB1
	.uleb128 0
	.uleb128 0
.LLSDACSE6716:
	.section	.text._ZNSt13__future_base13_State_baseV29_M_do_setEPSt8functionIFSt10unique_ptrINS_12_Result_baseENS3_8_DeleterEEvEEPb,"axG",@progbits,_ZNSt13__future_base13_State_baseV29_M_do_setEPSt8functionIFSt10unique_ptrINS_12_Result_baseENS3_8_DeleterEEvEEPb,comdat
	.size	_ZNSt13__future_base13_State_baseV29_M_do_setEPSt8functionIFSt10unique_ptrINS_12_Result_baseENS3_8_DeleterEEvEEPb, .-_ZNSt13__future_base13_State_baseV29_M_do_setEPSt8functionIFSt10unique_ptrINS_12_Result_baseENS3_8_DeleterEEvEEPb
	.text
	.p2align 4
	.type	_ZNSt17_Function_handlerIFvvEZN7asiopal8Executor18BlockUntilAndFlushERKSt8functionIS0_EEUlvE_E10_M_managerERSt9_Any_dataRKS9_St18_Manager_operation, @function
_ZNSt17_Function_handlerIFvvEZN7asiopal8Executor18BlockUntilAndFlushERKSt8functionIS0_EEUlvE_E10_M_managerERSt9_Any_dataRKS9_St18_Manager_operation:
.LFB8318:
	.cfi_startproc
	testl	%edx, %edx
	je	.L75
	cmpl	$1, %edx
	jne	.L77
	movq	%rsi, (%rdi)
.L77:
	xorl	%eax, %eax
	ret
	.p2align 4,,10
	.p2align 3
.L75:
	leaq	_ZTIZN7asiopal8Executor18BlockUntilAndFlushERKSt8functionIFvvEEEUlvE_(%rip), %rax
	movq	%rax, (%rdi)
	xorl	%eax, %eax
	ret
	.cfi_endproc
.LFE8318:
	.size	_ZNSt17_Function_handlerIFvvEZN7asiopal8Executor18BlockUntilAndFlushERKSt8functionIS0_EEUlvE_E10_M_managerERSt9_Any_dataRKS9_St18_Manager_operation, .-_ZNSt17_Function_handlerIFvvEZN7asiopal8Executor18BlockUntilAndFlushERKSt8functionIS0_EEUlvE_E10_M_managerERSt9_Any_dataRKS9_St18_Manager_operation
	.section	.text._ZNSt17_Function_handlerIFSt10unique_ptrINSt13__future_base12_Result_baseENS2_8_DeleterEEvENS1_13_State_baseV27_SetterIbObEEE10_M_managerERSt9_Any_dataRKSB_St18_Manager_operation,"axG",@progbits,_ZNSt17_Function_handlerIFSt10unique_ptrINSt13__future_base12_Result_baseENS2_8_DeleterEEvENS1_13_State_baseV27_SetterIbObEEE10_M_managerERSt9_Any_dataRKSB_St18_Manager_operation,comdat
	.p2align 4
	.weak	_ZNSt17_Function_handlerIFSt10unique_ptrINSt13__future_base12_Result_baseENS2_8_DeleterEEvENS1_13_State_baseV27_SetterIbObEEE10_M_managerERSt9_Any_dataRKSB_St18_Manager_operation
	.type	_ZNSt17_Function_handlerIFSt10unique_ptrINSt13__future_base12_Result_baseENS2_8_DeleterEEvENS1_13_State_baseV27_SetterIbObEEE10_M_managerERSt9_Any_dataRKSB_St18_Manager_operation, @function
_ZNSt17_Function_handlerIFSt10unique_ptrINSt13__future_base12_Result_baseENS2_8_DeleterEEvENS1_13_State_baseV27_SetterIbObEEE10_M_managerERSt9_Any_dataRKSB_St18_Manager_operation:
.LFB8574:
	.cfi_startproc
	testl	%edx, %edx
	je	.L79
	cmpl	$1, %edx
	je	.L80
	cmpl	$2, %edx
	je	.L84
.L82:
	xorl	%eax, %eax
	ret
	.p2align 4,,10
	.p2align 3
.L79:
	movq	_ZTINSt13__future_base13_State_baseV27_SetterIbObEE@GOTPCREL(%rip), %rax
	movq	%rax, (%rdi)
	xorl	%eax, %eax
	ret
	.p2align 4,,10
	.p2align 3
.L80:
	movq	%rsi, (%rdi)
	xorl	%eax, %eax
	ret
	.p2align 4,,10
	.p2align 3
.L84:
	movdqu	(%rsi), %xmm0
	movups	%xmm0, (%rdi)
	jmp	.L82
	.cfi_endproc
.LFE8574:
	.size	_ZNSt17_Function_handlerIFSt10unique_ptrINSt13__future_base12_Result_baseENS2_8_DeleterEEvENS1_13_State_baseV27_SetterIbObEEE10_M_managerERSt9_Any_dataRKSB_St18_Manager_operation, .-_ZNSt17_Function_handlerIFSt10unique_ptrINSt13__future_base12_Result_baseENS2_8_DeleterEEvENS1_13_State_baseV27_SetterIbObEEE10_M_managerERSt9_Any_dataRKSB_St18_Manager_operation
	.section	.text._ZNSt13__future_base7_ResultIbE10_M_destroyEv,"axG",@progbits,_ZNSt13__future_base7_ResultIbE10_M_destroyEv,comdat
	.align 2
	.p2align 4
	.weak	_ZNSt13__future_base7_ResultIbE10_M_destroyEv
	.type	_ZNSt13__future_base7_ResultIbE10_M_destroyEv, @function
_ZNSt13__future_base7_ResultIbE10_M_destroyEv:
.LFB9566:
	.cfi_startproc
	pushq	%rbp
	.cfi_def_cfa_offset 16
	.cfi_offset 6, -16
	movq	(%rdi), %rax
	movq	%rdi, %rbp
	movq	16(%rax), %rax
	cmpq	_ZNSt13__future_base7_ResultIbED0Ev@GOTPCREL(%rip), %rax
	jne	.L86
	movq	_ZTVNSt13__future_base7_ResultIbEE@GOTPCREL(%rip), %rax
	addq	$16, %rax
	movq	%rax, (%rdi)
	call	_ZNSt13__future_base12_Result_baseD2Ev@PLT
	movq	%rbp, %rdi
	movl	$24, %esi
	popq	%rbp
	.cfi_remember_state
	.cfi_def_cfa_offset 8
	jmp	_ZdlPvm@PLT
	.p2align 4,,10
	.p2align 3
.L86:
	.cfi_restore_state
	popq	%rbp
	.cfi_def_cfa_offset 8
	jmp	*%rax
	.cfi_endproc
.LFE9566:
	.size	_ZNSt13__future_base7_ResultIbE10_M_destroyEv, .-_ZNSt13__future_base7_ResultIbE10_M_destroyEv
	.section	.text._ZN4asio6detail14strand_serviceD2Ev,"axG",@progbits,_ZN4asio6detail14strand_serviceD5Ev,comdat
	.align 2
	.p2align 4
	.weak	_ZN4asio6detail14strand_serviceD2Ev
	.type	_ZN4asio6detail14strand_serviceD2Ev, @function
_ZN4asio6detail14strand_serviceD2Ev:
.LFB9456:
	.cfi_startproc
	.cfi_personality 0x9b,DW.ref.__gxx_personality_v0
	.cfi_lsda 0x1b,.LLSDA9456
	pushq	%r15
	.cfi_def_cfa_offset 16
	.cfi_offset 15, -16
	pushq	%r14
	.cfi_def_cfa_offset 24
	.cfi_offset 14, -24
	pushq	%r13
	.cfi_def_cfa_offset 32
	.cfi_offset 13, -32
	movq	%rdi, %r13
	pushq	%r12
	.cfi_def_cfa_offset 40
	.cfi_offset 12, -40
	leaq	80(%rdi), %r12
	pushq	%rbp
	.cfi_def_cfa_offset 48
	.cfi_offset 6, -48
	leaq	1624(%rdi), %rbp
	pushq	%rbx
	.cfi_def_cfa_offset 56
	.cfi_offset 3, -56
	subq	$56, %rsp
	.cfi_def_cfa_offset 112
	movq	%fs:40, %rax
	movq	%rax, 40(%rsp)
	movq	_ZTVN4asio6detail14strand_serviceE@GOTPCREL(%rip), %rax
	leaq	16(%rsp), %rbx
	addq	$16, %rax
	movq	%rax, (%rdi)
	.p2align 4,,10
	.p2align 3
.L98:
	movq	0(%rbp), %r15
	testq	%r15, %r15
	je	.L89
	movq	88(%r15), %rsi
	testq	%rsi, %rsi
	movq	%rsi, 8(%rsp)
	je	.L90
	call	_ZNSt3_V215system_categoryEv@PLT
	movq	8(%rsp), %rsi
	movq	%rax, %r14
	jmp	.L93
	.p2align 4,,10
	.p2align 3
.L91:
	movq	$0, (%rsi)
	movq	8(%rsi), %rax
	xorl	%ecx, %ecx
	movq	%rbx, %rdx
	movl	$0, 16(%rsp)
	xorl	%edi, %edi
	movq	%r14, 24(%rsp)
	call	*%rax
	movq	88(%r15), %rsi
	testq	%rsi, %rsi
	je	.L90
.L93:
	movq	(%rsi), %rax
	movq	%rax, 88(%r15)
	testq	%rax, %rax
	jne	.L91
	movq	$0, 96(%r15)
	jmp	.L91
	.p2align 4,,10
	.p2align 3
.L94:
	leaq	24(%r15), %rdi
	call	pthread_mutex_destroy@PLT
	movl	$104, %esi
	movq	%r15, %rdi
	call	_ZdlPvm@PLT
.L89:
	subq	$8, %rbp
	cmpq	%rbp, %r12
	jne	.L98
	movq	40(%rsp), %rax
	subq	%fs:40, %rax
	jne	.L126
	addq	$56, %rsp
	.cfi_remember_state
	.cfi_def_cfa_offset 56
	leaq	48(%r13), %rdi
	popq	%rbx
	.cfi_def_cfa_offset 48
	popq	%rbp
	.cfi_def_cfa_offset 40
	popq	%r12
	.cfi_def_cfa_offset 32
	popq	%r13
	.cfi_def_cfa_offset 24
	popq	%r14
	.cfi_def_cfa_offset 16
	popq	%r15
	.cfi_def_cfa_offset 8
	jmp	pthread_mutex_destroy@PLT
	.p2align 4,,10
	.p2align 3
.L90:
	.cfi_restore_state
	movq	72(%r15), %rsi
	testq	%rsi, %rsi
	movq	%rsi, 8(%rsp)
	je	.L94
	call	_ZNSt3_V215system_categoryEv@PLT
	movq	8(%rsp), %rsi
	movq	%rax, %r14
	jmp	.L97
	.p2align 4,,10
	.p2align 3
.L95:
	movq	$0, (%rsi)
	movq	8(%rsi), %rax
	xorl	%ecx, %ecx
	movq	%rbx, %rdx
	movl	$0, 16(%rsp)
	xorl	%edi, %edi
	movq	%r14, 24(%rsp)
	call	*%rax
	movq	72(%r15), %rsi
	testq	%rsi, %rsi
	je	.L94
.L97:
	movq	(%rsi), %rax
	movq	%rax, 72(%r15)
	testq	%rax, %rax
	jne	.L95
	movq	$0, 80(%r15)
	jmp	.L95
.L126:
	call	__stack_chk_fail@PLT
	.cfi_endproc
.LFE9456:
	.section	.gcc_except_table._ZN4asio6detail14strand_serviceD2Ev,"aG",@progbits,_ZN4asio6detail14strand_serviceD5Ev,comdat
.LLSDA9456:
	.byte	0xff
	.byte	0xff
	.byte	0x1
	.uleb128 .LLSDACSE9456-.LLSDACSB9456
.LLSDACSB9456:
.LLSDACSE9456:
	.section	.text._ZN4asio6detail14strand_serviceD2Ev,"axG",@progbits,_ZN4asio6detail14strand_serviceD5Ev,comdat
	.size	_ZN4asio6detail14strand_serviceD2Ev, .-_ZN4asio6detail14strand_serviceD2Ev
	.weak	_ZN4asio6detail14strand_serviceD1Ev
	.set	_ZN4asio6detail14strand_serviceD1Ev,_ZN4asio6detail14strand_serviceD2Ev
	.section	.text._ZNSt23_Sp_counted_ptr_inplaceIN7asiopal5TimerESaIS1_ELN9__gnu_cxx12_Lock_policyE2EE14_M_get_deleterERKSt9type_info,"axG",@progbits,_ZNSt23_Sp_counted_ptr_inplaceIN7asiopal5TimerESaIS1_ELN9__gnu_cxx12_Lock_policyE2EE14_M_get_deleterERKSt9type_info,comdat
	.align 2
	.p2align 4
	.weak	_ZNSt23_Sp_counted_ptr_inplaceIN7asiopal5TimerESaIS1_ELN9__gnu_cxx12_Lock_policyE2EE14_M_get_deleterERKSt9type_info
	.type	_ZNSt23_Sp_counted_ptr_inplaceIN7asiopal5TimerESaIS1_ELN9__gnu_cxx12_Lock_policyE2EE14_M_get_deleterERKSt9type_info, @function
_ZNSt23_Sp_counted_ptr_inplaceIN7asiopal5TimerESaIS1_ELN9__gnu_cxx12_Lock_policyE2EE14_M_get_deleterERKSt9type_info:
.LFB9537:
	.cfi_startproc
	cmpq	_ZZNSt19_Sp_make_shared_tag5_S_tiEvE5__tag@GOTPCREL(%rip), %rsi
	pushq	%r12
	.cfi_def_cfa_offset 16
	.cfi_offset 12, -16
	leaq	16(%rdi), %r12
	je	.L127
	movq	8(%rsi), %rdi
	movq	_ZTSSt19_Sp_make_shared_tag@GOTPCREL(%rip), %rsi
	cmpq	%rsi, %rdi
	je	.L127
	cmpb	$42, (%rdi)
	je	.L129
	call	strcmp@PLT
	testl	%eax, %eax
	movl	$0, %eax
	cmovne	%rax, %r12
.L127:
	movq	%r12, %rax
	popq	%r12
	.cfi_remember_state
	.cfi_def_cfa_offset 8
	ret
	.p2align 4,,10
	.p2align 3
.L129:
	.cfi_restore_state
	xorl	%r12d, %r12d
	movq	%r12, %rax
	popq	%r12
	.cfi_def_cfa_offset 8
	ret
	.cfi_endproc
.LFE9537:
	.size	_ZNSt23_Sp_counted_ptr_inplaceIN7asiopal5TimerESaIS1_ELN9__gnu_cxx12_Lock_policyE2EE14_M_get_deleterERKSt9type_info, .-_ZNSt23_Sp_counted_ptr_inplaceIN7asiopal5TimerESaIS1_ELN9__gnu_cxx12_Lock_policyE2EE14_M_get_deleterERKSt9type_info
	.section	.text._ZNSt23_Sp_counted_ptr_inplaceINSt13__future_base13_State_baseV2ESaIS1_ELN9__gnu_cxx12_Lock_policyE2EE14_M_get_deleterERKSt9type_info,"axG",@progbits,_ZNSt23_Sp_counted_ptr_inplaceINSt13__future_base13_State_baseV2ESaIS1_ELN9__gnu_cxx12_Lock_policyE2EE14_M_get_deleterERKSt9type_info,comdat
	.align 2
	.p2align 4
	.weak	_ZNSt23_Sp_counted_ptr_inplaceINSt13__future_base13_State_baseV2ESaIS1_ELN9__gnu_cxx12_Lock_policyE2EE14_M_get_deleterERKSt9type_info
	.type	_ZNSt23_Sp_counted_ptr_inplaceINSt13__future_base13_State_baseV2ESaIS1_ELN9__gnu_cxx12_Lock_policyE2EE14_M_get_deleterERKSt9type_info, @function
_ZNSt23_Sp_counted_ptr_inplaceINSt13__future_base13_State_baseV2ESaIS1_ELN9__gnu_cxx12_Lock_policyE2EE14_M_get_deleterERKSt9type_info:
.LFB9551:
	.cfi_startproc
	cmpq	_ZZNSt19_Sp_make_shared_tag5_S_tiEvE5__tag@GOTPCREL(%rip), %rsi
	pushq	%r12
	.cfi_def_cfa_offset 16
	.cfi_offset 12, -16
	leaq	16(%rdi), %r12
	je	.L132
	movq	8(%rsi), %rdi
	movq	_ZTSSt19_Sp_make_shared_tag@GOTPCREL(%rip), %rsi
	cmpq	%rsi, %rdi
	je	.L132
	cmpb	$42, (%rdi)
	je	.L134
	call	strcmp@PLT
	testl	%eax, %eax
	movl	$0, %eax
	cmovne	%rax, %r12
.L132:
	movq	%r12, %rax
	popq	%r12
	.cfi_remember_state
	.cfi_def_cfa_offset 8
	ret
	.p2align 4,,10
	.p2align 3
.L134:
	.cfi_restore_state
	xorl	%r12d, %r12d
	movq	%r12, %rax
	popq	%r12
	.cfi_def_cfa_offset 8
	ret
	.cfi_endproc
.LFE9551:
	.size	_ZNSt23_Sp_counted_ptr_inplaceINSt13__future_base13_State_baseV2ESaIS1_ELN9__gnu_cxx12_Lock_policyE2EE14_M_get_deleterERKSt9type_info, .-_ZNSt23_Sp_counted_ptr_inplaceINSt13__future_base13_State_baseV2ESaIS1_ELN9__gnu_cxx12_Lock_policyE2EE14_M_get_deleterERKSt9type_info
	.section	.text._ZN4asio6detail14strand_serviceD0Ev,"axG",@progbits,_ZN4asio6detail14strand_serviceD5Ev,comdat
	.align 2
	.p2align 4
	.weak	_ZN4asio6detail14strand_serviceD0Ev
	.type	_ZN4asio6detail14strand_serviceD0Ev, @function
_ZN4asio6detail14strand_serviceD0Ev:
.LFB9458:
	.cfi_startproc
	.cfi_personality 0x9b,DW.ref.__gxx_personality_v0
	.cfi_lsda 0x1b,.LLSDA9458
	pushq	%r15
	.cfi_def_cfa_offset 16
	.cfi_offset 15, -16
	pushq	%r14
	.cfi_def_cfa_offset 24
	.cfi_offset 14, -24
	pushq	%r13
	.cfi_def_cfa_offset 32
	.cfi_offset 13, -32
	leaq	80(%rdi), %r13
	pushq	%r12
	.cfi_def_cfa_offset 40
	.cfi_offset 12, -40
	pushq	%rbp
	.cfi_def_cfa_offset 48
	.cfi_offset 6, -48
	pushq	%rbx
	.cfi_def_cfa_offset 56
	.cfi_offset 3, -56
	leaq	1624(%rdi), %rbx
	subq	$56, %rsp
	.cfi_def_cfa_offset 112
	movq	%rdi, 8(%rsp)
	leaq	16(%rsp), %r14
	movq	%fs:40, %rax
	movq	%rax, 40(%rsp)
	movq	_ZTVN4asio6detail14strand_serviceE@GOTPCREL(%rip), %rax
	addq	$16, %rax
	movq	%rax, (%rdi)
	.p2align 4,,10
	.p2align 3
.L147:
	movq	(%rbx), %rbp
	testq	%rbp, %rbp
	je	.L138
	movq	88(%rbp), %r12
	testq	%r12, %r12
	je	.L139
	call	_ZNSt3_V215system_categoryEv@PLT
	movq	%rax, %r15
	jmp	.L142
	.p2align 4,,10
	.p2align 3
.L140:
	movq	$0, (%r12)
	movq	%r12, %rsi
	xorl	%ecx, %ecx
	movq	%r14, %rdx
	movq	8(%r12), %r8
	xorl	%edi, %edi
	movq	%r15, 24(%rsp)
	movl	$0, 16(%rsp)
	call	*%r8
	movq	88(%rbp), %r12
	testq	%r12, %r12
	je	.L139
.L142:
	movq	(%r12), %rdx
	movq	%rdx, 88(%rbp)
	testq	%rdx, %rdx
	jne	.L140
	movq	$0, 96(%rbp)
	jmp	.L140
	.p2align 4,,10
	.p2align 3
.L143:
	leaq	24(%rbp), %rdi
	call	pthread_mutex_destroy@PLT
	movl	$104, %esi
	movq	%rbp, %rdi
	call	_ZdlPvm@PLT
.L138:
	subq	$8, %rbx
	cmpq	%rbx, %r13
	jne	.L147
	movq	8(%rsp), %rax
	leaq	48(%rax), %rdi
	call	pthread_mutex_destroy@PLT
	movq	40(%rsp), %rax
	subq	%fs:40, %rax
	jne	.L175
	movq	8(%rsp), %rdi
	addq	$56, %rsp
	.cfi_remember_state
	.cfi_def_cfa_offset 56
	movl	$1640, %esi
	popq	%rbx
	.cfi_def_cfa_offset 48
	popq	%rbp
	.cfi_def_cfa_offset 40
	popq	%r12
	.cfi_def_cfa_offset 32
	popq	%r13
	.cfi_def_cfa_offset 24
	popq	%r14
	.cfi_def_cfa_offset 16
	popq	%r15
	.cfi_def_cfa_offset 8
	jmp	_ZdlPvm@PLT
	.p2align 4,,10
	.p2align 3
.L139:
	.cfi_restore_state
	movq	72(%rbp), %r12
	testq	%r12, %r12
	je	.L143
	call	_ZNSt3_V215system_categoryEv@PLT
	movq	%rax, %r15
	jmp	.L146
	.p2align 4,,10
	.p2align 3
.L144:
	movq	$0, (%r12)
	movq	%r12, %rsi
	xorl	%ecx, %ecx
	movq	%r14, %rdx
	movq	8(%r12), %r8
	xorl	%edi, %edi
	movq	%r15, 24(%rsp)
	movl	$0, 16(%rsp)
	call	*%r8
	movq	72(%rbp), %r12
	testq	%r12, %r12
	je	.L143
.L146:
	movq	(%r12), %rdx
	movq	%rdx, 72(%rbp)
	testq	%rdx, %rdx
	jne	.L144
	movq	$0, 80(%rbp)
	jmp	.L144
.L175:
	call	__stack_chk_fail@PLT
	.cfi_endproc
.LFE9458:
	.section	.gcc_except_table._ZN4asio6detail14strand_serviceD0Ev,"aG",@progbits,_ZN4asio6detail14strand_serviceD5Ev,comdat
.LLSDA9458:
	.byte	0xff
	.byte	0xff
	.byte	0x1
	.uleb128 .LLSDACSE9458-.LLSDACSB9458
.LLSDACSB9458:
.LLSDACSE9458:
	.section	.text._ZN4asio6detail14strand_serviceD0Ev,"axG",@progbits,_ZN4asio6detail14strand_serviceD5Ev,comdat
	.size	_ZN4asio6detail14strand_serviceD0Ev, .-_ZN4asio6detail14strand_serviceD0Ev
	.section	.text._ZN4asio6detail14strand_service16shutdown_serviceEv,"axG",@progbits,_ZN4asio6detail14strand_service16shutdown_serviceEv,comdat
	.align 2
	.p2align 4
	.weak	_ZN4asio6detail14strand_service16shutdown_serviceEv
	.type	_ZN4asio6detail14strand_service16shutdown_serviceEv, @function
_ZN4asio6detail14strand_service16shutdown_serviceEv:
.LFB6401:
	.cfi_startproc
	.cfi_personality 0x9b,DW.ref.__gxx_personality_v0
	.cfi_lsda 0x1b,.LLSDA6401
	pushq	%r12
	.cfi_def_cfa_offset 16
	.cfi_offset 12, -16
	pushq	%rbp
	.cfi_def_cfa_offset 24
	.cfi_offset 6, -24
	leaq	48(%rdi), %rbp
	pushq	%rbx
	.cfi_def_cfa_offset 32
	.cfi_offset 3, -32
	movq	%rdi, %rbx
	movq	%rbp, %rdi
	subq	$32, %rsp
	.cfi_def_cfa_offset 64
	movq	%fs:40, %rax
	movq	%rax, 24(%rsp)
	xorl	%eax, %eax
	call	pthread_mutex_lock@PLT
	leaq	88(%rbx), %rdx
	xorl	%ecx, %ecx
	pxor	%xmm0, %xmm0
	leaq	1632(%rbx), %rdi
	xorl	%ebx, %ebx
	jmp	.L181
	.p2align 4,,10
	.p2align 3
.L203:
	movq	%rsi, (%rcx)
.L179:
	movq	80(%rax), %rcx
	movups	%xmm0, 72(%rax)
.L178:
	movq	88(%rax), %rsi
	testq	%rsi, %rsi
	je	.L177
	testq	%rcx, %rcx
	je	.L186
	movq	%rsi, (%rcx)
.L180:
	movq	96(%rax), %rcx
	movups	%xmm0, 88(%rax)
.L177:
	addq	$8, %rdx
	cmpq	%rdi, %rdx
	je	.L202
.L181:
	movq	(%rdx), %rax
	testq	%rax, %rax
	je	.L177
	movq	72(%rax), %rsi
	testq	%rsi, %rsi
	je	.L178
	testq	%rcx, %rcx
	jne	.L203
	movq	%rsi, %rbx
	jmp	.L179
	.p2align 4,,10
	.p2align 3
.L186:
	movq	%rsi, %rbx
	jmp	.L180
.L202:
	movq	%rbp, %rdi
	call	pthread_mutex_unlock@PLT
	testq	%rbx, %rbx
	je	.L176
	call	_ZNSt3_V215system_categoryEv@PLT
	movq	%rsp, %r12
	movq	%rax, %rbp
	.p2align 4,,10
	.p2align 3
.L183:
	movq	%rbx, %rsi
	movq	(%rbx), %rbx
	xorl	%ecx, %ecx
	xorl	%edi, %edi
	movq	$0, (%rsi)
	movq	8(%rsi), %rax
	movq	%r12, %rdx
	movl	$0, (%rsp)
	movq	%rbp, 8(%rsp)
	call	*%rax
	testq	%rbx, %rbx
	jne	.L183
.L176:
	movq	24(%rsp), %rax
	subq	%fs:40, %rax
	jne	.L204
	addq	$32, %rsp
	.cfi_remember_state
	.cfi_def_cfa_offset 32
	popq	%rbx
	.cfi_def_cfa_offset 24
	popq	%rbp
	.cfi_def_cfa_offset 16
	popq	%r12
	.cfi_def_cfa_offset 8
	ret
.L204:
	.cfi_restore_state
	call	__stack_chk_fail@PLT
	.cfi_endproc
.LFE6401:
	.section	.gcc_except_table._ZN4asio6detail14strand_service16shutdown_serviceEv,"aG",@progbits,_ZN4asio6detail14strand_service16shutdown_serviceEv,comdat
.LLSDA6401:
	.byte	0xff
	.byte	0xff
	.byte	0x1
	.uleb128 .LLSDACSE6401-.LLSDACSB6401
.LLSDACSB6401:
.LLSDACSE6401:
	.section	.text._ZN4asio6detail14strand_service16shutdown_serviceEv,"axG",@progbits,_ZN4asio6detail14strand_service16shutdown_serviceEv,comdat
	.size	_ZN4asio6detail14strand_service16shutdown_serviceEv, .-_ZN4asio6detail14strand_service16shutdown_serviceEv
	.section	.text.unlikely,"ax",@progbits
.LCOLDB4:
	.text
.LHOTB4:
	.p2align 4
	.type	_ZN4asio6detail18completion_handlerIZN7asiopal8Executor10BlockUntilERKSt8functionIFvvEEEUlvE_E11do_completeEPNS0_15task_io_serviceEPNS0_25task_io_service_operationERKSt10error_codem, @function
_ZN4asio6detail18completion_handlerIZN7asiopal8Executor10BlockUntilERKSt8functionIFvvEEEUlvE_E11do_completeEPNS0_15task_io_serviceEPNS0_25task_io_service_operationERKSt10error_codem:
.LFB8760:
	.cfi_startproc
	.cfi_personality 0x9b,DW.ref.__gxx_personality_v0
	.cfi_lsda 0x1b,.LLSDA8760
	pushq	%r13
	.cfi_def_cfa_offset 16
	.cfi_offset 13, -16
	pushq	%r12
	.cfi_def_cfa_offset 24
	.cfi_offset 12, -24
	pushq	%rbp
	.cfi_def_cfa_offset 32
	.cfi_offset 6, -32
	movq	%rsi, %rbp
	pushq	%rbx
	.cfi_def_cfa_offset 40
	.cfi_offset 3, -40
	movq	%rdi, %rbx
	subq	$136, %rsp
	.cfi_def_cfa_offset 176
	movq	24(%rsi), %r12
	movq	32(%rsi), %r13
	movq	%fs:40, %rax
	movq	%rax, 120(%rsp)
	xorl	%eax, %eax
	data16	leaq	_ZN4asio6detail15keyword_tss_ptrINS0_10call_stackINS0_15task_io_serviceENS0_27task_io_service_thread_infoEE7contextEE6value_E@tlsgd(%rip), %rdi
	.value	0x6666
	rex64
	call	__tls_get_addr@PLT
	movq	(%rax), %rax
	testq	%rax, %rax
	je	.L206
	movq	8(%rax), %rax
	testq	%rax, %rax
	je	.L206
	cmpq	$0, (%rax)
	je	.L238
.L206:
	movq	%rbp, %rdi
	call	_ZdlPv@PLT
.L207:
	testq	%rbx, %rbx
	je	.L205
	cmpq	$0, 16(%r12)
	je	.L239
	movq	%r12, %rdi
.LEHB2:
	call	*24(%r12)
.LEHE2:
	movq	0(%r13), %rbx
	movb	$1, 6(%rsp)
	testq	%rbx, %rbx
	je	.L240
	leaq	6(%rsp), %rax
	leaq	80(%rsp), %rbp
	movq	%r13, 80(%rsp)
	movq	_ZNSt17_Function_handlerIFSt10unique_ptrINSt13__future_base12_Result_baseENS2_8_DeleterEEvENS1_13_State_baseV27_SetterIbObEEE10_M_managerERSt9_Any_dataRKSB_St18_Manager_operation@GOTPCREL(%rip), %xmm0
	movq	%rax, 88(%rsp)
	leaq	7(%rsp), %rax
	movq	%rax, 24(%rsp)
	movq	_ZNSt13__future_base13_State_baseV29_M_do_setEPSt8functionIFSt10unique_ptrINS_12_Result_baseENS3_8_DeleterEEvEEPb@GOTPCREL(%rip), %rax
	movhps	_ZNSt17_Function_handlerIFSt10unique_ptrINSt13__future_base12_Result_baseENS2_8_DeleterEEvENS1_13_State_baseV27_SetterIbObEEE9_M_invokeERKSt9_Any_data@GOTPCREL(%rip), %xmm0
	movaps	%xmm0, 96(%rsp)
	movq	%rax, 32(%rsp)
	leaq	32(%rsp), %rax
	movq	%rax, %xmm0
	leaq	8(%rsp), %rax
	movb	$0, 7(%rsp)
	movq	%rax, %xmm1
	leaq	16(%rsp), %rax
	movq	%rbp, 16(%rsp)
	punpcklqdq	%xmm1, %xmm0
	movq	%rbx, 8(%rsp)
	movaps	%xmm0, 48(%rsp)
	movq	%rax, %xmm0
	leaq	24(%rsp), %rax
	movq	$0, 40(%rsp)
	movq	%rax, %xmm2
	punpcklqdq	%xmm2, %xmm0
	movaps	%xmm0, 64(%rsp)
	data16	leaq	_ZSt15__once_callable@tlsgd(%rip), %rdi
	.value	0x6666
	rex64
	call	__tls_get_addr@PLT
	leaq	48(%rsp), %rdx
	movq	%rdx, (%rax)
	data16	leaq	_ZSt11__once_call@tlsgd(%rip), %rdi
	.value	0x6666
	rex64
	call	__tls_get_addr@PLT
	movq	_ZZSt9call_onceIMNSt13__future_base13_State_baseV2EFvPSt8functionIFSt10unique_ptrINS0_12_Result_baseENS4_8_DeleterEEvEEPbEJPS1_S9_SA_EEvRSt9once_flagOT_DpOT0_ENUlvE0_4_FUNEv@GOTPCREL(%rip), %rdx
	leaq	24(%rbx), %rdi
	cmpq	$0, _ZL28__gthrw___pthread_key_createPjPFvPvE@GOTPCREL(%rip)
	movq	%rdx, (%rax)
	je	.L222
	movq	__once_proxy@GOTPCREL(%rip), %rsi
.LEHB3:
	call	_ZL20__gthrw_pthread_oncePiPFvvE@PLT
	testl	%eax, %eax
	jne	.L211
	cmpb	$0, 7(%rsp)
	jne	.L241
	movl	$2, %edi
	call	_ZSt20__throw_future_errori@PLT
.LEHE3:
	.p2align 4,,10
	.p2align 3
.L241:
	leaq	16(%rbx), %rdi
	movl	$1, %eax
	xchgl	(%rdi), %eax
	testl	%eax, %eax
	js	.L214
.L217:
	movq	96(%rsp), %rax
	testq	%rax, %rax
	je	.L216
	movl	$3, %edx
	movq	%rbp, %rsi
	movq	%rbp, %rdi
	call	*%rax
.L216:
	sfence
.L205:
	movq	120(%rsp), %rax
	subq	%fs:40, %rax
	jne	.L242
	addq	$136, %rsp
	.cfi_remember_state
	.cfi_def_cfa_offset 40
	popq	%rbx
	.cfi_def_cfa_offset 32
	popq	%rbp
	.cfi_def_cfa_offset 24
	popq	%r12
	.cfi_def_cfa_offset 16
	popq	%r13
	.cfi_def_cfa_offset 8
	ret
	.p2align 4,,10
	.p2align 3
.L238:
	.cfi_restore_state
	movzbl	40(%rbp), %edx
	movb	%dl, 0(%rbp)
	movq	%rbp, (%rax)
	jmp	.L207
	.p2align 4,,10
	.p2align 3
.L214:
.LEHB4:
	call	_ZNSt28__atomic_futex_unsigned_base19_M_futex_notify_allEPj@PLT
	jmp	.L217
.L222:
	movl	$-1, %eax
.L211:
	movl	%eax, %edi
	call	_ZSt20__throw_system_errori@PLT
.LEHE4:
.L240:
	movl	$3, %edi
.LEHB5:
	call	_ZSt20__throw_future_errori@PLT
.L239:
	call	_ZSt25__throw_bad_function_callv@PLT
.LEHE5:
.L242:
	call	__stack_chk_fail@PLT
.L223:
	movq	%rax, %rdi
	jmp	.L220
.L224:
	movq	%rax, %rbx
	jmp	.L218
	.section	.gcc_except_table,"a",@progbits
.LLSDA8760:
	.byte	0xff
	.byte	0xff
	.byte	0x1
	.uleb128 .LLSDACSE8760-.LLSDACSB8760
.LLSDACSB8760:
	.uleb128 .LEHB2-.LFB8760
	.uleb128 .LEHE2-.LEHB2
	.uleb128 .L223-.LFB8760
	.uleb128 0
	.uleb128 .LEHB3-.LFB8760
	.uleb128 .LEHE3-.LEHB3
	.uleb128 .L224-.LFB8760
	.uleb128 0
	.uleb128 .LEHB4-.LFB8760
	.uleb128 .LEHE4-.LEHB4
	.uleb128 .L224-.LFB8760
	.uleb128 0
	.uleb128 .LEHB5-.LFB8760
	.uleb128 .LEHE5-.LEHB5
	.uleb128 .L223-.LFB8760
	.uleb128 0
.LLSDACSE8760:
	.text
	.cfi_endproc
	.section	.text.unlikely
	.cfi_startproc
	.cfi_personality 0x9b,DW.ref.__gxx_personality_v0
	.cfi_lsda 0x1b,.LLSDAC8760
	.type	_ZN4asio6detail18completion_handlerIZN7asiopal8Executor10BlockUntilERKSt8functionIFvvEEEUlvE_E11do_completeEPNS0_15task_io_serviceEPNS0_25task_io_service_operationERKSt10error_codem.cold, @function
_ZN4asio6detail18completion_handlerIZN7asiopal8Executor10BlockUntilERKSt8functionIFvvEEEUlvE_E11do_completeEPNS0_15task_io_serviceEPNS0_25task_io_service_operationERKSt10error_codem.cold:
.LFSB8760:
.L218:
	.cfi_def_cfa_offset 176
	.cfi_offset 3, -40
	.cfi_offset 6, -32
	.cfi_offset 12, -24
	.cfi_offset 13, -16
	movq	96(%rsp), %rax
	testq	%rax, %rax
	je	.L219
	movl	$3, %edx
	movq	%rbp, %rsi
	movq	%rbp, %rdi
	call	*%rax
.L219:
	movq	%rbx, %rdi
.L220:
	sfence
.LEHB6:
	call	_Unwind_Resume@PLT
.LEHE6:
	.cfi_endproc
.LFE8760:
	.section	.gcc_except_table
.LLSDAC8760:
	.byte	0xff
	.byte	0xff
	.byte	0x1
	.uleb128 .LLSDACSEC8760-.LLSDACSBC8760
.LLSDACSBC8760:
	.uleb128 .LEHB6-.LCOLDB4
	.uleb128 .LEHE6-.LEHB6
	.uleb128 0
	.uleb128 0
.LLSDACSEC8760:
	.section	.text.unlikely
	.text
	.size	_ZN4asio6detail18completion_handlerIZN7asiopal8Executor10BlockUntilERKSt8functionIFvvEEEUlvE_E11do_completeEPNS0_15task_io_serviceEPNS0_25task_io_service_operationERKSt10error_codem, .-_ZN4asio6detail18completion_handlerIZN7asiopal8Executor10BlockUntilERKSt8functionIFvvEEEUlvE_E11do_completeEPNS0_15task_io_serviceEPNS0_25task_io_service_operationERKSt10error_codem
	.section	.text.unlikely
	.size	_ZN4asio6detail18completion_handlerIZN7asiopal8Executor10BlockUntilERKSt8functionIFvvEEEUlvE_E11do_completeEPNS0_15task_io_serviceEPNS0_25task_io_service_operationERKSt10error_codem.cold, .-_ZN4asio6detail18completion_handlerIZN7asiopal8Executor10BlockUntilERKSt8functionIFvvEEEUlvE_E11do_completeEPNS0_15task_io_serviceEPNS0_25task_io_service_operationERKSt10error_codem.cold
.LCOLDE4:
	.text
.LHOTE4:
	.align 2
	.p2align 4
	.type	_ZN4asio6detail13epoll_reactor12cancel_timerINS0_18chrono_time_traitsINSt6chrono3_V212steady_clockENS_11wait_traitsIS6_EEEEEEmRNS0_11timer_queueIT_EERNSC_14per_timer_dataEm.constprop.0.isra.0, @function
_ZN4asio6detail13epoll_reactor12cancel_timerINS0_18chrono_time_traitsINSt6chrono3_V212steady_clockENS_11wait_traitsIS6_EEEEEEmRNS0_11timer_queueIT_EERNSC_14per_timer_dataEm.constprop.0.isra.0:
.LFB9652:
	.cfi_startproc
	pushq	%r15
	.cfi_def_cfa_offset 16
	.cfi_offset 15, -16
	leaq	48(%rdi), %r15
	pushq	%r14
	.cfi_def_cfa_offset 24
	.cfi_offset 14, -24
	pushq	%r13
	.cfi_def_cfa_offset 32
	.cfi_offset 13, -32
	pushq	%r12
	.cfi_def_cfa_offset 40
	.cfi_offset 12, -40
	movq	%rdx, %r12
	pushq	%rbp
	.cfi_def_cfa_offset 48
	.cfi_offset 6, -48
	pushq	%rbx
	.cfi_def_cfa_offset 56
	.cfi_offset 3, -56
	subq	$72, %rsp
	.cfi_def_cfa_offset 128
	movq	%rdi, 8(%rsp)
	movq	%r15, %rdi
	movq	%rsi, 16(%rsp)
	movq	%fs:40, %rax
	movq	%rax, 56(%rsp)
	xorl	%eax, %eax
	call	pthread_mutex_lock@PLT
	cmpq	$0, 32(%r12)
	je	.L329
.L244:
	movq	(%r12), %r14
	movq	$-1, %r13
	xorl	%ebx, %ebx
	movq	%r12, %rbp
	movq	$0, (%rsp)
	jmp	.L253
	.p2align 4,,10
	.p2align 3
.L326:
	movq	_ZZN4asio15system_categoryEvE8instance@GOTPCREL(%rip), %rcx
.L248:
	movq	0(%rbp), %rdx
	movl	$125, 24(%r14)
	xorl	%eax, %eax
	movq	%rcx, 32(%r14)
	testq	%rdx, %rdx
	je	.L250
	movq	(%rdx), %rax
	movq	%rax, 0(%rbp)
	testq	%rax, %rax
	je	.L330
.L251:
	movq	$0, (%rdx)
.L250:
	movq	$0, (%r14)
	testq	%rbx, %rbx
	je	.L283
	movq	%r14, (%rbx)
	movq	%r14, %rbx
	subq	$1, %r13
	je	.L331
.L284:
	movq	%rax, %r14
.L253:
	testq	%r14, %r14
	je	.L321
	movq	_ZGVZN4asio15system_categoryEvE8instance@GOTPCREL(%rip), %r12
	movzbl	(%r12), %eax
	testb	%al, %al
	jne	.L326
	movq	%r12, %rdi
	call	__cxa_guard_acquire@PLT
	testl	%eax, %eax
	je	.L326
	movq	_ZZN4asio15system_categoryEvE8instance@GOTPCREL(%rip), %rcx
	movq	_ZN4asio6detail15system_categoryD1Ev@GOTPCREL(%rip), %rdi
	leaq	__dso_handle(%rip), %rdx
	movq	%rcx, %rsi
	movq	%rcx, 24(%rsp)
	call	__cxa_atexit@PLT
	movq	%r12, %rdi
	call	__cxa_guard_release@PLT
	movq	24(%rsp), %rcx
	jmp	.L248
	.p2align 4,,10
	.p2align 3
.L283:
	movq	%r14, (%rsp)
	movq	%r14, %rbx
	subq	$1, %r13
	jne	.L284
.L331:
	movq	%rbp, %r12
	testq	%rax, %rax
	je	.L246
.L254:
	movq	%r15, %rdi
	call	pthread_mutex_unlock@PLT
	movq	8(%rsp), %rax
	cmpq	$0, (%rsp)
	movq	40(%rax), %rbx
	je	.L243
	cmpb	$0, 40(%rbx)
	je	.L268
	data16	leaq	_ZN4asio6detail15keyword_tss_ptrINS0_10call_stackINS0_15task_io_serviceENS0_27task_io_service_thread_infoEE7contextEE6value_E@tlsgd(%rip), %rdi
	.value	0x6666
	rex64
	call	__tls_get_addr@PLT
	movq	(%rax), %rax
	testq	%rax, %rax
	jne	.L271
	jmp	.L268
	.p2align 4,,10
	.p2align 3
.L269:
	movq	16(%rax), %rax
	testq	%rax, %rax
	je	.L268
.L271:
	cmpq	(%rax), %rbx
	jne	.L269
	movq	8(%rax), %rax
	testq	%rax, %rax
	je	.L268
	movq	16(%rax), %rdx
	movq	(%rsp), %rsi
	testq	%rdx, %rdx
	je	.L272
	movq	%rsi, (%rdx)
.L273:
	movq	%r14, 16(%rax)
.L243:
	movq	56(%rsp), %rax
	subq	%fs:40, %rax
	jne	.L328
	addq	$72, %rsp
	.cfi_remember_state
	.cfi_def_cfa_offset 56
	popq	%rbx
	.cfi_def_cfa_offset 48
	popq	%rbp
	.cfi_def_cfa_offset 40
	popq	%r12
	.cfi_def_cfa_offset 32
	popq	%r13
	.cfi_def_cfa_offset 24
	popq	%r14
	.cfi_def_cfa_offset 16
	popq	%r15
	.cfi_def_cfa_offset 8
	ret
	.p2align 4,,10
	.p2align 3
.L330:
	.cfi_restore_state
	movq	$0, 8(%rbp)
	jmp	.L251
	.p2align 4,,10
	.p2align 3
.L268:
	leaq	48(%rbx), %rbp
	movq	%rbp, %rdi
	call	pthread_mutex_lock@PLT
	movq	200(%rbx), %rax
	testq	%rax, %rax
	je	.L274
	movq	(%rsp), %rsi
	movq	%rsi, (%rax)
.L275:
	movq	136(%rbx), %rax
	movq	%r14, 200(%rbx)
	orq	$1, %rax
	movq	%rax, 136(%rbx)
	cmpq	$1, %rax
	je	.L276
	movq	%rbp, %rdi
	call	pthread_mutex_unlock@PLT
	movq	56(%rsp), %rax
	subq	%fs:40, %rax
	jne	.L328
	addq	$72, %rsp
	.cfi_remember_state
	.cfi_def_cfa_offset 56
	leaq	88(%rbx), %rdi
	popq	%rbx
	.cfi_def_cfa_offset 48
	popq	%rbp
	.cfi_def_cfa_offset 40
	popq	%r12
	.cfi_def_cfa_offset 32
	popq	%r13
	.cfi_def_cfa_offset 24
	popq	%r14
	.cfi_def_cfa_offset 16
	popq	%r15
	.cfi_def_cfa_offset 8
	jmp	pthread_cond_signal@PLT
	.p2align 4,,10
	.p2align 3
.L321:
	.cfi_restore_state
	movq	%rbp, %r12
.L246:
	movq	16(%rsp), %rsi
	movq	32(%rsi), %rax
	movq	24(%rsi), %rdx
	cmpq	%rdx, %rax
	je	.L256
	movq	%rax, %r8
	movq	16(%r12), %rdi
	subq	%rdx, %r8
	movq	%r8, %rsi
	sarq	$4, %rsi
	cmpq	%rsi, %rdi
	jnb	.L256
	subq	$1, %rsi
	leaq	-16(%rax), %r9
	cmpq	%rsi, %rdi
	je	.L332
	movq	%rdi, %rax
	leaq	-16(%rdx,%r8), %r8
	salq	$4, %rax
	movdqu	(%r8), %xmm3
	addq	%rdx, %rax
	movq	(%rax), %r11
	movq	8(%rax), %r10
	movups	%xmm3, (%rax)
	movq	%r11, (%r8)
	movq	%r10, 8(%r8)
	movq	8(%rax), %r8
	movq	%rdi, 16(%r8)
	movq	%rsi, 16(%r10)
	movq	16(%rsp), %rsi
	movq	%r9, 32(%rsi)
	testq	%rdi, %rdi
	je	.L259
	leaq	-1(%rdi), %r8
	movq	(%rax), %r10
	shrq	%r8
	movq	%r8, %rsi
	salq	$4, %rsi
	addq	%rdx, %rsi
	cmpq	%r10, (%rsi)
	jg	.L260
.L259:
	subq	%rdx, %r9
	leaq	1(%rdi,%rdi), %r8
	movq	%r9, %rcx
	sarq	$4, %rcx
	cmpq	%rcx, %r8
	jnb	.L256
	movq	(%rax), %r10
	jmp	.L262
	.p2align 4,,10
	.p2align 3
.L333:
	leaq	16(%rdx,%rax), %rax
	movq	(%rax), %rbp
	cmpq	%r11, %rbp
	jg	.L286
	movq	%rbp, %r11
	movq	%rax, %r9
.L261:
	movq	%rdi, %rax
	salq	$4, %rax
	addq	%rdx, %rax
	cmpq	%r11, %r10
	jl	.L256
	movq	8(%rax), %r8
	movdqu	(%r9), %xmm1
	movups	%xmm1, (%rax)
	movq	%r8, 8(%r9)
	movq	8(%rax), %rax
	movq	%r10, (%r9)
	movq	%rdi, 16(%rax)
	movq	%rsi, 16(%r8)
	leaq	1(%rsi,%rsi), %r8
	cmpq	%rcx, %r8
	jnb	.L256
	movq	%rsi, %rdi
.L262:
	movq	%r8, %rax
	leaq	1(%r8), %rsi
	salq	$4, %rax
	leaq	(%rdx,%rax), %r9
	movq	(%r9), %r11
	cmpq	%rcx, %rsi
	jne	.L333
.L286:
	movq	%r8, %rsi
	jmp	.L261
	.p2align 4,,10
	.p2align 3
.L276:
	cmpb	$0, 176(%rbx)
	je	.L334
.L278:
	movq	56(%rsp), %rax
	subq	%fs:40, %rax
	jne	.L328
	movq	%rbp, %rdi
.L327:
	addq	$72, %rsp
	.cfi_remember_state
	.cfi_def_cfa_offset 56
	popq	%rbx
	.cfi_def_cfa_offset 48
	popq	%rbp
	.cfi_def_cfa_offset 40
	popq	%r12
	.cfi_def_cfa_offset 32
	popq	%r13
	.cfi_def_cfa_offset 24
	popq	%r14
	.cfi_def_cfa_offset 16
	popq	%r15
	.cfi_def_cfa_offset 8
	jmp	pthread_mutex_unlock@PLT
	.p2align 4,,10
	.p2align 3
.L329:
	.cfi_restore_state
	movq	16(%rsp), %rax
	cmpq	16(%rax), %r12
	je	.L244
	movq	56(%rsp), %rax
	subq	%fs:40, %rax
	jne	.L328
	movq	%r15, %rdi
	jmp	.L327
	.p2align 4,,10
	.p2align 3
.L334:
	movq	144(%rbx), %rax
	testq	%rax, %rax
	je	.L278
	leaq	88(%rax), %rdx
	movb	$1, 176(%rbx)
	movl	96(%rax), %edi
	leaq	44(%rsp), %rcx
	movq	%rdx, 48(%rsp)
	movl	88(%rax), %edx
	movl	$3, %esi
	movl	$-2147483639, 44(%rsp)
	call	epoll_ctl@PLT
	jmp	.L278
.L272:
	movq	%rsi, 8(%rax)
	jmp	.L273
.L332:
	movq	16(%rsp), %rax
	movq	%r9, 32(%rax)
	.p2align 4,,10
	.p2align 3
.L256:
	movq	16(%rsp), %rsi
	movq	24(%r12), %rax
	cmpq	16(%rsi), %r12
	je	.L335
.L264:
	movq	32(%r12), %rdx
	testq	%rdx, %rdx
	je	.L265
	movq	%rax, 24(%rdx)
	movq	24(%r12), %rax
.L265:
	testq	%rax, %rax
	je	.L266
	movq	%rdx, 32(%rax)
.L266:
	pxor	%xmm0, %xmm0
	movq	%rbx, %r14
	movups	%xmm0, 24(%r12)
	jmp	.L254
	.p2align 4,,10
	.p2align 3
.L274:
	movq	(%rsp), %rax
	movq	%rax, 192(%rbx)
	jmp	.L275
.L336:
	movq	%rcx, %r8
.L260:
	movq	8(%rax), %rcx
	movdqu	(%rsi), %xmm2
	movups	%xmm2, (%rax)
	movq	%rcx, 8(%rsi)
	movq	8(%rax), %rax
	movq	%r10, (%rsi)
	movq	%rdi, 16(%rax)
	movq	%r8, 16(%rcx)
	testq	%r8, %r8
	je	.L256
	leaq	-1(%r8), %rcx
	movq	%r8, %rax
	movq	%r8, %rdi
	shrq	%rcx
	salq	$4, %rax
	movq	%rcx, %rsi
	addq	%rdx, %rax
	salq	$4, %rsi
	movq	(%rax), %r10
	addq	%rdx, %rsi
	cmpq	%r10, (%rsi)
	jg	.L336
	jmp	.L256
	.p2align 4,,10
	.p2align 3
.L335:
	movq	%rax, 16(%rsi)
	jmp	.L264
.L328:
	call	__stack_chk_fail@PLT
	.cfi_endproc
.LFE9652:
	.size	_ZN4asio6detail13epoll_reactor12cancel_timerINS0_18chrono_time_traitsINSt6chrono3_V212steady_clockENS_11wait_traitsIS6_EEEEEEmRNS0_11timer_queueIT_EERNSC_14per_timer_dataEm.constprop.0.isra.0, .-_ZN4asio6detail13epoll_reactor12cancel_timerINS0_18chrono_time_traitsINSt6chrono3_V212steady_clockENS_11wait_traitsIS6_EEEEEEmRNS0_11timer_queueIT_EERNSC_14per_timer_dataEm.constprop.0.isra.0
	.section	.text._ZNSt23_Sp_counted_ptr_inplaceIN7asiopal5TimerESaIS1_ELN9__gnu_cxx12_Lock_policyE2EE10_M_disposeEv,"axG",@progbits,_ZNSt23_Sp_counted_ptr_inplaceIN7asiopal5TimerESaIS1_ELN9__gnu_cxx12_Lock_policyE2EE10_M_disposeEv,comdat
	.align 2
	.p2align 4
	.weak	_ZNSt23_Sp_counted_ptr_inplaceIN7asiopal5TimerESaIS1_ELN9__gnu_cxx12_Lock_policyE2EE10_M_disposeEv
	.type	_ZNSt23_Sp_counted_ptr_inplaceIN7asiopal5TimerESaIS1_ELN9__gnu_cxx12_Lock_policyE2EE10_M_disposeEv, @function
_ZNSt23_Sp_counted_ptr_inplaceIN7asiopal5TimerESaIS1_ELN9__gnu_cxx12_Lock_policyE2EE10_M_disposeEv:
.LFB9535:
	.cfi_startproc
	.cfi_personality 0x9b,DW.ref.__gxx_personality_v0
	.cfi_lsda 0x1b,.LLSDA9535
	pushq	%r12
	.cfi_def_cfa_offset 16
	.cfi_offset 12, -16
	pushq	%rbp
	.cfi_def_cfa_offset 24
	.cfi_offset 6, -24
	pushq	%rbx
	.cfi_def_cfa_offset 32
	.cfi_offset 3, -32
	movq	%rdi, %rbx
	subq	$32, %rsp
	.cfi_def_cfa_offset 64
	movq	24(%rdi), %r12
	movq	%fs:40, %rax
	movq	%rax, 24(%rsp)
	movq	_ZTVN7asiopal5TimerE@GOTPCREL(%rip), %rax
	addq	$16, %rax
	movq	%rax, 16(%rdi)
	call	_ZNSt3_V215system_categoryEv@PLT
	cmpb	$0, 40(%rbx)
	movq	%rax, %rbp
	je	.L338
	movq	88(%r12), %rdi
	leaq	48(%rbx), %rdx
	leaq	40(%r12), %rsi
	call	_ZN4asio6detail13epoll_reactor12cancel_timerINS0_18chrono_time_traitsINSt6chrono3_V212steady_clockENS_11wait_traitsIS6_EEEEEEmRNS0_11timer_queueIT_EERNSC_14per_timer_dataEm.constprop.0.isra.0
	movb	$0, 40(%rbx)
.L338:
	movq	48(%rbx), %rsi
	testq	%rsi, %rsi
	je	.L337
	movq	%rsp, %r12
	jmp	.L342
	.p2align 4,,10
	.p2align 3
.L340:
	movq	$0, (%rsi)
	movq	8(%rsi), %rax
	xorl	%ecx, %ecx
	movq	%r12, %rdx
	movl	$0, (%rsp)
	xorl	%edi, %edi
	movq	%rbp, 8(%rsp)
	call	*%rax
	movq	48(%rbx), %rsi
	testq	%rsi, %rsi
	je	.L337
.L342:
	movq	(%rsi), %rax
	movq	%rax, 48(%rbx)
	testq	%rax, %rax
	jne	.L340
	movq	$0, 56(%rbx)
	jmp	.L340
	.p2align 4,,10
	.p2align 3
.L337:
	movq	24(%rsp), %rax
	subq	%fs:40, %rax
	jne	.L355
	addq	$32, %rsp
	.cfi_remember_state
	.cfi_def_cfa_offset 32
	popq	%rbx
	.cfi_def_cfa_offset 24
	popq	%rbp
	.cfi_def_cfa_offset 16
	popq	%r12
	.cfi_def_cfa_offset 8
	ret
.L355:
	.cfi_restore_state
	call	__stack_chk_fail@PLT
	.cfi_endproc
.LFE9535:
	.section	.gcc_except_table
.LLSDA9535:
	.byte	0xff
	.byte	0xff
	.byte	0x1
	.uleb128 .LLSDACSE9535-.LLSDACSB9535
.LLSDACSB9535:
.LLSDACSE9535:
	.section	.text._ZNSt23_Sp_counted_ptr_inplaceIN7asiopal5TimerESaIS1_ELN9__gnu_cxx12_Lock_policyE2EE10_M_disposeEv,"axG",@progbits,_ZNSt23_Sp_counted_ptr_inplaceIN7asiopal5TimerESaIS1_ELN9__gnu_cxx12_Lock_policyE2EE10_M_disposeEv,comdat
	.size	_ZNSt23_Sp_counted_ptr_inplaceIN7asiopal5TimerESaIS1_ELN9__gnu_cxx12_Lock_policyE2EE10_M_disposeEv, .-_ZNSt23_Sp_counted_ptr_inplaceIN7asiopal5TimerESaIS1_ELN9__gnu_cxx12_Lock_policyE2EE10_M_disposeEv
	.section	.rodata._ZNK4asio6detail15system_category7messageB5cxx11Ei.str1.8,"aMS",@progbits,1
	.align 8
.LC5:
	.string	"basic_string::_M_construct null not valid"
	.section	.text._ZNK4asio6detail15system_category7messageB5cxx11Ei,"axG",@progbits,_ZNK4asio6detail15system_category7messageB5cxx11Ei,comdat
	.align 2
	.p2align 4
	.weak	_ZNK4asio6detail15system_category7messageB5cxx11Ei
	.type	_ZNK4asio6detail15system_category7messageB5cxx11Ei, @function
_ZNK4asio6detail15system_category7messageB5cxx11Ei:
.LFB2374:
	.cfi_startproc
	pushq	%r14
	.cfi_def_cfa_offset 16
	.cfi_offset 14, -16
	pushq	%r13
	.cfi_def_cfa_offset 24
	.cfi_offset 13, -24
	pushq	%r12
	.cfi_def_cfa_offset 32
	.cfi_offset 12, -32
	movq	%rdi, %r12
	pushq	%rbp
	.cfi_def_cfa_offset 40
	.cfi_offset 6, -40
	leaq	16(%rdi), %rbp
	subq	$296, %rsp
	.cfi_def_cfa_offset 336
	movq	%fs:40, %rax
	movq	%rax, 280(%rsp)
	xorl	%eax, %eax
	cmpl	$125, %edx
	je	.L371
	pxor	%xmm0, %xmm0
	movl	%edx, %edi
	leaq	16(%rsp), %rsi
	movl	$256, %edx
	movups	%xmm0, 16(%rsp)
	movups	%xmm0, 32(%rsp)
	movups	%xmm0, 48(%rsp)
	movups	%xmm0, 64(%rsp)
	movups	%xmm0, 80(%rsp)
	movups	%xmm0, 96(%rsp)
	movups	%xmm0, 112(%rsp)
	movups	%xmm0, 128(%rsp)
	movups	%xmm0, 144(%rsp)
	movups	%xmm0, 160(%rsp)
	movups	%xmm0, 176(%rsp)
	movups	%xmm0, 192(%rsp)
	movups	%xmm0, 208(%rsp)
	movups	%xmm0, 224(%rsp)
	movups	%xmm0, 240(%rsp)
	movups	%xmm0, 256(%rsp)
	call	strerror_r@PLT
	movq	%rbp, (%r12)
	movq	%rax, %r13
	testq	%rax, %rax
	je	.L359
	movq	%rax, %rdi
	call	strlen@PLT
	movq	%rax, 8(%rsp)
	movq	%rax, %r14
	cmpq	$15, %rax
	ja	.L372
	cmpq	$1, %rax
	jne	.L363
	movzbl	0(%r13), %edx
	movb	%dl, 16(%r12)
.L364:
	movq	%rax, 8(%r12)
	movb	$0, 0(%rbp,%rax)
.L356:
	movq	280(%rsp), %rax
	subq	%fs:40, %rax
	jne	.L373
	addq	$296, %rsp
	.cfi_remember_state
	.cfi_def_cfa_offset 40
	movq	%r12, %rax
	popq	%rbp
	.cfi_def_cfa_offset 32
	popq	%r12
	.cfi_def_cfa_offset 24
	popq	%r13
	.cfi_def_cfa_offset 16
	popq	%r14
	.cfi_def_cfa_offset 8
	ret
	.p2align 4,,10
	.p2align 3
.L372:
	.cfi_restore_state
	leaq	8(%rsp), %rsi
	xorl	%edx, %edx
	movq	%r12, %rdi
	call	_ZNSt7__cxx1112basic_stringIcSt11char_traitsIcESaIcEE9_M_createERmm@PLT
	movq	%rax, (%r12)
	movq	%rax, %rbp
	movq	8(%rsp), %rax
	movq	%rax, 16(%r12)
.L362:
	movq	%rbp, %rdi
	movq	%r14, %rdx
	movq	%r13, %rsi
	call	memcpy@PLT
	movq	8(%rsp), %rax
	movq	(%r12), %rbp
	jmp	.L364
	.p2align 4,,10
	.p2align 3
.L371:
	movq	%rbp, (%rdi)
	xorl	%edx, %edx
	leaq	8(%rsp), %rsi
	movq	$18, 8(%rsp)
	call	_ZNSt7__cxx1112basic_stringIcSt11char_traitsIcESaIcEE9_M_createERmm@PLT
	movq	8(%rsp), %rdx
	movdqa	.LC6(%rip), %xmm0
	movq	%rax, (%r12)
	movq	%rdx, 16(%r12)
	movl	$11876, %edx
	movw	%dx, 16(%rax)
	movups	%xmm0, (%rax)
	movq	8(%rsp), %rax
	movq	(%r12), %rdx
	movq	%rax, 8(%r12)
	movb	$0, (%rdx,%rax)
	jmp	.L356
	.p2align 4,,10
	.p2align 3
.L363:
	testq	%rax, %rax
	je	.L364
	jmp	.L362
.L359:
	leaq	.LC5(%rip), %rdi
	call	_ZSt19__throw_logic_errorPKc@PLT
.L373:
	call	__stack_chk_fail@PLT
	.cfi_endproc
.LFE2374:
	.size	_ZNK4asio6detail15system_category7messageB5cxx11Ei, .-_ZNK4asio6detail15system_category7messageB5cxx11Ei
	.section	.text.unlikely
	.align 2
	.type	_ZZN7asiopal8Executor4PostERKSt8functionIFvvEEENUlvE_D2Ev, @function
_ZZN7asiopal8Executor4PostERKSt8functionIFvvEEENUlvE_D2Ev:
.LFB7043:
	.cfi_startproc
	.cfi_personality 0x9b,DW.ref.__gxx_personality_v0
	.cfi_lsda 0x1b,.LLSDA7043
	pushq	%r12
	.cfi_def_cfa_offset 16
	.cfi_offset 12, -16
	movq	%rdi, %r12
	pushq	%rbp
	.cfi_def_cfa_offset 24
	.cfi_offset 6, -24
	pushq	%rbx
	.cfi_def_cfa_offset 32
	.cfi_offset 3, -32
	movq	40(%rdi), %rbp
	testq	%rbp, %rbp
	je	.L376
	movq	_ZL28__gthrw___pthread_key_createPjPFvPvE@GOTPCREL(%rip), %rbx
	testq	%rbx, %rbx
	je	.L377
	orl	$-1, %eax
	lock xaddl	%eax, 8(%rbp)
	jmp	.L378
.L377:
	movl	8(%rbp), %eax
	leal	-1(%rax), %edx
	movl	%edx, 8(%rbp)
.L378:
	decl	%eax
	jne	.L376
	movq	0(%rbp), %rax
	movq	%rbp, %rdi
	call	*16(%rax)
	testq	%rbx, %rbx
	je	.L380
	orl	$-1, %eax
	lock xaddl	%eax, 12(%rbp)
	jmp	.L381
.L380:
	movl	12(%rbp), %eax
	leal	-1(%rax), %edx
	movl	%edx, 12(%rbp)
.L381:
	decl	%eax
	jne	.L376
	movq	0(%rbp), %rax
	movq	%rbp, %rdi
	call	*24(%rax)
.L376:
	movq	16(%r12), %rax
	testq	%rax, %rax
	je	.L374
	movl	$3, %edx
	movq	%r12, %rsi
	movq	%r12, %rdi
	call	*%rax
.L374:
	popq	%rbx
	.cfi_def_cfa_offset 24
	popq	%rbp
	.cfi_def_cfa_offset 16
	popq	%r12
	.cfi_def_cfa_offset 8
	ret
	.cfi_endproc
.LFE7043:
	.section	.gcc_except_table
.LLSDA7043:
	.byte	0xff
	.byte	0xff
	.byte	0x1
	.uleb128 .LLSDACSE7043-.LLSDACSB7043
.LLSDACSB7043:
.LLSDACSE7043:
	.section	.text.unlikely
	.size	_ZZN7asiopal8Executor4PostERKSt8functionIFvvEEENUlvE_D2Ev, .-_ZZN7asiopal8Executor4PostERKSt8functionIFvvEEENUlvE_D2Ev
	.set	_ZZN7asiopal8Executor4PostERKSt8functionIFvvEEENUlvE_D1Ev,_ZZN7asiopal8Executor4PostERKSt8functionIFvvEEENUlvE_D2Ev
	.section	.text._ZN7asiopal8ExecutorD2Ev,"axG",@progbits,_ZN7asiopal8ExecutorD5Ev,comdat
	.align 2
	.p2align 4
	.weak	_ZN7asiopal8ExecutorD2Ev
	.type	_ZN7asiopal8ExecutorD2Ev, @function
_ZN7asiopal8ExecutorD2Ev:
.LFB9444:
	.cfi_startproc
	movq	_ZTVN7asiopal8ExecutorE@GOTPCREL(%rip), %rax
	pushq	%r12
	.cfi_def_cfa_offset 16
	.cfi_offset 12, -16
	pushq	%rbp
	.cfi_def_cfa_offset 24
	.cfi_offset 6, -24
	pushq	%rbx
	.cfi_def_cfa_offset 32
	.cfi_offset 3, -32
	movq	32(%rdi), %rbp
	addq	$16, %rax
	movq	%rdi, %rbx
	movq	%rax, (%rdi)
	testq	%rbp, %rbp
	je	.L389
	movq	_ZL28__gthrw___pthread_key_createPjPFvPvE@GOTPCREL(%rip), %r12
	testq	%r12, %r12
	jne	.L401
	movl	8(%rbp), %eax
	leal	-1(%rax), %edx
	movl	%edx, 8(%rbp)
.L391:
	cmpl	$1, %eax
	je	.L402
.L389:
	movq	16(%rbx), %rdi
	testq	%rdi, %rdi
	je	.L387
	cmpq	$0, _ZL28__gthrw___pthread_key_createPjPFvPvE@GOTPCREL(%rip)
	jne	.L403
	movl	12(%rdi), %eax
	leal	-1(%rax), %edx
	movl	%edx, 12(%rdi)
.L398:
	cmpl	$1, %eax
	je	.L404
.L387:
	popq	%rbx
	.cfi_remember_state
	.cfi_def_cfa_offset 24
	popq	%rbp
	.cfi_def_cfa_offset 16
	popq	%r12
	.cfi_def_cfa_offset 8
	ret
	.p2align 4,,10
	.p2align 3
.L402:
	.cfi_restore_state
	movq	0(%rbp), %rax
	movq	%rbp, %rdi
	call	*16(%rax)
	testq	%r12, %r12
	jne	.L405
	movl	12(%rbp), %eax
	leal	-1(%rax), %edx
	movl	%edx, 12(%rbp)
.L394:
	cmpl	$1, %eax
	jne	.L389
	movq	0(%rbp), %rax
	movq	%rbp, %rdi
	call	*24(%rax)
	jmp	.L389
	.p2align 4,,10
	.p2align 3
.L404:
	movq	(%rdi), %rax
	popq	%rbx
	.cfi_remember_state
	.cfi_def_cfa_offset 24
	popq	%rbp
	.cfi_def_cfa_offset 16
	popq	%r12
	.cfi_def_cfa_offset 8
	movq	24(%rax), %rax
	jmp	*%rax
	.p2align 4,,10
	.p2align 3
.L401:
	.cfi_restore_state
	movl	$-1, %eax
	lock xaddl	%eax, 8(%rbp)
	jmp	.L391
	.p2align 4,,10
	.p2align 3
.L403:
	movl	$-1, %eax
	lock xaddl	%eax, 12(%rdi)
	jmp	.L398
	.p2align 4,,10
	.p2align 3
.L405:
	movl	$-1, %eax
	lock xaddl	%eax, 12(%rbp)
	jmp	.L394
	.cfi_endproc
.LFE9444:
	.size	_ZN7asiopal8ExecutorD2Ev, .-_ZN7asiopal8ExecutorD2Ev
	.weak	_ZN7asiopal8ExecutorD1Ev
	.set	_ZN7asiopal8ExecutorD1Ev,_ZN7asiopal8ExecutorD2Ev
	.section	.text._ZN7asiopal8ExecutorD0Ev,"axG",@progbits,_ZN7asiopal8ExecutorD5Ev,comdat
	.align 2
	.p2align 4
	.weak	_ZN7asiopal8ExecutorD0Ev
	.type	_ZN7asiopal8ExecutorD0Ev, @function
_ZN7asiopal8ExecutorD0Ev:
.LFB9446:
	.cfi_startproc
	movq	_ZTVN7asiopal8ExecutorE@GOTPCREL(%rip), %rax
	pushq	%r12
	.cfi_def_cfa_offset 16
	.cfi_offset 12, -16
	pushq	%rbp
	.cfi_def_cfa_offset 24
	.cfi_offset 6, -24
	movq	%rdi, %rbp
	pushq	%rbx
	.cfi_def_cfa_offset 32
	.cfi_offset 3, -32
	movq	32(%rdi), %r12
	addq	$16, %rax
	movq	%rax, (%rdi)
	testq	%r12, %r12
	je	.L408
	movq	_ZL28__gthrw___pthread_key_createPjPFvPvE@GOTPCREL(%rip), %rbx
	testq	%rbx, %rbx
	jne	.L420
	movl	8(%r12), %eax
	leal	-1(%rax), %edx
	movl	%edx, 8(%r12)
.L410:
	cmpl	$1, %eax
	je	.L421
.L408:
	movq	16(%rbp), %rdi
	testq	%rdi, %rdi
	je	.L415
	cmpq	$0, _ZL28__gthrw___pthread_key_createPjPFvPvE@GOTPCREL(%rip)
	jne	.L422
	movl	12(%rdi), %eax
	leal	-1(%rax), %edx
	movl	%edx, 12(%rdi)
.L417:
	cmpl	$1, %eax
	je	.L423
.L415:
	popq	%rbx
	.cfi_remember_state
	.cfi_def_cfa_offset 24
	movq	%rbp, %rdi
	movl	$56, %esi
	popq	%rbp
	.cfi_def_cfa_offset 16
	popq	%r12
	.cfi_def_cfa_offset 8
	jmp	_ZdlPvm@PLT
	.p2align 4,,10
	.p2align 3
.L421:
	.cfi_restore_state
	movq	(%r12), %rax
	movq	%r12, %rdi
	call	*16(%rax)
	testq	%rbx, %rbx
	jne	.L424
	movl	12(%r12), %eax
	leal	-1(%rax), %edx
	movl	%edx, 12(%r12)
.L413:
	cmpl	$1, %eax
	jne	.L408
	movq	(%r12), %rax
	movq	%r12, %rdi
	call	*24(%rax)
	jmp	.L408
	.p2align 4,,10
	.p2align 3
.L423:
	movq	(%rdi), %rax
	call	*24(%rax)
	jmp	.L415
	.p2align 4,,10
	.p2align 3
.L420:
	movl	$-1, %eax
	lock xaddl	%eax, 8(%r12)
	jmp	.L410
	.p2align 4,,10
	.p2align 3
.L422:
	movl	$-1, %eax
	lock xaddl	%eax, 12(%rdi)
	jmp	.L417
	.p2align 4,,10
	.p2align 3
.L424:
	movl	$-1, %eax
	lock xaddl	%eax, 12(%r12)
	jmp	.L413
	.cfi_endproc
.LFE9446:
	.size	_ZN7asiopal8ExecutorD0Ev, .-_ZN7asiopal8ExecutorD0Ev
	.section	.text._ZNK4asio5error6detail17addrinfo_category7messageB5cxx11Ei,"axG",@progbits,_ZNK4asio5error6detail17addrinfo_category7messageB5cxx11Ei,comdat
	.align 2
	.p2align 4
	.weak	_ZNK4asio5error6detail17addrinfo_category7messageB5cxx11Ei
	.type	_ZNK4asio5error6detail17addrinfo_category7messageB5cxx11Ei, @function
_ZNK4asio5error6detail17addrinfo_category7messageB5cxx11Ei:
.LFB2420:
	.cfi_startproc
	pushq	%r12
	.cfi_def_cfa_offset 16
	.cfi_offset 12, -16
	movq	%rdi, %r12
	subq	$16, %rsp
	.cfi_def_cfa_offset 32
	movq	%fs:40, %rax
	movq	%rax, 8(%rsp)
	xorl	%eax, %eax
	leaq	16(%rdi), %rax
	movq	%rax, (%rdi)
	cmpl	$-8, %edx
	je	.L431
	cmpl	$-7, %edx
	je	.L432
	xorl	%edx, %edx
	movq	%rsp, %rsi
	movq	$19, (%rsp)
	call	_ZNSt7__cxx1112basic_stringIcSt11char_traitsIcESaIcEE9_M_createERmm@PLT
	movq	(%rsp), %rdx
	movdqa	.LC9(%rip), %xmm0
	movq	%rax, (%r12)
	movq	%rdx, 16(%r12)
	movl	$28530, %edx
	movw	%dx, 16(%rax)
	movb	$114, 18(%rax)
	movups	%xmm0, (%rax)
	movq	(%rsp), %rax
	movq	(%r12), %rdx
	movq	%rax, 8(%r12)
	movb	$0, (%rdx,%rax)
.L425:
	movq	8(%rsp), %rax
	subq	%fs:40, %rax
	jne	.L433
	addq	$16, %rsp
	.cfi_remember_state
	.cfi_def_cfa_offset 16
	movq	%r12, %rax
	popq	%r12
	.cfi_def_cfa_offset 8
	ret
	.p2align 4,,10
	.p2align 3
.L432:
	.cfi_restore_state
	xorl	%edx, %edx
	movq	%rsp, %rsi
	movq	$25, (%rsp)
	call	_ZNSt7__cxx1112basic_stringIcSt11char_traitsIcESaIcEE9_M_createERmm@PLT
	movq	(%rsp), %rdx
	movdqa	.LC8(%rip), %xmm0
	movabsq	$7310593918082512243, %rcx
	movq	%rax, (%r12)
	movq	%rdx, 16(%r12)
	movq	%rcx, 16(%rax)
	movb	$100, 24(%rax)
	movups	%xmm0, (%rax)
	movq	(%rsp), %rax
	movq	(%r12), %rdx
	movq	%rax, 8(%r12)
	movb	$0, (%rdx,%rax)
	jmp	.L425
	.p2align 4,,10
	.p2align 3
.L431:
	xorl	%edx, %edx
	movq	%rsp, %rsi
	movq	$17, (%rsp)
	call	_ZNSt7__cxx1112basic_stringIcSt11char_traitsIcESaIcEE9_M_createERmm@PLT
	movq	(%rsp), %rdx
	movdqa	.LC7(%rip), %xmm0
	movq	%rax, (%r12)
	movq	%rdx, 16(%r12)
	movb	$100, 16(%rax)
	movups	%xmm0, (%rax)
	movq	(%rsp), %rax
	movq	(%r12), %rdx
	movq	%rax, 8(%r12)
	movb	$0, (%rdx,%rax)
	jmp	.L425
.L433:
	call	__stack_chk_fail@PLT
	.cfi_endproc
.LFE2420:
	.size	_ZNK4asio5error6detail17addrinfo_category7messageB5cxx11Ei, .-_ZNK4asio5error6detail17addrinfo_category7messageB5cxx11Ei
	.section	.text.unlikely
	.align 2
	.type	_ZZN7asiopal8Executor5StartERKNSt6chrono10time_pointINS1_3_V212steady_clockENS1_8durationIlSt5ratioILl1ELl1000000000EEEEEERKSt8functionIFvvEEENUlRKSt10error_codeE_D2Ev, @function
_ZZN7asiopal8Executor5StartERKNSt6chrono10time_pointINS1_3_V212steady_clockENS1_8durationIlSt5ratioILl1ELl1000000000EEEEEERKSt8functionIFvvEEENUlRKSt10error_codeE_D2Ev:
.LFB7023:
	.cfi_startproc
	.cfi_personality 0x9b,DW.ref.__gxx_personality_v0
	.cfi_lsda 0x1b,.LLSDA7023
	pushq	%r12
	.cfi_def_cfa_offset 16
	.cfi_offset 12, -16
	pushq	%rbp
	.cfi_def_cfa_offset 24
	.cfi_offset 6, -24
	pushq	%rbx
	.cfi_def_cfa_offset 32
	.cfi_offset 3, -32
	movq	56(%rdi), %rbp
	movq	%rdi, %rbx
	testq	%rbp, %rbp
	je	.L436
	movq	_ZL28__gthrw___pthread_key_createPjPFvPvE@GOTPCREL(%rip), %r12
	testq	%r12, %r12
	je	.L437
	orl	$-1, %eax
	lock xaddl	%eax, 8(%rbp)
	jmp	.L438
.L437:
	movl	8(%rbp), %eax
	leal	-1(%rax), %edx
	movl	%edx, 8(%rbp)
.L438:
	decl	%eax
	jne	.L436
	movq	0(%rbp), %rax
	movq	%rbp, %rdi
	call	*16(%rax)
	testq	%r12, %r12
	je	.L440
	orl	$-1, %eax
	lock xaddl	%eax, 12(%rbp)
	jmp	.L441
.L440:
	movl	12(%rbp), %eax
	leal	-1(%rax), %edx
	movl	%edx, 12(%rbp)
.L441:
	decl	%eax
	jne	.L436
	movq	0(%rbp), %rax
	movq	%rbp, %rdi
	call	*24(%rax)
.L436:
	movq	32(%rbx), %rax
	testq	%rax, %rax
	je	.L442
	leaq	16(%rbx), %rdi
	movl	$3, %edx
	movq	%rdi, %rsi
	call	*%rax
.L442:
	movq	8(%rbx), %rbp
	testq	%rbp, %rbp
	je	.L434
	movq	_ZL28__gthrw___pthread_key_createPjPFvPvE@GOTPCREL(%rip), %rbx
	testq	%rbx, %rbx
	je	.L445
	orl	$-1, %eax
	lock xaddl	%eax, 8(%rbp)
	jmp	.L446
.L445:
	movl	8(%rbp), %eax
	leal	-1(%rax), %edx
	movl	%edx, 8(%rbp)
.L446:
	decl	%eax
	jne	.L434
	movq	0(%rbp), %rax
	movq	%rbp, %rdi
	call	*16(%rax)
	testq	%rbx, %rbx
	je	.L448
	orl	$-1, %eax
	lock xaddl	%eax, 12(%rbp)
	jmp	.L449
.L448:
	movl	12(%rbp), %eax
	leal	-1(%rax), %edx
	movl	%edx, 12(%rbp)
.L449:
	decl	%eax
	jne	.L434
	movq	0(%rbp), %rax
	popq	%rbx
	.cfi_remember_state
	.cfi_def_cfa_offset 24
	movq	%rbp, %rdi
	popq	%rbp
	.cfi_def_cfa_offset 16
	popq	%r12
	.cfi_def_cfa_offset 8
	movq	24(%rax), %rax
	jmp	*%rax
.L434:
	.cfi_restore_state
	popq	%rbx
	.cfi_def_cfa_offset 24
	popq	%rbp
	.cfi_def_cfa_offset 16
	popq	%r12
	.cfi_def_cfa_offset 8
	ret
	.cfi_endproc
.LFE7023:
	.section	.gcc_except_table
.LLSDA7023:
	.byte	0xff
	.byte	0xff
	.byte	0x1
	.uleb128 .LLSDACSE7023-.LLSDACSB7023
.LLSDACSB7023:
.LLSDACSE7023:
	.section	.text.unlikely
	.size	_ZZN7asiopal8Executor5StartERKNSt6chrono10time_pointINS1_3_V212steady_clockENS1_8durationIlSt5ratioILl1ELl1000000000EEEEEERKSt8functionIFvvEEENUlRKSt10error_codeE_D2Ev, .-_ZZN7asiopal8Executor5StartERKNSt6chrono10time_pointINS1_3_V212steady_clockENS1_8durationIlSt5ratioILl1ELl1000000000EEEEEERKSt8functionIFvvEEENUlRKSt10error_codeE_D2Ev
	.set	_ZZN7asiopal8Executor5StartERKNSt6chrono10time_pointINS1_3_V212steady_clockENS1_8durationIlSt5ratioILl1ELl1000000000EEEEEERKSt8functionIFvvEEENUlRKSt10error_codeE_D1Ev,_ZZN7asiopal8Executor5StartERKNSt6chrono10time_pointINS1_3_V212steady_clockENS1_8durationIlSt5ratioILl1ELl1000000000EEEEEERKSt8functionIFvvEEENUlRKSt10error_codeE_D2Ev
	.section	.text._ZNK4asio5error6detail14netdb_category7messageB5cxx11Ei,"axG",@progbits,_ZNK4asio5error6detail14netdb_category7messageB5cxx11Ei,comdat
	.align 2
	.p2align 4
	.weak	_ZNK4asio5error6detail14netdb_category7messageB5cxx11Ei
	.type	_ZNK4asio5error6detail14netdb_category7messageB5cxx11Ei, @function
_ZNK4asio5error6detail14netdb_category7messageB5cxx11Ei:
.LFB2414:
	.cfi_startproc
	pushq	%r12
	.cfi_def_cfa_offset 16
	.cfi_offset 12, -16
	movq	%rdi, %r12
	subq	$16, %rsp
	.cfi_def_cfa_offset 32
	movq	%fs:40, %rax
	movq	%rax, 8(%rsp)
	xorl	%eax, %eax
	leaq	16(%rdi), %rax
	movq	%rax, (%rdi)
	cmpl	$1, %edx
	je	.L462
	cmpl	$2, %edx
	je	.L463
	cmpl	$4, %edx
	je	.L464
	cmpl	$3, %edx
	je	.L465
	xorl	%edx, %edx
	movq	%rsp, %rsi
	movq	$16, (%rsp)
	call	_ZNSt7__cxx1112basic_stringIcSt11char_traitsIcESaIcEE9_M_createERmm@PLT
	movq	(%rsp), %rdx
	movdqa	.LC19(%rip), %xmm0
	movq	%rax, (%r12)
	movq	%rdx, 16(%r12)
	movups	%xmm0, (%rax)
	movq	(%rsp), %rax
	movq	(%r12), %rdx
	movq	%rax, 8(%r12)
	movb	$0, (%rdx,%rax)
.L454:
	movq	8(%rsp), %rax
	subq	%fs:40, %rax
	jne	.L466
	addq	$16, %rsp
	.cfi_remember_state
	.cfi_def_cfa_offset 16
	movq	%r12, %rax
	popq	%r12
	.cfi_def_cfa_offset 8
	ret
	.p2align 4,,10
	.p2align 3
.L462:
	.cfi_restore_state
	movq	%rsp, %rsi
	xorl	%edx, %edx
	movq	$30, (%rsp)
	call	_ZNSt7__cxx1112basic_stringIcSt11char_traitsIcESaIcEE9_M_createERmm@PLT
	movq	(%rsp), %rdx
	movl	$10597, %esi
	movdqa	.LC10(%rip), %xmm0
	movabsq	$8388361603773658465, %rcx
	movq	%rax, (%r12)
	movq	%rdx, 16(%r12)
	movq	%rcx, 16(%rax)
	movl	$1986622561, 24(%rax)
	movw	%si, 28(%rax)
	movups	%xmm0, (%rax)
	movq	(%rsp), %rax
	movq	(%r12), %rdx
	movq	%rax, 8(%r12)
	movb	$0, (%rdx,%rax)
	jmp	.L454
	.p2align 4,,10
	.p2align 3
.L465:
	xorl	%edx, %edx
	movq	%rsp, %rsi
	movq	$55, (%rsp)
	call	_ZNSt7__cxx1112basic_stringIcSt11char_traitsIcESaIcEE9_M_createERmm@PLT
	movq	(%rsp), %rdx
	movdqa	.LC16(%rip), %xmm0
	movq	%rax, (%r12)
	movq	%rdx, 16(%r12)
	movl	$30059, %edx
	movups	%xmm0, (%rax)
	movdqa	.LC17(%rip), %xmm0
	movl	$1869573152, 48(%rax)
	movups	%xmm0, 16(%rax)
	movdqa	.LC18(%rip), %xmm0
	movw	%dx, 52(%rax)
	movb	$112, 54(%rax)
	movups	%xmm0, 32(%rax)
	movq	(%rsp), %rax
	movq	(%r12), %rdx
	movq	%rax, 8(%r12)
	movb	$0, (%rdx,%rax)
	jmp	.L454
	.p2align 4,,10
	.p2align 3
.L463:
	xorl	%edx, %edx
	movq	%rsp, %rsi
	movq	$51, (%rsp)
	call	_ZNSt7__cxx1112basic_stringIcSt11char_traitsIcESaIcEE9_M_createERmm@PLT
	movq	(%rsp), %rdx
	movl	$25972, %ecx
	movdqa	.LC10(%rip), %xmm0
	movq	%rax, (%r12)
	movq	%rdx, 16(%r12)
	movups	%xmm0, (%rax)
	movdqa	.LC11(%rip), %xmm0
	movw	%cx, 48(%rax)
	movups	%xmm0, 16(%rax)
	movdqa	.LC12(%rip), %xmm0
	movb	$114, 50(%rax)
	movups	%xmm0, 32(%rax)
	movq	(%rsp), %rax
	movq	(%r12), %rdx
	movq	%rax, 8(%r12)
	movb	$0, (%rdx,%rax)
	jmp	.L454
	.p2align 4,,10
	.p2align 3
.L464:
	xorl	%edx, %edx
	movq	%rsp, %rsi
	movq	$56, (%rsp)
	call	_ZNSt7__cxx1112basic_stringIcSt11char_traitsIcESaIcEE9_M_createERmm@PLT
	movq	(%rsp), %rdx
	movdqa	.LC13(%rip), %xmm0
	movabsq	$7022344801645520244, %rcx
	movq	%rax, (%r12)
	movq	%rdx, 16(%r12)
	movups	%xmm0, (%rax)
	movdqa	.LC14(%rip), %xmm0
	movq	%rcx, 48(%rax)
	movups	%xmm0, 16(%rax)
	movdqa	.LC15(%rip), %xmm0
	movups	%xmm0, 32(%rax)
	movq	(%rsp), %rax
	movq	(%r12), %rdx
	movq	%rax, 8(%r12)
	movb	$0, (%rdx,%rax)
	jmp	.L454
.L466:
	call	__stack_chk_fail@PLT
	.cfi_endproc
.LFE2414:
	.size	_ZNK4asio5error6detail14netdb_category7messageB5cxx11Ei, .-_ZNK4asio5error6detail14netdb_category7messageB5cxx11Ei
	.section	.text.unlikely
	.align 2
	.type	_ZN4asio6detail18completion_handlerIZN7asiopal8Executor4PostERKSt8functionIFvvEEEUlvE_E3ptr5resetEv, @function
_ZN4asio6detail18completion_handlerIZN7asiopal8Executor4PostERKSt8functionIFvvEEEUlvE_E3ptr5resetEv:
.LFB8729:
	.cfi_startproc
	.cfi_personality 0x9b,DW.ref.__gxx_personality_v0
	.cfi_lsda 0x1b,.LLSDA8729
	pushq	%r13
	.cfi_def_cfa_offset 16
	.cfi_offset 13, -16
	pushq	%r12
	.cfi_def_cfa_offset 24
	.cfi_offset 12, -24
	movq	%rdi, %r12
	pushq	%rbp
	.cfi_def_cfa_offset 32
	.cfi_offset 6, -32
	pushq	%rbx
	.cfi_def_cfa_offset 40
	.cfi_offset 3, -40
	pushq	%rdx
	.cfi_def_cfa_offset 48
	movq	16(%rdi), %rbx
	testq	%rbx, %rbx
	je	.L468
	movq	64(%rbx), %rbp
	testq	%rbp, %rbp
	je	.L470
	movq	_ZL28__gthrw___pthread_key_createPjPFvPvE@GOTPCREL(%rip), %r13
	testq	%r13, %r13
	je	.L471
	orl	$-1, %eax
	lock xaddl	%eax, 8(%rbp)
	jmp	.L472
.L471:
	movl	8(%rbp), %eax
	leal	-1(%rax), %edx
	movl	%edx, 8(%rbp)
.L472:
	decl	%eax
	jne	.L470
	movq	0(%rbp), %rax
	movq	%rbp, %rdi
	call	*16(%rax)
	testq	%r13, %r13
	je	.L474
	orl	$-1, %eax
	lock xaddl	%eax, 12(%rbp)
	jmp	.L475
.L474:
	movl	12(%rbp), %eax
	leal	-1(%rax), %edx
	movl	%edx, 12(%rbp)
.L475:
	decl	%eax
	jne	.L470
	movq	0(%rbp), %rax
	movq	%rbp, %rdi
	call	*24(%rax)
.L470:
	movq	40(%rbx), %rax
	testq	%rax, %rax
	je	.L476
	leaq	24(%rbx), %rdi
	movl	$3, %edx
	movq	%rdi, %rsi
	call	*%rax
.L476:
	movq	$0, 16(%r12)
.L468:
	movq	8(%r12), %rbp
	testq	%rbp, %rbp
	je	.L467
	data16	leaq	_ZN4asio6detail15keyword_tss_ptrINS0_10call_stackINS0_15task_io_serviceENS0_27task_io_service_thread_infoEE7contextEE6value_E@tlsgd(%rip), %rdi
	.value	0x6666
	rex64
	call	__tls_get_addr@PLT
	movq	(%rax), %rax
	testq	%rax, %rax
	je	.L478
	movq	8(%rax), %rax
	testq	%rax, %rax
	je	.L478
	cmpq	$0, (%rax)
	jne	.L478
	movb	72(%rbp), %dl
	movb	%dl, 0(%rbp)
	movq	%rbp, (%rax)
	jmp	.L479
.L478:
	movq	%rbp, %rdi
	call	_ZdlPv@PLT
.L479:
	movq	$0, 8(%r12)
.L467:
	popq	%rax
	.cfi_def_cfa_offset 40
	popq	%rbx
	.cfi_def_cfa_offset 32
	popq	%rbp
	.cfi_def_cfa_offset 24
	popq	%r12
	.cfi_def_cfa_offset 16
	popq	%r13
	.cfi_def_cfa_offset 8
	ret
	.cfi_endproc
.LFE8729:
	.section	.gcc_except_table
.LLSDA8729:
	.byte	0xff
	.byte	0xff
	.byte	0x1
	.uleb128 .LLSDACSE8729-.LLSDACSB8729
.LLSDACSB8729:
.LLSDACSE8729:
	.section	.text.unlikely
	.size	_ZN4asio6detail18completion_handlerIZN7asiopal8Executor4PostERKSt8functionIFvvEEEUlvE_E3ptr5resetEv, .-_ZN4asio6detail18completion_handlerIZN7asiopal8Executor4PostERKSt8functionIFvvEEEUlvE_E3ptr5resetEv
	.section	.text._ZNK4asio5error6detail13misc_category7messageB5cxx11Ei,"axG",@progbits,_ZNK4asio5error6detail13misc_category7messageB5cxx11Ei,comdat
	.align 2
	.p2align 4
	.weak	_ZNK4asio5error6detail13misc_category7messageB5cxx11Ei
	.type	_ZNK4asio5error6detail13misc_category7messageB5cxx11Ei, @function
_ZNK4asio5error6detail13misc_category7messageB5cxx11Ei:
.LFB2426:
	.cfi_startproc
	pushq	%r12
	.cfi_def_cfa_offset 16
	.cfi_offset 12, -16
	movq	%rdi, %r12
	subq	$16, %rsp
	.cfi_def_cfa_offset 32
	movq	%fs:40, %rax
	movq	%rax, 8(%rsp)
	xorl	%eax, %eax
	leaq	16(%rdi), %rax
	movq	%rax, (%rdi)
	cmpl	$1, %edx
	je	.L504
	cmpl	$2, %edx
	je	.L505
	cmpl	$3, %edx
	je	.L506
	cmpl	$4, %edx
	je	.L507
	movabsq	$8316298233121436513, %rcx
	movl	$28530, %edx
	movq	%rcx, 16(%rdi)
	movl	$1919230051, 8(%rax)
	movw	%dx, 12(%rax)
	movb	$114, 14(%rax)
	movq	$15, 8(%rdi)
	movb	$0, 31(%rdi)
.L496:
	movq	8(%rsp), %rax
	subq	%fs:40, %rax
	jne	.L508
	addq	$16, %rsp
	.cfi_remember_state
	.cfi_def_cfa_offset 16
	movq	%r12, %rax
	popq	%r12
	.cfi_def_cfa_offset 8
	ret
	.p2align 4,,10
	.p2align 3
.L504:
	.cfi_restore_state
	movabsq	$2340011850872286273, %rcx
	movq	%rcx, 16(%rdi)
	movl	$1852141679, 8(%rax)
	movq	$12, 8(%rdi)
	movb	$0, 28(%rdi)
	jmp	.L496
	.p2align 4,,10
	.p2align 3
.L507:
	movq	%rsp, %rsi
	xorl	%edx, %edx
	movq	$57, (%rsp)
	call	_ZNSt7__cxx1112basic_stringIcSt11char_traitsIcESaIcEE9_M_createERmm@PLT
	movq	(%rsp), %rdx
	movdqa	.LC21(%rip), %xmm0
	movabsq	$7310291504967217959, %rsi
	movq	%rax, (%r12)
	movq	%rdx, 16(%r12)
	movups	%xmm0, (%rax)
	movdqa	.LC22(%rip), %xmm0
	movq	%rsi, 48(%rax)
	movups	%xmm0, 16(%rax)
	movdqa	.LC23(%rip), %xmm0
	movb	$116, 56(%rax)
	movups	%xmm0, 32(%rax)
	movq	(%rsp), %rax
	movq	(%r12), %rdx
	movq	%rax, 8(%r12)
	movb	$0, (%rdx,%rax)
	jmp	.L496
	.p2align 4,,10
	.p2align 3
.L505:
	movabsq	$7358994418594246213, %rcx
	movq	%rcx, 16(%rdi)
	movl	$27753, %ecx
	movw	%cx, 8(%rax)
	movb	$101, 10(%rax)
	movq	$11, 8(%rdi)
	movb	$0, 27(%rdi)
	jmp	.L496
	.p2align 4,,10
	.p2align 3
.L506:
	xorl	%edx, %edx
	movq	%rsp, %rsi
	movq	$17, (%rsp)
	call	_ZNSt7__cxx1112basic_stringIcSt11char_traitsIcESaIcEE9_M_createERmm@PLT
	movq	(%rsp), %rdx
	movdqa	.LC20(%rip), %xmm0
	movq	%rax, (%r12)
	movq	%rdx, 16(%r12)
	movb	$100, 16(%rax)
	movups	%xmm0, (%rax)
	movq	(%rsp), %rax
	movq	(%r12), %rdx
	movq	%rax, 8(%r12)
	movb	$0, (%rdx,%rax)
	jmp	.L496
.L508:
	call	__stack_chk_fail@PLT
	.cfi_endproc
.LFE2426:
	.size	_ZNK4asio5error6detail13misc_category7messageB5cxx11Ei, .-_ZNK4asio5error6detail13misc_category7messageB5cxx11Ei
	.section	.text.unlikely
.LCOLDB24:
	.text
.LHOTB24:
	.p2align 4
	.type	_ZN4asio6detail18completion_handlerIZN7asiopal8Executor4PostERKSt8functionIFvvEEEUlvE_E11do_completeEPNS0_15task_io_serviceEPNS0_25task_io_service_operationERKSt10error_codem, @function
_ZN4asio6detail18completion_handlerIZN7asiopal8Executor4PostERKSt8functionIFvvEEEUlvE_E11do_completeEPNS0_15task_io_serviceEPNS0_25task_io_service_operationERKSt10error_codem:
.LFB8733:
	.cfi_startproc
	.cfi_personality 0x9b,DW.ref.__gxx_personality_v0
	.cfi_lsda 0x1b,.LLSDA8733
	pushq	%r15
	.cfi_def_cfa_offset 16
	.cfi_offset 15, -16
	pushq	%r14
	.cfi_def_cfa_offset 24
	.cfi_offset 14, -24
	pushq	%r13
	.cfi_def_cfa_offset 32
	.cfi_offset 13, -32
	movq	%rdi, %r13
	pushq	%r12
	.cfi_def_cfa_offset 40
	.cfi_offset 12, -40
	pushq	%rbp
	.cfi_def_cfa_offset 48
	.cfi_offset 6, -48
	pushq	%rbx
	.cfi_def_cfa_offset 56
	.cfi_offset 3, -56
	movq	%rsi, %rbx
	addq	$24, %rsi
	subq	$104, %rsp
	.cfi_def_cfa_offset 160
	movq	%fs:40, %rax
	movq	%rax, 88(%rsp)
	xorl	%eax, %eax
	movq	40(%rbx), %rax
	movq	%rsi, (%rsp)
	movq	%rbx, 8(%rsp)
	movq	%rbx, 16(%rsp)
	movq	$0, 48(%rsp)
	testq	%rax, %rax
	je	.L510
	leaq	32(%rsp), %rbp
	movl	$2, %edx
	movq	%rbp, %rdi
.LEHB7:
	call	*%rax
.LEHE7:
	movdqu	56(%rbx), %xmm2
	movdqu	40(%rbx), %xmm1
	pxor	%xmm0, %xmm0
	movq	%rbp, (%rsp)
	movq	16(%rsp), %r12
	movups	%xmm0, 56(%rbx)
	movaps	%xmm1, 48(%rsp)
	movaps	%xmm2, 64(%rsp)
	testq	%r12, %r12
	jne	.L511
.L512:
	movq	8(%rsp), %r12
	testq	%r12, %r12
	je	.L524
	data16	leaq	_ZN4asio6detail15keyword_tss_ptrINS0_10call_stackINS0_15task_io_serviceENS0_27task_io_service_thread_infoEE7contextEE6value_E@tlsgd(%rip), %rdi
	.value	0x6666
	rex64
	call	__tls_get_addr@PLT
	movq	(%rax), %rax
	testq	%rax, %rax
	je	.L525
	movq	8(%rax), %rax
	testq	%rax, %rax
	je	.L525
	cmpq	$0, (%rax)
	je	.L589
.L525:
	movq	%r12, %rdi
	call	_ZdlPv@PLT
.L526:
	movq	$0, 8(%rsp)
.L524:
	testq	%r13, %r13
	je	.L527
	cmpq	$0, 48(%rsp)
	je	.L590
	movq	%rbp, %rdi
.LEHB8:
	call	*56(%rsp)
.LEHE8:
	sfence
.L527:
	movq	72(%rsp), %r12
	testq	%r12, %r12
	je	.L530
	movq	_ZL28__gthrw___pthread_key_createPjPFvPvE@GOTPCREL(%rip), %r15
	testq	%r15, %r15
	jne	.L591
	movl	8(%r12), %eax
	leal	-1(%rax), %edx
	movl	%edx, 8(%r12)
.L532:
	cmpl	$1, %eax
	je	.L592
.L530:
	movq	48(%rsp), %rax
	testq	%rax, %rax
	je	.L536
	movl	$3, %edx
	movq	%rbp, %rsi
	movq	%rbp, %rdi
	call	*%rax
.L536:
	movq	16(%rsp), %rbx
	testq	%rbx, %rbx
	je	.L537
	movq	64(%rbx), %rbp
	testq	%rbp, %rbp
	je	.L539
	movq	_ZL28__gthrw___pthread_key_createPjPFvPvE@GOTPCREL(%rip), %r15
	testq	%r15, %r15
	jne	.L593
	movl	8(%rbp), %eax
	leal	-1(%rax), %edx
	movl	%edx, 8(%rbp)
.L541:
	cmpl	$1, %eax
	jne	.L539
	movq	0(%rbp), %rax
	movq	%rbp, %rdi
	call	*16(%rax)
	testq	%r15, %r15
	jne	.L594
	movl	12(%rbp), %eax
	leal	-1(%rax), %edx
	movl	%edx, 12(%rbp)
.L544:
	cmpl	$1, %eax
	je	.L595
	.p2align 4,,10
	.p2align 3
.L539:
	movq	40(%rbx), %rax
	testq	%rax, %rax
	je	.L545
	leaq	24(%rbx), %rdi
	movl	$3, %edx
	movq	%rdi, %rsi
	call	*%rax
.L545:
	movq	$0, 16(%rsp)
.L537:
	movq	8(%rsp), %rbp
	testq	%rbp, %rbp
	je	.L509
	data16	leaq	_ZN4asio6detail15keyword_tss_ptrINS0_10call_stackINS0_15task_io_serviceENS0_27task_io_service_thread_infoEE7contextEE6value_E@tlsgd(%rip), %rdi
	.value	0x6666
	rex64
	call	__tls_get_addr@PLT
	movq	(%rax), %rax
	testq	%rax, %rax
	je	.L547
	movq	8(%rax), %rax
	testq	%rax, %rax
	je	.L547
	cmpq	$0, (%rax)
	je	.L596
.L547:
	movq	%rbp, %rdi
	call	_ZdlPv@PLT
.L509:
	movq	88(%rsp), %rax
	subq	%fs:40, %rax
	jne	.L597
	addq	$104, %rsp
	.cfi_remember_state
	.cfi_def_cfa_offset 56
	popq	%rbx
	.cfi_def_cfa_offset 48
	popq	%rbp
	.cfi_def_cfa_offset 40
	popq	%r12
	.cfi_def_cfa_offset 32
	popq	%r13
	.cfi_def_cfa_offset 24
	popq	%r14
	.cfi_def_cfa_offset 16
	popq	%r15
	.cfi_def_cfa_offset 8
	ret
	.p2align 4,,10
	.p2align 3
.L510:
	.cfi_restore_state
	leaq	32(%rsp), %rbp
	movdqu	56(%rbx), %xmm3
	pxor	%xmm0, %xmm0
	movq	%rbx, %r12
	movq	%rbp, (%rsp)
	movaps	%xmm3, 64(%rsp)
	movups	%xmm0, 56(%rbx)
.L511:
	movq	64(%r12), %r14
	testq	%r14, %r14
	je	.L517
	movq	_ZL28__gthrw___pthread_key_createPjPFvPvE@GOTPCREL(%rip), %r15
	testq	%r15, %r15
	jne	.L598
	movl	8(%r14), %eax
	leal	-1(%rax), %edx
	movl	%edx, 8(%r14)
.L519:
	cmpl	$1, %eax
	jne	.L517
	movq	(%r14), %rax
	movq	%r14, %rdi
	call	*16(%rax)
	testq	%r15, %r15
	jne	.L599
	movl	12(%r14), %eax
	leal	-1(%rax), %edx
	movl	%edx, 12(%r14)
.L522:
	cmpl	$1, %eax
	je	.L600
	.p2align 4,,10
	.p2align 3
.L517:
	movq	40(%r12), %rax
	testq	%rax, %rax
	je	.L523
	leaq	24(%r12), %rdi
	movl	$3, %edx
	movq	%rdi, %rsi
	call	*%rax
.L523:
	movq	$0, 16(%rsp)
	jmp	.L512
	.p2align 4,,10
	.p2align 3
.L592:
	movq	(%r12), %rax
	movq	%r12, %rdi
	call	*16(%rax)
	testq	%r15, %r15
	jne	.L601
	movl	12(%r12), %eax
	leal	-1(%rax), %edx
	movl	%edx, 12(%r12)
.L535:
	cmpl	$1, %eax
	jne	.L530
	movq	(%r12), %rax
	movq	%r12, %rdi
	call	*24(%rax)
	jmp	.L530
	.p2align 4,,10
	.p2align 3
.L591:
	movl	$-1, %eax
	lock xaddl	%eax, 8(%r12)
	jmp	.L532
	.p2align 4,,10
	.p2align 3
.L598:
	movl	$-1, %eax
	lock xaddl	%eax, 8(%r14)
	jmp	.L519
	.p2align 4,,10
	.p2align 3
.L593:
	movl	$-1, %eax
	lock xaddl	%eax, 8(%rbp)
	jmp	.L541
	.p2align 4,,10
	.p2align 3
.L596:
	movzbl	72(%rbp), %edx
	movb	%dl, 0(%rbp)
	movq	%rbp, (%rax)
	jmp	.L509
	.p2align 4,,10
	.p2align 3
.L589:
	movzbl	72(%r12), %edx
	movb	%dl, (%r12)
	movq	%r12, (%rax)
	jmp	.L526
	.p2align 4,,10
	.p2align 3
.L601:
	movl	$-1, %eax
	lock xaddl	%eax, 12(%r12)
	jmp	.L535
	.p2align 4,,10
	.p2align 3
.L600:
	movq	(%r14), %rax
	movq	%r14, %rdi
	call	*24(%rax)
	jmp	.L517
	.p2align 4,,10
	.p2align 3
.L595:
	movq	0(%rbp), %rax
	movq	%rbp, %rdi
	call	*24(%rax)
	jmp	.L539
	.p2align 4,,10
	.p2align 3
.L599:
	movl	$-1, %eax
	lock xaddl	%eax, 12(%r14)
	jmp	.L522
	.p2align 4,,10
	.p2align 3
.L594:
	movl	$-1, %eax
	lock xaddl	%eax, 12(%rbp)
	jmp	.L544
.L597:
	call	__stack_chk_fail@PLT
.L590:
.LEHB9:
	call	_ZSt25__throw_bad_function_callv@PLT
.LEHE9:
.L550:
	movq	%rax, %rbx
	jmp	.L548
.L551:
	movq	%rax, %rbx
	jmp	.L513
	.section	.gcc_except_table
.LLSDA8733:
	.byte	0xff
	.byte	0xff
	.byte	0x1
	.uleb128 .LLSDACSE8733-.LLSDACSB8733
.LLSDACSB8733:
	.uleb128 .LEHB7-.LFB8733
	.uleb128 .LEHE7-.LEHB7
	.uleb128 .L551-.LFB8733
	.uleb128 0
	.uleb128 .LEHB8-.LFB8733
	.uleb128 .LEHE8-.LEHB8
	.uleb128 .L550-.LFB8733
	.uleb128 0
	.uleb128 .LEHB9-.LFB8733
	.uleb128 .LEHE9-.LEHB9
	.uleb128 .L550-.LFB8733
	.uleb128 0
.LLSDACSE8733:
	.text
	.cfi_endproc
	.section	.text.unlikely
	.cfi_startproc
	.cfi_personality 0x9b,DW.ref.__gxx_personality_v0
	.cfi_lsda 0x1b,.LLSDAC8733
	.type	_ZN4asio6detail18completion_handlerIZN7asiopal8Executor4PostERKSt8functionIFvvEEEUlvE_E11do_completeEPNS0_15task_io_serviceEPNS0_25task_io_service_operationERKSt10error_codem.cold, @function
_ZN4asio6detail18completion_handlerIZN7asiopal8Executor4PostERKSt8functionIFvvEEEUlvE_E11do_completeEPNS0_15task_io_serviceEPNS0_25task_io_service_operationERKSt10error_codem.cold:
.LFSB8733:
.L548:
	.cfi_def_cfa_offset 160
	.cfi_offset 3, -56
	.cfi_offset 6, -48
	.cfi_offset 12, -40
	.cfi_offset 13, -32
	.cfi_offset 14, -24
	.cfi_offset 15, -16
	sfence
	movq	%rbp, %rdi
	call	_ZZN7asiopal8Executor4PostERKSt8functionIFvvEEENUlvE_D1Ev
.L515:
	movq	%rsp, %rdi
	call	_ZN4asio6detail18completion_handlerIZN7asiopal8Executor4PostERKSt8functionIFvvEEEUlvE_E3ptr5resetEv
	movq	%rbx, %rdi
.LEHB10:
	call	_Unwind_Resume@PLT
.LEHE10:
.L513:
	movq	48(%rsp), %rax
	testq	%rax, %rax
	je	.L515
	movl	$3, %edx
	movq	%rbp, %rsi
	movq	%rbp, %rdi
	call	*%rax
	jmp	.L515
	.cfi_endproc
.LFE8733:
	.section	.gcc_except_table
.LLSDAC8733:
	.byte	0xff
	.byte	0xff
	.byte	0x1
	.uleb128 .LLSDACSEC8733-.LLSDACSBC8733
.LLSDACSBC8733:
	.uleb128 .LEHB10-.LCOLDB24
	.uleb128 .LEHE10-.LEHB10
	.uleb128 0
	.uleb128 0
.LLSDACSEC8733:
	.section	.text.unlikely
	.text
	.size	_ZN4asio6detail18completion_handlerIZN7asiopal8Executor4PostERKSt8functionIFvvEEEUlvE_E11do_completeEPNS0_15task_io_serviceEPNS0_25task_io_service_operationERKSt10error_codem, .-_ZN4asio6detail18completion_handlerIZN7asiopal8Executor4PostERKSt8functionIFvvEEEUlvE_E11do_completeEPNS0_15task_io_serviceEPNS0_25task_io_service_operationERKSt10error_codem
	.section	.text.unlikely
	.size	_ZN4asio6detail18completion_handlerIZN7asiopal8Executor4PostERKSt8functionIFvvEEEUlvE_E11do_completeEPNS0_15task_io_serviceEPNS0_25task_io_service_operationERKSt10error_codem.cold, .-_ZN4asio6detail18completion_handlerIZN7asiopal8Executor4PostERKSt8functionIFvvEEEUlvE_E11do_completeEPNS0_15task_io_serviceEPNS0_25task_io_service_operationERKSt10error_codem.cold
.LCOLDE24:
	.text
.LHOTE24:
	.section	.text.unlikely
	.align 2
	.type	_ZN4asio6detail12wait_handlerINS0_15wrapped_handlerINS_10io_service6strandEZN7asiopal8Executor5StartERKNSt6chrono10time_pointINS7_3_V212steady_clockENS7_8durationIlSt5ratioILl1ELl1000000000EEEEEERKSt8functionIFvvEEEUlRKSt10error_codeE_NS0_26is_continuation_if_runningEEEE3ptr5resetEv, @function
_ZN4asio6detail12wait_handlerINS0_15wrapped_handlerINS_10io_service6strandEZN7asiopal8Executor5StartERKNSt6chrono10time_pointINS7_3_V212steady_clockENS7_8durationIlSt5ratioILl1ELl1000000000EEEEEERKSt8functionIFvvEEEUlRKSt10error_codeE_NS0_26is_continuation_if_runningEEEE3ptr5resetEv:
.LFB8863:
	.cfi_startproc
	.cfi_personality 0x9b,DW.ref.__gxx_personality_v0
	.cfi_lsda 0x1b,.LLSDA8863
	pushq	%r13
	.cfi_def_cfa_offset 16
	.cfi_offset 13, -16
	pushq	%r12
	.cfi_def_cfa_offset 24
	.cfi_offset 12, -24
	pushq	%rbp
	.cfi_def_cfa_offset 32
	.cfi_offset 6, -32
	pushq	%rbx
	.cfi_def_cfa_offset 40
	.cfi_offset 3, -40
	movq	%rdi, %rbx
	pushq	%rdx
	.cfi_def_cfa_offset 48
	movq	16(%rdi), %r12
	testq	%r12, %r12
	je	.L603
	movq	112(%r12), %rbp
	testq	%rbp, %rbp
	je	.L605
	movq	_ZL28__gthrw___pthread_key_createPjPFvPvE@GOTPCREL(%rip), %r13
	testq	%r13, %r13
	je	.L606
	orl	$-1, %eax
	lock xaddl	%eax, 8(%rbp)
	jmp	.L607
.L606:
	movl	8(%rbp), %eax
	leal	-1(%rax), %edx
	movl	%edx, 8(%rbp)
.L607:
	decl	%eax
	jne	.L605
	movq	0(%rbp), %rax
	movq	%rbp, %rdi
	call	*16(%rax)
	testq	%r13, %r13
	je	.L609
	orl	$-1, %eax
	lock xaddl	%eax, 12(%rbp)
	jmp	.L610
.L609:
	movl	12(%rbp), %eax
	leal	-1(%rax), %edx
	movl	%edx, 12(%rbp)
.L610:
	decl	%eax
	jne	.L605
	movq	0(%rbp), %rax
	movq	%rbp, %rdi
	call	*24(%rax)
.L605:
	movq	88(%r12), %rax
	testq	%rax, %rax
	je	.L611
	leaq	72(%r12), %rdi
	movl	$3, %edx
	movq	%rdi, %rsi
	call	*%rax
.L611:
	movq	64(%r12), %rbp
	testq	%rbp, %rbp
	je	.L613
	movq	_ZL28__gthrw___pthread_key_createPjPFvPvE@GOTPCREL(%rip), %r12
	testq	%r12, %r12
	je	.L614
	orl	$-1, %eax
	lock xaddl	%eax, 8(%rbp)
	jmp	.L615
.L614:
	movl	8(%rbp), %eax
	leal	-1(%rax), %edx
	movl	%edx, 8(%rbp)
.L615:
	decl	%eax
	jne	.L613
	movq	0(%rbp), %rax
	movq	%rbp, %rdi
	call	*16(%rax)
	testq	%r12, %r12
	je	.L617
	orl	$-1, %eax
	lock xaddl	%eax, 12(%rbp)
	jmp	.L618
.L617:
	movl	12(%rbp), %eax
	leal	-1(%rax), %edx
	movl	%edx, 12(%rbp)
.L618:
	decl	%eax
	jne	.L613
	movq	0(%rbp), %rax
	movq	%rbp, %rdi
	call	*24(%rax)
.L613:
	movq	$0, 16(%rbx)
.L603:
	movq	8(%rbx), %rbp
	testq	%rbp, %rbp
	je	.L602
	data16	leaq	_ZN4asio6detail15keyword_tss_ptrINS0_10call_stackINS0_15task_io_serviceENS0_27task_io_service_thread_infoEE7contextEE6value_E@tlsgd(%rip), %rdi
	.value	0x6666
	rex64
	call	__tls_get_addr@PLT
	movq	(%rax), %rax
	testq	%rax, %rax
	je	.L620
	movq	8(%rax), %rax
	testq	%rax, %rax
	je	.L620
	cmpq	$0, (%rax)
	jne	.L620
	movb	120(%rbp), %dl
	movb	%dl, 0(%rbp)
	movq	%rbp, (%rax)
	jmp	.L621
.L620:
	movq	%rbp, %rdi
	call	_ZdlPv@PLT
.L621:
	movq	$0, 8(%rbx)
.L602:
	popq	%rax
	.cfi_def_cfa_offset 40
	popq	%rbx
	.cfi_def_cfa_offset 32
	popq	%rbp
	.cfi_def_cfa_offset 24
	popq	%r12
	.cfi_def_cfa_offset 16
	popq	%r13
	.cfi_def_cfa_offset 8
	ret
	.cfi_endproc
.LFE8863:
	.section	.gcc_except_table
.LLSDA8863:
	.byte	0xff
	.byte	0xff
	.byte	0x1
	.uleb128 .LLSDACSE8863-.LLSDACSB8863
.LLSDACSB8863:
.LLSDACSE8863:
	.section	.text.unlikely
	.size	_ZN4asio6detail12wait_handlerINS0_15wrapped_handlerINS_10io_service6strandEZN7asiopal8Executor5StartERKNSt6chrono10time_pointINS7_3_V212steady_clockENS7_8durationIlSt5ratioILl1ELl1000000000EEEEEERKSt8functionIFvvEEEUlRKSt10error_codeE_NS0_26is_continuation_if_runningEEEE3ptr5resetEv, .-_ZN4asio6detail12wait_handlerINS0_15wrapped_handlerINS_10io_service6strandEZN7asiopal8Executor5StartERKNSt6chrono10time_pointINS7_3_V212steady_clockENS7_8durationIlSt5ratioILl1ELl1000000000EEEEEERKSt8functionIFvvEEEUlRKSt10error_codeE_NS0_26is_continuation_if_runningEEEE3ptr5resetEv
	.align 2
	.type	_ZN4asio6detail18completion_handlerINS0_7binder1IZN7asiopal8Executor5StartERKNSt6chrono10time_pointINS5_3_V212steady_clockENS5_8durationIlSt5ratioILl1ELl1000000000EEEEEERKSt8functionIFvvEEEUlRKSt10error_codeE_SL_EEE3ptr5resetEv, @function
_ZN4asio6detail18completion_handlerINS0_7binder1IZN7asiopal8Executor5StartERKNSt6chrono10time_pointINS5_3_V212steady_clockENS5_8durationIlSt5ratioILl1ELl1000000000EEEEEERKSt8functionIFvvEEEUlRKSt10error_codeE_SL_EEE3ptr5resetEv:
.LFB9430:
	.cfi_startproc
	.cfi_personality 0x9b,DW.ref.__gxx_personality_v0
	.cfi_lsda 0x1b,.LLSDA9430
	pushq	%r13
	.cfi_def_cfa_offset 16
	.cfi_offset 13, -16
	pushq	%r12
	.cfi_def_cfa_offset 24
	.cfi_offset 12, -24
	pushq	%rbp
	.cfi_def_cfa_offset 32
	.cfi_offset 6, -32
	pushq	%rbx
	.cfi_def_cfa_offset 40
	.cfi_offset 3, -40
	movq	%rdi, %rbx
	pushq	%rdx
	.cfi_def_cfa_offset 48
	movq	16(%rdi), %r12
	testq	%r12, %r12
	je	.L639
	movq	80(%r12), %rbp
	testq	%rbp, %rbp
	je	.L641
	movq	_ZL28__gthrw___pthread_key_createPjPFvPvE@GOTPCREL(%rip), %r13
	testq	%r13, %r13
	je	.L642
	orl	$-1, %eax
	lock xaddl	%eax, 8(%rbp)
	jmp	.L643
.L642:
	movl	8(%rbp), %eax
	leal	-1(%rax), %edx
	movl	%edx, 8(%rbp)
.L643:
	decl	%eax
	jne	.L641
	movq	0(%rbp), %rax
	movq	%rbp, %rdi
	call	*16(%rax)
	testq	%r13, %r13
	je	.L645
	orl	$-1, %eax
	lock xaddl	%eax, 12(%rbp)
	jmp	.L646
.L645:
	movl	12(%rbp), %eax
	leal	-1(%rax), %edx
	movl	%edx, 12(%rbp)
.L646:
	decl	%eax
	jne	.L641
	movq	0(%rbp), %rax
	movq	%rbp, %rdi
	call	*24(%rax)
.L641:
	movq	56(%r12), %rax
	testq	%rax, %rax
	je	.L647
	leaq	40(%r12), %rdi
	movl	$3, %edx
	movq	%rdi, %rsi
	call	*%rax
.L647:
	movq	32(%r12), %rbp
	testq	%rbp, %rbp
	je	.L649
	movq	_ZL28__gthrw___pthread_key_createPjPFvPvE@GOTPCREL(%rip), %r12
	testq	%r12, %r12
	je	.L650
	orl	$-1, %eax
	lock xaddl	%eax, 8(%rbp)
	jmp	.L651
.L650:
	movl	8(%rbp), %eax
	leal	-1(%rax), %edx
	movl	%edx, 8(%rbp)
.L651:
	decl	%eax
	jne	.L649
	movq	0(%rbp), %rax
	movq	%rbp, %rdi
	call	*16(%rax)
	testq	%r12, %r12
	je	.L653
	orl	$-1, %eax
	lock xaddl	%eax, 12(%rbp)
	jmp	.L654
.L653:
	movl	12(%rbp), %eax
	leal	-1(%rax), %edx
	movl	%edx, 12(%rbp)
.L654:
	decl	%eax
	jne	.L649
	movq	0(%rbp), %rax
	movq	%rbp, %rdi
	call	*24(%rax)
.L649:
	movq	$0, 16(%rbx)
.L639:
	movq	8(%rbx), %rbp
	testq	%rbp, %rbp
	je	.L638
	data16	leaq	_ZN4asio6detail15keyword_tss_ptrINS0_10call_stackINS0_15task_io_serviceENS0_27task_io_service_thread_infoEE7contextEE6value_E@tlsgd(%rip), %rdi
	.value	0x6666
	rex64
	call	__tls_get_addr@PLT
	movq	(%rax), %rax
	testq	%rax, %rax
	je	.L656
	movq	8(%rax), %rax
	testq	%rax, %rax
	je	.L656
	cmpq	$0, (%rax)
	jne	.L656
	movb	104(%rbp), %dl
	movb	%dl, 0(%rbp)
	movq	%rbp, (%rax)
	jmp	.L657
.L656:
	movq	%rbp, %rdi
	call	_ZdlPv@PLT
.L657:
	movq	$0, 8(%rbx)
.L638:
	popq	%rax
	.cfi_def_cfa_offset 40
	popq	%rbx
	.cfi_def_cfa_offset 32
	popq	%rbp
	.cfi_def_cfa_offset 24
	popq	%r12
	.cfi_def_cfa_offset 16
	popq	%r13
	.cfi_def_cfa_offset 8
	ret
	.cfi_endproc
.LFE9430:
	.section	.gcc_except_table
.LLSDA9430:
	.byte	0xff
	.byte	0xff
	.byte	0x1
	.uleb128 .LLSDACSE9430-.LLSDACSB9430
.LLSDACSB9430:
.LLSDACSE9430:
	.section	.text.unlikely
	.size	_ZN4asio6detail18completion_handlerINS0_7binder1IZN7asiopal8Executor5StartERKNSt6chrono10time_pointINS5_3_V212steady_clockENS5_8durationIlSt5ratioILl1ELl1000000000EEEEEERKSt8functionIFvvEEEUlRKSt10error_codeE_SL_EEE3ptr5resetEv, .-_ZN4asio6detail18completion_handlerINS0_7binder1IZN7asiopal8Executor5StartERKNSt6chrono10time_pointINS5_3_V212steady_clockENS5_8durationIlSt5ratioILl1ELl1000000000EEEEEERKSt8functionIFvvEEEUlRKSt10error_codeE_SL_EEE3ptr5resetEv
	.align 2
	.type	_ZN4asio6detail18completion_handlerINS0_17rewrapped_handlerINS0_7binder1INS0_15wrapped_handlerINS_10io_service6strandEZN7asiopal8Executor5StartERKNSt6chrono10time_pointINS9_3_V212steady_clockENS9_8durationIlSt5ratioILl1ELl1000000000EEEEEERKSt8functionIFvvEEEUlRKSt10error_codeE_NS0_26is_continuation_if_runningEEESP_EESS_EEE3ptr5resetEv, @function
_ZN4asio6detail18completion_handlerINS0_17rewrapped_handlerINS0_7binder1INS0_15wrapped_handlerINS_10io_service6strandEZN7asiopal8Executor5StartERKNSt6chrono10time_pointINS9_3_V212steady_clockENS9_8durationIlSt5ratioILl1ELl1000000000EEEEEERKSt8functionIFvvEEEUlRKSt10error_codeE_NS0_26is_continuation_if_runningEEESP_EESS_EEE3ptr5resetEv:
.LFB9369:
	.cfi_startproc
	.cfi_personality 0x9b,DW.ref.__gxx_personality_v0
	.cfi_lsda 0x1b,.LLSDA9369
	pushq	%r13
	.cfi_def_cfa_offset 16
	.cfi_offset 13, -16
	pushq	%r12
	.cfi_def_cfa_offset 24
	.cfi_offset 12, -24
	movq	%rdi, %r12
	pushq	%rbp
	.cfi_def_cfa_offset 32
	.cfi_offset 6, -32
	pushq	%rbx
	.cfi_def_cfa_offset 40
	.cfi_offset 3, -40
	pushq	%rdx
	.cfi_def_cfa_offset 48
	movq	16(%rdi), %rbx
	testq	%rbx, %rbx
	je	.L675
	movq	160(%rbx), %rbp
	testq	%rbp, %rbp
	je	.L677
	movq	_ZL28__gthrw___pthread_key_createPjPFvPvE@GOTPCREL(%rip), %r13
	testq	%r13, %r13
	je	.L678
	orl	$-1, %eax
	lock xaddl	%eax, 8(%rbp)
	jmp	.L679
.L678:
	movl	8(%rbp), %eax
	leal	-1(%rax), %edx
	movl	%edx, 8(%rbp)
.L679:
	decl	%eax
	jne	.L677
	movq	0(%rbp), %rax
	movq	%rbp, %rdi
	call	*16(%rax)
	testq	%r13, %r13
	je	.L681
	orl	$-1, %eax
	lock xaddl	%eax, 12(%rbp)
	jmp	.L682
.L681:
	movl	12(%rbp), %eax
	leal	-1(%rax), %edx
	movl	%edx, 12(%rbp)
.L682:
	decl	%eax
	jne	.L677
	movq	0(%rbp), %rax
	movq	%rbp, %rdi
	call	*24(%rax)
.L677:
	movq	136(%rbx), %rax
	testq	%rax, %rax
	je	.L683
	leaq	120(%rbx), %rdi
	movl	$3, %edx
	movq	%rdi, %rsi
	call	*%rax
.L683:
	movq	112(%rbx), %rbp
	testq	%rbp, %rbp
	je	.L685
	movq	_ZL28__gthrw___pthread_key_createPjPFvPvE@GOTPCREL(%rip), %r13
	testq	%r13, %r13
	je	.L686
	orl	$-1, %eax
	lock xaddl	%eax, 8(%rbp)
	jmp	.L687
.L686:
	movl	8(%rbp), %eax
	leal	-1(%rax), %edx
	movl	%edx, 8(%rbp)
.L687:
	decl	%eax
	jne	.L685
	movq	0(%rbp), %rax
	movq	%rbp, %rdi
	call	*16(%rax)
	testq	%r13, %r13
	je	.L689
	orl	$-1, %eax
	lock xaddl	%eax, 12(%rbp)
	jmp	.L690
.L689:
	movl	12(%rbp), %eax
	leal	-1(%rax), %edx
	movl	%edx, 12(%rbp)
.L690:
	decl	%eax
	jne	.L685
	movq	0(%rbp), %rax
	movq	%rbp, %rdi
	call	*24(%rax)
.L685:
	movq	80(%rbx), %rbp
	testq	%rbp, %rbp
	je	.L692
	movq	_ZL28__gthrw___pthread_key_createPjPFvPvE@GOTPCREL(%rip), %r13
	testq	%r13, %r13
	je	.L693
	orl	$-1, %eax
	lock xaddl	%eax, 8(%rbp)
	jmp	.L694
.L693:
	movl	8(%rbp), %eax
	leal	-1(%rax), %edx
	movl	%edx, 8(%rbp)
.L694:
	decl	%eax
	jne	.L692
	movq	0(%rbp), %rax
	movq	%rbp, %rdi
	call	*16(%rax)
	testq	%r13, %r13
	je	.L696
	orl	$-1, %eax
	lock xaddl	%eax, 12(%rbp)
	jmp	.L697
.L696:
	movl	12(%rbp), %eax
	leal	-1(%rax), %edx
	movl	%edx, 12(%rbp)
.L697:
	decl	%eax
	jne	.L692
	movq	0(%rbp), %rax
	movq	%rbp, %rdi
	call	*24(%rax)
.L692:
	movq	56(%rbx), %rax
	testq	%rax, %rax
	je	.L698
	leaq	40(%rbx), %rdi
	movl	$3, %edx
	movq	%rdi, %rsi
	call	*%rax
.L698:
	movq	32(%rbx), %rbp
	testq	%rbp, %rbp
	je	.L700
	movq	_ZL28__gthrw___pthread_key_createPjPFvPvE@GOTPCREL(%rip), %rbx
	testq	%rbx, %rbx
	je	.L701
	orl	$-1, %eax
	lock xaddl	%eax, 8(%rbp)
	jmp	.L702
.L701:
	movl	8(%rbp), %eax
	leal	-1(%rax), %edx
	movl	%edx, 8(%rbp)
.L702:
	decl	%eax
	jne	.L700
	movq	0(%rbp), %rax
	movq	%rbp, %rdi
	call	*16(%rax)
	testq	%rbx, %rbx
	je	.L704
	orl	$-1, %eax
	lock xaddl	%eax, 12(%rbp)
	jmp	.L705
.L704:
	movl	12(%rbp), %eax
	leal	-1(%rax), %edx
	movl	%edx, 12(%rbp)
.L705:
	decl	%eax
	jne	.L700
	movq	0(%rbp), %rax
	movq	%rbp, %rdi
	call	*24(%rax)
.L700:
	movq	$0, 16(%r12)
.L675:
	movq	8(%r12), %rbp
	testq	%rbp, %rbp
	je	.L674
	data16	leaq	_ZN4asio6detail15keyword_tss_ptrINS0_10call_stackINS0_15task_io_serviceENS0_27task_io_service_thread_infoEE7contextEE6value_E@tlsgd(%rip), %rdi
	.value	0x6666
	rex64
	call	__tls_get_addr@PLT
	movq	(%rax), %rax
	testq	%rax, %rax
	je	.L707
	movq	8(%rax), %rax
	testq	%rax, %rax
	je	.L707
	cmpq	$0, (%rax)
	jne	.L707
	movb	184(%rbp), %dl
	movb	%dl, 0(%rbp)
	movq	%rbp, (%rax)
	jmp	.L708
.L707:
	movq	%rbp, %rdi
	call	_ZdlPv@PLT
.L708:
	movq	$0, 8(%r12)
.L674:
	popq	%rax
	.cfi_def_cfa_offset 40
	popq	%rbx
	.cfi_def_cfa_offset 32
	popq	%rbp
	.cfi_def_cfa_offset 24
	popq	%r12
	.cfi_def_cfa_offset 16
	popq	%r13
	.cfi_def_cfa_offset 8
	ret
	.cfi_endproc
.LFE9369:
	.section	.gcc_except_table
.LLSDA9369:
	.byte	0xff
	.byte	0xff
	.byte	0x1
	.uleb128 .LLSDACSE9369-.LLSDACSB9369
.LLSDACSB9369:
.LLSDACSE9369:
	.section	.text.unlikely
	.size	_ZN4asio6detail18completion_handlerINS0_17rewrapped_handlerINS0_7binder1INS0_15wrapped_handlerINS_10io_service6strandEZN7asiopal8Executor5StartERKNSt6chrono10time_pointINS9_3_V212steady_clockENS9_8durationIlSt5ratioILl1ELl1000000000EEEEEERKSt8functionIFvvEEEUlRKSt10error_codeE_NS0_26is_continuation_if_runningEEESP_EESS_EEE3ptr5resetEv, .-_ZN4asio6detail18completion_handlerINS0_17rewrapped_handlerINS0_7binder1INS0_15wrapped_handlerINS_10io_service6strandEZN7asiopal8Executor5StartERKNSt6chrono10time_pointINS9_3_V212steady_clockENS9_8durationIlSt5ratioILl1ELl1000000000EEEEEERKSt8functionIFvvEEEUlRKSt10error_codeE_NS0_26is_continuation_if_runningEEESP_EESS_EEE3ptr5resetEv
	.section	.text.unlikely._ZSt20__throw_bad_weak_ptrv,"axG",@progbits,_ZSt20__throw_bad_weak_ptrv,comdat
	.weak	_ZSt20__throw_bad_weak_ptrv
	.type	_ZSt20__throw_bad_weak_ptrv, @function
_ZSt20__throw_bad_weak_ptrv:
.LFB1733:
	.cfi_startproc
	pushq	%rax
	.cfi_def_cfa_offset 16
	popq	%rax
	.cfi_def_cfa_offset 8
	movl	$8, %edi
	pushq	%rax
	.cfi_def_cfa_offset 16
	call	__cxa_allocate_exception@PLT
	movq	_ZNSt12bad_weak_ptrD1Ev@GOTPCREL(%rip), %rdx
	movq	_ZTISt12bad_weak_ptr@GOTPCREL(%rip), %rsi
	movq	%rax, %rdi
	movq	_ZTVSt12bad_weak_ptr@GOTPCREL(%rip), %rax
	addq	$16, %rax
	movq	%rax, (%rdi)
	call	__cxa_throw@PLT
	.cfi_endproc
.LFE1733:
	.size	_ZSt20__throw_bad_weak_ptrv, .-_ZSt20__throw_bad_weak_ptrv
	.section	.text.unlikely
	.align 2
.LCOLDB25:
	.text
.LHOTB25:
	.align 2
	.p2align 4
	.globl	_ZN7asiopal8Executor4PostERKSt8functionIFvvEE
	.type	_ZN7asiopal8Executor4PostERKSt8functionIFvvEE, @function
_ZN7asiopal8Executor4PostERKSt8functionIFvvEE:
.LFB7040:
	.cfi_startproc
	.cfi_personality 0x9b,DW.ref.__gxx_personality_v0
	.cfi_lsda 0x1b,.LLSDA7040
	pushq	%r14
	.cfi_def_cfa_offset 16
	.cfi_offset 14, -16
	pushq	%r13
	.cfi_def_cfa_offset 24
	.cfi_offset 13, -24
	pushq	%r12
	.cfi_def_cfa_offset 32
	.cfi_offset 12, -32
	pushq	%rbp
	.cfi_def_cfa_offset 40
	.cfi_offset 6, -40
	pushq	%rbx
	.cfi_def_cfa_offset 48
	.cfi_offset 3, -48
	movq	%rdi, %rbx
	subq	$160, %rsp
	.cfi_def_cfa_offset 208
	movq	%fs:40, %rax
	movq	%rax, 152(%rsp)
	xorl	%eax, %eax
	movq	16(%rsi), %rax
	movq	$0, 64(%rsp)
	testq	%rax, %rax
	je	.L731
	leaq	48(%rsp), %r13
	movq	%rsi, %rbp
	movl	$2, %edx
	movq	%r13, %rdi
.LEHB11:
	call	*%rax
.LEHE11:
	movdqu	16(%rbp), %xmm2
	movaps	%xmm2, 64(%rsp)
.L731:
	movq	16(%rbx), %rax
	movq	%rax, 88(%rsp)
	testq	%rax, %rax
	je	.L844
	leaq	8(%rax), %rdx
	movl	8(%rax), %eax
.L737:
	testl	%eax, %eax
	je	.L840
	leal	1(%rax), %ecx
	lock cmpxchgl	%ecx, (%rdx)
	jne	.L737
	movq	8(%rbx), %rax
	movq	64(%rsp), %rcx
	leaq	96(%rsp), %r12
	movq	$0, 112(%rsp)
	movq	%rax, 80(%rsp)
	testq	%rcx, %rcx
	je	.L738
	leaq	48(%rsp), %r13
	leaq	96(%rsp), %r12
	movl	$2, %edx
	movq	%r13, %rsi
	movq	%r12, %rdi
.LEHB12:
	call	*%rcx
.LEHE12:
	movdqa	64(%rsp), %xmm3
	movq	80(%rsp), %rax
	movaps	%xmm3, 112(%rsp)
.L738:
	movq	%rax, 128(%rsp)
	movq	88(%rsp), %rax
	movq	%rax, 136(%rsp)
	testq	%rax, %rax
	je	.L740
	cmpq	$0, _ZL28__gthrw___pthread_key_createPjPFvPvE@GOTPCREL(%rip)
	jne	.L845
	addl	$1, 8(%rax)
.L740:
	pxor	%xmm0, %xmm0
	movq	%r12, 16(%rsp)
	movq	40(%rbx), %r13
	movups	%xmm0, 24(%rsp)
	data16	leaq	_ZN4asio6detail15keyword_tss_ptrINS0_10call_stackINS0_15task_io_serviceENS0_27task_io_service_thread_infoEE7contextEE6value_E@tlsgd(%rip), %rdi
	.value	0x6666
	rex64
	call	__tls_get_addr@PLT
	movq	(%rax), %rax
	testq	%rax, %rax
	je	.L745
	movq	8(%rax), %rax
	testq	%rax, %rax
	je	.L745
	movq	(%rax), %rbp
	testq	%rbp, %rbp
	je	.L745
	movq	$0, (%rax)
	movzbl	0(%rbp), %eax
	cmpb	$71, %al
	jbe	.L746
	movb	%al, 72(%rbp)
	jmp	.L747
	.p2align 4,,10
	.p2align 3
.L746:
	movq	%rbp, %rdi
	call	_ZdlPv@PLT
.L745:
	movl	$73, %edi
.LEHB13:
	call	_Znwm@PLT
.LEHE13:
	movb	$72, 72(%rax)
	movq	%rax, %rbp
.L747:
	leaq	_ZN4asio6detail18completion_handlerIZN7asiopal8Executor4PostERKSt8functionIFvvEEEUlvE_E11do_completeEPNS0_15task_io_serviceEPNS0_25task_io_service_operationERKSt10error_codem(%rip), %rax
	movq	%rbp, 24(%rsp)
	movq	%rax, 8(%rbp)
	movq	112(%rsp), %rax
	movq	$0, 0(%rbp)
	movl	$0, 16(%rbp)
	movq	$0, 40(%rbp)
	testq	%rax, %rax
	je	.L748
	leaq	24(%rbp), %r14
	movl	$2, %edx
	movq	%r12, %rsi
	movq	%r14, %rdi
.LEHB14:
	call	*%rax
.LEHE14:
	movdqa	112(%rsp), %xmm4
	movups	%xmm4, 40(%rbp)
.L748:
	movdqa	128(%rsp), %xmm1
	pxor	%xmm0, %xmm0
	movq	%rbp, 32(%rsp)
	movaps	%xmm0, 128(%rsp)
	movups	%xmm1, 56(%rbp)
	movq	48(%rbx), %rax
	leaq	24(%rax), %rdi
	call	pthread_mutex_lock@PLT
	movq	48(%rbx), %rdi
	cmpb	$0, 64(%rdi)
	je	.L846
	cmpq	$0, 80(%rdi)
	movq	$0, 0(%rbp)
	je	.L754
	movq	80(%rdi), %rax
	movq	%rbp, (%rax)
	movq	%rbp, 80(%rdi)
.L755:
	addq	$24, %rdi
	call	pthread_mutex_unlock@PLT
.L756:
	movq	136(%rsp), %rbp
	testq	%rbp, %rbp
	je	.L770
	movq	_ZL28__gthrw___pthread_key_createPjPFvPvE@GOTPCREL(%rip), %rbx
	testq	%rbx, %rbx
	jne	.L847
	movl	8(%rbp), %eax
	leal	-1(%rax), %edx
	movl	%edx, 8(%rbp)
.L772:
	cmpl	$1, %eax
	je	.L848
.L770:
	movq	112(%rsp), %rax
	testq	%rax, %rax
	je	.L776
	movl	$3, %edx
	movq	%r12, %rsi
	movq	%r12, %rdi
	call	*%rax
.L776:
	movq	88(%rsp), %rbp
	testq	%rbp, %rbp
	je	.L778
	movq	_ZL28__gthrw___pthread_key_createPjPFvPvE@GOTPCREL(%rip), %rbx
	testq	%rbx, %rbx
	jne	.L849
	movl	8(%rbp), %eax
	leal	-1(%rax), %edx
	movl	%edx, 8(%rbp)
.L780:
	cmpl	$1, %eax
	je	.L850
.L778:
	movq	64(%rsp), %rax
	testq	%rax, %rax
	je	.L730
	leaq	48(%rsp), %rdi
	movl	$3, %edx
	movq	%rdi, %rsi
	call	*%rax
.L730:
	movq	152(%rsp), %rax
	subq	%fs:40, %rax
	jne	.L851
	addq	$160, %rsp
	.cfi_remember_state
	.cfi_def_cfa_offset 48
	popq	%rbx
	.cfi_def_cfa_offset 40
	popq	%rbp
	.cfi_def_cfa_offset 32
	popq	%r12
	.cfi_def_cfa_offset 24
	popq	%r13
	.cfi_def_cfa_offset 16
	popq	%r14
	.cfi_def_cfa_offset 8
	ret
	.p2align 4,,10
	.p2align 3
.L754:
	.cfi_restore_state
	movq	%rbp, %xmm0
	punpcklqdq	%xmm0, %xmm0
	movups	%xmm0, 72(%rdi)
	jmp	.L755
	.p2align 4,,10
	.p2align 3
.L846:
	movb	$1, 64(%rdi)
	addq	$24, %rdi
	call	pthread_mutex_unlock@PLT
	movq	48(%rbx), %r14
	movq	$0, 0(%rbp)
	cmpq	$0, 96(%r14)
	je	.L757
	movq	96(%r14), %rax
	movq	%rbp, (%rax)
	movq	%rbp, 96(%r14)
.L758:
	movq	40(%r13), %rbx
	cmpb	$0, 40(%rbx)
	jne	.L852
.L759:
	lock addq	$1, 184(%rbx)
	leaq	48(%rbx), %rbp
	movq	%rbp, %rdi
	call	pthread_mutex_lock@PLT
	cmpq	$0, 200(%rbx)
	movq	$0, (%r14)
	je	.L764
	movq	200(%rbx), %rax
	movq	%r14, (%rax)
	movq	%r14, 200(%rbx)
.L765:
	movq	136(%rbx), %rax
	orq	$1, %rax
	movq	%rax, 136(%rbx)
	cmpq	$1, %rax
	je	.L766
	movq	%rbp, %rdi
	call	pthread_mutex_unlock@PLT
	leaq	88(%rbx), %rdi
	call	pthread_cond_signal@PLT
	jmp	.L756
	.p2align 4,,10
	.p2align 3
.L852:
	data16	leaq	_ZN4asio6detail15keyword_tss_ptrINS0_10call_stackINS0_15task_io_serviceENS0_27task_io_service_thread_infoEE7contextEE6value_E@tlsgd(%rip), %rdi
	.value	0x6666
	rex64
	call	__tls_get_addr@PLT
	movq	(%rax), %rax
	testq	%rax, %rax
	jne	.L762
	jmp	.L759
	.p2align 4,,10
	.p2align 3
.L760:
	movq	16(%rax), %rax
	testq	%rax, %rax
	je	.L759
.L762:
	cmpq	(%rax), %rbx
	jne	.L760
	movq	8(%rax), %rax
	testq	%rax, %rax
	je	.L759
	addq	$1, 24(%rax)
	cmpq	$0, 16(%rax)
	movq	$0, (%r14)
	je	.L763
	movq	16(%rax), %rdx
	movq	%r14, (%rdx)
	movq	%r14, 16(%rax)
	jmp	.L756
	.p2align 4,,10
	.p2align 3
.L850:
	movq	0(%rbp), %rax
	movq	%rbp, %rdi
	call	*16(%rax)
	testq	%rbx, %rbx
	jne	.L853
	movl	12(%rbp), %eax
	leal	-1(%rax), %edx
	movl	%edx, 12(%rbp)
.L783:
	cmpl	$1, %eax
	jne	.L778
	movq	0(%rbp), %rax
	movq	%rbp, %rdi
	call	*24(%rax)
	jmp	.L778
	.p2align 4,,10
	.p2align 3
.L848:
	movq	0(%rbp), %rax
	movq	%rbp, %rdi
	call	*16(%rax)
	testq	%rbx, %rbx
	jne	.L854
	movl	12(%rbp), %eax
	leal	-1(%rax), %edx
	movl	%edx, 12(%rbp)
.L775:
	cmpl	$1, %eax
	jne	.L770
	movq	0(%rbp), %rax
	movq	%rbp, %rdi
	call	*24(%rax)
	jmp	.L770
	.p2align 4,,10
	.p2align 3
.L849:
	movl	$-1, %eax
	lock xaddl	%eax, 8(%rbp)
	jmp	.L780
	.p2align 4,,10
	.p2align 3
.L847:
	movl	$-1, %eax
	lock xaddl	%eax, 8(%rbp)
	jmp	.L772
	.p2align 4,,10
	.p2align 3
.L766:
	cmpb	$0, 176(%rbx)
	jne	.L768
	movq	144(%rbx), %rax
	testq	%rax, %rax
	je	.L768
	leaq	88(%rax), %rdx
	movb	$1, 176(%rbx)
	movl	96(%rax), %edi
	leaq	4(%rsp), %rcx
	movq	%rdx, 8(%rsp)
	movl	88(%rax), %edx
	movl	$3, %esi
	movl	$-2147483639, 4(%rsp)
	call	epoll_ctl@PLT
.L768:
	movq	%rbp, %rdi
	call	pthread_mutex_unlock@PLT
	jmp	.L756
	.p2align 4,,10
	.p2align 3
.L845:
	lock addl	$1, 8(%rax)
	jmp	.L740
	.p2align 4,,10
	.p2align 3
.L757:
	movq	%rbp, %xmm0
	punpcklqdq	%xmm0, %xmm0
	movups	%xmm0, 88(%r14)
	jmp	.L758
	.p2align 4,,10
	.p2align 3
.L854:
	movl	$-1, %eax
	lock xaddl	%eax, 12(%rbp)
	jmp	.L775
	.p2align 4,,10
	.p2align 3
.L853:
	movl	$-1, %eax
	lock xaddl	%eax, 12(%rbp)
	jmp	.L783
	.p2align 4,,10
	.p2align 3
.L764:
	movq	%r14, %xmm0
	punpcklqdq	%xmm0, %xmm0
	movups	%xmm0, 192(%rbx)
	jmp	.L765
	.p2align 4,,10
	.p2align 3
.L763:
	movq	%r14, %xmm0
	punpcklqdq	%xmm0, %xmm0
	movups	%xmm0, 8(%rax)
	jmp	.L756
.L851:
	call	__stack_chk_fail@PLT
.L791:
	movq	%rax, %rbp
	jmp	.L741
.L792:
	movq	%rax, %rbx
	jmp	.L751
.L789:
	movq	%rax, %rbp
	jmp	.L734
.L844:
	jmp	.L839
.L790:
	movq	%rax, %rbp
	jmp	.L753
	.section	.gcc_except_table
.LLSDA7040:
	.byte	0xff
	.byte	0xff
	.byte	0x1
	.uleb128 .LLSDACSE7040-.LLSDACSB7040
.LLSDACSB7040:
	.uleb128 .LEHB11-.LFB7040
	.uleb128 .LEHE11-.LEHB11
	.uleb128 .L789-.LFB7040
	.uleb128 0
	.uleb128 .LEHB12-.LFB7040
	.uleb128 .LEHE12-.LEHB12
	.uleb128 .L791-.LFB7040
	.uleb128 0
	.uleb128 .LEHB13-.LFB7040
	.uleb128 .LEHE13-.LEHB13
	.uleb128 .L790-.LFB7040
	.uleb128 0
	.uleb128 .LEHB14-.LFB7040
	.uleb128 .LEHE14-.LEHB14
	.uleb128 .L792-.LFB7040
	.uleb128 0
.LLSDACSE7040:
	.text
	.cfi_endproc
	.section	.text.unlikely
	.cfi_startproc
	.cfi_personality 0x9b,DW.ref.__gxx_personality_v0
	.cfi_lsda 0x1b,.LLSDAC7040
	.type	_ZN7asiopal8Executor4PostERKSt8functionIFvvEE.cold, @function
_ZN7asiopal8Executor4PostERKSt8functionIFvvEE.cold:
.LFSB7040:
.L741:
	.cfi_def_cfa_offset 208
	.cfi_offset 3, -48
	.cfi_offset 6, -40
	.cfi_offset 12, -32
	.cfi_offset 13, -24
	.cfi_offset 14, -16
	movq	112(%rsp), %rax
	testq	%rax, %rax
	je	.L743
	movl	$3, %edx
	movq	%r12, %rsi
	movq	%r12, %rdi
	call	*%rax
.L743:
	movq	%r13, %rdi
	call	_ZZN7asiopal8Executor4PostERKSt8functionIFvvEEENUlvE_D1Ev
	movq	%rbp, %rdi
.LEHB15:
	call	_Unwind_Resume@PLT
.LEHE15:
.L751:
	movq	40(%rbp), %rax
	testq	%rax, %rax
	je	.L752
	movl	$3, %edx
	movq	%r14, %rsi
	movq	%r14, %rdi
	call	*%rax
.L752:
	leaq	16(%rsp), %rdi
	movq	%rbx, %rbp
	call	_ZN4asio6detail18completion_handlerIZN7asiopal8Executor4PostERKSt8functionIFvvEEEUlvE_E3ptr5resetEv
.L753:
	movq	%r12, %rdi
	leaq	48(%rsp), %r13
	call	_ZZN7asiopal8Executor4PostERKSt8functionIFvvEEENUlvE_D1Ev
	jmp	.L743
.L734:
	movq	64(%rsp), %rax
	testq	%rax, %rax
	je	.L735
	movl	$3, %edx
	movq	%r13, %rsi
	movq	%r13, %rdi
	call	*%rax
.L735:
	movq	%rbp, %rdi
.LEHB16:
	call	_Unwind_Resume@PLT
.LEHE16:
.L839:
.LEHB17:
	call	_ZSt20__throw_bad_weak_ptrv@PLT
.L840:
	call	_ZSt20__throw_bad_weak_ptrv@PLT
.LEHE17:
.L788:
	movq	%rax, %rbp
	movq	64(%rsp), %rax
	testq	%rax, %rax
	je	.L786
	leaq	48(%rsp), %rdi
	movl	$3, %edx
	movq	%rdi, %rsi
	call	*%rax
.L786:
	movq	%rbp, %rdi
.LEHB18:
	call	_Unwind_Resume@PLT
.LEHE18:
	.cfi_endproc
.LFE7040:
	.section	.gcc_except_table
.LLSDAC7040:
	.byte	0xff
	.byte	0xff
	.byte	0x1
	.uleb128 .LLSDACSEC7040-.LLSDACSBC7040
.LLSDACSBC7040:
	.uleb128 .LEHB15-.LCOLDB25
	.uleb128 .LEHE15-.LEHB15
	.uleb128 0
	.uleb128 0
	.uleb128 .LEHB16-.LCOLDB25
	.uleb128 .LEHE16-.LEHB16
	.uleb128 0
	.uleb128 0
	.uleb128 .LEHB17-.LCOLDB25
	.uleb128 .LEHE17-.LEHB17
	.uleb128 .L788-.LCOLDB25
	.uleb128 0
	.uleb128 .LEHB18-.LCOLDB25
	.uleb128 .LEHE18-.LEHB18
	.uleb128 0
	.uleb128 0
.LLSDACSEC7040:
	.section	.text.unlikely
	.text
	.size	_ZN7asiopal8Executor4PostERKSt8functionIFvvEE, .-_ZN7asiopal8Executor4PostERKSt8functionIFvvEE
	.section	.text.unlikely
	.size	_ZN7asiopal8Executor4PostERKSt8functionIFvvEE.cold, .-_ZN7asiopal8Executor4PostERKSt8functionIFvvEE.cold
.LCOLDE25:
	.text
.LHOTE25:
	.section	.rodata._ZNSt12system_errorC2ESt10error_codePKc.str1.1,"aMS",@progbits,1
.LC26:
	.string	": "
	.section	.text._ZNSt12system_errorC2ESt10error_codePKc,"axG",@progbits,_ZNSt12system_errorC5ESt10error_codePKc,comdat
	.align 2
	.p2align 4
	.weak	_ZNSt12system_errorC2ESt10error_codePKc
	.type	_ZNSt12system_errorC2ESt10error_codePKc, @function
_ZNSt12system_errorC2ESt10error_codePKc:
.LFB2312:
	.cfi_startproc
	.cfi_personality 0x9b,DW.ref.__gxx_personality_v0
	.cfi_lsda 0x1b,.LLSDA2312
	pushq	%r14
	.cfi_def_cfa_offset 16
	.cfi_offset 14, -16
	movq	%rcx, %r14
	pushq	%r13
	.cfi_def_cfa_offset 24
	.cfi_offset 13, -24
	pushq	%r12
	.cfi_def_cfa_offset 32
	.cfi_offset 12, -32
	movq	%rsi, %r12
	pushq	%rbp
	.cfi_def_cfa_offset 40
	.cfi_offset 6, -40
	movq	%rdx, %rbp
	pushq	%rbx
	.cfi_def_cfa_offset 48
	.cfi_offset 3, -48
	movq	%rdi, %rbx
	subq	$112, %rsp
	.cfi_def_cfa_offset 160
	movq	%fs:40, %rax
	movq	%rax, 104(%rsp)
	xorl	%eax, %eax
	movq	(%rdx), %rax
	leaq	64(%rsp), %r13
	movl	%esi, %edx
	movq	%r13, %rdi
	movq	%rbp, %rsi
.LEHB19:
	call	*32(%rax)
.LEHE19:
	movl	$2, %r8d
	xorl	%edx, %edx
	xorl	%esi, %esi
	leaq	.LC26(%rip), %rcx
	movq	%r13, %rdi
.LEHB20:
	call	_ZNSt7__cxx1112basic_stringIcSt11char_traitsIcESaIcEE10_M_replaceEmmPKcm@PLT
.LEHE20:
	leaq	48(%rsp), %r13
	leaq	16(%rax), %rdx
	movq	%r13, 32(%rsp)
	movq	(%rax), %rcx
	cmpq	%rdx, %rcx
	je	.L875
	movq	%rcx, 32(%rsp)
	movq	16(%rax), %rcx
	movq	%rcx, 48(%rsp)
.L857:
	movq	8(%rax), %rcx
	movb	$0, 16(%rax)
	movq	%r14, %rdi
	movq	%rcx, 40(%rsp)
	movq	%rdx, (%rax)
	movq	$0, 8(%rax)
	call	strlen@PLT
	leaq	32(%rsp), %rdi
	movq	%r14, %rcx
	xorl	%edx, %edx
	movq	%rax, %r8
	xorl	%esi, %esi
.LEHB21:
	call	_ZNSt7__cxx1112basic_stringIcSt11char_traitsIcESaIcEE10_M_replaceEmmPKcm@PLT
.LEHE21:
	leaq	16(%rsp), %r14
	leaq	16(%rax), %rdx
	movq	%r14, (%rsp)
	movq	(%rax), %rcx
	cmpq	%rdx, %rcx
	je	.L876
	movq	%rcx, (%rsp)
	movq	16(%rax), %rcx
	movq	%rcx, 16(%rsp)
.L859:
	movq	8(%rax), %rcx
	movb	$0, 16(%rax)
	movq	%rsp, %rsi
	movq	%rbx, %rdi
	movq	%rcx, 8(%rsp)
	movq	%rdx, (%rax)
	movq	$0, 8(%rax)
.LEHB22:
	call	_ZNSt13runtime_errorC2ERKNSt7__cxx1112basic_stringIcSt11char_traitsIcESaIcEEE@PLT
.LEHE22:
	movq	(%rsp), %rdi
	cmpq	%r14, %rdi
	je	.L860
	movq	16(%rsp), %rax
	leaq	1(%rax), %rsi
	call	_ZdlPvm@PLT
.L860:
	movq	32(%rsp), %rdi
	cmpq	%r13, %rdi
	je	.L861
	movq	48(%rsp), %rax
	leaq	1(%rax), %rsi
	call	_ZdlPvm@PLT
.L861:
	movq	64(%rsp), %rdi
	leaq	80(%rsp), %rax
	cmpq	%rax, %rdi
	je	.L862
	movq	80(%rsp), %rax
	leaq	1(%rax), %rsi
	call	_ZdlPvm@PLT
.L862:
	movq	_ZTVSt12system_error@GOTPCREL(%rip), %rax
	movq	%r12, 16(%rbx)
	movq	%rbp, 24(%rbx)
	addq	$16, %rax
	movq	%rax, (%rbx)
	movq	104(%rsp), %rax
	subq	%fs:40, %rax
	jne	.L877
	addq	$112, %rsp
	.cfi_remember_state
	.cfi_def_cfa_offset 48
	popq	%rbx
	.cfi_def_cfa_offset 40
	popq	%rbp
	.cfi_def_cfa_offset 32
	popq	%r12
	.cfi_def_cfa_offset 24
	popq	%r13
	.cfi_def_cfa_offset 16
	popq	%r14
	.cfi_def_cfa_offset 8
	ret
	.p2align 4,,10
	.p2align 3
.L875:
	.cfi_restore_state
	movdqu	16(%rax), %xmm0
	movaps	%xmm0, 48(%rsp)
	jmp	.L857
	.p2align 4,,10
	.p2align 3
.L876:
	movdqu	16(%rax), %xmm1
	movaps	%xmm1, 16(%rsp)
	jmp	.L859
.L877:
	call	__stack_chk_fail@PLT
.L872:
	movq	%rax, %rbp
	jmp	.L863
.L870:
	movq	%rax, %rbp
	jmp	.L867
.L871:
	movq	%rax, %rbp
	jmp	.L865
.L863:
	movq	(%rsp), %rdi
	cmpq	%r14, %rdi
	je	.L865
	movq	16(%rsp), %rax
	leaq	1(%rax), %rsi
	call	_ZdlPvm@PLT
.L865:
	movq	32(%rsp), %rdi
	cmpq	%r13, %rdi
	je	.L867
	movq	48(%rsp), %rax
	leaq	1(%rax), %rsi
	call	_ZdlPvm@PLT
.L867:
	movq	64(%rsp), %rdi
	leaq	80(%rsp), %rax
	cmpq	%rax, %rdi
	je	.L868
	movq	80(%rsp), %rax
	leaq	1(%rax), %rsi
	call	_ZdlPvm@PLT
.L868:
	movq	%rbp, %rdi
.LEHB23:
	call	_Unwind_Resume@PLT
.LEHE23:
	.cfi_endproc
.LFE2312:
	.section	.gcc_except_table
.LLSDA2312:
	.byte	0xff
	.byte	0xff
	.byte	0x1
	.uleb128 .LLSDACSE2312-.LLSDACSB2312
.LLSDACSB2312:
	.uleb128 .LEHB19-.LFB2312
	.uleb128 .LEHE19-.LEHB19
	.uleb128 0
	.uleb128 0
	.uleb128 .LEHB20-.LFB2312
	.uleb128 .LEHE20-.LEHB20
	.uleb128 .L870-.LFB2312
	.uleb128 0
	.uleb128 .LEHB21-.LFB2312
	.uleb128 .LEHE21-.LEHB21
	.uleb128 .L871-.LFB2312
	.uleb128 0
	.uleb128 .LEHB22-.LFB2312
	.uleb128 .LEHE22-.LEHB22
	.uleb128 .L872-.LFB2312
	.uleb128 0
	.uleb128 .LEHB23-.LFB2312
	.uleb128 .LEHE23-.LEHB23
	.uleb128 0
	.uleb128 0
.LLSDACSE2312:
	.section	.text._ZNSt12system_errorC2ESt10error_codePKc,"axG",@progbits,_ZNSt12system_errorC5ESt10error_codePKc,comdat
	.size	_ZNSt12system_errorC2ESt10error_codePKc, .-_ZNSt12system_errorC2ESt10error_codePKc
	.weak	_ZNSt12system_errorC1ESt10error_codePKc
	.set	_ZNSt12system_errorC1ESt10error_codePKc,_ZNSt12system_errorC2ESt10error_codePKc
	.section	.text.unlikely._ZN4asio6detail14do_throw_errorERKSt10error_codePKc,"axG",@progbits,_ZN4asio6detail14do_throw_errorERKSt10error_codePKc,comdat
	.weak	_ZN4asio6detail14do_throw_errorERKSt10error_codePKc
	.type	_ZN4asio6detail14do_throw_errorERKSt10error_codePKc, @function
_ZN4asio6detail14do_throw_errorERKSt10error_codePKc:
.LFB2407:
	.cfi_startproc
	.cfi_personality 0x9b,DW.ref.__gxx_personality_v0
	.cfi_lsda 0x1b,.LLSDA2407
	pushq	%r12
	.cfi_def_cfa_offset 16
	.cfi_offset 12, -16
	movq	%rsi, %rcx
	pushq	%rbp
	.cfi_def_cfa_offset 24
	.cfi_offset 6, -24
	subq	$56, %rsp
	.cfi_def_cfa_offset 80
	movq	8(%rdi), %rdx
	movl	(%rdi), %esi
	movq	%fs:40, %rax
	movq	%rax, 40(%rsp)
	xorl	%eax, %eax
	leaq	8(%rsp), %r12
	movq	%r12, %rdi
.LEHB24:
	call	_ZNSt12system_errorC1ESt10error_codePKc@PLT
.LEHE24:
	movl	$32, %edi
	call	__cxa_allocate_exception@PLT
	movq	%r12, %rsi
	movq	%rax, %rdi
	movq	%rax, %rbp
	call	_ZNSt13runtime_errorC2ERKS_@PLT
	movq	_ZTVSt12system_error@GOTPCREL(%rip), %rax
	movq	%rbp, %rdi
	movups	24(%rsp), %xmm0
	movq	_ZNSt12system_errorD1Ev@GOTPCREL(%rip), %rdx
	movq	_ZTISt12system_error@GOTPCREL(%rip), %rsi
	addq	$16, %rax
	movups	%xmm0, 16(%rbp)
	movq	%rax, 0(%rbp)
.LEHB25:
	call	__cxa_throw@PLT
.LEHE25:
.L881:
	movq	%rax, %rbp
.L879:
	movq	%r12, %rdi
	call	_ZNSt12system_errorD1Ev@PLT
	movq	%rbp, %rdi
.LEHB26:
	call	_Unwind_Resume@PLT
.LEHE26:
	.cfi_endproc
.LFE2407:
	.section	.gcc_except_table
.LLSDA2407:
	.byte	0xff
	.byte	0xff
	.byte	0x1
	.uleb128 .LLSDACSE2407-.LLSDACSB2407
.LLSDACSB2407:
	.uleb128 .LEHB24-.LFB2407
	.uleb128 .LEHE24-.LEHB24
	.uleb128 0
	.uleb128 0
	.uleb128 .LEHB25-.LFB2407
	.uleb128 .LEHE25-.LEHB25
	.uleb128 .L881-.LFB2407
	.uleb128 0
	.uleb128 .LEHB26-.LFB2407
	.uleb128 .LEHE26-.LEHB26
	.uleb128 0
	.uleb128 0
.LLSDACSE2407:
	.section	.text.unlikely._ZN4asio6detail14do_throw_errorERKSt10error_codePKc,"axG",@progbits,_ZN4asio6detail14do_throw_errorERKSt10error_codePKc,comdat
	.size	_ZN4asio6detail14do_throw_errorERKSt10error_codePKc, .-_ZN4asio6detail14do_throw_errorERKSt10error_codePKc
	.section	.text._ZN4asio6detail14strand_service16on_dispatch_exitD2Ev,"axG",@progbits,_ZN4asio6detail14strand_service16on_dispatch_exitD5Ev,comdat
	.align 2
	.p2align 4
	.weak	_ZN4asio6detail14strand_service16on_dispatch_exitD2Ev
	.type	_ZN4asio6detail14strand_service16on_dispatch_exitD2Ev, @function
_ZN4asio6detail14strand_service16on_dispatch_exitD2Ev:
.LFB6387:
	.cfi_startproc
	pushq	%r12
	.cfi_def_cfa_offset 16
	.cfi_offset 12, -16
	pushq	%rbp
	.cfi_def_cfa_offset 24
	.cfi_offset 6, -24
	pushq	%rbx
	.cfi_def_cfa_offset 32
	.cfi_offset 3, -32
	movq	%rdi, %rbx
	subq	$32, %rsp
	.cfi_def_cfa_offset 64
	movq	%fs:40, %rax
	movq	%rax, 24(%rsp)
	movq	8(%rdi), %rax
	leaq	24(%rax), %rdi
	call	pthread_mutex_lock@PLT
	movq	8(%rbx), %rdi
	movq	72(%rdi), %rbp
	testq	%rbp, %rbp
	je	.L916
	movq	96(%rdi), %rax
	testq	%rax, %rax
	je	.L886
	movq	%rbp, (%rax)
	movq	88(%rdi), %rbp
.L887:
	movq	80(%rdi), %rax
	pxor	%xmm0, %xmm0
	movups	%xmm0, 72(%rdi)
	movq	%rax, 96(%rdi)
.L885:
	testq	%rbp, %rbp
	setne	64(%rdi)
	addq	$24, %rdi
	call	pthread_mutex_unlock@PLT
	testq	%rbp, %rbp
	jne	.L917
.L883:
	movq	24(%rsp), %rax
	subq	%fs:40, %rax
	jne	.L915
	addq	$32, %rsp
	.cfi_remember_state
	.cfi_def_cfa_offset 32
	popq	%rbx
	.cfi_def_cfa_offset 24
	popq	%rbp
	.cfi_def_cfa_offset 16
	popq	%r12
	.cfi_def_cfa_offset 8
	ret
	.p2align 4,,10
	.p2align 3
.L886:
	.cfi_restore_state
	movq	%rbp, 88(%rdi)
	jmp	.L887
	.p2align 4,,10
	.p2align 3
.L917:
	movq	(%rbx), %rbp
	movq	8(%rbx), %rbx
	cmpb	$0, 40(%rbp)
	je	.L889
	data16	leaq	_ZN4asio6detail15keyword_tss_ptrINS0_10call_stackINS0_15task_io_serviceENS0_27task_io_service_thread_infoEE7contextEE6value_E@tlsgd(%rip), %rdi
	.value	0x6666
	rex64
	call	__tls_get_addr@PLT
	movq	(%rax), %rax
	testq	%rax, %rax
	jne	.L892
	jmp	.L889
	.p2align 4,,10
	.p2align 3
.L890:
	movq	16(%rax), %rax
	testq	%rax, %rax
	je	.L889
.L892:
	cmpq	(%rax), %rbp
	jne	.L890
	movq	8(%rax), %rax
	testq	%rax, %rax
	je	.L889
	addq	$1, 24(%rax)
	cmpq	$0, 16(%rax)
	movq	$0, (%rbx)
	je	.L893
	movq	16(%rax), %rdx
	movq	%rbx, (%rdx)
	movq	%rbx, 16(%rax)
	jmp	.L883
	.p2align 4,,10
	.p2align 3
.L889:
	lock addq	$1, 184(%rbp)
	leaq	48(%rbp), %r12
	movq	%r12, %rdi
	call	pthread_mutex_lock@PLT
	cmpq	$0, 200(%rbp)
	movq	$0, (%rbx)
	je	.L894
	movq	200(%rbp), %rax
	movq	%rbx, (%rax)
	movq	%rbx, 200(%rbp)
.L895:
	movq	136(%rbp), %rax
	orq	$1, %rax
	movq	%rax, 136(%rbp)
	cmpq	$1, %rax
	je	.L896
	movq	%r12, %rdi
	call	pthread_mutex_unlock@PLT
	movq	24(%rsp), %rax
	subq	%fs:40, %rax
	jne	.L915
	addq	$32, %rsp
	.cfi_remember_state
	.cfi_def_cfa_offset 32
	leaq	88(%rbp), %rdi
	popq	%rbx
	.cfi_def_cfa_offset 24
	popq	%rbp
	.cfi_def_cfa_offset 16
	popq	%r12
	.cfi_def_cfa_offset 8
	jmp	pthread_cond_signal@PLT
	.p2align 4,,10
	.p2align 3
.L916:
	.cfi_restore_state
	movq	88(%rdi), %rbp
	jmp	.L885
	.p2align 4,,10
	.p2align 3
.L894:
	movq	%rbx, %xmm0
	punpcklqdq	%xmm0, %xmm0
	movups	%xmm0, 192(%rbp)
	jmp	.L895
	.p2align 4,,10
	.p2align 3
.L896:
	cmpb	$0, 176(%rbp)
	jne	.L898
	movq	144(%rbp), %rax
	testq	%rax, %rax
	je	.L898
	leaq	88(%rax), %rdx
	movb	$1, 176(%rbp)
	movl	96(%rax), %edi
	leaq	12(%rsp), %rcx
	movq	%rdx, 16(%rsp)
	movl	88(%rax), %edx
	movl	$3, %esi
	movl	$-2147483639, 12(%rsp)
	call	epoll_ctl@PLT
.L898:
	movq	24(%rsp), %rax
	subq	%fs:40, %rax
	jne	.L915
	addq	$32, %rsp
	.cfi_remember_state
	.cfi_def_cfa_offset 32
	movq	%r12, %rdi
	popq	%rbx
	.cfi_def_cfa_offset 24
	popq	%rbp
	.cfi_def_cfa_offset 16
	popq	%r12
	.cfi_def_cfa_offset 8
	jmp	pthread_mutex_unlock@PLT
	.p2align 4,,10
	.p2align 3
.L893:
	.cfi_restore_state
	movq	%rbx, %xmm0
	punpcklqdq	%xmm0, %xmm0
	movups	%xmm0, 8(%rax)
	jmp	.L883
.L915:
	call	__stack_chk_fail@PLT
	.cfi_endproc
.LFE6387:
	.size	_ZN4asio6detail14strand_service16on_dispatch_exitD2Ev, .-_ZN4asio6detail14strand_service16on_dispatch_exitD2Ev
	.weak	_ZN4asio6detail14strand_service16on_dispatch_exitD1Ev
	.set	_ZN4asio6detail14strand_service16on_dispatch_exitD1Ev,_ZN4asio6detail14strand_service16on_dispatch_exitD2Ev
	.section	.text._ZN4asio6detail14strand_service19on_do_complete_exitD2Ev,"axG",@progbits,_ZN4asio6detail14strand_service19on_do_complete_exitD5Ev,comdat
	.align 2
	.p2align 4
	.weak	_ZN4asio6detail14strand_service19on_do_complete_exitD2Ev
	.type	_ZN4asio6detail14strand_service19on_do_complete_exitD2Ev, @function
_ZN4asio6detail14strand_service19on_do_complete_exitD2Ev:
.LFB6392:
	.cfi_startproc
	pushq	%r12
	.cfi_def_cfa_offset 16
	.cfi_offset 12, -16
	pushq	%rbp
	.cfi_def_cfa_offset 24
	.cfi_offset 6, -24
	pushq	%rbx
	.cfi_def_cfa_offset 32
	.cfi_offset 3, -32
	movq	%rdi, %rbx
	subq	$32, %rsp
	.cfi_def_cfa_offset 64
	movq	%fs:40, %rax
	movq	%rax, 24(%rsp)
	movq	8(%rdi), %rax
	leaq	24(%rax), %rdi
	call	pthread_mutex_lock@PLT
	movq	8(%rbx), %rdi
	movq	72(%rdi), %rbp
	testq	%rbp, %rbp
	je	.L951
	movq	96(%rdi), %rax
	testq	%rax, %rax
	je	.L921
	movq	%rbp, (%rax)
	movq	88(%rdi), %rbp
.L922:
	movq	80(%rdi), %rax
	pxor	%xmm0, %xmm0
	movups	%xmm0, 72(%rdi)
	movq	%rax, 96(%rdi)
.L920:
	testq	%rbp, %rbp
	setne	64(%rdi)
	addq	$24, %rdi
	call	pthread_mutex_unlock@PLT
	testq	%rbp, %rbp
	jne	.L952
.L918:
	movq	24(%rsp), %rax
	subq	%fs:40, %rax
	jne	.L950
	addq	$32, %rsp
	.cfi_remember_state
	.cfi_def_cfa_offset 32
	popq	%rbx
	.cfi_def_cfa_offset 24
	popq	%rbp
	.cfi_def_cfa_offset 16
	popq	%r12
	.cfi_def_cfa_offset 8
	ret
	.p2align 4,,10
	.p2align 3
.L921:
	.cfi_restore_state
	movq	%rbp, 88(%rdi)
	jmp	.L922
	.p2align 4,,10
	.p2align 3
.L952:
	data16	leaq	_ZN4asio6detail15keyword_tss_ptrINS0_10call_stackINS0_15task_io_serviceENS0_27task_io_service_thread_infoEE7contextEE6value_E@tlsgd(%rip), %rdi
	.value	0x6666
	rex64
	call	__tls_get_addr@PLT
	movq	(%rbx), %rbp
	movq	8(%rbx), %rbx
	movq	(%rax), %rax
	testq	%rax, %rax
	jne	.L927
	jmp	.L924
	.p2align 4,,10
	.p2align 3
.L925:
	movq	16(%rax), %rax
	testq	%rax, %rax
	je	.L924
.L927:
	cmpq	(%rax), %rbp
	jne	.L925
	movq	8(%rax), %rax
	testq	%rax, %rax
	je	.L924
	addq	$1, 24(%rax)
	cmpq	$0, 16(%rax)
	movq	$0, (%rbx)
	je	.L928
	movq	16(%rax), %rdx
	movq	%rbx, (%rdx)
	movq	%rbx, 16(%rax)
	jmp	.L918
	.p2align 4,,10
	.p2align 3
.L951:
	movq	88(%rdi), %rbp
	jmp	.L920
	.p2align 4,,10
	.p2align 3
.L924:
	lock addq	$1, 184(%rbp)
	leaq	48(%rbp), %r12
	movq	%r12, %rdi
	call	pthread_mutex_lock@PLT
	cmpq	$0, 200(%rbp)
	movq	$0, (%rbx)
	je	.L929
	movq	200(%rbp), %rax
	movq	%rbx, (%rax)
	movq	%rbx, 200(%rbp)
.L930:
	movq	136(%rbp), %rax
	orq	$1, %rax
	movq	%rax, 136(%rbp)
	cmpq	$1, %rax
	je	.L931
	movq	%r12, %rdi
	call	pthread_mutex_unlock@PLT
	movq	24(%rsp), %rax
	subq	%fs:40, %rax
	jne	.L950
	addq	$32, %rsp
	.cfi_remember_state
	.cfi_def_cfa_offset 32
	leaq	88(%rbp), %rdi
	popq	%rbx
	.cfi_def_cfa_offset 24
	popq	%rbp
	.cfi_def_cfa_offset 16
	popq	%r12
	.cfi_def_cfa_offset 8
	jmp	pthread_cond_signal@PLT
	.p2align 4,,10
	.p2align 3
.L931:
	.cfi_restore_state
	cmpb	$0, 176(%rbp)
	jne	.L933
	movq	144(%rbp), %rax
	testq	%rax, %rax
	je	.L933
	leaq	88(%rax), %rdx
	movb	$1, 176(%rbp)
	movl	96(%rax), %edi
	leaq	12(%rsp), %rcx
	movq	%rdx, 16(%rsp)
	movl	88(%rax), %edx
	movl	$3, %esi
	movl	$-2147483639, 12(%rsp)
	call	epoll_ctl@PLT
.L933:
	movq	24(%rsp), %rax
	subq	%fs:40, %rax
	jne	.L950
	addq	$32, %rsp
	.cfi_remember_state
	.cfi_def_cfa_offset 32
	movq	%r12, %rdi
	popq	%rbx
	.cfi_def_cfa_offset 24
	popq	%rbp
	.cfi_def_cfa_offset 16
	popq	%r12
	.cfi_def_cfa_offset 8
	jmp	pthread_mutex_unlock@PLT
	.p2align 4,,10
	.p2align 3
.L928:
	.cfi_restore_state
	movq	%rbx, %xmm0
	punpcklqdq	%xmm0, %xmm0
	movups	%xmm0, 8(%rax)
	jmp	.L918
	.p2align 4,,10
	.p2align 3
.L929:
	movq	%rbx, %xmm0
	punpcklqdq	%xmm0, %xmm0
	movups	%xmm0, 192(%rbp)
	jmp	.L930
.L950:
	call	__stack_chk_fail@PLT
	.cfi_endproc
.LFE6392:
	.size	_ZN4asio6detail14strand_service19on_do_complete_exitD2Ev, .-_ZN4asio6detail14strand_service19on_do_complete_exitD2Ev
	.weak	_ZN4asio6detail14strand_service19on_do_complete_exitD1Ev
	.set	_ZN4asio6detail14strand_service19on_do_complete_exitD1Ev,_ZN4asio6detail14strand_service19on_do_complete_exitD2Ev
	.section	.text._ZN4asio6detail14strand_service11do_completeEPNS0_15task_io_serviceEPNS0_25task_io_service_operationERKSt10error_codem,"axG",@progbits,_ZN4asio6detail14strand_service11do_completeEPNS0_15task_io_serviceEPNS0_25task_io_service_operationERKSt10error_codem,comdat
	.align 2
	.p2align 4
	.weak	_ZN4asio6detail14strand_service11do_completeEPNS0_15task_io_serviceEPNS0_25task_io_service_operationERKSt10error_codem
	.type	_ZN4asio6detail14strand_service11do_completeEPNS0_15task_io_serviceEPNS0_25task_io_service_operationERKSt10error_codem, @function
_ZN4asio6detail14strand_service11do_completeEPNS0_15task_io_serviceEPNS0_25task_io_service_operationERKSt10error_codem:
.LFB6406:
	.cfi_startproc
	.cfi_personality 0x9b,DW.ref.__gxx_personality_v0
	.cfi_lsda 0x1b,.LLSDA6406
	pushq	%r12
	.cfi_def_cfa_offset 16
	.cfi_offset 12, -16
	pushq	%rbp
	.cfi_def_cfa_offset 24
	.cfi_offset 6, -24
	pushq	%rbx
	.cfi_def_cfa_offset 32
	.cfi_offset 3, -32
	subq	$64, %rsp
	.cfi_def_cfa_offset 96
	movq	%fs:40, %rax
	movq	%rax, 56(%rsp)
	xorl	%eax, %eax
	testq	%rdi, %rdi
	je	.L953
	movq	%rdi, %rbp
	movq	%rsi, %rbx
	movq	%rdx, %r12
	movq	%rsi, 32(%rsp)
	data16	leaq	_ZN4asio6detail15keyword_tss_ptrINS0_10call_stackINS0_14strand_service11strand_implEhE7contextEE6value_E@tlsgd(%rip), %rdi
	.value	0x6666
	rex64
	call	__tls_get_addr@PLT
	movq	%rbp, %xmm0
	movq	%rbx, %xmm1
	punpcklqdq	%xmm1, %xmm0
	movaps	%xmm0, 16(%rsp)
	movq	(%rax), %rdx
	movq	%rdx, 48(%rsp)
	leaq	32(%rsp), %rdx
	movq	%rdx, 40(%rsp)
	movq	%rdx, (%rax)
	jmp	.L957
	.p2align 4,,10
	.p2align 3
.L956:
	movq	$0, (%rax)
	xorl	%ecx, %ecx
	movq	%r12, %rdx
	movq	%rax, %rsi
	movq	%rbp, %rdi
.LEHB27:
	call	*8(%rax)
.LEHE27:
.L957:
	movq	88(%rbx), %rax
	testq	%rax, %rax
	je	.L955
	movq	(%rax), %rdx
	movq	%rdx, 88(%rbx)
	testq	%rdx, %rdx
	jne	.L956
	movq	$0, 96(%rbx)
	jmp	.L956
	.p2align 4,,10
	.p2align 3
.L955:
	movq	24(%rsp), %rax
	leaq	24(%rax), %rdi
	call	pthread_mutex_lock@PLT
	movq	24(%rsp), %rdi
	movq	72(%rdi), %rbx
	testq	%rbx, %rbx
	je	.L992
	movq	96(%rdi), %rax
	testq	%rax, %rax
	je	.L960
	movq	%rbx, (%rax)
	movq	88(%rdi), %rbx
.L961:
	movq	80(%rdi), %rax
	pxor	%xmm0, %xmm0
	movups	%xmm0, 72(%rdi)
	movq	%rax, 96(%rdi)
.L959:
	testq	%rbx, %rbx
	setne	64(%rdi)
	addq	$24, %rdi
	call	pthread_mutex_unlock@PLT
	testq	%rbx, %rbx
	jne	.L993
.L962:
	data16	leaq	_ZN4asio6detail15keyword_tss_ptrINS0_10call_stackINS0_14strand_service11strand_implEhE7contextEE6value_E@tlsgd(%rip), %rdi
	.value	0x6666
	rex64
	call	__tls_get_addr@PLT
	movq	48(%rsp), %rdx
	movq	%rdx, (%rax)
.L953:
	movq	56(%rsp), %rax
	subq	%fs:40, %rax
	jne	.L994
	addq	$64, %rsp
	.cfi_remember_state
	.cfi_def_cfa_offset 32
	popq	%rbx
	.cfi_def_cfa_offset 24
	popq	%rbp
	.cfi_def_cfa_offset 16
	popq	%r12
	.cfi_def_cfa_offset 8
	ret
	.p2align 4,,10
	.p2align 3
.L992:
	.cfi_restore_state
	movq	88(%rdi), %rbx
	jmp	.L959
	.p2align 4,,10
	.p2align 3
.L993:
	data16	leaq	_ZN4asio6detail15keyword_tss_ptrINS0_10call_stackINS0_15task_io_serviceENS0_27task_io_service_thread_infoEE7contextEE6value_E@tlsgd(%rip), %rdi
	.value	0x6666
	rex64
	call	__tls_get_addr@PLT
	movq	16(%rsp), %rbx
	movq	24(%rsp), %rbp
	movq	(%rax), %rax
	testq	%rax, %rax
	jne	.L966
	jmp	.L963
	.p2align 4,,10
	.p2align 3
.L964:
	movq	16(%rax), %rax
	testq	%rax, %rax
	je	.L963
.L966:
	cmpq	(%rax), %rbx
	jne	.L964
	movq	8(%rax), %rax
	testq	%rax, %rax
	je	.L963
	addq	$1, 24(%rax)
	cmpq	$0, 16(%rax)
	movq	$0, 0(%rbp)
	je	.L967
	movq	16(%rax), %rdx
	movq	%rbp, (%rdx)
	movq	%rbp, 16(%rax)
	jmp	.L962
	.p2align 4,,10
	.p2align 3
.L960:
	movq	%rbx, 88(%rdi)
	jmp	.L961
	.p2align 4,,10
	.p2align 3
.L963:
	lock addq	$1, 184(%rbx)
	leaq	48(%rbx), %r12
	movq	%r12, %rdi
	call	pthread_mutex_lock@PLT
	cmpq	$0, 200(%rbx)
	movq	$0, 0(%rbp)
	je	.L968
	movq	200(%rbx), %rax
	movq	%rbp, (%rax)
	movq	%rbp, 200(%rbx)
.L969:
	movq	136(%rbx), %rax
	orq	$1, %rax
	movq	%rax, 136(%rbx)
	cmpq	$1, %rax
	je	.L970
	movq	%r12, %rdi
	call	pthread_mutex_unlock@PLT
	leaq	88(%rbx), %rdi
	call	pthread_cond_signal@PLT
	jmp	.L962
.L970:
	cmpb	$0, 176(%rbx)
	jne	.L972
	movq	144(%rbx), %rax
	testq	%rax, %rax
	je	.L972
	leaq	88(%rax), %rdx
	movb	$1, 176(%rbx)
	movl	96(%rax), %edi
	leaq	4(%rsp), %rcx
	movq	%rdx, 8(%rsp)
	movl	88(%rax), %edx
	movl	$3, %esi
	movl	$-2147483639, 4(%rsp)
	call	epoll_ctl@PLT
.L972:
	movq	%r12, %rdi
	call	pthread_mutex_unlock@PLT
	jmp	.L962
.L967:
	movq	%rbp, %xmm0
	punpcklqdq	%xmm0, %xmm0
	movups	%xmm0, 8(%rax)
	jmp	.L962
.L968:
	movq	%rbp, %xmm0
	punpcklqdq	%xmm0, %xmm0
	movups	%xmm0, 192(%rbx)
	jmp	.L969
.L994:
	call	__stack_chk_fail@PLT
.L975:
	movq	%rax, %rbp
.L973:
	leaq	16(%rsp), %rdi
	call	_ZN4asio6detail14strand_service19on_do_complete_exitD1Ev@PLT
	data16	leaq	_ZN4asio6detail15keyword_tss_ptrINS0_10call_stackINS0_14strand_service11strand_implEhE7contextEE6value_E@tlsgd(%rip), %rdi
	.value	0x6666
	rex64
	call	__tls_get_addr@PLT
	movq	48(%rsp), %rdx
	movq	%rbp, %rdi
	movq	%rdx, (%rax)
.LEHB28:
	call	_Unwind_Resume@PLT
.LEHE28:
	.cfi_endproc
.LFE6406:
	.section	.gcc_except_table
.LLSDA6406:
	.byte	0xff
	.byte	0xff
	.byte	0x1
	.uleb128 .LLSDACSE6406-.LLSDACSB6406
.LLSDACSB6406:
	.uleb128 .LEHB27-.LFB6406
	.uleb128 .LEHE27-.LEHB27
	.uleb128 .L975-.LFB6406
	.uleb128 0
	.uleb128 .LEHB28-.LFB6406
	.uleb128 .LEHE28-.LEHB28
	.uleb128 0
	.uleb128 0
.LLSDACSE6406:
	.section	.text._ZN4asio6detail14strand_service11do_completeEPNS0_15task_io_serviceEPNS0_25task_io_service_operationERKSt10error_codem,"axG",@progbits,_ZN4asio6detail14strand_service11do_completeEPNS0_15task_io_serviceEPNS0_25task_io_service_operationERKSt10error_codem,comdat
	.size	_ZN4asio6detail14strand_service11do_completeEPNS0_15task_io_serviceEPNS0_25task_io_service_operationERKSt10error_codem, .-_ZN4asio6detail14strand_service11do_completeEPNS0_15task_io_serviceEPNS0_25task_io_service_operationERKSt10error_codem
	.section	.rodata._ZNSt7promiseIbED2Ev.str1.1,"aMS",@progbits,1
.LC27:
	.string	"std::future_error: "
	.section	.text._ZNSt7promiseIbED2Ev,"axG",@progbits,_ZNSt7promiseIbED5Ev,comdat
	.align 2
	.p2align 4
	.weak	_ZNSt7promiseIbED2Ev
	.type	_ZNSt7promiseIbED2Ev, @function
_ZNSt7promiseIbED2Ev:
.LFB7892:
	.cfi_startproc
	.cfi_personality 0x9b,DW.ref.__gxx_personality_v0
	.cfi_lsda 0x1b,.LLSDA7892
	pushq	%r15
	.cfi_def_cfa_offset 16
	.cfi_offset 15, -16
	pushq	%r14
	.cfi_def_cfa_offset 24
	.cfi_offset 14, -24
	pushq	%r13
	.cfi_def_cfa_offset 32
	.cfi_offset 13, -32
	pushq	%r12
	.cfi_def_cfa_offset 40
	.cfi_offset 12, -40
	pushq	%rbp
	.cfi_def_cfa_offset 48
	.cfi_offset 6, -48
	pushq	%rbx
	.cfi_def_cfa_offset 56
	.cfi_offset 3, -56
	movq	%rdi, %rbx
	subq	$136, %rsp
	.cfi_def_cfa_offset 192
	movq	(%rdi), %r12
	movq	%fs:40, %rax
	movq	%rax, 120(%rsp)
	xorl	%eax, %eax
	testq	%r12, %r12
	je	.L1036
	movq	8(%rdi), %rbp
	testq	%rbp, %rbp
	je	.L998
	movl	8(%rbp), %eax
	cmpl	$1, %eax
	je	.L1036
.L998:
	movq	16(%rbx), %r13
	movq	$0, 16(%rbx)
	testq	%r13, %r13
	je	.L1000
	call	_ZSt15future_categoryv@PLT
	leaq	48(%rsp), %r14
	movl	$4, %edx
	movq	%rax, %rbp
	movq	(%rax), %rax
	movq	%r14, %rdi
	movq	%rbp, %rsi
	call	*32(%rax)
	movl	$19, %r8d
	xorl	%edx, %edx
	xorl	%esi, %esi
	leaq	.LC27(%rip), %rcx
	movq	%r14, %rdi
.LEHB29:
	call	_ZNSt7__cxx1112basic_stringIcSt11char_traitsIcESaIcEE10_M_replaceEmmPKcm@PLT
.LEHE29:
	leaq	96(%rsp), %r14
	leaq	16(%rax), %rdx
	movq	%r14, 80(%rsp)
	movq	(%rax), %rcx
	cmpq	%rdx, %rcx
	je	.L1039
	movq	%rcx, 80(%rsp)
	movq	16(%rax), %rcx
	movq	%rcx, 96(%rsp)
.L1002:
	movq	8(%rax), %rcx
	movb	$0, 16(%rax)
	leaq	16(%rsp), %r15
	leaq	80(%rsp), %rsi
	movq	%r15, %rdi
	movq	%rcx, 88(%rsp)
	movq	%rdx, (%rax)
	movq	$0, 8(%rax)
.LEHB30:
	call	_ZNSt11logic_errorC2ERKNSt7__cxx1112basic_stringIcSt11char_traitsIcESaIcEEE@PLT
.LEHE30:
	movq	80(%rsp), %rdi
	cmpq	%r14, %rdi
	je	.L1003
	movq	96(%rsp), %rax
	leaq	1(%rax), %rsi
	call	_ZdlPvm@PLT
.L1003:
	movq	48(%rsp), %rdi
	leaq	64(%rsp), %rax
	cmpq	%rax, %rdi
	je	.L1004
	movq	64(%rsp), %rax
	leaq	1(%rax), %rsi
	call	_ZdlPvm@PLT
.L1004:
	movq	_ZTVSt12future_error@GOTPCREL(%rip), %rax
	movl	$32, %edi
	movq	%rbp, 40(%rsp)
	movl	$4, 32(%rsp)
	leaq	16(%rax), %r14
	movq	%r14, 16(%rsp)
	call	__cxa_allocate_exception@PLT
	movq	_ZNSt15__exception_ptr12__dest_thunkISt12future_errorEEvPv@GOTPCREL(%rip), %rdx
	movq	_ZTISt12future_error@GOTPCREL(%rip), %rsi
	movq	%rax, %rbp
	movq	%rax, %rdi
	call	__cxa_init_primary_exception@PLT
	movq	%r15, %rsi
	movq	%rbp, %rdi
	call	_ZNSt11logic_errorC2ERKS_@PLT
	movdqa	32(%rsp), %xmm0
	movq	%r14, 0(%rbp)
	movq	%rsp, %r14
	movq	%rbp, %rsi
	movq	%r14, %rdi
	movups	%xmm0, 16(%rbp)
	leaq	8(%rsp), %rbp
	call	_ZNSt15__exception_ptr13exception_ptrC1EPv@PLT
	movq	(%rsp), %rax
	leaq	8(%r13), %rsi
	movq	%rbp, %rdi
	movq	$0, (%rsp)
	movq	%rax, 8(%rsp)
	call	_ZNSt15__exception_ptr13exception_ptr4swapERS0_@PLT
	movq	%rbp, %rdi
	call	_ZNSt15__exception_ptr13exception_ptrD1Ev@PLT
	movq	%r14, %rdi
	call	_ZNSt15__exception_ptr13exception_ptrD1Ev@PLT
	movq	%r15, %rdi
	call	_ZNSt12future_errorD1Ev@PLT
	movq	8(%r12), %rbp
	leaq	16(%r12), %rdi
	movl	$1, %eax
	movq	%r13, 8(%r12)
	xchgl	(%rdi), %eax
	testl	%eax, %eax
	js	.L1040
.L1006:
	testq	%rbp, %rbp
	je	.L1036
	movq	0(%rbp), %rax
	movq	%rbp, %rdi
	call	*(%rax)
.L1036:
	movq	16(%rbx), %rbp
	testq	%rbp, %rbp
	je	.L1037
	movq	0(%rbp), %rax
	movq	(%rax), %rdx
	cmpq	_ZNSt13__future_base7_ResultIbE10_M_destroyEv@GOTPCREL(%rip), %rdx
	jne	.L1013
	movq	16(%rax), %rax
	cmpq	_ZNSt13__future_base7_ResultIbED0Ev@GOTPCREL(%rip), %rax
	jne	.L1014
	movq	_ZTVNSt13__future_base7_ResultIbEE@GOTPCREL(%rip), %rax
	movq	%rbp, %rdi
	addq	$16, %rax
	movq	%rax, 0(%rbp)
	call	_ZNSt13__future_base12_Result_baseD2Ev@PLT
	movq	%rbp, %rdi
	movl	$24, %esi
	call	_ZdlPvm@PLT
	movq	8(%rbx), %rbp
.L1000:
	testq	%rbp, %rbp
	je	.L995
	movq	_ZL28__gthrw___pthread_key_createPjPFvPvE@GOTPCREL(%rip), %rbx
	testq	%rbx, %rbx
	jne	.L1041
	movl	8(%rbp), %eax
	leal	-1(%rax), %edx
	movl	%edx, 8(%rbp)
.L1018:
	cmpl	$1, %eax
	je	.L1042
.L995:
	movq	120(%rsp), %rax
	subq	%fs:40, %rax
	jne	.L1038
	addq	$136, %rsp
	.cfi_remember_state
	.cfi_def_cfa_offset 56
	popq	%rbx
	.cfi_def_cfa_offset 48
	popq	%rbp
	.cfi_def_cfa_offset 40
	popq	%r12
	.cfi_def_cfa_offset 32
	popq	%r13
	.cfi_def_cfa_offset 24
	popq	%r14
	.cfi_def_cfa_offset 16
	popq	%r15
	.cfi_def_cfa_offset 8
	ret
	.p2align 4,,10
	.p2align 3
.L1013:
	.cfi_restore_state
	movq	%rbp, %rdi
	call	*%rdx
.L1037:
	movq	8(%rbx), %rbp
	jmp	.L1000
	.p2align 4,,10
	.p2align 3
.L1042:
	movq	0(%rbp), %rax
	movq	%rbp, %rdi
	call	*16(%rax)
	testq	%rbx, %rbx
	jne	.L1043
	movl	12(%rbp), %eax
	leal	-1(%rax), %edx
	movl	%edx, 12(%rbp)
.L1021:
	cmpl	$1, %eax
	jne	.L995
	movq	120(%rsp), %rax
	subq	%fs:40, %rax
	jne	.L1038
	movq	0(%rbp), %rax
	movq	%rbp, %rdi
	movq	24(%rax), %rax
	addq	$136, %rsp
	.cfi_remember_state
	.cfi_def_cfa_offset 56
	popq	%rbx
	.cfi_def_cfa_offset 48
	popq	%rbp
	.cfi_def_cfa_offset 40
	popq	%r12
	.cfi_def_cfa_offset 32
	popq	%r13
	.cfi_def_cfa_offset 24
	popq	%r14
	.cfi_def_cfa_offset 16
	popq	%r15
	.cfi_def_cfa_offset 8
	jmp	*%rax
	.p2align 4,,10
	.p2align 3
.L1041:
	.cfi_restore_state
	movl	$-1, %eax
	lock xaddl	%eax, 8(%rbp)
	jmp	.L1018
	.p2align 4,,10
	.p2align 3
.L1014:
	movq	%rbp, %rdi
	call	*%rax
	movq	8(%rbx), %rbp
	jmp	.L1000
	.p2align 4,,10
	.p2align 3
.L1039:
	movdqu	16(%rax), %xmm1
	movaps	%xmm1, 96(%rsp)
	jmp	.L1002
	.p2align 4,,10
	.p2align 3
.L1040:
	call	_ZNSt28__atomic_futex_unsigned_base19_M_futex_notify_allEPj@PLT
	jmp	.L1006
	.p2align 4,,10
	.p2align 3
.L1043:
	movl	$-1, %eax
	lock xaddl	%eax, 12(%rbp)
	jmp	.L1021
.L1038:
	call	__stack_chk_fail@PLT
.L1024:
	jmp	.L1009
.L1025:
.L1007:
	movq	80(%rsp), %rdi
	cmpq	%r14, %rdi
	je	.L1009
	movq	96(%rsp), %rax
	leaq	1(%rax), %rsi
	call	_ZdlPvm@PLT
.L1009:
	movq	48(%rsp), %rdi
	leaq	64(%rsp), %rax
	cmpq	%rax, %rdi
	je	.L1010
	movq	64(%rsp), %rax
	leaq	1(%rax), %rsi
	call	_ZdlPvm@PLT
.L1010:
	call	_ZSt9terminatev@PLT
	.cfi_endproc
.LFE7892:
	.section	.gcc_except_table
.LLSDA7892:
	.byte	0xff
	.byte	0xff
	.byte	0x1
	.uleb128 .LLSDACSE7892-.LLSDACSB7892
.LLSDACSB7892:
	.uleb128 .LEHB29-.LFB7892
	.uleb128 .LEHE29-.LEHB29
	.uleb128 .L1024-.LFB7892
	.uleb128 0
	.uleb128 .LEHB30-.LFB7892
	.uleb128 .LEHE30-.LEHB30
	.uleb128 .L1025-.LFB7892
	.uleb128 0
.LLSDACSE7892:
	.section	.text._ZNSt7promiseIbED2Ev,"axG",@progbits,_ZNSt7promiseIbED5Ev,comdat
	.size	_ZNSt7promiseIbED2Ev, .-_ZNSt7promiseIbED2Ev
	.weak	_ZNSt7promiseIbED1Ev
	.set	_ZNSt7promiseIbED1Ev,_ZNSt7promiseIbED2Ev
	.section	.text._ZNSt16_Sp_counted_baseILN9__gnu_cxx12_Lock_policyE2EE10_M_releaseEv,"axG",@progbits,_ZNSt16_Sp_counted_baseILN9__gnu_cxx12_Lock_policyE2EE10_M_releaseEv,comdat
	.align 2
	.p2align 4
	.weak	_ZNSt16_Sp_counted_baseILN9__gnu_cxx12_Lock_policyE2EE10_M_releaseEv
	.type	_ZNSt16_Sp_counted_baseILN9__gnu_cxx12_Lock_policyE2EE10_M_releaseEv, @function
_ZNSt16_Sp_counted_baseILN9__gnu_cxx12_Lock_policyE2EE10_M_releaseEv:
.LFB8150:
	.cfi_startproc
	pushq	%rbp
	.cfi_def_cfa_offset 16
	.cfi_offset 6, -16
	movq	%rdi, %rbp
	pushq	%rbx
	.cfi_def_cfa_offset 24
	.cfi_offset 3, -24
	subq	$8, %rsp
	.cfi_def_cfa_offset 32
	movq	_ZL28__gthrw___pthread_key_createPjPFvPvE@GOTPCREL(%rip), %rbx
	testq	%rbx, %rbx
	jne	.L1053
	movl	8(%rdi), %eax
	leal	-1(%rax), %edx
	movl	%edx, 8(%rdi)
.L1046:
	cmpl	$1, %eax
	je	.L1054
.L1044:
	addq	$8, %rsp
	.cfi_remember_state
	.cfi_def_cfa_offset 24
	popq	%rbx
	.cfi_def_cfa_offset 16
	popq	%rbp
	.cfi_def_cfa_offset 8
	ret
	.p2align 4,,10
	.p2align 3
.L1054:
	.cfi_restore_state
	movq	0(%rbp), %rax
	movq	%rbp, %rdi
	call	*16(%rax)
	testq	%rbx, %rbx
	jne	.L1055
	movl	12(%rbp), %eax
	leal	-1(%rax), %edx
	movl	%edx, 12(%rbp)
.L1050:
	cmpl	$1, %eax
	jne	.L1044
	movq	0(%rbp), %rax
	movq	%rbp, %rdi
	movq	24(%rax), %rax
	addq	$8, %rsp
	.cfi_remember_state
	.cfi_def_cfa_offset 24
	popq	%rbx
	.cfi_def_cfa_offset 16
	popq	%rbp
	.cfi_def_cfa_offset 8
	jmp	*%rax
	.p2align 4,,10
	.p2align 3
.L1053:
	.cfi_restore_state
	movl	$-1, %eax
	lock xaddl	%eax, 8(%rdi)
	jmp	.L1046
	.p2align 4,,10
	.p2align 3
.L1055:
	movl	$-1, %eax
	lock xaddl	%eax, 12(%rbp)
	jmp	.L1050
	.cfi_endproc
.LFE8150:
	.size	_ZNSt16_Sp_counted_baseILN9__gnu_cxx12_Lock_policyE2EE10_M_releaseEv, .-_ZNSt16_Sp_counted_baseILN9__gnu_cxx12_Lock_policyE2EE10_M_releaseEv
	.section	.rodata.str1.1,"aMS",@progbits,1
.LC28:
	.string	"mutex"
	.section	.text.unlikely
	.align 2
.LCOLDB29:
	.text
.LHOTB29:
	.align 2
	.p2align 4
	.globl	_ZN7asiopal8ExecutorC2ERKSt10shared_ptrINS_2IOEE
	.type	_ZN7asiopal8ExecutorC2ERKSt10shared_ptrINS_2IOEE, @function
_ZN7asiopal8ExecutorC2ERKSt10shared_ptrINS_2IOEE:
.LFB6985:
	.cfi_startproc
	.cfi_personality 0x9b,DW.ref.__gxx_personality_v0
	.cfi_lsda 0x1b,.LLSDA6985
	pushq	%r15
	.cfi_def_cfa_offset 16
	.cfi_offset 15, -16
	pushq	%r14
	.cfi_def_cfa_offset 24
	.cfi_offset 14, -24
	pushq	%r13
	.cfi_def_cfa_offset 32
	.cfi_offset 13, -32
	pushq	%r12
	.cfi_def_cfa_offset 40
	.cfi_offset 12, -40
	pushq	%rbp
	.cfi_def_cfa_offset 48
	.cfi_offset 6, -48
	pushq	%rbx
	.cfi_def_cfa_offset 56
	.cfi_offset 3, -56
	movq	%rdi, %rbx
	subq	$56, %rsp
	.cfi_def_cfa_offset 112
	movq	%fs:40, %rax
	movq	%rax, 40(%rsp)
	xorl	%eax, %eax
	movq	_ZTVN7asiopal8ExecutorE@GOTPCREL(%rip), %rax
	movq	$0, 8(%rdi)
	movq	$0, 16(%rdi)
	addq	$16, %rax
	movq	%rax, (%rdi)
	movq	(%rsi), %rax
	movq	%rax, 24(%rdi)
	movq	8(%rsi), %rax
	movq	%rax, 32(%rdi)
	testq	%rax, %rax
	je	.L1057
	cmpq	$0, _ZL28__gthrw___pthread_key_createPjPFvPvE@GOTPCREL(%rip)
	jne	.L1161
	addl	$1, 8(%rax)
.L1057:
	movq	(%rsi), %rax
	movq	8(%rax), %r13
	leaq	8(%r13), %r14
	movq	%r14, %rdi
	call	pthread_mutex_lock@PLT
	movq	56(%r13), %r15
	testq	%r15, %r15
	je	.L1059
	.p2align 4,,10
	.p2align 3
.L1063:
	movq	8(%r15), %rax
	testq	%rax, %rax
	je	.L1060
	movq	8(%rax), %rdi
	movq	_ZTSN4asio6detail14typeid_wrapperINS0_14strand_serviceEEE@GOTPCREL(%rip), %rsi
	cmpq	%rsi, %rdi
	je	.L1157
	cmpb	$42, (%rdi)
	je	.L1060
	call	strcmp@PLT
	testl	%eax, %eax
	jne	.L1060
.L1157:
	leaq	48(%r15), %r12
.L1062:
	movq	%r14, %rdi
	call	pthread_mutex_unlock@PLT
	movq	%r15, 40(%rbx)
	movq	%r12, %rdi
	call	pthread_mutex_lock@PLT
	movq	1632(%r15), %rdx
	leaq	1(%rdx), %rax
	movq	%rax, 1632(%r15)
	leaq	48(%rbx), %rax
	movq	%rax, %rsi
	shrq	$3, %rsi
	addq	%rsi, %rax
	movq	%rax, %rsi
	movq	%rax, %rdi
	shrq	$2, %rdi
	salq	$6, %rsi
	addq	%rdi, %rsi
	movl	$2654435769, %edi
	addq	%rdi, %rsi
	addq	%rdx, %rsi
	movabsq	$1529263757405973191, %rdx
	xorq	%rax, %rsi
	movq	%rsi, %rax
	mulq	%rdx
	shrq	$4, %rdx
	leaq	(%rdx,%rdx,2), %rax
	salq	$6, %rax
	addq	%rax, %rdx
	movq	%rsi, %rax
	subq	%rdx, %rax
	leaq	(%r15,%rax,8), %rax
	movq	88(%rax), %rbp
	movq	%rax, (%rsp)
	testq	%rbp, %rbp
	je	.L1162
.L1074:
	movq	%rbp, 48(%rbx)
	movq	40(%rsp), %rax
	subq	%fs:40, %rax
	jne	.L1163
	addq	$56, %rsp
	.cfi_remember_state
	.cfi_def_cfa_offset 56
	movq	%r12, %rdi
	popq	%rbx
	.cfi_def_cfa_offset 48
	popq	%rbp
	.cfi_def_cfa_offset 40
	popq	%r12
	.cfi_def_cfa_offset 32
	popq	%r13
	.cfi_def_cfa_offset 24
	popq	%r14
	.cfi_def_cfa_offset 16
	popq	%r15
	.cfi_def_cfa_offset 8
	jmp	pthread_mutex_unlock@PLT
	.p2align 4,,10
	.p2align 3
.L1060:
	.cfi_restore_state
	movq	32(%r15), %r15
	testq	%r15, %r15
	jne	.L1063
.L1059:
	movq	%r14, %rdi
	call	pthread_mutex_unlock@PLT
	movl	$1640, %edi
	movq	48(%r13), %r12
.LEHB31:
	call	_Znwm@PLT
.LEHE31:
	movq	%r12, 24(%rax)
	movq	%rax, %rbp
	xorl	%esi, %esi
	movq	$0, 8(%rax)
	movq	$0, 16(%rax)
	movq	$0, 32(%rax)
	movq	_ZTVN4asio6detail14strand_serviceE@GOTPCREL(%rip), %rax
	addq	$16, %rax
	movq	%rax, 0(%rbp)
	movq	8(%r12), %rax
	leaq	48(%rbp), %r12
	movq	%r12, %rdi
	movq	%rax, 40(%rbp)
	call	pthread_mutex_init@PLT
	movl	%eax, %r15d
	movq	_ZGVZN4asio15system_categoryEvE8instance@GOTPCREL(%rip), %rax
	movzbl	(%rax), %eax
	testb	%al, %al
	je	.L1064
.L1155:
	movq	_ZZN4asio15system_categoryEvE8instance@GOTPCREL(%rip), %rsi
.L1065:
	movl	%r15d, 16(%rsp)
	movq	%rsi, 24(%rsp)
	testl	%r15d, %r15d
	jne	.L1149
	leaq	96(%rbp), %rdi
	movl	%ebp, %eax
	movq	$0, 88(%rbp)
	movq	$0, 1624(%rbp)
	andq	$-8, %rdi
	subl	%edi, %eax
	leal	1632(%rax), %ecx
	xorl	%eax, %eax
	shrl	$3, %ecx
	rep stosq
	movq	_ZTIN4asio6detail14typeid_wrapperINS0_14strand_serviceEEE@GOTPCREL(%rip), %rax
	movq	$0, 16(%rbp)
	movq	%r14, %rdi
	movq	$0, 1632(%rbp)
	movq	%rax, 8(%rbp)
	call	pthread_mutex_lock@PLT
	movq	56(%r13), %rax
	movq	%rax, (%rsp)
	testq	%rax, %rax
	je	.L1068
	movq	%rax, %r15
	.p2align 4,,10
	.p2align 3
.L1069:
	movq	8(%r15), %rax
	testq	%rax, %rax
	je	.L1072
	movq	8(%rax), %rdi
	movq	_ZTSN4asio6detail14typeid_wrapperINS0_14strand_serviceEEE@GOTPCREL(%rip), %rsi
	cmpq	%rsi, %rdi
	je	.L1073
	cmpb	$42, (%rdi)
	je	.L1072
	call	strcmp@PLT
	testl	%eax, %eax
	jne	.L1072
.L1073:
	movq	0(%rbp), %rax
	movq	%rbp, %rdi
	call	*8(%rax)
	jmp	.L1157
	.p2align 4,,10
	.p2align 3
.L1072:
	movq	32(%r15), %r15
	testq	%r15, %r15
	jne	.L1069
.L1068:
	movq	(%rsp), %rax
	movq	%rbp, %r15
	movq	%rax, 32(%rbp)
	movq	%rbp, 56(%r13)
	jmp	.L1062
.L1162:
	movl	$104, %edi
.LEHB32:
	call	_Znwm@PLT
.LEHE32:
	movq	$0, (%rax)
	movq	%rax, %rbp
	xorl	%esi, %esi
	movq	_ZN4asio6detail14strand_service11do_completeEPNS0_15task_io_serviceEPNS0_25task_io_service_operationERKSt10error_codem@GOTPCREL(%rip), %rax
	movl	$0, 16(%rbp)
	leaq	24(%rbp), %rdi
	movq	%rax, 8(%rbp)
	call	pthread_mutex_init@PLT
	movq	_ZGVZN4asio15system_categoryEvE8instance@GOTPCREL(%rip), %r13
	movl	%eax, %r15d
	movzbl	0(%r13), %eax
	testb	%al, %al
	je	.L1075
.L1158:
	movq	_ZZN4asio15system_categoryEvE8instance@GOTPCREL(%rip), %rsi
.L1076:
	movl	%r15d, 16(%rsp)
	movq	%rsi, 24(%rsp)
	testl	%r15d, %r15d
	jne	.L1150
	movq	(%rsp), %rax
	pxor	%xmm0, %xmm0
	movb	$0, 64(%rbp)
	movups	%xmm0, 72(%rbp)
	movq	88(%rax), %r14
	movups	%xmm0, 88(%rbp)
	testq	%r14, %r14
	je	.L1079
	movq	88(%r14), %rsi
	testq	%rsi, %rsi
	je	.L1084
	movq	%rsi, 8(%rsp)
	leaq	16(%rsp), %r13
	call	_ZNSt3_V215system_categoryEv@PLT
	movq	8(%rsp), %rsi
	movq	%rax, %r15
	jmp	.L1086
	.p2align 4,,10
	.p2align 3
.L1083:
	movq	$0, (%rsi)
	movq	8(%rsi), %rax
	xorl	%ecx, %ecx
	movq	%r13, %rdx
	movl	$0, 16(%rsp)
	xorl	%edi, %edi
	movq	%r15, 24(%rsp)
	call	*%rax
	movq	88(%r14), %rsi
	testq	%rsi, %rsi
	je	.L1084
.L1086:
	movq	(%rsi), %rax
	movq	%rax, 88(%r14)
	testq	%rax, %rax
	jne	.L1083
	movq	$0, 96(%r14)
	jmp	.L1083
.L1081:
	leaq	24(%r14), %rdi
	call	pthread_mutex_destroy@PLT
	movl	$104, %esi
	movq	%r14, %rdi
	call	_ZdlPvm@PLT
.L1079:
	movq	(%rsp), %rax
	movq	%rbp, 88(%rax)
	jmp	.L1074
.L1064:
	movq	_ZGVZN4asio15system_categoryEvE8instance@GOTPCREL(%rip), %rdi
	call	__cxa_guard_acquire@PLT
	testl	%eax, %eax
	je	.L1155
	movq	_ZZN4asio15system_categoryEvE8instance@GOTPCREL(%rip), %rsi
	movq	_ZN4asio6detail15system_categoryD1Ev@GOTPCREL(%rip), %rdi
	leaq	__dso_handle(%rip), %rdx
	movq	%rsi, (%rsp)
	call	__cxa_atexit@PLT
	movq	_ZGVZN4asio15system_categoryEvE8instance@GOTPCREL(%rip), %rdi
	call	__cxa_guard_release@PLT
	movq	(%rsp), %rsi
	jmp	.L1065
.L1084:
	movq	72(%r14), %rsi
	testq	%rsi, %rsi
	je	.L1081
	movq	%rsi, 8(%rsp)
	leaq	16(%rsp), %r13
	call	_ZNSt3_V215system_categoryEv@PLT
	movq	8(%rsp), %rsi
	movq	%rax, %r15
	jmp	.L1089
	.p2align 4,,10
	.p2align 3
.L1087:
	movq	$0, (%rsi)
	movq	8(%rsi), %rax
	xorl	%ecx, %ecx
	movq	%r13, %rdx
	movl	$0, 16(%rsp)
	xorl	%edi, %edi
	movq	%r15, 24(%rsp)
	call	*%rax
	movq	72(%r14), %rsi
	testq	%rsi, %rsi
	je	.L1081
.L1089:
	movq	(%rsi), %rax
	movq	%rax, 72(%r14)
	testq	%rax, %rax
	jne	.L1087
	movq	$0, 80(%r14)
	jmp	.L1087
.L1161:
	lock addl	$1, 8(%rax)
	jmp	.L1057
.L1075:
	movq	%r13, %rdi
	call	__cxa_guard_acquire@PLT
	testl	%eax, %eax
	je	.L1158
	movq	_ZZN4asio15system_categoryEvE8instance@GOTPCREL(%rip), %rsi
	movq	_ZN4asio6detail15system_categoryD1Ev@GOTPCREL(%rip), %rdi
	leaq	__dso_handle(%rip), %rdx
	movq	%rsi, 8(%rsp)
	call	__cxa_atexit@PLT
	movq	%r13, %rdi
	call	__cxa_guard_release@PLT
	movq	8(%rsp), %rsi
	jmp	.L1076
.L1163:
	call	__stack_chk_fail@PLT
.L1100:
	movq	%rax, %rbp
	jmp	.L1071
.L1102:
	movq	%rax, %rbp
	jmp	.L1092
	.section	.gcc_except_table
.LLSDA6985:
	.byte	0xff
	.byte	0xff
	.byte	0x1
	.uleb128 .LLSDACSE6985-.LLSDACSB6985
.LLSDACSB6985:
	.uleb128 .LEHB31-.LFB6985
	.uleb128 .LEHE31-.LEHB31
	.uleb128 .L1100-.LFB6985
	.uleb128 0
	.uleb128 .LEHB32-.LFB6985
	.uleb128 .LEHE32-.LEHB32
	.uleb128 .L1102-.LFB6985
	.uleb128 0
.LLSDACSE6985:
	.text
	.cfi_endproc
	.section	.text.unlikely
	.cfi_startproc
	.cfi_personality 0x9b,DW.ref.__gxx_personality_v0
	.cfi_lsda 0x1b,.LLSDAC6985
	.type	_ZN7asiopal8ExecutorC2ERKSt10shared_ptrINS_2IOEE.cold, @function
_ZN7asiopal8ExecutorC2ERKSt10shared_ptrINS_2IOEE.cold:
.LFSB6985:
	nop
.L1101:
	.cfi_def_cfa_offset 112
	.cfi_offset 3, -56
	.cfi_offset 6, -48
	.cfi_offset 12, -40
	.cfi_offset 13, -32
	.cfi_offset 14, -24
	.cfi_offset 15, -16
	movq	%rax, %r12
	movq	%rbp, %rdi
	movl	$1640, %esi
	call	_ZdlPvm@PLT
	movq	%r12, %rbp
.L1071:
	movq	32(%rbx), %rdi
	testq	%rdi, %rdi
	je	.L1093
	call	_ZNSt16_Sp_counted_baseILN9__gnu_cxx12_Lock_policyE2EE10_M_releaseEv@PLT
.L1093:
	movq	16(%rbx), %rdi
	testq	%rdi, %rdi
	je	.L1095
	cmpq	$0, _ZL28__gthrw___pthread_key_createPjPFvPvE@GOTPCREL(%rip)
	leaq	12(%rdi), %rdx
	je	.L1096
	orl	$-1, %eax
	lock xaddl	%eax, (%rdx)
.L1097:
	subl	$1, %eax
	jne	.L1095
	movq	(%rdi), %rax
	call	*24(%rax)
.L1095:
	movq	%rbp, %rdi
.LEHB33:
	call	_Unwind_Resume@PLT
.LEHE33:
.L1103:
	movq	%rax, %r13
	movq	%rbp, %rdi
	movl	$104, %esi
	call	_ZdlPvm@PLT
	movq	%r13, %rbp
.L1092:
	movq	%r12, %rdi
	call	pthread_mutex_unlock@PLT
	jmp	.L1071
.L1149:
	leaq	16(%rsp), %rdi
	leaq	.LC28(%rip), %rsi
.LEHB34:
	call	_ZN4asio6detail14do_throw_errorERKSt10error_codePKc@PLT
.LEHE34:
.L1150:
	leaq	16(%rsp), %rdi
	leaq	.LC28(%rip), %rsi
.LEHB35:
	call	_ZN4asio6detail14do_throw_errorERKSt10error_codePKc@PLT
.LEHE35:
.L1096:
	movl	12(%rdi), %eax
	leal	-1(%rax), %edx
	movl	%edx, 12(%rdi)
	jmp	.L1097
	.cfi_endproc
.LFE6985:
	.section	.gcc_except_table
.LLSDAC6985:
	.byte	0xff
	.byte	0xff
	.byte	0x1
	.uleb128 .LLSDACSEC6985-.LLSDACSBC6985
.LLSDACSBC6985:
	.uleb128 .LEHB33-.LCOLDB29
	.uleb128 .LEHE33-.LEHB33
	.uleb128 0
	.uleb128 0
	.uleb128 .LEHB34-.LCOLDB29
	.uleb128 .LEHE34-.LEHB34
	.uleb128 .L1101-.LCOLDB29
	.uleb128 0
	.uleb128 .LEHB35-.LCOLDB29
	.uleb128 .LEHE35-.LEHB35
	.uleb128 .L1103-.LCOLDB29
	.uleb128 0
.LLSDACSEC6985:
	.section	.text.unlikely
	.text
	.size	_ZN7asiopal8ExecutorC2ERKSt10shared_ptrINS_2IOEE, .-_ZN7asiopal8ExecutorC2ERKSt10shared_ptrINS_2IOEE
	.section	.text.unlikely
	.size	_ZN7asiopal8ExecutorC2ERKSt10shared_ptrINS_2IOEE.cold, .-_ZN7asiopal8ExecutorC2ERKSt10shared_ptrINS_2IOEE.cold
.LCOLDE29:
	.text
.LHOTE29:
	.globl	_ZN7asiopal8ExecutorC1ERKSt10shared_ptrINS_2IOEE
	.set	_ZN7asiopal8ExecutorC1ERKSt10shared_ptrINS_2IOEE,_ZN7asiopal8ExecutorC2ERKSt10shared_ptrINS_2IOEE
	.section	.text.unlikely
	.align 2
.LCOLDB31:
	.text
.LHOTB31:
	.align 2
	.p2align 4
	.globl	_ZN7asiopal8Executor10BlockUntilERKSt8functionIFvvEE
	.type	_ZN7asiopal8Executor10BlockUntilERKSt8functionIFvvEE, @function
_ZN7asiopal8Executor10BlockUntilERKSt8functionIFvvEE:
.LFB7048:
	.cfi_startproc
	.cfi_personality 0x9b,DW.ref.__gxx_personality_v0
	.cfi_lsda 0x1b,.LLSDA7048
	pushq	%r15
	.cfi_def_cfa_offset 16
	.cfi_offset 15, -16
	pushq	%r14
	.cfi_def_cfa_offset 24
	.cfi_offset 14, -24
	pushq	%r13
	.cfi_def_cfa_offset 32
	.cfi_offset 13, -32
	pushq	%r12
	.cfi_def_cfa_offset 40
	.cfi_offset 12, -40
	pushq	%rbp
	.cfi_def_cfa_offset 48
	.cfi_offset 6, -48
	movq	%rsi, %rbp
	pushq	%rbx
	.cfi_def_cfa_offset 56
	.cfi_offset 3, -56
	movq	%rdi, %rbx
	subq	$200, %rsp
	.cfi_def_cfa_offset 256
	movq	48(%rdi), %r12
	movq	%fs:40, %rax
	movq	%rax, 184(%rsp)
	xorl	%eax, %eax
	data16	leaq	_ZN4asio6detail15keyword_tss_ptrINS0_10call_stackINS0_14strand_service11strand_implEhE7contextEE6value_E@tlsgd(%rip), %rdi
	.value	0x6666
	rex64
	call	__tls_get_addr@PLT
	movq	(%rax), %rax
	testq	%rax, %rax
	jne	.L1168
	jmp	.L1165
	.p2align 4,,10
	.p2align 3
.L1166:
	movq	16(%rax), %rax
	testq	%rax, %rax
	je	.L1165
.L1168:
	cmpq	(%rax), %r12
	jne	.L1166
	cmpq	$0, 8(%rax)
	je	.L1165
	cmpq	$0, 16(%rbp)
	je	.L1296
	movq	184(%rsp), %rax
	subq	%fs:40, %rax
	jne	.L1294
	movq	24(%rbp), %rax
	addq	$200, %rsp
	.cfi_remember_state
	.cfi_def_cfa_offset 56
	movq	%rbp, %rdi
	popq	%rbx
	.cfi_def_cfa_offset 48
	popq	%rbp
	.cfi_def_cfa_offset 40
	popq	%r12
	.cfi_def_cfa_offset 32
	popq	%r13
	.cfi_def_cfa_offset 24
	popq	%r14
	.cfi_def_cfa_offset 16
	popq	%r15
	.cfi_def_cfa_offset 8
.LEHB36:
	jmp	*%rax
	.p2align 4,,10
	.p2align 3
.L1165:
	.cfi_restore_state
	movq	$0, 48(%rsp)
	movl	$48, %edi
	call	_Znwm@PLT
.LEHE36:
	movq	.LC30(%rip), %rdx
	movl	$24, %edi
	movq	$0, 24(%rax)
	movq	%rdx, 8(%rax)
	movq	_ZTVSt23_Sp_counted_ptr_inplaceINSt13__future_base13_State_baseV2ESaIS1_ELN9__gnu_cxx12_Lock_policyE2EE@GOTPCREL(%rip), %rdx
	movl	$0, 32(%rax)
	addq	$16, %rdx
	movb	$0, 36(%rax)
	movq	%rdx, (%rax)
	movq	_ZTVNSt13__future_base13_State_baseV2E@GOTPCREL(%rip), %rdx
	movl	$0, 40(%rax)
	addq	$16, %rdx
	movq	%rax, 56(%rsp)
	addq	$16, %rax
	movq	%rdx, (%rax)
	movq	%rax, 48(%rsp)
.LEHB37:
	call	_Znwm@PLT
.LEHE37:
	movq	%rax, %rdi
	movq	%rax, %r12
	call	_ZNSt13__future_base12_Result_baseC2Ev@PLT
	movq	56(%rsp), %r13
	movb	$0, 17(%r12)
	movq	_ZTVNSt13__future_base7_ResultIbEE@GOTPCREL(%rip), %rax
	movq	%r12, 64(%rsp)
	addq	$16, %rax
	movq	%rax, (%r12)
	movq	48(%rsp), %r12
	testq	%r13, %r13
	je	.L1172
	cmpq	$0, _ZL28__gthrw___pthread_key_createPjPFvPvE@GOTPCREL(%rip)
	jne	.L1297
	addl	$1, 8(%r13)
.L1172:
	testq	%r12, %r12
	je	.L1298
	movl	$1, %eax
	xchgb	20(%r12), %al
	testb	%al, %al
	jne	.L1299
	movq	40(%rbx), %rax
	movq	%rax, 8(%rsp)
	data16	leaq	_ZN4asio6detail15keyword_tss_ptrINS0_10call_stackINS0_15task_io_serviceENS0_27task_io_service_thread_infoEE7contextEE6value_E@tlsgd(%rip), %rdi
	.value	0x6666
	rex64
	call	__tls_get_addr@PLT
	movq	(%rax), %rax
	testq	%rax, %rax
	je	.L1181
	movq	8(%rax), %rax
	testq	%rax, %rax
	je	.L1181
	movq	(%rax), %r15
	testq	%r15, %r15
	je	.L1181
	movq	$0, (%rax)
	movzbl	(%r15), %eax
	cmpb	$39, %al
	jbe	.L1182
	movb	%al, 40(%r15)
.L1183:
	leaq	_ZN4asio6detail18completion_handlerIZN7asiopal8Executor10BlockUntilERKSt8functionIFvvEEEUlvE_E11do_completeEPNS0_15task_io_serviceEPNS0_25task_io_service_operationERKSt10error_codem(%rip), %rax
	leaq	48(%rsp), %r14
	movq	%rbp, 24(%r15)
	movq	%rax, 8(%r15)
	movq	48(%rbx), %rax
	movq	$0, (%r15)
	movl	$0, 16(%r15)
	leaq	24(%rax), %rdi
	movq	%r14, 32(%r15)
	call	pthread_mutex_lock@PLT
	movq	48(%rbx), %rax
	cmpb	$0, 64(%rax)
	je	.L1184
	cmpq	$0, 80(%rax)
	movq	$0, (%r15)
	je	.L1185
	movq	80(%rax), %rdx
	movq	%r15, (%rdx)
	movq	%r15, 80(%rax)
.L1186:
	leaq	24(%rax), %rdi
	call	pthread_mutex_unlock@PLT
.L1187:
	movq	(%r12), %rax
	movq	%r12, %rdi
.LEHB38:
	call	*16(%rax)
	movl	16(%r12), %edx
	leaq	16(%r12), %rbx
	andl	$2147483647, %edx
	cmpl	$1, %edx
	jne	.L1201
	jmp	.L1200
	.p2align 4,,10
	.p2align 3
.L1300:
	cmpb	$1, %al
	jne	.L1200
.L1201:
	lock orl	$-2147483648, (%rbx)
	xorl	%r9d, %r9d
	xorl	%r8d, %r8d
	xorl	%ecx, %ecx
	orl	$-2147483648, %edx
	movq	%rbx, %rsi
	movq	%rbx, %rdi
	call	_ZNSt28__atomic_futex_unsigned_base19_M_futex_wait_untilEPjjbNSt6chrono8durationIlSt5ratioILl1ELl1EEEENS2_IlS3_ILl1ELl1000000000EEEE@PLT
.LEHE38:
	movl	(%rbx), %edx
	andl	$2147483647, %edx
	cmpl	$1, %edx
	jne	.L1300
.L1200:
	testq	%r13, %r13
	je	.L1204
	movq	_ZL28__gthrw___pthread_key_createPjPFvPvE@GOTPCREL(%rip), %rbx
	testq	%rbx, %rbx
	jne	.L1301
	movl	8(%r13), %eax
	leal	-1(%rax), %edx
	movl	%edx, 8(%r13)
.L1206:
	cmpl	$1, %eax
	je	.L1302
.L1204:
	movq	48(%rsp), %rbx
	testq	%rbx, %rbx
	je	.L1292
	movq	56(%rsp), %rbp
	testq	%rbp, %rbp
	je	.L1212
	movl	8(%rbp), %eax
	cmpl	$1, %eax
	je	.L1292
.L1212:
	movq	64(%rsp), %r12
	movq	$0, 64(%rsp)
	testq	%r12, %r12
	je	.L1214
	call	_ZSt15future_categoryv@PLT
	leaq	112(%rsp), %r13
	movl	$4, %edx
	movq	%rax, %rbp
	movq	(%rax), %rax
	movq	%r13, %rdi
	movq	%rbp, %rsi
	call	*32(%rax)
	movl	$19, %r8d
	xorl	%edx, %edx
	xorl	%esi, %esi
	leaq	.LC27(%rip), %rcx
	movq	%r13, %rdi
.LEHB39:
	call	_ZNSt7__cxx1112basic_stringIcSt11char_traitsIcESaIcEE10_M_replaceEmmPKcm@PLT
.LEHE39:
	leaq	160(%rsp), %r13
	leaq	16(%rax), %rdx
	movq	%r13, 144(%rsp)
	movq	(%rax), %rcx
	cmpq	%rdx, %rcx
	je	.L1303
	movq	%rcx, 144(%rsp)
	movq	16(%rax), %rcx
	movq	%rcx, 160(%rsp)
.L1216:
	movq	8(%rax), %rcx
	movb	$0, 16(%rax)
	leaq	80(%rsp), %r14
	leaq	144(%rsp), %rsi
	movq	%r14, %rdi
	movq	%rcx, 152(%rsp)
	movq	%rdx, (%rax)
	movq	$0, 8(%rax)
.LEHB40:
	call	_ZNSt11logic_errorC2ERKNSt7__cxx1112basic_stringIcSt11char_traitsIcESaIcEEE@PLT
.LEHE40:
	movq	144(%rsp), %rdi
	cmpq	%r13, %rdi
	je	.L1217
	movq	160(%rsp), %rax
	leaq	1(%rax), %rsi
	call	_ZdlPvm@PLT
.L1217:
	movq	112(%rsp), %rdi
	leaq	128(%rsp), %rax
	cmpq	%rax, %rdi
	je	.L1218
	movq	128(%rsp), %rax
	leaq	1(%rax), %rsi
	call	_ZdlPvm@PLT
.L1218:
	movq	_ZTVSt12future_error@GOTPCREL(%rip), %rax
	movl	$32, %edi
	movq	%rbp, 104(%rsp)
	movl	$4, 96(%rsp)
	leaq	16(%rax), %r13
	movq	%r13, 80(%rsp)
	call	__cxa_allocate_exception@PLT
	movq	_ZNSt15__exception_ptr12__dest_thunkISt12future_errorEEvPv@GOTPCREL(%rip), %rdx
	movq	_ZTISt12future_error@GOTPCREL(%rip), %rsi
	movq	%rax, %rbp
	movq	%rax, %rdi
	call	__cxa_init_primary_exception@PLT
	movq	%r14, %rsi
	movq	%rbp, %rdi
	call	_ZNSt11logic_errorC2ERKS_@PLT
	movdqa	96(%rsp), %xmm1
	movq	%r13, 0(%rbp)
	movq	%rbp, %rsi
	leaq	24(%rsp), %r13
	movups	%xmm1, 16(%rbp)
	movq	%r13, %rdi
	leaq	32(%rsp), %rbp
	call	_ZNSt15__exception_ptr13exception_ptrC1EPv@PLT
	movq	24(%rsp), %rax
	leaq	8(%r12), %rsi
	movq	%rbp, %rdi
	movq	$0, 24(%rsp)
	movq	%rax, 32(%rsp)
	call	_ZNSt15__exception_ptr13exception_ptr4swapERS0_@PLT
	movq	%rbp, %rdi
	call	_ZNSt15__exception_ptr13exception_ptrD1Ev@PLT
	movq	%r13, %rdi
	call	_ZNSt15__exception_ptr13exception_ptrD1Ev@PLT
	movq	%r14, %rdi
	call	_ZNSt12future_errorD1Ev@PLT
	movq	8(%rbx), %rbp
	leaq	16(%rbx), %rdi
	movl	$1, %eax
	movq	%r12, 8(%rbx)
	xchgl	(%rdi), %eax
	testl	%eax, %eax
	js	.L1304
.L1220:
	testq	%rbp, %rbp
	je	.L1292
	movq	0(%rbp), %rax
	movq	%rbp, %rdi
	call	*(%rax)
.L1292:
	movq	64(%rsp), %rbp
	testq	%rbp, %rbp
	je	.L1293
	movq	0(%rbp), %rax
	movq	(%rax), %rdx
	cmpq	_ZNSt13__future_base7_ResultIbE10_M_destroyEv@GOTPCREL(%rip), %rdx
	jne	.L1227
	movq	16(%rax), %rax
	cmpq	_ZNSt13__future_base7_ResultIbED0Ev@GOTPCREL(%rip), %rax
	jne	.L1228
	movq	_ZTVNSt13__future_base7_ResultIbEE@GOTPCREL(%rip), %rax
	movq	%rbp, %rdi
	addq	$16, %rax
	movq	%rax, 0(%rbp)
	call	_ZNSt13__future_base12_Result_baseD2Ev@PLT
	movq	%rbp, %rdi
	movl	$24, %esi
	call	_ZdlPvm@PLT
	movq	56(%rsp), %rbp
.L1214:
	testq	%rbp, %rbp
	je	.L1164
	movq	_ZL28__gthrw___pthread_key_createPjPFvPvE@GOTPCREL(%rip), %rbx
	testq	%rbx, %rbx
	jne	.L1305
	movl	8(%rbp), %eax
	leal	-1(%rax), %edx
	movl	%edx, 8(%rbp)
.L1232:
	cmpl	$1, %eax
	je	.L1306
.L1164:
	movq	184(%rsp), %rax
	subq	%fs:40, %rax
	jne	.L1294
	addq	$200, %rsp
	.cfi_remember_state
	.cfi_def_cfa_offset 56
	popq	%rbx
	.cfi_def_cfa_offset 48
	popq	%rbp
	.cfi_def_cfa_offset 40
	popq	%r12
	.cfi_def_cfa_offset 32
	popq	%r13
	.cfi_def_cfa_offset 24
	popq	%r14
	.cfi_def_cfa_offset 16
	popq	%r15
	.cfi_def_cfa_offset 8
	ret
.L1182:
	.cfi_restore_state
	movq	%r15, %rdi
	call	_ZdlPv@PLT
.L1181:
	movl	$41, %edi
	leaq	48(%rsp), %r14
.LEHB41:
	call	_Znwm@PLT
.LEHE41:
	movb	$40, 40(%rax)
	movq	%rax, %r15
	jmp	.L1183
.L1184:
	movb	$1, 64(%rax)
	leaq	24(%rax), %rdi
	call	pthread_mutex_unlock@PLT
	movq	48(%rbx), %rbp
	movq	$0, (%r15)
	cmpq	$0, 96(%rbp)
	je	.L1188
	movq	96(%rbp), %rax
	movq	%r15, (%rax)
	movq	%r15, 96(%rbp)
.L1189:
	movq	8(%rsp), %rax
	movq	40(%rax), %rbx
	cmpb	$0, 40(%rbx)
	jne	.L1307
.L1190:
	lock addq	$1, 184(%rbx)
	leaq	48(%rbx), %r15
	movq	%r15, %rdi
	call	pthread_mutex_lock@PLT
	cmpq	$0, 200(%rbx)
	movq	$0, 0(%rbp)
	je	.L1195
	movq	200(%rbx), %rax
	movq	%rbp, (%rax)
	movq	%rbp, 200(%rbx)
.L1196:
	movq	136(%rbx), %rax
	orq	$1, %rax
	movq	%rax, 136(%rbx)
	cmpq	$1, %rax
	je	.L1197
	movq	%r15, %rdi
	call	pthread_mutex_unlock@PLT
	leaq	88(%rbx), %rdi
	call	pthread_cond_signal@PLT
	jmp	.L1187
.L1188:
	movq	%r15, %xmm0
	punpcklqdq	%xmm0, %xmm0
	movups	%xmm0, 88(%rbp)
	jmp	.L1189
.L1303:
	movdqu	16(%rax), %xmm2
	movaps	%xmm2, 160(%rsp)
	jmp	.L1216
.L1307:
	data16	leaq	_ZN4asio6detail15keyword_tss_ptrINS0_10call_stackINS0_15task_io_serviceENS0_27task_io_service_thread_infoEE7contextEE6value_E@tlsgd(%rip), %rdi
	.value	0x6666
	rex64
	call	__tls_get_addr@PLT
	movq	(%rax), %rax
	testq	%rax, %rax
	jne	.L1193
	jmp	.L1190
	.p2align 4,,10
	.p2align 3
.L1191:
	movq	16(%rax), %rax
	testq	%rax, %rax
	je	.L1190
.L1193:
	cmpq	(%rax), %rbx
	jne	.L1191
	movq	8(%rax), %rax
	testq	%rax, %rax
	je	.L1190
	addq	$1, 24(%rax)
	cmpq	$0, 16(%rax)
	movq	$0, 0(%rbp)
	je	.L1194
	movq	16(%rax), %rdx
	movq	%rbp, (%rdx)
	movq	%rbp, 16(%rax)
	jmp	.L1187
.L1227:
	movq	%rbp, %rdi
	call	*%rdx
.L1293:
	movq	56(%rsp), %rbp
	jmp	.L1214
.L1185:
	movq	%r15, %xmm0
	punpcklqdq	%xmm0, %xmm0
	movups	%xmm0, 72(%rax)
	jmp	.L1186
.L1302:
	movq	0(%r13), %rax
	movq	%r13, %rdi
	call	*16(%rax)
	testq	%rbx, %rbx
	jne	.L1308
	movl	12(%r13), %eax
	leal	-1(%rax), %edx
	movl	%edx, 12(%r13)
.L1209:
	cmpl	$1, %eax
	jne	.L1204
	movq	0(%r13), %rax
	movq	%r13, %rdi
	call	*24(%rax)
	jmp	.L1204
.L1306:
	movq	0(%rbp), %rax
	movq	%rbp, %rdi
	call	*16(%rax)
	testq	%rbx, %rbx
	jne	.L1309
	movl	12(%rbp), %eax
	leal	-1(%rax), %edx
	movl	%edx, 12(%rbp)
.L1235:
	cmpl	$1, %eax
	jne	.L1164
	movq	0(%rbp), %rax
	movq	%rbp, %rdi
	call	*24(%rax)
	jmp	.L1164
.L1301:
	movl	$-1, %eax
	lock xaddl	%eax, 8(%r13)
	jmp	.L1206
.L1305:
	movl	$-1, %eax
	lock xaddl	%eax, 8(%rbp)
	jmp	.L1232
.L1197:
	cmpb	$0, 176(%rbx)
	jne	.L1199
	movq	144(%rbx), %rax
	testq	%rax, %rax
	je	.L1199
	movb	$1, 176(%rbx)
	leaq	88(%rax), %rdx
	leaq	32(%rsp), %rcx
	movl	$3, %esi
	movq	%rdx, 36(%rsp)
	movl	88(%rax), %edx
	movl	$-2147483639, 32(%rsp)
	movl	96(%rax), %edi
	call	epoll_ctl@PLT
.L1199:
	movq	%r15, %rdi
	call	pthread_mutex_unlock@PLT
	jmp	.L1187
.L1297:
	lock addl	$1, 8(%r13)
	jmp	.L1172
.L1228:
	movq	%rbp, %rdi
	call	*%rax
	movq	56(%rsp), %rbp
	jmp	.L1214
.L1304:
	call	_ZNSt28__atomic_futex_unsigned_base19_M_futex_notify_allEPj@PLT
	jmp	.L1220
.L1308:
	movl	$-1, %eax
	lock xaddl	%eax, 12(%r13)
	jmp	.L1209
.L1195:
	movq	%rbp, %xmm0
	punpcklqdq	%xmm0, %xmm0
	movups	%xmm0, 192(%rbx)
	jmp	.L1196
.L1309:
	movl	$-1, %eax
	lock xaddl	%eax, 12(%rbp)
	jmp	.L1235
.L1194:
	movq	%rbp, %xmm0
	punpcklqdq	%xmm0, %xmm0
	movups	%xmm0, 8(%rax)
	jmp	.L1187
.L1299:
	movl	$1, %edi
.LEHB42:
	call	_ZSt20__throw_future_errori@PLT
.L1298:
	movl	$3, %edi
	call	_ZSt20__throw_future_errori@PLT
.LEHE42:
.L1294:
	call	__stack_chk_fail@PLT
.L1296:
.LEHB43:
	call	_ZSt25__throw_bad_function_callv@PLT
.LEHE43:
.L1240:
	movq	%rax, %rbp
	jmp	.L1178
.L1243:
	jmp	.L1221
.L1239:
	movq	%rax, %rbp
	jmp	.L1236
.L1242:
	jmp	.L1223
.L1241:
	movq	%rax, %rbp
	jmp	.L1173
	.section	.gcc_except_table
.LLSDA7048:
	.byte	0xff
	.byte	0xff
	.byte	0x1
	.uleb128 .LLSDACSE7048-.LLSDACSB7048
.LLSDACSB7048:
	.uleb128 .LEHB36-.LFB7048
	.uleb128 .LEHE36-.LEHB36
	.uleb128 0
	.uleb128 0
	.uleb128 .LEHB37-.LFB7048
	.uleb128 .LEHE37-.LEHB37
	.uleb128 .L1241-.LFB7048
	.uleb128 0
	.uleb128 .LEHB38-.LFB7048
	.uleb128 .LEHE38-.LEHB38
	.uleb128 .L1239-.LFB7048
	.uleb128 0
	.uleb128 .LEHB39-.LFB7048
	.uleb128 .LEHE39-.LEHB39
	.uleb128 .L1242-.LFB7048
	.uleb128 0
	.uleb128 .LEHB40-.LFB7048
	.uleb128 .LEHE40-.LEHB40
	.uleb128 .L1243-.LFB7048
	.uleb128 0
	.uleb128 .LEHB41-.LFB7048
	.uleb128 .LEHE41-.LEHB41
	.uleb128 .L1239-.LFB7048
	.uleb128 0
	.uleb128 .LEHB42-.LFB7048
	.uleb128 .LEHE42-.LEHB42
	.uleb128 .L1240-.LFB7048
	.uleb128 0
	.uleb128 .LEHB43-.LFB7048
	.uleb128 .LEHE43-.LEHB43
	.uleb128 0
	.uleb128 0
.LLSDACSE7048:
	.text
	.cfi_endproc
	.section	.text.unlikely
	.cfi_startproc
	.cfi_personality 0x9b,DW.ref.__gxx_personality_v0
	.cfi_lsda 0x1b,.LLSDAC7048
	.type	_ZN7asiopal8Executor10BlockUntilERKSt8functionIFvvEE.cold, @function
_ZN7asiopal8Executor10BlockUntilERKSt8functionIFvvEE.cold:
.LFSB7048:
.L1178:
	.cfi_def_cfa_offset 256
	.cfi_offset 3, -56
	.cfi_offset 6, -48
	.cfi_offset 12, -40
	.cfi_offset 13, -32
	.cfi_offset 14, -24
	.cfi_offset 15, -16
	testq	%r13, %r13
	je	.L1179
	movq	%r13, %rdi
	call	_ZNSt16_Sp_counted_baseILN9__gnu_cxx12_Lock_policyE2EE10_M_releaseEv@PLT
.L1179:
	leaq	48(%rsp), %r14
.L1180:
	movq	%r14, %rdi
	call	_ZNSt7promiseIbED1Ev@PLT
.L1295:
	movq	%rbp, %rdi
.LEHB44:
	call	_Unwind_Resume@PLT
.LEHE44:
.L1221:
	movq	144(%rsp), %rdi
	cmpq	%r13, %rdi
	je	.L1223
	movq	160(%rsp), %rax
	leaq	1(%rax), %rsi
	call	_ZdlPvm@PLT
.L1223:
	movq	112(%rsp), %rdi
	leaq	128(%rsp), %rax
	cmpq	%rax, %rdi
	je	.L1224
	movq	128(%rsp), %rax
	leaq	1(%rax), %rsi
	call	_ZdlPvm@PLT
.L1224:
	call	_ZSt9terminatev@PLT
.L1236:
	testq	%r13, %r13
	je	.L1180
	movq	%r13, %rdi
	call	_ZNSt16_Sp_counted_baseILN9__gnu_cxx12_Lock_policyE2EE10_M_releaseEv@PLT
	jmp	.L1180
.L1173:
	movq	56(%rsp), %rdi
	testq	%rdi, %rdi
	je	.L1295
	call	_ZNSt16_Sp_counted_baseILN9__gnu_cxx12_Lock_policyE2EE10_M_releaseEv@PLT
	jmp	.L1295
	.cfi_endproc
.LFE7048:
	.section	.gcc_except_table
.LLSDAC7048:
	.byte	0xff
	.byte	0xff
	.byte	0x1
	.uleb128 .LLSDACSEC7048-.LLSDACSBC7048
.LLSDACSBC7048:
	.uleb128 .LEHB44-.LCOLDB31
	.uleb128 .LEHE44-.LEHB44
	.uleb128 0
	.uleb128 0
.LLSDACSEC7048:
	.section	.text.unlikely
	.text
	.size	_ZN7asiopal8Executor10BlockUntilERKSt8functionIFvvEE, .-_ZN7asiopal8Executor10BlockUntilERKSt8functionIFvvEE
	.section	.text.unlikely
	.size	_ZN7asiopal8Executor10BlockUntilERKSt8functionIFvvEE.cold, .-_ZN7asiopal8Executor10BlockUntilERKSt8functionIFvvEE.cold
.LCOLDE31:
	.text
.LHOTE31:
	.section	.text.unlikely
	.align 2
.LCOLDB32:
	.text
.LHOTB32:
	.align 2
	.p2align 4
	.globl	_ZN7asiopal8Executor18BlockUntilAndFlushERKSt8functionIFvvEE
	.type	_ZN7asiopal8Executor18BlockUntilAndFlushERKSt8functionIFvvEE, @function
_ZN7asiopal8Executor18BlockUntilAndFlushERKSt8functionIFvvEE:
.LFB7064:
	.cfi_startproc
	.cfi_personality 0x9b,DW.ref.__gxx_personality_v0
	.cfi_lsda 0x1b,.LLSDA7064
	pushq	%r12
	.cfi_def_cfa_offset 16
	.cfi_offset 12, -16
	pushq	%rbp
	.cfi_def_cfa_offset 24
	.cfi_offset 6, -24
	movq	%rdi, %rbp
	subq	$56, %rsp
	.cfi_def_cfa_offset 80
	movq	%fs:40, %rax
	movq	%rax, 40(%rsp)
	xorl	%eax, %eax
	movq	%rsp, %r12
.LEHB45:
	call	_ZN7asiopal8Executor10BlockUntilERKSt8functionIFvvEE@PLT
.LEHE45:
	leaq	_ZNSt17_Function_handlerIFvvEZN7asiopal8Executor18BlockUntilAndFlushERKSt8functionIS0_EEUlvE_E9_M_invokeERKSt9_Any_data(%rip), %rax
	movq	%r12, %rsi
	movq	%rbp, %rdi
	leaq	_ZNSt17_Function_handlerIFvvEZN7asiopal8Executor18BlockUntilAndFlushERKSt8functionIS0_EEUlvE_E10_M_managerERSt9_Any_dataRKS9_St18_Manager_operation(%rip), %rcx
	movq	%rax, %xmm1
	movq	%rcx, %xmm0
	punpcklqdq	%xmm1, %xmm0
	movaps	%xmm0, 16(%rsp)
.LEHB46:
	call	_ZN7asiopal8Executor10BlockUntilERKSt8functionIFvvEE@PLT
.LEHE46:
	movq	16(%rsp), %rax
	testq	%rax, %rax
	je	.L1310
	movl	$3, %edx
	movq	%r12, %rsi
	movq	%r12, %rdi
	call	*%rax
.L1310:
	movq	40(%rsp), %rax
	subq	%fs:40, %rax
	jne	.L1323
	addq	$56, %rsp
	.cfi_remember_state
	.cfi_def_cfa_offset 24
	popq	%rbp
	.cfi_def_cfa_offset 16
	popq	%r12
	.cfi_def_cfa_offset 8
	ret
.L1323:
	.cfi_restore_state
	call	__stack_chk_fail@PLT
.L1315:
	movq	%rax, %rbp
	jmp	.L1312
	.section	.gcc_except_table
.LLSDA7064:
	.byte	0xff
	.byte	0xff
	.byte	0x1
	.uleb128 .LLSDACSE7064-.LLSDACSB7064
.LLSDACSB7064:
	.uleb128 .LEHB45-.LFB7064
	.uleb128 .LEHE45-.LEHB45
	.uleb128 0
	.uleb128 0
	.uleb128 .LEHB46-.LFB7064
	.uleb128 .LEHE46-.LEHB46
	.uleb128 .L1315-.LFB7064
	.uleb128 0
.LLSDACSE7064:
	.text
	.cfi_endproc
	.section	.text.unlikely
	.cfi_startproc
	.cfi_personality 0x9b,DW.ref.__gxx_personality_v0
	.cfi_lsda 0x1b,.LLSDAC7064
	.type	_ZN7asiopal8Executor18BlockUntilAndFlushERKSt8functionIFvvEE.cold, @function
_ZN7asiopal8Executor18BlockUntilAndFlushERKSt8functionIFvvEE.cold:
.LFSB7064:
.L1312:
	.cfi_def_cfa_offset 80
	.cfi_offset 6, -24
	.cfi_offset 12, -16
	movq	16(%rsp), %rax
	testq	%rax, %rax
	je	.L1313
	movl	$3, %edx
	movq	%r12, %rsi
	movq	%r12, %rdi
	call	*%rax
.L1313:
	movq	%rbp, %rdi
.LEHB47:
	call	_Unwind_Resume@PLT
.LEHE47:
	.cfi_endproc
.LFE7064:
	.section	.gcc_except_table
.LLSDAC7064:
	.byte	0xff
	.byte	0xff
	.byte	0x1
	.uleb128 .LLSDACSEC7064-.LLSDACSBC7064
.LLSDACSBC7064:
	.uleb128 .LEHB47-.LCOLDB32
	.uleb128 .LEHE47-.LEHB47
	.uleb128 0
	.uleb128 0
.LLSDACSEC7064:
	.section	.text.unlikely
	.text
	.size	_ZN7asiopal8Executor18BlockUntilAndFlushERKSt8functionIFvvEE, .-_ZN7asiopal8Executor18BlockUntilAndFlushERKSt8functionIFvvEE
	.section	.text.unlikely
	.size	_ZN7asiopal8Executor18BlockUntilAndFlushERKSt8functionIFvvEE.cold, .-_ZN7asiopal8Executor18BlockUntilAndFlushERKSt8functionIFvvEE.cold
.LCOLDE32:
	.text
.LHOTE32:
	.section	.text.unlikely
.LCOLDB33:
	.text
.LHOTB33:
	.p2align 4
	.type	_ZN4asio6detail18completion_handlerINS0_7binder1IZN7asiopal8Executor5StartERKNSt6chrono10time_pointINS5_3_V212steady_clockENS5_8durationIlSt5ratioILl1ELl1000000000EEEEEERKSt8functionIFvvEEEUlRKSt10error_codeE_SL_EEE11do_completeEPNS0_15task_io_serviceEPNS0_25task_io_service_operationESN_m, @function
_ZN4asio6detail18completion_handlerINS0_7binder1IZN7asiopal8Executor5StartERKNSt6chrono10time_pointINS5_3_V212steady_clockENS5_8durationIlSt5ratioILl1ELl1000000000EEEEEERKSt8functionIFvvEEEUlRKSt10error_codeE_SL_EEE11do_completeEPNS0_15task_io_serviceEPNS0_25task_io_service_operationESN_m:
.LFB9427:
	.cfi_startproc
	.cfi_personality 0x9b,DW.ref.__gxx_personality_v0
	.cfi_lsda 0x1b,.LLSDA9427
	pushq	%r15
	.cfi_def_cfa_offset 16
	.cfi_offset 15, -16
	pxor	%xmm0, %xmm0
	pushq	%r14
	.cfi_def_cfa_offset 24
	.cfi_offset 14, -24
	pushq	%r13
	.cfi_def_cfa_offset 32
	.cfi_offset 13, -32
	pushq	%r12
	.cfi_def_cfa_offset 40
	.cfi_offset 12, -40
	pushq	%rbp
	.cfi_def_cfa_offset 48
	.cfi_offset 6, -48
	movq	%rdi, %rbp
	pushq	%rbx
	.cfi_def_cfa_offset 56
	.cfi_offset 3, -56
	movq	%rsi, %rbx
	subq	$136, %rsp
	.cfi_def_cfa_offset 192
	movdqu	24(%rsi), %xmm1
	movq	%fs:40, %rax
	movq	%rax, 120(%rsp)
	xorl	%eax, %eax
	leaq	24(%rsi), %rax
	movq	%rsi, 8(%rsp)
	movq	%rax, (%rsp)
	movq	56(%rsi), %rax
	movq	%rsi, 16(%rsp)
	movq	$0, 64(%rsp)
	movaps	%xmm1, 32(%rsp)
	movups	%xmm0, 24(%rsi)
	testq	%rax, %rax
	je	.L1325
	leaq	48(%rsp), %r12
	leaq	40(%rsi), %rsi
	movl	$2, %edx
	movq	%r12, %rdi
.LEHB48:
	call	*%rax
.LEHE48:
	movdqu	72(%rbx), %xmm3
	movdqu	56(%rbx), %xmm2
	pxor	%xmm0, %xmm0
	leaq	32(%rsp), %r13
	movdqu	88(%rbx), %xmm4
	movq	16(%rsp), %r12
	movq	%r13, (%rsp)
	movaps	%xmm2, 64(%rsp)
	movaps	%xmm3, 80(%rsp)
	movups	%xmm0, 72(%rbx)
	movaps	%xmm4, 96(%rsp)
	testq	%r12, %r12
	jne	.L1326
.L1327:
	movq	8(%rsp), %r12
	testq	%r12, %r12
	je	.L1347
	data16	leaq	_ZN4asio6detail15keyword_tss_ptrINS0_10call_stackINS0_15task_io_serviceENS0_27task_io_service_thread_infoEE7contextEE6value_E@tlsgd(%rip), %rdi
	.value	0x6666
	rex64
	call	__tls_get_addr@PLT
	movq	(%rax), %rax
	testq	%rax, %rax
	je	.L1348
	movq	8(%rax), %rax
	testq	%rax, %rax
	je	.L1348
	cmpq	$0, (%rax)
	je	.L1430
.L1348:
	movq	%r12, %rdi
	call	_ZdlPv@PLT
.L1349:
	movq	$0, 8(%rsp)
.L1347:
	testq	%rbp, %rbp
	je	.L1350
	movl	96(%rsp), %eax
	testl	%eax, %eax
	je	.L1431
.L1351:
	sfence
.L1350:
	movq	88(%rsp), %rbp
	testq	%rbp, %rbp
	je	.L1354
	movq	_ZL28__gthrw___pthread_key_createPjPFvPvE@GOTPCREL(%rip), %r15
	testq	%r15, %r15
	jne	.L1432
	movl	8(%rbp), %eax
	leal	-1(%rax), %edx
	movl	%edx, 8(%rbp)
.L1356:
	cmpl	$1, %eax
	je	.L1433
.L1354:
	movq	64(%rsp), %rax
	testq	%rax, %rax
	je	.L1360
	leaq	48(%rsp), %rdi
	movl	$3, %edx
	movq	%rdi, %rsi
	call	*%rax
.L1360:
	movq	40(%rsp), %rbp
	testq	%rbp, %rbp
	je	.L1362
	movq	_ZL28__gthrw___pthread_key_createPjPFvPvE@GOTPCREL(%rip), %r15
	testq	%r15, %r15
	jne	.L1434
	movl	8(%rbp), %eax
	leal	-1(%rax), %edx
	movl	%edx, 8(%rbp)
.L1364:
	cmpl	$1, %eax
	je	.L1435
.L1362:
	movq	16(%rsp), %rbx
	testq	%rbx, %rbx
	je	.L1368
	movq	80(%rbx), %rbp
	testq	%rbp, %rbp
	je	.L1370
	movq	_ZL28__gthrw___pthread_key_createPjPFvPvE@GOTPCREL(%rip), %r15
	testq	%r15, %r15
	jne	.L1436
	movl	8(%rbp), %eax
	leal	-1(%rax), %edx
	movl	%edx, 8(%rbp)
.L1372:
	cmpl	$1, %eax
	jne	.L1370
	movq	0(%rbp), %rax
	movq	%rbp, %rdi
	call	*16(%rax)
	testq	%r15, %r15
	jne	.L1437
	movl	12(%rbp), %eax
	leal	-1(%rax), %edx
	movl	%edx, 12(%rbp)
.L1375:
	cmpl	$1, %eax
	je	.L1438
	.p2align 4,,10
	.p2align 3
.L1370:
	movq	56(%rbx), %rax
	testq	%rax, %rax
	je	.L1376
	leaq	40(%rbx), %rdi
	movl	$3, %edx
	movq	%rdi, %rsi
	call	*%rax
.L1376:
	movq	32(%rbx), %rbp
	testq	%rbp, %rbp
	je	.L1378
	movq	_ZL28__gthrw___pthread_key_createPjPFvPvE@GOTPCREL(%rip), %r15
	testq	%r15, %r15
	jne	.L1439
	movl	8(%rbp), %eax
	leal	-1(%rax), %edx
	movl	%edx, 8(%rbp)
.L1380:
	cmpl	$1, %eax
	jne	.L1378
	movq	0(%rbp), %rax
	movq	%rbp, %rdi
	call	*16(%rax)
	testq	%r15, %r15
	jne	.L1440
	movl	12(%rbp), %eax
	leal	-1(%rax), %edx
	movl	%edx, 12(%rbp)
.L1383:
	cmpl	$1, %eax
	je	.L1441
	.p2align 4,,10
	.p2align 3
.L1378:
	movq	$0, 16(%rsp)
.L1368:
	movq	8(%rsp), %rbp
	testq	%rbp, %rbp
	je	.L1324
	data16	leaq	_ZN4asio6detail15keyword_tss_ptrINS0_10call_stackINS0_15task_io_serviceENS0_27task_io_service_thread_infoEE7contextEE6value_E@tlsgd(%rip), %rdi
	.value	0x6666
	rex64
	call	__tls_get_addr@PLT
	movq	(%rax), %rax
	testq	%rax, %rax
	je	.L1385
	movq	8(%rax), %rax
	testq	%rax, %rax
	je	.L1385
	cmpq	$0, (%rax)
	je	.L1442
.L1385:
	movq	%rbp, %rdi
	call	_ZdlPv@PLT
.L1324:
	movq	120(%rsp), %rax
	subq	%fs:40, %rax
	jne	.L1443
	addq	$136, %rsp
	.cfi_remember_state
	.cfi_def_cfa_offset 56
	popq	%rbx
	.cfi_def_cfa_offset 48
	popq	%rbp
	.cfi_def_cfa_offset 40
	popq	%r12
	.cfi_def_cfa_offset 32
	popq	%r13
	.cfi_def_cfa_offset 24
	popq	%r14
	.cfi_def_cfa_offset 16
	popq	%r15
	.cfi_def_cfa_offset 8
	ret
	.p2align 4,,10
	.p2align 3
.L1325:
	.cfi_restore_state
	leaq	32(%rsp), %r13
	movdqu	72(%rsi), %xmm5
	movdqu	88(%rsi), %xmm6
	movq	%rsi, %r12
	movq	%r13, (%rsp)
	movaps	%xmm5, 80(%rsp)
	movups	%xmm0, 72(%rsi)
	movaps	%xmm6, 96(%rsp)
.L1326:
	movq	80(%r12), %r14
	testq	%r14, %r14
	je	.L1333
	movq	_ZL28__gthrw___pthread_key_createPjPFvPvE@GOTPCREL(%rip), %r15
	testq	%r15, %r15
	jne	.L1444
	movl	8(%r14), %eax
	leal	-1(%rax), %edx
	movl	%edx, 8(%r14)
.L1335:
	cmpl	$1, %eax
	jne	.L1333
	movq	(%r14), %rax
	movq	%r14, %rdi
	call	*16(%rax)
	testq	%r15, %r15
	jne	.L1445
	movl	12(%r14), %eax
	leal	-1(%rax), %edx
	movl	%edx, 12(%r14)
.L1338:
	cmpl	$1, %eax
	je	.L1446
	.p2align 4,,10
	.p2align 3
.L1333:
	movq	56(%r12), %rax
	testq	%rax, %rax
	je	.L1339
	leaq	40(%r12), %rdi
	movl	$3, %edx
	movq	%rdi, %rsi
	call	*%rax
.L1339:
	movq	32(%r12), %r12
	testq	%r12, %r12
	je	.L1341
	movq	_ZL28__gthrw___pthread_key_createPjPFvPvE@GOTPCREL(%rip), %r15
	testq	%r15, %r15
	jne	.L1447
	movl	8(%r12), %eax
	leal	-1(%rax), %edx
	movl	%edx, 8(%r12)
.L1343:
	cmpl	$1, %eax
	jne	.L1341
	movq	(%r12), %rax
	movq	%r12, %rdi
	call	*16(%rax)
	testq	%r15, %r15
	jne	.L1448
	movl	12(%r12), %eax
	leal	-1(%rax), %edx
	movl	%edx, 12(%r12)
.L1346:
	cmpl	$1, %eax
	je	.L1449
	.p2align 4,,10
	.p2align 3
.L1341:
	movq	$0, 16(%rsp)
	jmp	.L1327
	.p2align 4,,10
	.p2align 3
.L1431:
	cmpq	$0, 64(%rsp)
	je	.L1450
	leaq	48(%rsp), %rdi
.LEHB49:
	call	*72(%rsp)
	jmp	.L1351
	.p2align 4,,10
	.p2align 3
.L1435:
	movq	0(%rbp), %rax
	movq	%rbp, %rdi
	call	*16(%rax)
	testq	%r15, %r15
	jne	.L1451
	movl	12(%rbp), %eax
	leal	-1(%rax), %edx
	movl	%edx, 12(%rbp)
.L1367:
	cmpl	$1, %eax
	jne	.L1362
	movq	0(%rbp), %rax
	movq	%rbp, %rdi
	call	*24(%rax)
	jmp	.L1362
	.p2align 4,,10
	.p2align 3
.L1433:
	movq	0(%rbp), %rax
	movq	%rbp, %rdi
	call	*16(%rax)
	testq	%r15, %r15
	jne	.L1452
	movl	12(%rbp), %eax
	leal	-1(%rax), %edx
	movl	%edx, 12(%rbp)
.L1359:
	cmpl	$1, %eax
	jne	.L1354
	movq	0(%rbp), %rax
	movq	%rbp, %rdi
	call	*24(%rax)
	jmp	.L1354
	.p2align 4,,10
	.p2align 3
.L1432:
	movl	$-1, %eax
	lock xaddl	%eax, 8(%rbp)
	jmp	.L1356
	.p2align 4,,10
	.p2align 3
.L1434:
	movl	$-1, %eax
	lock xaddl	%eax, 8(%rbp)
	jmp	.L1364
	.p2align 4,,10
	.p2align 3
.L1444:
	movl	$-1, %eax
	lock xaddl	%eax, 8(%r14)
	jmp	.L1335
	.p2align 4,,10
	.p2align 3
.L1447:
	movl	$-1, %eax
	lock xaddl	%eax, 8(%r12)
	jmp	.L1343
	.p2align 4,,10
	.p2align 3
.L1436:
	movl	$-1, %eax
	lock xaddl	%eax, 8(%rbp)
	jmp	.L1372
	.p2align 4,,10
	.p2align 3
.L1439:
	movl	$-1, %eax
	lock xaddl	%eax, 8(%rbp)
	jmp	.L1380
	.p2align 4,,10
	.p2align 3
.L1442:
	movzbl	104(%rbp), %edx
	movb	%dl, 0(%rbp)
	movq	%rbp, (%rax)
	jmp	.L1324
	.p2align 4,,10
	.p2align 3
.L1430:
	movzbl	104(%r12), %edx
	movb	%dl, (%r12)
	movq	%r12, (%rax)
	jmp	.L1349
	.p2align 4,,10
	.p2align 3
.L1451:
	movl	$-1, %eax
	lock xaddl	%eax, 12(%rbp)
	jmp	.L1367
	.p2align 4,,10
	.p2align 3
.L1452:
	movl	$-1, %eax
	lock xaddl	%eax, 12(%rbp)
	jmp	.L1359
	.p2align 4,,10
	.p2align 3
.L1449:
	movq	(%r12), %rax
	movq	%r12, %rdi
	call	*24(%rax)
	jmp	.L1341
	.p2align 4,,10
	.p2align 3
.L1446:
	movq	(%r14), %rax
	movq	%r14, %rdi
	call	*24(%rax)
	jmp	.L1333
	.p2align 4,,10
	.p2align 3
.L1441:
	movq	0(%rbp), %rax
	movq	%rbp, %rdi
	call	*24(%rax)
	jmp	.L1378
	.p2align 4,,10
	.p2align 3
.L1438:
	movq	0(%rbp), %rax
	movq	%rbp, %rdi
	call	*24(%rax)
	jmp	.L1370
	.p2align 4,,10
	.p2align 3
.L1440:
	movl	$-1, %eax
	lock xaddl	%eax, 12(%rbp)
	jmp	.L1383
	.p2align 4,,10
	.p2align 3
.L1437:
	movl	$-1, %eax
	lock xaddl	%eax, 12(%rbp)
	jmp	.L1375
	.p2align 4,,10
	.p2align 3
.L1448:
	movl	$-1, %eax
	lock xaddl	%eax, 12(%r12)
	jmp	.L1346
	.p2align 4,,10
	.p2align 3
.L1445:
	movl	$-1, %eax
	lock xaddl	%eax, 12(%r14)
	jmp	.L1338
.L1443:
	call	__stack_chk_fail@PLT
.L1450:
	call	_ZSt25__throw_bad_function_callv@PLT
.LEHE49:
.L1388:
	movq	%rax, %rbp
	jmp	.L1386
.L1389:
	movq	%rax, %rbp
	jmp	.L1328
	.section	.gcc_except_table
.LLSDA9427:
	.byte	0xff
	.byte	0xff
	.byte	0x1
	.uleb128 .LLSDACSE9427-.LLSDACSB9427
.LLSDACSB9427:
	.uleb128 .LEHB48-.LFB9427
	.uleb128 .LEHE48-.LEHB48
	.uleb128 .L1389-.LFB9427
	.uleb128 0
	.uleb128 .LEHB49-.LFB9427
	.uleb128 .LEHE49-.LEHB49
	.uleb128 .L1388-.LFB9427
	.uleb128 0
.LLSDACSE9427:
	.text
	.cfi_endproc
	.section	.text.unlikely
	.cfi_startproc
	.cfi_personality 0x9b,DW.ref.__gxx_personality_v0
	.cfi_lsda 0x1b,.LLSDAC9427
	.type	_ZN4asio6detail18completion_handlerINS0_7binder1IZN7asiopal8Executor5StartERKNSt6chrono10time_pointINS5_3_V212steady_clockENS5_8durationIlSt5ratioILl1ELl1000000000EEEEEERKSt8functionIFvvEEEUlRKSt10error_codeE_SL_EEE11do_completeEPNS0_15task_io_serviceEPNS0_25task_io_service_operationESN_m.cold, @function
_ZN4asio6detail18completion_handlerINS0_7binder1IZN7asiopal8Executor5StartERKNSt6chrono10time_pointINS5_3_V212steady_clockENS5_8durationIlSt5ratioILl1ELl1000000000EEEEEERKSt8functionIFvvEEEUlRKSt10error_codeE_SL_EEE11do_completeEPNS0_15task_io_serviceEPNS0_25task_io_service_operationESN_m.cold:
.LFSB9427:
.L1386:
	.cfi_def_cfa_offset 192
	.cfi_offset 3, -56
	.cfi_offset 6, -48
	.cfi_offset 12, -40
	.cfi_offset 13, -32
	.cfi_offset 14, -24
	.cfi_offset 15, -16
	sfence
	movq	%r13, %rdi
	call	_ZZN7asiopal8Executor5StartERKNSt6chrono10time_pointINS1_3_V212steady_clockENS1_8durationIlSt5ratioILl1ELl1000000000EEEEEERKSt8functionIFvvEEENUlRKSt10error_codeE_D1Ev
.L1331:
	movq	%rsp, %rdi
	call	_ZN4asio6detail18completion_handlerINS0_7binder1IZN7asiopal8Executor5StartERKNSt6chrono10time_pointINS5_3_V212steady_clockENS5_8durationIlSt5ratioILl1ELl1000000000EEEEEERKSt8functionIFvvEEEUlRKSt10error_codeE_SL_EEE3ptr5resetEv
	movq	%rbp, %rdi
.LEHB50:
	call	_Unwind_Resume@PLT
.LEHE50:
.L1328:
	movq	64(%rsp), %rax
	testq	%rax, %rax
	je	.L1329
	movl	$3, %edx
	movq	%r12, %rsi
	movq	%r12, %rdi
	call	*%rax
.L1329:
	movq	40(%rsp), %rdi
	testq	%rdi, %rdi
	je	.L1331
	call	_ZNSt16_Sp_counted_baseILN9__gnu_cxx12_Lock_policyE2EE10_M_releaseEv@PLT
	jmp	.L1331
	.cfi_endproc
.LFE9427:
	.section	.gcc_except_table
.LLSDAC9427:
	.byte	0xff
	.byte	0xff
	.byte	0x1
	.uleb128 .LLSDACSEC9427-.LLSDACSBC9427
.LLSDACSBC9427:
	.uleb128 .LEHB50-.LCOLDB33
	.uleb128 .LEHE50-.LEHB50
	.uleb128 0
	.uleb128 0
.LLSDACSEC9427:
	.section	.text.unlikely
	.text
	.size	_ZN4asio6detail18completion_handlerINS0_7binder1IZN7asiopal8Executor5StartERKNSt6chrono10time_pointINS5_3_V212steady_clockENS5_8durationIlSt5ratioILl1ELl1000000000EEEEEERKSt8functionIFvvEEEUlRKSt10error_codeE_SL_EEE11do_completeEPNS0_15task_io_serviceEPNS0_25task_io_service_operationESN_m, .-_ZN4asio6detail18completion_handlerINS0_7binder1IZN7asiopal8Executor5StartERKNSt6chrono10time_pointINS5_3_V212steady_clockENS5_8durationIlSt5ratioILl1ELl1000000000EEEEEERKSt8functionIFvvEEEUlRKSt10error_codeE_SL_EEE11do_completeEPNS0_15task_io_serviceEPNS0_25task_io_service_operationESN_m
	.section	.text.unlikely
	.size	_ZN4asio6detail18completion_handlerINS0_7binder1IZN7asiopal8Executor5StartERKNSt6chrono10time_pointINS5_3_V212steady_clockENS5_8durationIlSt5ratioILl1ELl1000000000EEEEEERKSt8functionIFvvEEEUlRKSt10error_codeE_SL_EEE11do_completeEPNS0_15task_io_serviceEPNS0_25task_io_service_operationESN_m.cold, .-_ZN4asio6detail18completion_handlerINS0_7binder1IZN7asiopal8Executor5StartERKNSt6chrono10time_pointINS5_3_V212steady_clockENS5_8durationIlSt5ratioILl1ELl1000000000EEEEEERKSt8functionIFvvEEEUlRKSt10error_codeE_SL_EEE11do_completeEPNS0_15task_io_serviceEPNS0_25task_io_service_operationESN_m.cold
.LCOLDE33:
	.text
.LHOTE33:
	.section	.text.unlikely
.LCOLDB34:
	.text
.LHOTB34:
	.p2align 4
	.type	_ZN4asio6detail18completion_handlerINS0_17rewrapped_handlerINS0_7binder1INS0_15wrapped_handlerINS_10io_service6strandEZN7asiopal8Executor5StartERKNSt6chrono10time_pointINS9_3_V212steady_clockENS9_8durationIlSt5ratioILl1ELl1000000000EEEEEERKSt8functionIFvvEEEUlRKSt10error_codeE_NS0_26is_continuation_if_runningEEESP_EESS_EEE11do_completeEPNS0_15task_io_serviceEPNS0_25task_io_service_operationESR_m, @function
_ZN4asio6detail18completion_handlerINS0_17rewrapped_handlerINS0_7binder1INS0_15wrapped_handlerINS_10io_service6strandEZN7asiopal8Executor5StartERKNSt6chrono10time_pointINS9_3_V212steady_clockENS9_8durationIlSt5ratioILl1ELl1000000000EEEEEERKSt8functionIFvvEEEUlRKSt10error_codeE_NS0_26is_continuation_if_runningEEESP_EESS_EEE11do_completeEPNS0_15task_io_serviceEPNS0_25task_io_service_operationESR_m:
.LFB9348:
	.cfi_startproc
	.cfi_personality 0x9b,DW.ref.__gxx_personality_v0
	.cfi_lsda 0x1b,.LLSDA9348
	pushq	%r15
	.cfi_def_cfa_offset 16
	.cfi_offset 15, -16
	pxor	%xmm0, %xmm0
	pushq	%r14
	.cfi_def_cfa_offset 24
	.cfi_offset 14, -24
	pushq	%r13
	.cfi_def_cfa_offset 32
	.cfi_offset 13, -32
	movq	%rdi, %r13
	pushq	%r12
	.cfi_def_cfa_offset 40
	.cfi_offset 12, -40
	pushq	%rbp
	.cfi_def_cfa_offset 48
	.cfi_offset 6, -48
	pushq	%rbx
	.cfi_def_cfa_offset 56
	.cfi_offset 3, -56
	movq	%rsi, %rbx
	subq	$664, %rsp
	.cfi_def_cfa_offset 720
	movdqu	24(%rsi), %xmm2
	movq	%fs:40, %rax
	movq	%rax, 648(%rsp)
	xorl	%eax, %eax
	leaq	24(%rsi), %rax
	movq	%rsi, 40(%rsp)
	movq	%rax, 32(%rsp)
	movq	56(%rsi), %rax
	movq	%rsi, 48(%rsp)
	movq	$0, 512(%rsp)
	movaps	%xmm2, 480(%rsp)
	movups	%xmm0, 24(%rsi)
	testq	%rax, %rax
	je	.L1454
	leaq	496(%rsp), %rbp
	leaq	40(%rsi), %rsi
	movl	$2, %edx
	movq	%rbp, %rdi
.LEHB51:
	call	*%rax
.LEHE51:
	movdqu	56(%rbx), %xmm2
	movaps	%xmm2, 512(%rsp)
.L1454:
	movdqu	72(%rbx), %xmm3
	movdqu	104(%rbx), %xmm5
	pxor	%xmm0, %xmm0
	movq	$0, 592(%rsp)
	movdqu	88(%rbx), %xmm4
	movq	136(%rbx), %rax
	movups	%xmm0, 72(%rbx)
	movaps	%xmm3, 528(%rsp)
	movaps	%xmm4, 544(%rsp)
	movaps	%xmm5, 560(%rsp)
	movups	%xmm0, 104(%rbx)
	testq	%rax, %rax
	je	.L1456
	leaq	576(%rsp), %rbp
	leaq	120(%rbx), %rsi
	movl	$2, %edx
	movq	%rbp, %rdi
.LEHB52:
	call	*%rax
.LEHE52:
	movdqu	136(%rbx), %xmm3
	movaps	%xmm3, 592(%rsp)
.L1456:
	movdqu	152(%rbx), %xmm6
	movdqu	168(%rbx), %xmm7
	pxor	%xmm0, %xmm0
	leaq	480(%rsp), %r12
	movq	48(%rsp), %rbp
	movq	%r12, 32(%rsp)
	movaps	%xmm6, 608(%rsp)
	movups	%xmm0, 152(%rbx)
	movaps	%xmm7, 624(%rsp)
	testq	%rbp, %rbp
	je	.L1462
	movq	160(%rbp), %r14
	testq	%r14, %r14
	je	.L1467
	movq	_ZL28__gthrw___pthread_key_createPjPFvPvE@GOTPCREL(%rip), %rbx
	testq	%rbx, %rbx
	jne	.L1974
	movl	8(%r14), %eax
	leal	-1(%rax), %edx
	movl	%edx, 8(%r14)
.L1469:
	cmpl	$1, %eax
	jne	.L1467
	movq	(%r14), %rax
	movq	%r14, %rdi
	call	*16(%rax)
	testq	%rbx, %rbx
	jne	.L1975
	movl	12(%r14), %eax
	leal	-1(%rax), %edx
	movl	%edx, 12(%r14)
.L1472:
	cmpl	$1, %eax
	je	.L1976
	.p2align 4,,10
	.p2align 3
.L1467:
	movq	136(%rbp), %rax
	testq	%rax, %rax
	je	.L1473
	leaq	120(%rbp), %rdi
	movl	$3, %edx
	movq	%rdi, %rsi
	call	*%rax
.L1473:
	movq	112(%rbp), %r14
	testq	%r14, %r14
	je	.L1475
	movq	_ZL28__gthrw___pthread_key_createPjPFvPvE@GOTPCREL(%rip), %rbx
	testq	%rbx, %rbx
	jne	.L1977
	movl	8(%r14), %eax
	leal	-1(%rax), %edx
	movl	%edx, 8(%r14)
.L1477:
	cmpl	$1, %eax
	jne	.L1475
	movq	(%r14), %rax
	movq	%r14, %rdi
	call	*16(%rax)
	testq	%rbx, %rbx
	jne	.L1978
	movl	12(%r14), %eax
	leal	-1(%rax), %edx
	movl	%edx, 12(%r14)
.L1480:
	cmpl	$1, %eax
	je	.L1979
	.p2align 4,,10
	.p2align 3
.L1475:
	movq	80(%rbp), %r14
	testq	%r14, %r14
	je	.L1482
	movq	_ZL28__gthrw___pthread_key_createPjPFvPvE@GOTPCREL(%rip), %rbx
	testq	%rbx, %rbx
	jne	.L1980
	movl	8(%r14), %eax
	leal	-1(%rax), %edx
	movl	%edx, 8(%r14)
.L1484:
	cmpl	$1, %eax
	jne	.L1482
	movq	(%r14), %rax
	movq	%r14, %rdi
	call	*16(%rax)
	testq	%rbx, %rbx
	jne	.L1981
	movl	12(%r14), %eax
	leal	-1(%rax), %edx
	movl	%edx, 12(%r14)
.L1487:
	cmpl	$1, %eax
	je	.L1982
	.p2align 4,,10
	.p2align 3
.L1482:
	movq	56(%rbp), %rax
	testq	%rax, %rax
	je	.L1488
	leaq	40(%rbp), %rdi
	movl	$3, %edx
	movq	%rdi, %rsi
	call	*%rax
.L1488:
	movq	32(%rbp), %rbp
	testq	%rbp, %rbp
	je	.L1490
	movq	_ZL28__gthrw___pthread_key_createPjPFvPvE@GOTPCREL(%rip), %rbx
	testq	%rbx, %rbx
	jne	.L1983
	movl	8(%rbp), %eax
	leal	-1(%rax), %edx
	movl	%edx, 8(%rbp)
.L1492:
	cmpl	$1, %eax
	jne	.L1490
	movq	0(%rbp), %rax
	movq	%rbp, %rdi
	call	*16(%rax)
	testq	%rbx, %rbx
	jne	.L1984
	movl	12(%rbp), %eax
	leal	-1(%rax), %edx
	movl	%edx, 12(%rbp)
.L1495:
	cmpl	$1, %eax
	je	.L1985
	.p2align 4,,10
	.p2align 3
.L1490:
	movq	$0, 48(%rsp)
.L1462:
	movq	40(%rsp), %rbp
	testq	%rbp, %rbp
	je	.L1496
	data16	leaq	_ZN4asio6detail15keyword_tss_ptrINS0_10call_stackINS0_15task_io_serviceENS0_27task_io_service_thread_infoEE7contextEE6value_E@tlsgd(%rip), %rdi
	.value	0x6666
	rex64
	call	__tls_get_addr@PLT
	movq	(%rax), %rax
	testq	%rax, %rax
	je	.L1497
	movq	8(%rax), %rax
	testq	%rax, %rax
	je	.L1497
	cmpq	$0, (%rax)
	je	.L1986
.L1497:
	movq	%rbp, %rdi
	call	_ZdlPv@PLT
.L1498:
	movq	$0, 40(%rsp)
.L1496:
	testq	%r13, %r13
	je	.L1499
	movdqa	560(%rsp), %xmm4
	movq	568(%rsp), %rax
	movaps	%xmm4, 160(%rsp)
	testq	%rax, %rax
	je	.L1500
	cmpq	$0, _ZL28__gthrw___pthread_key_createPjPFvPvE@GOTPCREL(%rip)
	jne	.L1987
	addl	$1, 8(%rax)
.L1500:
	movq	592(%rsp), %rax
	movq	$0, 192(%rsp)
	testq	%rax, %rax
	je	.L1502
	leaq	176(%rsp), %rbp
	leaq	576(%rsp), %rsi
	movl	$2, %edx
	movq	%rbp, %rdi
.LEHB53:
	call	*%rax
.LEHE53:
	movdqa	592(%rsp), %xmm5
	movq	592(%rsp), %rax
	movaps	%xmm5, 192(%rsp)
.L1502:
	movdqa	608(%rsp), %xmm5
	movq	616(%rsp), %rdx
	movaps	%xmm5, 208(%rsp)
	testq	%rdx, %rdx
	je	.L1504
	cmpq	$0, _ZL28__gthrw___pthread_key_createPjPFvPvE@GOTPCREL(%rip)
	jne	.L1988
	addl	$1, 8(%rdx)
.L1504:
	movdqa	160(%rsp), %xmm6
	pxor	%xmm0, %xmm0
	movq	160(%rsp), %rcx
	movq	$0, 256(%rsp)
	movq	168(%rsp), %rdi
	movaps	%xmm0, 160(%rsp)
	movaps	%xmm6, 224(%rsp)
	testq	%rax, %rax
	je	.L1511
	leaq	240(%rsp), %rbp
	leaq	176(%rsp), %rsi
	movl	$2, %edx
	movq	%rbp, %rdi
.LEHB54:
	call	*%rax
.LEHE54:
	movq	192(%rsp), %rax
	movq	224(%rsp), %rcx
	movdqa	192(%rsp), %xmm6
	movq	232(%rsp), %rdi
	movaps	%xmm6, 256(%rsp)
.L1511:
	movq	%rcx, %xmm0
	movq	%rdi, %xmm3
	movdqa	208(%rsp), %xmm7
	movdqa	624(%rsp), %xmm2
	pxor	%xmm1, %xmm1
	punpcklqdq	%xmm3, %xmm0
	movq	208(%rsp), %rdx
	movq	216(%rsp), %rsi
	movq	$0, 416(%rsp)
	movaps	%xmm7, 272(%rsp)
	movaps	%xmm1, 208(%rsp)
	movaps	%xmm2, 288(%rsp)
	movaps	%xmm0, 384(%rsp)
	movaps	%xmm1, 224(%rsp)
	testq	%rax, %rax
	je	.L1514
	leaq	400(%rsp), %rbp
	leaq	240(%rsp), %rsi
	movl	$2, %edx
	movq	%rbp, %rdi
.LEHB55:
	call	*%rax
.LEHE55:
	movq	272(%rsp), %rdx
	movq	280(%rsp), %rsi
	movdqa	256(%rsp), %xmm7
	movaps	%xmm7, 416(%rsp)
.L1514:
	movq	%rdx, %xmm0
	movq	%rsi, %xmm1
	movdqa	288(%rsp), %xmm4
	movq	552(%rsp), %rbx
	punpcklqdq	%xmm1, %xmm0
	movaps	%xmm0, 432(%rsp)
	pxor	%xmm0, %xmm0
	movaps	%xmm0, 272(%rsp)
	movaps	%xmm4, 448(%rsp)
	data16	leaq	_ZN4asio6detail15keyword_tss_ptrINS0_10call_stackINS0_14strand_service11strand_implEhE7contextEE6value_E@tlsgd(%rip), %rdi
	.value	0x6666
	rex64
	call	__tls_get_addr@PLT
	movq	(%rax), %rax
	testq	%rax, %rax
	jne	.L1520
	jmp	.L1519
	.p2align 4,,10
	.p2align 3
.L1525:
	movq	16(%rax), %rax
	testq	%rax, %rax
	je	.L1519
.L1520:
	cmpq	(%rax), %rbx
	jne	.L1525
	cmpq	$0, 8(%rax)
	je	.L1519
	lfence
	movl	448(%rsp), %edx
	testl	%edx, %edx
	je	.L1989
.L1527:
	sfence
.L1529:
	movq	440(%rsp), %rbp
	testq	%rbp, %rbp
	je	.L1658
	movq	_ZL28__gthrw___pthread_key_createPjPFvPvE@GOTPCREL(%rip), %rbx
	testq	%rbx, %rbx
	jne	.L1990
	movl	8(%rbp), %eax
	leal	-1(%rax), %edx
	movl	%edx, 8(%rbp)
.L1662:
	cmpl	$1, %eax
	je	.L1991
.L1658:
	movq	416(%rsp), %rax
	testq	%rax, %rax
	je	.L1666
	leaq	400(%rsp), %rdi
	movl	$3, %edx
	movq	%rdi, %rsi
	call	*%rax
.L1666:
	movq	392(%rsp), %rbp
	testq	%rbp, %rbp
	je	.L1668
	movq	_ZL28__gthrw___pthread_key_createPjPFvPvE@GOTPCREL(%rip), %rbx
	testq	%rbx, %rbx
	jne	.L1992
	movl	8(%rbp), %eax
	leal	-1(%rax), %edx
	movl	%edx, 8(%rbp)
.L1670:
	cmpl	$1, %eax
	je	.L1993
.L1668:
	movq	280(%rsp), %rbp
	testq	%rbp, %rbp
	je	.L1675
	movq	_ZL28__gthrw___pthread_key_createPjPFvPvE@GOTPCREL(%rip), %rbx
	testq	%rbx, %rbx
	jne	.L1994
	movl	8(%rbp), %eax
	leal	-1(%rax), %edx
	movl	%edx, 8(%rbp)
.L1677:
	cmpl	$1, %eax
	je	.L1995
.L1675:
	movq	256(%rsp), %rax
	testq	%rax, %rax
	je	.L1681
	leaq	240(%rsp), %rdi
	movl	$3, %edx
	movq	%rdi, %rsi
	call	*%rax
.L1681:
	movq	232(%rsp), %rbp
	testq	%rbp, %rbp
	je	.L1683
	movq	_ZL28__gthrw___pthread_key_createPjPFvPvE@GOTPCREL(%rip), %rbx
	testq	%rbx, %rbx
	jne	.L1996
	movl	8(%rbp), %eax
	leal	-1(%rax), %edx
	movl	%edx, 8(%rbp)
.L1685:
	cmpl	$1, %eax
	je	.L1997
.L1683:
	movq	216(%rsp), %rbp
	testq	%rbp, %rbp
	je	.L1690
	movq	_ZL28__gthrw___pthread_key_createPjPFvPvE@GOTPCREL(%rip), %rbx
	testq	%rbx, %rbx
	jne	.L1998
	movl	8(%rbp), %eax
	leal	-1(%rax), %edx
	movl	%edx, 8(%rbp)
.L1692:
	cmpl	$1, %eax
	je	.L1999
.L1690:
	movq	192(%rsp), %rax
	testq	%rax, %rax
	je	.L1696
	leaq	176(%rsp), %rdi
	movl	$3, %edx
	movq	%rdi, %rsi
	call	*%rax
.L1696:
	movq	168(%rsp), %rbp
	testq	%rbp, %rbp
	je	.L1698
	movq	_ZL28__gthrw___pthread_key_createPjPFvPvE@GOTPCREL(%rip), %rbx
	testq	%rbx, %rbx
	jne	.L2000
	movl	8(%rbp), %eax
	leal	-1(%rax), %edx
	movl	%edx, 8(%rbp)
.L1700:
	cmpl	$1, %eax
	je	.L2001
.L1698:
	sfence
.L1499:
	movq	616(%rsp), %rbp
	testq	%rbp, %rbp
	je	.L1705
	movq	_ZL28__gthrw___pthread_key_createPjPFvPvE@GOTPCREL(%rip), %rbx
	testq	%rbx, %rbx
	jne	.L2002
	movl	8(%rbp), %eax
	leal	-1(%rax), %edx
	movl	%edx, 8(%rbp)
.L1707:
	cmpl	$1, %eax
	je	.L2003
.L1705:
	movq	592(%rsp), %rax
	testq	%rax, %rax
	je	.L1711
	leaq	576(%rsp), %rdi
	movl	$3, %edx
	movq	%rdi, %rsi
	call	*%rax
.L1711:
	movq	568(%rsp), %rbp
	testq	%rbp, %rbp
	je	.L1713
	movq	_ZL28__gthrw___pthread_key_createPjPFvPvE@GOTPCREL(%rip), %rbx
	testq	%rbx, %rbx
	jne	.L2004
	movl	8(%rbp), %eax
	leal	-1(%rax), %edx
	movl	%edx, 8(%rbp)
.L1715:
	cmpl	$1, %eax
	je	.L2005
.L1713:
	movq	536(%rsp), %rbp
	testq	%rbp, %rbp
	je	.L1720
	movq	_ZL28__gthrw___pthread_key_createPjPFvPvE@GOTPCREL(%rip), %rbx
	testq	%rbx, %rbx
	jne	.L2006
	movl	8(%rbp), %eax
	leal	-1(%rax), %edx
	movl	%edx, 8(%rbp)
.L1722:
	cmpl	$1, %eax
	je	.L2007
.L1720:
	movq	512(%rsp), %rax
	testq	%rax, %rax
	je	.L1726
	leaq	496(%rsp), %rdi
	movl	$3, %edx
	movq	%rdi, %rsi
	call	*%rax
.L1726:
	movq	488(%rsp), %rbp
	testq	%rbp, %rbp
	je	.L1728
	movq	_ZL28__gthrw___pthread_key_createPjPFvPvE@GOTPCREL(%rip), %rbx
	testq	%rbx, %rbx
	jne	.L2008
	movl	8(%rbp), %eax
	leal	-1(%rax), %edx
	movl	%edx, 8(%rbp)
.L1730:
	cmpl	$1, %eax
	je	.L2009
.L1728:
	movq	48(%rsp), %rbp
	testq	%rbp, %rbp
	je	.L1734
	movq	160(%rbp), %r12
	testq	%r12, %r12
	je	.L1736
	movq	_ZL28__gthrw___pthread_key_createPjPFvPvE@GOTPCREL(%rip), %rbx
	testq	%rbx, %rbx
	jne	.L2010
	movl	8(%r12), %eax
	leal	-1(%rax), %edx
	movl	%edx, 8(%r12)
.L1738:
	cmpl	$1, %eax
	jne	.L1736
	movq	(%r12), %rax
	movq	%r12, %rdi
	call	*16(%rax)
	testq	%rbx, %rbx
	jne	.L2011
	movl	12(%r12), %eax
	leal	-1(%rax), %edx
	movl	%edx, 12(%r12)
.L1741:
	cmpl	$1, %eax
	je	.L2012
	.p2align 4,,10
	.p2align 3
.L1736:
	movq	136(%rbp), %rax
	testq	%rax, %rax
	je	.L1742
	leaq	120(%rbp), %rdi
	movl	$3, %edx
	movq	%rdi, %rsi
	call	*%rax
.L1742:
	movq	112(%rbp), %r12
	testq	%r12, %r12
	je	.L1744
	movq	_ZL28__gthrw___pthread_key_createPjPFvPvE@GOTPCREL(%rip), %rbx
	testq	%rbx, %rbx
	jne	.L2013
	movl	8(%r12), %eax
	leal	-1(%rax), %edx
	movl	%edx, 8(%r12)
.L1746:
	cmpl	$1, %eax
	jne	.L1744
	movq	(%r12), %rax
	movq	%r12, %rdi
	call	*16(%rax)
	testq	%rbx, %rbx
	jne	.L2014
	movl	12(%r12), %eax
	leal	-1(%rax), %edx
	movl	%edx, 12(%r12)
.L1749:
	cmpl	$1, %eax
	je	.L2015
	.p2align 4,,10
	.p2align 3
.L1744:
	movq	80(%rbp), %r12
	testq	%r12, %r12
	je	.L1751
	movq	_ZL28__gthrw___pthread_key_createPjPFvPvE@GOTPCREL(%rip), %rbx
	testq	%rbx, %rbx
	jne	.L2016
	movl	8(%r12), %eax
	leal	-1(%rax), %edx
	movl	%edx, 8(%r12)
.L1753:
	cmpl	$1, %eax
	jne	.L1751
	movq	(%r12), %rax
	movq	%r12, %rdi
	call	*16(%rax)
	testq	%rbx, %rbx
	jne	.L2017
	movl	12(%r12), %eax
	leal	-1(%rax), %edx
	movl	%edx, 12(%r12)
.L1756:
	cmpl	$1, %eax
	je	.L2018
	.p2align 4,,10
	.p2align 3
.L1751:
	movq	56(%rbp), %rax
	testq	%rax, %rax
	je	.L1757
	leaq	40(%rbp), %rdi
	movl	$3, %edx
	movq	%rdi, %rsi
	call	*%rax
.L1757:
	movq	32(%rbp), %rbp
	testq	%rbp, %rbp
	je	.L1759
	movq	_ZL28__gthrw___pthread_key_createPjPFvPvE@GOTPCREL(%rip), %rbx
	testq	%rbx, %rbx
	jne	.L2019
	movl	8(%rbp), %eax
	leal	-1(%rax), %edx
	movl	%edx, 8(%rbp)
.L1761:
	cmpl	$1, %eax
	jne	.L1759
	movq	0(%rbp), %rax
	movq	%rbp, %rdi
	call	*16(%rax)
	testq	%rbx, %rbx
	jne	.L2020
	movl	12(%rbp), %eax
	leal	-1(%rax), %edx
	movl	%edx, 12(%rbp)
.L1764:
	cmpl	$1, %eax
	je	.L2021
	.p2align 4,,10
	.p2align 3
.L1759:
	movq	$0, 48(%rsp)
.L1734:
	movq	40(%rsp), %rbp
	testq	%rbp, %rbp
	je	.L1453
	data16	leaq	_ZN4asio6detail15keyword_tss_ptrINS0_10call_stackINS0_15task_io_serviceENS0_27task_io_service_thread_infoEE7contextEE6value_E@tlsgd(%rip), %rdi
	.value	0x6666
	rex64
	call	__tls_get_addr@PLT
	movq	(%rax), %rax
	testq	%rax, %rax
	je	.L1766
	movq	8(%rax), %rax
	testq	%rax, %rax
	je	.L1766
	cmpq	$0, (%rax)
	je	.L2022
.L1766:
	movq	%rbp, %rdi
	call	_ZdlPv@PLT
.L1453:
	movq	648(%rsp), %rax
	subq	%fs:40, %rax
	jne	.L2023
	addq	$664, %rsp
	.cfi_remember_state
	.cfi_def_cfa_offset 56
	popq	%rbx
	.cfi_def_cfa_offset 48
	popq	%rbp
	.cfi_def_cfa_offset 40
	popq	%r12
	.cfi_def_cfa_offset 32
	popq	%r13
	.cfi_def_cfa_offset 24
	popq	%r14
	.cfi_def_cfa_offset 16
	popq	%r15
	.cfi_def_cfa_offset 8
	ret
	.p2align 4,,10
	.p2align 3
.L1519:
	.cfi_restore_state
	pxor	%xmm0, %xmm0
	leaq	384(%rsp), %r13
	movq	544(%rsp), %r14
	movq	%r13, 64(%rsp)
	movups	%xmm0, 72(%rsp)
	data16	leaq	_ZN4asio6detail15keyword_tss_ptrINS0_10call_stackINS0_15task_io_serviceENS0_27task_io_service_thread_infoEE7contextEE6value_E@tlsgd(%rip), %rdi
	.value	0x6666
	rex64
	call	__tls_get_addr@PLT
	movq	(%rax), %rax
	testq	%rax, %rax
	je	.L1530
	movq	8(%rax), %rax
	testq	%rax, %rax
	je	.L1530
	movq	(%rax), %rbp
	testq	%rbp, %rbp
	je	.L1530
	movq	$0, (%rax)
	movzbl	0(%rbp), %eax
	cmpb	$103, %al
	jbe	.L1531
	movb	%al, 104(%rbp)
	jmp	.L1532
	.p2align 4,,10
	.p2align 3
.L1531:
	movq	%rbp, %rdi
	call	_ZdlPv@PLT
.L1530:
	movl	$105, %edi
.LEHB56:
	call	_Znwm@PLT
.LEHE56:
	movb	$104, 104(%rax)
	movq	%rax, %rbp
.L1532:
	leaq	_ZN4asio6detail18completion_handlerINS0_7binder1IZN7asiopal8Executor5StartERKNSt6chrono10time_pointINS5_3_V212steady_clockENS5_8durationIlSt5ratioILl1ELl1000000000EEEEEERKSt8functionIFvvEEEUlRKSt10error_codeE_SL_EEE11do_completeEPNS0_15task_io_serviceEPNS0_25task_io_service_operationESN_m(%rip), %rax
	movq	%rbp, 72(%rsp)
	pxor	%xmm0, %xmm0
	movq	%rax, 8(%rbp)
	movq	$0, 0(%rbp)
	movdqa	384(%rsp), %xmm5
	movl	$0, 16(%rbp)
	movups	%xmm5, 24(%rbp)
	movq	416(%rsp), %rax
	movq	$0, 56(%rbp)
	movaps	%xmm0, 384(%rsp)
	testq	%rax, %rax
	je	.L1533
	leaq	40(%rbp), %r15
	leaq	400(%rsp), %rsi
	movl	$2, %edx
	movq	%r15, %rdi
.LEHB57:
	call	*%rax
.LEHE57:
	movdqa	416(%rsp), %xmm2
	movups	%xmm2, 56(%rbp)
.L1533:
	movdqa	432(%rsp), %xmm6
	pxor	%xmm0, %xmm0
	movq	%rbp, 80(%rsp)
	movaps	%xmm0, 432(%rsp)
	movups	%xmm6, 72(%rbp)
	movq	40(%r14), %rbx
	movdqa	448(%rsp), %xmm7
	movups	%xmm7, 88(%rbp)
	data16	leaq	_ZN4asio6detail15keyword_tss_ptrINS0_10call_stackINS0_15task_io_serviceENS0_27task_io_service_thread_infoEE7contextEE6value_E@tlsgd(%rip), %rdi
	.value	0x6666
	rex64
	call	__tls_get_addr@PLT
	movq	(%rax), %rax
	testq	%rax, %rax
	jne	.L1535
	jmp	.L1534
	.p2align 4,,10
	.p2align 3
.L1540:
	movq	16(%rax), %rax
	testq	%rax, %rax
	je	.L1534
.L1535:
	cmpq	(%rax), %rbx
	jne	.L1540
	movq	8(%rax), %rbx
	movq	552(%rsp), %rax
	leaq	24(%rax), %rdi
	call	pthread_mutex_lock@PLT
	testq	%rbx, %rbx
	je	.L1542
	movq	552(%rsp), %rax
	cmpb	$0, 64(%rax)
	leaq	24(%rax), %rdi
	je	.L2024
.L1543:
	cmpq	$0, 80(%rax)
	movq	$0, 0(%rbp)
	je	.L1547
	movq	80(%rax), %rdx
	movq	%rbp, (%rdx)
	movq	%rbp, 80(%rax)
.L1971:
	call	pthread_mutex_unlock@PLT
	jmp	.L1529
.L2024:
	movb	$1, 64(%rax)
	call	pthread_mutex_unlock@PLT
	pxor	%xmm0, %xmm0
	movq	80(%rsp), %rbx
	movq	552(%rsp), %r15
	movups	%xmm0, 72(%rsp)
	movq	%r15, 96(%rsp)
	data16	leaq	_ZN4asio6detail15keyword_tss_ptrINS0_10call_stackINS0_14strand_service11strand_implEhE7contextEE6value_E@tlsgd(%rip), %rdi
	.value	0x6666
	rex64
	call	__tls_get_addr@PLT
	movq	40(%r14), %rbp
	movq	%r15, %xmm3
	movq	%rbx, 136(%rsp)
	movq	%rbx, 144(%rsp)
	pxor	%xmm0, %xmm0
	movq	%rbp, %xmm1
	punpcklqdq	%xmm3, %xmm1
	movaps	%xmm1, 16(%rsp)
	movq	(%rax), %rdx
	movq	%rdx, 112(%rsp)
	leaq	96(%rsp), %rdx
	movq	%rdx, (%rax)
	leaq	24(%rbx), %rax
	movq	%rax, 128(%rsp)
	movq	56(%rbx), %rax
	movdqu	24(%rbx), %xmm4
	movq	%rdx, 104(%rsp)
	movups	%xmm0, 24(%rbx)
	movaps	%xmm4, 304(%rsp)
	movq	$0, 336(%rsp)
	testq	%rax, %rax
	je	.L2025
	leaq	320(%rsp), %r14
	leaq	40(%rbx), %rsi
	movl	$2, %edx
	movq	%r14, %rdi
.LEHB58:
	call	*%rax
.LEHE58:
	movdqu	56(%rbx), %xmm1
	movdqu	72(%rbx), %xmm3
	pxor	%xmm0, %xmm0
	leaq	304(%rsp), %r14
	movdqu	88(%rbx), %xmm4
	movq	144(%rsp), %r15
	movups	%xmm0, 72(%rbx)
	movaps	%xmm1, 336(%rsp)
	movq	%r14, 128(%rsp)
	movaps	%xmm3, 352(%rsp)
	movaps	%xmm4, 368(%rsp)
	testq	%r15, %r15
	jne	.L1562
.L1563:
	movq	136(%rsp), %r15
	testq	%r15, %r15
	je	.L1583
	data16	leaq	_ZN4asio6detail15keyword_tss_ptrINS0_10call_stackINS0_15task_io_serviceENS0_27task_io_service_thread_infoEE7contextEE6value_E@tlsgd(%rip), %rdi
	.value	0x6666
	rex64
	call	__tls_get_addr@PLT
	movq	(%rax), %rax
	testq	%rax, %rax
	je	.L1584
	movq	8(%rax), %rax
	testq	%rax, %rax
	je	.L1584
	cmpq	$0, (%rax)
	je	.L2026
.L1584:
	movq	%r15, %rdi
	call	_ZdlPv@PLT
.L1585:
	movq	$0, 136(%rsp)
.L1583:
	testq	%rbp, %rbp
	je	.L1586
	movl	368(%rsp), %eax
	testl	%eax, %eax
	jne	.L1587
	cmpq	$0, 336(%rsp)
	je	.L2027
	leaq	320(%rsp), %rdi
.LEHB59:
	call	*344(%rsp)
.LEHE59:
.L1587:
	sfence
.L1586:
	movq	360(%rsp), %rbp
	testq	%rbp, %rbp
	je	.L1590
	movq	_ZL28__gthrw___pthread_key_createPjPFvPvE@GOTPCREL(%rip), %rbx
	testq	%rbx, %rbx
	jne	.L2028
	movl	8(%rbp), %eax
	leal	-1(%rax), %edx
	movl	%edx, 8(%rbp)
.L1592:
	cmpl	$1, %eax
	je	.L2029
.L1590:
	movq	336(%rsp), %rax
	testq	%rax, %rax
	je	.L1596
	leaq	320(%rsp), %rdi
	movl	$3, %edx
	movq	%rdi, %rsi
	call	*%rax
.L1596:
	movq	312(%rsp), %rbp
	testq	%rbp, %rbp
	je	.L1598
	movq	_ZL28__gthrw___pthread_key_createPjPFvPvE@GOTPCREL(%rip), %rbx
	testq	%rbx, %rbx
	jne	.L2030
	movl	8(%rbp), %eax
	leal	-1(%rax), %edx
	movl	%edx, 8(%rbp)
.L1600:
	cmpl	$1, %eax
	je	.L2031
.L1598:
	movq	144(%rsp), %rbp
	testq	%rbp, %rbp
	je	.L1604
	movq	80(%rbp), %r12
	testq	%r12, %r12
	je	.L1606
	movq	_ZL28__gthrw___pthread_key_createPjPFvPvE@GOTPCREL(%rip), %rbx
	testq	%rbx, %rbx
	jne	.L2032
	movl	8(%r12), %eax
	leal	-1(%rax), %edx
	movl	%edx, 8(%r12)
.L1608:
	cmpl	$1, %eax
	jne	.L1606
	movq	(%r12), %rax
	movq	%r12, %rdi
	call	*16(%rax)
	testq	%rbx, %rbx
	jne	.L2033
	movl	12(%r12), %eax
	leal	-1(%rax), %edx
	movl	%edx, 12(%r12)
.L1611:
	cmpl	$1, %eax
	jne	.L1606
	movq	(%r12), %rax
	movq	%r12, %rdi
	call	*24(%rax)
	.p2align 4,,10
	.p2align 3
.L1606:
	movq	56(%rbp), %rax
	testq	%rax, %rax
	je	.L1612
	leaq	40(%rbp), %rdi
	movl	$3, %edx
	movq	%rdi, %rsi
	call	*%rax
.L1612:
	movq	32(%rbp), %rbp
	testq	%rbp, %rbp
	je	.L1614
	movq	_ZL28__gthrw___pthread_key_createPjPFvPvE@GOTPCREL(%rip), %rbx
	testq	%rbx, %rbx
	jne	.L2034
	movl	8(%rbp), %eax
	leal	-1(%rax), %edx
	movl	%edx, 8(%rbp)
.L1616:
	cmpl	$1, %eax
	jne	.L1614
	movq	0(%rbp), %rax
	movq	%rbp, %rdi
	call	*16(%rax)
	testq	%rbx, %rbx
	jne	.L2035
	movl	12(%rbp), %eax
	leal	-1(%rax), %edx
	movl	%edx, 12(%rbp)
.L1619:
	cmpl	$1, %eax
	jne	.L1614
	movq	0(%rbp), %rax
	movq	%rbp, %rdi
	call	*24(%rax)
	.p2align 4,,10
	.p2align 3
.L1614:
	movq	$0, 144(%rsp)
.L1604:
	movq	136(%rsp), %rbp
	testq	%rbp, %rbp
	je	.L1620
	data16	leaq	_ZN4asio6detail15keyword_tss_ptrINS0_10call_stackINS0_15task_io_serviceENS0_27task_io_service_thread_infoEE7contextEE6value_E@tlsgd(%rip), %rdi
	.value	0x6666
	rex64
	call	__tls_get_addr@PLT
	movq	(%rax), %rax
	testq	%rax, %rax
	je	.L1621
	movq	8(%rax), %rax
	testq	%rax, %rax
	je	.L1621
	cmpq	$0, (%rax)
	je	.L2036
.L1621:
	movq	%rbp, %rdi
	call	_ZdlPv@PLT
.L1620:
	movq	24(%rsp), %rax
	leaq	24(%rax), %rdi
	call	pthread_mutex_lock@PLT
	movq	24(%rsp), %rdi
	movq	72(%rdi), %rbx
	testq	%rbx, %rbx
	je	.L2037
	movq	96(%rdi), %rax
	testq	%rax, %rax
	je	.L1625
	movq	%rbx, (%rax)
	movq	88(%rdi), %rbx
.L1626:
	movq	80(%rdi), %rax
	pxor	%xmm0, %xmm0
	movups	%xmm0, 72(%rdi)
	movq	%rax, 96(%rdi)
.L1623:
	testq	%rbx, %rbx
	setne	64(%rdi)
	addq	$24, %rdi
	call	pthread_mutex_unlock@PLT
	testq	%rbx, %rbx
	jne	.L2038
.L1627:
	data16	leaq	_ZN4asio6detail15keyword_tss_ptrINS0_10call_stackINS0_14strand_service11strand_implEhE7contextEE6value_E@tlsgd(%rip), %rdi
	.value	0x6666
	rex64
	call	__tls_get_addr@PLT
	movq	112(%rsp), %rdx
	movq	80(%rsp), %rbp
	movq	%rdx, (%rax)
	testq	%rbp, %rbp
	je	.L1970
	movq	80(%rbp), %r12
	testq	%r12, %r12
	je	.L1641
	movq	_ZL28__gthrw___pthread_key_createPjPFvPvE@GOTPCREL(%rip), %rbx
	testq	%rbx, %rbx
	jne	.L2039
	movl	8(%r12), %eax
	leal	-1(%rax), %edx
	movl	%edx, 8(%r12)
.L1643:
	cmpl	$1, %eax
	je	.L2040
.L1641:
	movq	56(%rbp), %rax
	testq	%rax, %rax
	je	.L1647
	leaq	40(%rbp), %rdi
	movl	$3, %edx
	movq	%rdi, %rsi
	call	*%rax
.L1647:
	movq	32(%rbp), %rbp
	testq	%rbp, %rbp
	je	.L1649
	movq	_ZL28__gthrw___pthread_key_createPjPFvPvE@GOTPCREL(%rip), %rbx
	testq	%rbx, %rbx
	jne	.L2041
	movl	8(%rbp), %eax
	leal	-1(%rax), %edx
	movl	%edx, 8(%rbp)
.L1651:
	cmpl	$1, %eax
	je	.L2042
.L1649:
	movq	$0, 80(%rsp)
.L1970:
	movq	72(%rsp), %rbp
	testq	%rbp, %rbp
	je	.L1529
	data16	leaq	_ZN4asio6detail15keyword_tss_ptrINS0_10call_stackINS0_15task_io_serviceENS0_27task_io_service_thread_infoEE7contextEE6value_E@tlsgd(%rip), %rdi
	.value	0x6666
	rex64
	call	__tls_get_addr@PLT
	movq	(%rax), %rax
	testq	%rax, %rax
	je	.L1656
	movq	8(%rax), %rax
	testq	%rax, %rax
	je	.L1656
	cmpq	$0, (%rax)
	je	.L2043
.L1656:
	movq	%rbp, %rdi
	call	_ZdlPv@PLT
	jmp	.L1529
	.p2align 4,,10
	.p2align 3
.L2003:
	movq	0(%rbp), %rax
	movq	%rbp, %rdi
	call	*16(%rax)
	testq	%rbx, %rbx
	jne	.L2044
	movl	12(%rbp), %eax
	leal	-1(%rax), %edx
	movl	%edx, 12(%rbp)
.L1710:
	cmpl	$1, %eax
	jne	.L1705
	movq	0(%rbp), %rax
	movq	%rbp, %rdi
	call	*24(%rax)
	jmp	.L1705
	.p2align 4,,10
	.p2align 3
.L2005:
	movq	0(%rbp), %rax
	movq	%rbp, %rdi
	call	*16(%rax)
	testq	%rbx, %rbx
	jne	.L2045
	movl	12(%rbp), %eax
	leal	-1(%rax), %edx
	movl	%edx, 12(%rbp)
.L1718:
	cmpl	$1, %eax
	jne	.L1713
	movq	0(%rbp), %rax
	movq	%rbp, %rdi
	call	*24(%rax)
	jmp	.L1713
	.p2align 4,,10
	.p2align 3
.L2007:
	movq	0(%rbp), %rax
	movq	%rbp, %rdi
	call	*16(%rax)
	testq	%rbx, %rbx
	jne	.L2046
	movl	12(%rbp), %eax
	leal	-1(%rax), %edx
	movl	%edx, 12(%rbp)
.L1725:
	cmpl	$1, %eax
	jne	.L1720
	movq	0(%rbp), %rax
	movq	%rbp, %rdi
	call	*24(%rax)
	jmp	.L1720
	.p2align 4,,10
	.p2align 3
.L2009:
	movq	0(%rbp), %rax
	movq	%rbp, %rdi
	call	*16(%rax)
	testq	%rbx, %rbx
	jne	.L2047
	movl	12(%rbp), %eax
	leal	-1(%rax), %edx
	movl	%edx, 12(%rbp)
.L1733:
	cmpl	$1, %eax
	jne	.L1728
	movq	0(%rbp), %rax
	movq	%rbp, %rdi
	call	*24(%rax)
	jmp	.L1728
	.p2align 4,,10
	.p2align 3
.L2004:
	movl	$-1, %eax
	lock xaddl	%eax, 8(%rbp)
	jmp	.L1715
	.p2align 4,,10
	.p2align 3
.L2006:
	movl	$-1, %eax
	lock xaddl	%eax, 8(%rbp)
	jmp	.L1722
	.p2align 4,,10
	.p2align 3
.L2008:
	movl	$-1, %eax
	lock xaddl	%eax, 8(%rbp)
	jmp	.L1730
	.p2align 4,,10
	.p2align 3
.L2002:
	movl	$-1, %eax
	lock xaddl	%eax, 8(%rbp)
	jmp	.L1707
	.p2align 4,,10
	.p2align 3
.L1989:
	cmpq	$0, 416(%rsp)
	je	.L2048
	leaq	400(%rsp), %rdi
.LEHB60:
	call	*424(%rsp)
.LEHE60:
	jmp	.L1527
	.p2align 4,,10
	.p2align 3
.L1974:
	movl	$-1, %eax
	lock xaddl	%eax, 8(%r14)
	jmp	.L1469
	.p2align 4,,10
	.p2align 3
.L1977:
	movl	$-1, %eax
	lock xaddl	%eax, 8(%r14)
	jmp	.L1477
	.p2align 4,,10
	.p2align 3
.L1980:
	movl	$-1, %eax
	lock xaddl	%eax, 8(%r14)
	jmp	.L1484
	.p2align 4,,10
	.p2align 3
.L2016:
	movl	$-1, %eax
	lock xaddl	%eax, 8(%r12)
	jmp	.L1753
	.p2align 4,,10
	.p2align 3
.L2010:
	movl	$-1, %eax
	lock xaddl	%eax, 8(%r12)
	jmp	.L1738
	.p2align 4,,10
	.p2align 3
.L2019:
	movl	$-1, %eax
	lock xaddl	%eax, 8(%rbp)
	jmp	.L1761
	.p2align 4,,10
	.p2align 3
.L2013:
	movl	$-1, %eax
	lock xaddl	%eax, 8(%r12)
	jmp	.L1746
	.p2align 4,,10
	.p2align 3
.L1983:
	movl	$-1, %eax
	lock xaddl	%eax, 8(%rbp)
	jmp	.L1492
	.p2align 4,,10
	.p2align 3
.L2022:
	movzbl	184(%rbp), %edx
	movb	%dl, 0(%rbp)
	movq	%rbp, (%rax)
	jmp	.L1453
	.p2align 4,,10
	.p2align 3
.L1986:
	movzbl	184(%rbp), %edx
	movb	%dl, 0(%rbp)
	movq	%rbp, (%rax)
	jmp	.L1498
	.p2align 4,,10
	.p2align 3
.L1547:
	movq	%rbp, %xmm0
	punpcklqdq	%xmm0, %xmm0
	movups	%xmm0, 72(%rax)
	jmp	.L1971
	.p2align 4,,10
	.p2align 3
.L2025:
	leaq	304(%rsp), %r14
	movdqu	72(%rbx), %xmm5
	movdqu	88(%rbx), %xmm6
	movq	%rbx, %r15
	movups	%xmm0, 72(%rbx)
	movq	%r14, 128(%rsp)
	movaps	%xmm5, 352(%rsp)
	movaps	%xmm6, 368(%rsp)
.L1562:
	movq	80(%r15), %rdi
	testq	%rdi, %rdi
	je	.L1569
	movq	_ZL28__gthrw___pthread_key_createPjPFvPvE@GOTPCREL(%rip), %rbx
	testq	%rbx, %rbx
	jne	.L2049
	movl	8(%rdi), %eax
	leal	-1(%rax), %edx
	movl	%edx, 8(%rdi)
.L1571:
	cmpl	$1, %eax
	jne	.L1569
	movq	(%rdi), %rax
	movq	%rdi, 8(%rsp)
	call	*16(%rax)
	testq	%rbx, %rbx
	movq	8(%rsp), %rdi
	jne	.L2050
	movl	12(%rdi), %eax
	leal	-1(%rax), %edx
	movl	%edx, 12(%rdi)
.L1574:
	cmpl	$1, %eax
	jne	.L1569
	movq	(%rdi), %rax
	call	*24(%rax)
	.p2align 4,,10
	.p2align 3
.L1569:
	movq	56(%r15), %rax
	testq	%rax, %rax
	je	.L1575
	leaq	40(%r15), %rdi
	movl	$3, %edx
	movq	%rdi, %rsi
	call	*%rax
.L1575:
	movq	32(%r15), %r15
	testq	%r15, %r15
	je	.L1577
	movq	_ZL28__gthrw___pthread_key_createPjPFvPvE@GOTPCREL(%rip), %rbx
	testq	%rbx, %rbx
	jne	.L2051
	movl	8(%r15), %eax
	leal	-1(%rax), %edx
	movl	%edx, 8(%r15)
.L1579:
	cmpl	$1, %eax
	jne	.L1577
	movq	(%r15), %rax
	movq	%r15, %rdi
	call	*16(%rax)
	testq	%rbx, %rbx
	jne	.L2052
	movl	12(%r15), %eax
	leal	-1(%rax), %edx
	movl	%edx, 12(%r15)
.L1582:
	cmpl	$1, %eax
	jne	.L1577
	movq	(%r15), %rax
	movq	%r15, %rdi
	call	*24(%rax)
	.p2align 4,,10
	.p2align 3
.L1577:
	movq	$0, 144(%rsp)
	jmp	.L1563
	.p2align 4,,10
	.p2align 3
.L1534:
	movq	552(%rsp), %rax
	leaq	24(%rax), %rdi
	call	pthread_mutex_lock@PLT
.L1542:
	movq	552(%rsp), %rax
	cmpb	$0, 64(%rax)
	leaq	24(%rax), %rdi
	jne	.L1543
	movb	$1, 64(%rax)
	call	pthread_mutex_unlock@PLT
	movq	552(%rsp), %r12
	movq	$0, 0(%rbp)
	cmpq	$0, 96(%r12)
	je	.L1550
	movq	96(%r12), %rax
	movq	%rbp, (%rax)
	movq	%rbp, 96(%r12)
.L1551:
	movq	40(%r14), %rbx
	cmpb	$0, 40(%rbx)
	je	.L1552
	data16	leaq	_ZN4asio6detail15keyword_tss_ptrINS0_10call_stackINS0_15task_io_serviceENS0_27task_io_service_thread_infoEE7contextEE6value_E@tlsgd(%rip), %rdi
	.value	0x6666
	rex64
	call	__tls_get_addr@PLT
	movq	(%rax), %rax
	testq	%rax, %rax
	jne	.L1555
	jmp	.L1552
	.p2align 4,,10
	.p2align 3
.L1553:
	movq	16(%rax), %rax
	testq	%rax, %rax
	je	.L1552
.L1555:
	cmpq	(%rax), %rbx
	jne	.L1553
	movq	8(%rax), %rax
	testq	%rax, %rax
	je	.L1552
	addq	$1, 24(%rax)
	cmpq	$0, 16(%rax)
	movq	$0, (%r12)
	je	.L1556
	movq	16(%rax), %rdx
	movq	%r12, (%rdx)
	movq	%r12, 16(%rax)
	jmp	.L1529
	.p2align 4,,10
	.p2align 3
.L1993:
	movq	0(%rbp), %rax
	movq	%rbp, %rdi
	call	*16(%rax)
	testq	%rbx, %rbx
	jne	.L2053
	movl	12(%rbp), %eax
	leal	-1(%rax), %edx
	movl	%edx, 12(%rbp)
.L1673:
	cmpl	$1, %eax
	jne	.L1668
	movq	0(%rbp), %rax
	movq	%rbp, %rdi
	call	*24(%rax)
	jmp	.L1668
	.p2align 4,,10
	.p2align 3
.L1991:
	movq	0(%rbp), %rax
	movq	%rbp, %rdi
	call	*16(%rax)
	testq	%rbx, %rbx
	jne	.L2054
	movl	12(%rbp), %eax
	leal	-1(%rax), %edx
	movl	%edx, 12(%rbp)
.L1665:
	cmpl	$1, %eax
	jne	.L1658
	movq	0(%rbp), %rax
	movq	%rbp, %rdi
	call	*24(%rax)
	jmp	.L1658
	.p2align 4,,10
	.p2align 3
.L2001:
	movq	0(%rbp), %rax
	movq	%rbp, %rdi
	call	*16(%rax)
	testq	%rbx, %rbx
	jne	.L2055
	movl	12(%rbp), %eax
	leal	-1(%rax), %edx
	movl	%edx, 12(%rbp)
.L1703:
	cmpl	$1, %eax
	jne	.L1698
	movq	0(%rbp), %rax
	movq	%rbp, %rdi
	call	*24(%rax)
	jmp	.L1698
	.p2align 4,,10
	.p2align 3
.L1999:
	movq	0(%rbp), %rax
	movq	%rbp, %rdi
	call	*16(%rax)
	testq	%rbx, %rbx
	jne	.L2056
	movl	12(%rbp), %eax
	leal	-1(%rax), %edx
	movl	%edx, 12(%rbp)
.L1695:
	cmpl	$1, %eax
	jne	.L1690
	movq	0(%rbp), %rax
	movq	%rbp, %rdi
	call	*24(%rax)
	jmp	.L1690
	.p2align 4,,10
	.p2align 3
.L1997:
	movq	0(%rbp), %rax
	movq	%rbp, %rdi
	call	*16(%rax)
	testq	%rbx, %rbx
	jne	.L2057
	movl	12(%rbp), %eax
	leal	-1(%rax), %edx
	movl	%edx, 12(%rbp)
.L1688:
	cmpl	$1, %eax
	jne	.L1683
	movq	0(%rbp), %rax
	movq	%rbp, %rdi
	call	*24(%rax)
	jmp	.L1683
	.p2align 4,,10
	.p2align 3
.L1995:
	movq	0(%rbp), %rax
	movq	%rbp, %rdi
	call	*16(%rax)
	testq	%rbx, %rbx
	jne	.L2058
	movl	12(%rbp), %eax
	leal	-1(%rax), %edx
	movl	%edx, 12(%rbp)
.L1680:
	cmpl	$1, %eax
	jne	.L1675
	movq	0(%rbp), %rax
	movq	%rbp, %rdi
	call	*24(%rax)
	jmp	.L1675
	.p2align 4,,10
	.p2align 3
.L1994:
	movl	$-1, %eax
	lock xaddl	%eax, 8(%rbp)
	jmp	.L1677
	.p2align 4,,10
	.p2align 3
.L1992:
	movl	$-1, %eax
	lock xaddl	%eax, 8(%rbp)
	jmp	.L1670
	.p2align 4,,10
	.p2align 3
.L1990:
	movl	$-1, %eax
	lock xaddl	%eax, 8(%rbp)
	jmp	.L1662
	.p2align 4,,10
	.p2align 3
.L2000:
	movl	$-1, %eax
	lock xaddl	%eax, 8(%rbp)
	jmp	.L1700
	.p2align 4,,10
	.p2align 3
.L1998:
	movl	$-1, %eax
	lock xaddl	%eax, 8(%rbp)
	jmp	.L1692
	.p2align 4,,10
	.p2align 3
.L1996:
	movl	$-1, %eax
	lock xaddl	%eax, 8(%rbp)
	jmp	.L1685
	.p2align 4,,10
	.p2align 3
.L1987:
	lock addl	$1, 8(%rax)
	jmp	.L1500
	.p2align 4,,10
	.p2align 3
.L1988:
	lock addl	$1, 8(%rdx)
	movq	192(%rsp), %rax
	jmp	.L1504
	.p2align 4,,10
	.p2align 3
.L1552:
	lock addq	$1, 184(%rbx)
	leaq	48(%rbx), %rbp
	movq	%rbp, %rdi
	call	pthread_mutex_lock@PLT
	cmpq	$0, 200(%rbx)
	movq	$0, (%r12)
	je	.L1557
	movq	200(%rbx), %rax
	movq	%r12, (%rax)
	movq	%r12, 200(%rbx)
.L1558:
	movq	136(%rbx), %rax
	orq	$1, %rax
	movq	%rax, 136(%rbx)
	cmpq	$1, %rax
	je	.L1559
	movq	%rbp, %rdi
	call	pthread_mutex_unlock@PLT
	leaq	88(%rbx), %rdi
	call	pthread_cond_signal@PLT
	jmp	.L1529
.L1559:
	cmpb	$0, 176(%rbx)
	jne	.L1561
	movq	144(%rbx), %rax
	testq	%rax, %rax
	je	.L1561
	movb	$1, 176(%rbx)
	leaq	88(%rax), %rdx
	movl	$3, %esi
	leaq	128(%rsp), %rcx
	movq	%rdx, 132(%rsp)
	movl	88(%rax), %edx
	movl	$-2147483639, 128(%rsp)
	movl	96(%rax), %edi
	call	epoll_ctl@PLT
.L1561:
	movq	%rbp, %rdi
	jmp	.L1971
	.p2align 4,,10
	.p2align 3
.L2038:
	movq	16(%rsp), %rbx
	movq	24(%rsp), %rbp
	cmpb	$0, 40(%rbx)
	je	.L1628
	data16	leaq	_ZN4asio6detail15keyword_tss_ptrINS0_10call_stackINS0_15task_io_serviceENS0_27task_io_service_thread_infoEE7contextEE6value_E@tlsgd(%rip), %rdi
	.value	0x6666
	rex64
	call	__tls_get_addr@PLT
	movq	(%rax), %rax
	testq	%rax, %rax
	jne	.L1631
	jmp	.L1628
	.p2align 4,,10
	.p2align 3
.L1629:
	movq	16(%rax), %rax
	testq	%rax, %rax
	je	.L1628
.L1631:
	cmpq	(%rax), %rbx
	jne	.L1629
	movq	8(%rax), %rax
	testq	%rax, %rax
	je	.L1628
	addq	$1, 24(%rax)
	cmpq	$0, 16(%rax)
	movq	$0, 0(%rbp)
	je	.L1632
	movq	16(%rax), %rdx
	movq	%rbp, (%rdx)
	movq	%rbp, 16(%rax)
	jmp	.L1627
.L1628:
	lock addq	$1, 184(%rbx)
	leaq	48(%rbx), %r12
	movq	%r12, %rdi
	call	pthread_mutex_lock@PLT
	cmpq	$0, 200(%rbx)
	movq	$0, 0(%rbp)
	je	.L1633
	movq	200(%rbx), %rax
	movq	%rbp, (%rax)
	movq	%rbp, 200(%rbx)
.L1634:
	movq	136(%rbx), %rax
	orq	$1, %rax
	movq	%rax, 136(%rbx)
	cmpq	$1, %rax
	je	.L1635
	movq	%r12, %rdi
	call	pthread_mutex_unlock@PLT
	leaq	88(%rbx), %rdi
	call	pthread_cond_signal@PLT
	jmp	.L1627
	.p2align 4,,10
	.p2align 3
.L2037:
	movq	88(%rdi), %rbx
	jmp	.L1623
.L2044:
	movl	$-1, %eax
	lock xaddl	%eax, 12(%rbp)
	jmp	.L1710
.L2047:
	movl	$-1, %eax
	lock xaddl	%eax, 12(%rbp)
	jmp	.L1733
.L2045:
	movl	$-1, %eax
	lock xaddl	%eax, 12(%rbp)
	jmp	.L1718
.L2046:
	movl	$-1, %eax
	lock xaddl	%eax, 12(%rbp)
	jmp	.L1725
.L1976:
	movq	(%r14), %rax
	movq	%r14, %rdi
	call	*24(%rax)
	jmp	.L1467
.L1985:
	movq	0(%rbp), %rax
	movq	%rbp, %rdi
	call	*24(%rax)
	jmp	.L1490
.L1982:
	movq	(%r14), %rax
	movq	%r14, %rdi
	call	*24(%rax)
	jmp	.L1482
.L1979:
	movq	(%r14), %rax
	movq	%r14, %rdi
	call	*24(%rax)
	jmp	.L1475
.L2012:
	movq	(%r12), %rax
	movq	%r12, %rdi
	call	*24(%rax)
	jmp	.L1736
.L2018:
	movq	(%r12), %rax
	movq	%r12, %rdi
	call	*24(%rax)
	jmp	.L1751
.L2015:
	movq	(%r12), %rax
	movq	%r12, %rdi
	call	*24(%rax)
	jmp	.L1744
.L2021:
	movq	0(%rbp), %rax
	movq	%rbp, %rdi
	call	*24(%rax)
	jmp	.L1759
.L2049:
	movl	$-1, %eax
	lock xaddl	%eax, 8(%rdi)
	jmp	.L1571
.L2032:
	movl	$-1, %eax
	lock xaddl	%eax, 8(%r12)
	jmp	.L1608
.L2034:
	movl	$-1, %eax
	lock xaddl	%eax, 8(%rbp)
	jmp	.L1616
.L2051:
	movl	$-1, %eax
	lock xaddl	%eax, 8(%r15)
	jmp	.L1579
.L1633:
	movq	%rbp, %xmm0
	punpcklqdq	%xmm0, %xmm0
	movups	%xmm0, 192(%rbx)
	jmp	.L1634
.L1625:
	movq	%rbx, 88(%rdi)
	jmp	.L1626
.L2042:
	movq	0(%rbp), %rax
	movq	%rbp, %rdi
	call	*16(%rax)
	testq	%rbx, %rbx
	jne	.L2059
	movl	12(%rbp), %eax
	leal	-1(%rax), %edx
	movl	%edx, 12(%rbp)
.L1654:
	cmpl	$1, %eax
	jne	.L1649
	movq	0(%rbp), %rax
	movq	%rbp, %rdi
	call	*24(%rax)
	jmp	.L1649
.L2040:
	movq	(%r12), %rax
	movq	%r12, %rdi
	call	*16(%rax)
	testq	%rbx, %rbx
	jne	.L2060
	movl	12(%r12), %eax
	leal	-1(%rax), %edx
	movl	%edx, 12(%r12)
.L1646:
	cmpl	$1, %eax
	jne	.L1641
	movq	(%r12), %rax
	movq	%r12, %rdi
	call	*24(%rax)
	jmp	.L1641
.L2055:
	movl	$-1, %eax
	lock xaddl	%eax, 12(%rbp)
	jmp	.L1703
.L2053:
	movl	$-1, %eax
	lock xaddl	%eax, 12(%rbp)
	jmp	.L1673
.L2058:
	movl	$-1, %eax
	lock xaddl	%eax, 12(%rbp)
	jmp	.L1680
.L2057:
	movl	$-1, %eax
	lock xaddl	%eax, 12(%rbp)
	jmp	.L1688
.L2056:
	movl	$-1, %eax
	lock xaddl	%eax, 12(%rbp)
	jmp	.L1695
.L2054:
	movl	$-1, %eax
	lock xaddl	%eax, 12(%rbp)
	jmp	.L1665
.L2041:
	movl	$-1, %eax
	lock xaddl	%eax, 8(%rbp)
	jmp	.L1651
.L2039:
	movl	$-1, %eax
	lock xaddl	%eax, 8(%r12)
	jmp	.L1643
.L2031:
	movq	0(%rbp), %rax
	movq	%rbp, %rdi
	call	*16(%rax)
	testq	%rbx, %rbx
	jne	.L2061
	movl	12(%rbp), %eax
	leal	-1(%rax), %edx
	movl	%edx, 12(%rbp)
.L1603:
	cmpl	$1, %eax
	jne	.L1598
	movq	0(%rbp), %rax
	movq	%rbp, %rdi
	call	*24(%rax)
	jmp	.L1598
.L2029:
	movq	0(%rbp), %rax
	movq	%rbp, %rdi
	call	*16(%rax)
	testq	%rbx, %rbx
	jne	.L2062
	movl	12(%rbp), %eax
	leal	-1(%rax), %edx
	movl	%edx, 12(%rbp)
.L1595:
	cmpl	$1, %eax
	jne	.L1590
	movq	0(%rbp), %rax
	movq	%rbp, %rdi
	call	*24(%rax)
	jmp	.L1590
.L1635:
	cmpb	$0, 176(%rbx)
	jne	.L1637
	movq	144(%rbx), %rax
	testq	%rax, %rax
	je	.L1637
	movb	$1, 176(%rbx)
	leaq	88(%rax), %rdx
	movl	$3, %esi
	leaq	128(%rsp), %rcx
	movq	%rdx, 132(%rsp)
	movl	88(%rax), %edx
	movl	$-2147483639, 128(%rsp)
	movl	96(%rax), %edi
	call	epoll_ctl@PLT
.L1637:
	movq	%r12, %rdi
	call	pthread_mutex_unlock@PLT
	jmp	.L1627
.L2043:
	movzbl	104(%rbp), %edx
	movb	%dl, 0(%rbp)
	movq	%rbp, (%rax)
	jmp	.L1529
.L2030:
	movl	$-1, %eax
	lock xaddl	%eax, 8(%rbp)
	jmp	.L1600
.L2028:
	movl	$-1, %eax
	lock xaddl	%eax, 8(%rbp)
	jmp	.L1592
.L1550:
	movq	%rbp, %xmm0
	punpcklqdq	%xmm0, %xmm0
	movups	%xmm0, 88(%r12)
	jmp	.L1551
.L2020:
	movl	$-1, %eax
	lock xaddl	%eax, 12(%rbp)
	jmp	.L1764
.L1975:
	movl	$-1, %eax
	lock xaddl	%eax, 12(%r14)
	jmp	.L1472
.L1984:
	movl	$-1, %eax
	lock xaddl	%eax, 12(%rbp)
	jmp	.L1495
.L1981:
	movl	$-1, %eax
	lock xaddl	%eax, 12(%r14)
	jmp	.L1487
.L1978:
	movl	$-1, %eax
	lock xaddl	%eax, 12(%r14)
	jmp	.L1480
.L2011:
	movl	$-1, %eax
	lock xaddl	%eax, 12(%r12)
	jmp	.L1741
.L2017:
	movl	$-1, %eax
	lock xaddl	%eax, 12(%r12)
	jmp	.L1756
.L2014:
	movl	$-1, %eax
	lock xaddl	%eax, 12(%r12)
	jmp	.L1749
.L1557:
	movq	%r12, %xmm0
	punpcklqdq	%xmm0, %xmm0
	movups	%xmm0, 192(%rbx)
	jmp	.L1558
.L2036:
	movzbl	104(%rbp), %edx
	movb	%dl, 0(%rbp)
	movq	%rbp, (%rax)
	jmp	.L1620
.L2026:
	movzbl	104(%r15), %edx
	movb	%dl, (%r15)
	movq	%r15, (%rax)
	jmp	.L1585
.L2060:
	movl	$-1, %eax
	lock xaddl	%eax, 12(%r12)
	jmp	.L1646
.L2059:
	movl	$-1, %eax
	lock xaddl	%eax, 12(%rbp)
	jmp	.L1654
.L2061:
	movl	$-1, %eax
	lock xaddl	%eax, 12(%rbp)
	jmp	.L1603
.L2062:
	movl	$-1, %eax
	lock xaddl	%eax, 12(%rbp)
	jmp	.L1595
.L1556:
	movq	%r12, %xmm0
	punpcklqdq	%xmm0, %xmm0
	movups	%xmm0, 8(%rax)
	jmp	.L1529
.L2033:
	movl	$-1, %eax
	lock xaddl	%eax, 12(%r12)
	jmp	.L1611
.L2052:
	movl	$-1, %eax
	lock xaddl	%eax, 12(%r15)
	jmp	.L1582
.L2035:
	movl	$-1, %eax
	lock xaddl	%eax, 12(%rbp)
	jmp	.L1619
.L2050:
	movl	$-1, %eax
	lock xaddl	%eax, 12(%rdi)
	jmp	.L1574
.L1632:
	movq	%rbp, %xmm0
	punpcklqdq	%xmm0, %xmm0
	movups	%xmm0, 8(%rax)
	jmp	.L1627
.L2023:
	call	__stack_chk_fail@PLT
.L2027:
.LEHB61:
	call	_ZSt25__throw_bad_function_callv@PLT
.LEHE61:
.L2048:
.LEHB62:
	call	_ZSt25__throw_bad_function_callv@PLT
.LEHE62:
.L1776:
	movq	%rax, %rbx
	jmp	.L1624
.L1774:
	movq	%rax, %rbx
	jmp	.L1659
.L1777:
	movq	%rax, %rbx
	jmp	.L1564
.L1769:
	movq	%rax, %rbx
	jmp	.L1463
.L1772:
	movq	%rax, %rbx
	jmp	.L1660
.L1775:
	movq	%rax, %rbx
	jmp	.L1536
.L1770:
	movq	%rax, %rbx
	jmp	.L1505
.L1771:
	movq	%rax, %rbx
	jmp	.L1515
.L1768:
	movq	%rax, %rbx
	jmp	.L1457
.L1773:
	movq	%rax, %rbx
	jmp	.L1521
	.section	.gcc_except_table
.LLSDA9348:
	.byte	0xff
	.byte	0xff
	.byte	0x1
	.uleb128 .LLSDACSE9348-.LLSDACSB9348
.LLSDACSB9348:
	.uleb128 .LEHB51-.LFB9348
	.uleb128 .LEHE51-.LEHB51
	.uleb128 .L1768-.LFB9348
	.uleb128 0
	.uleb128 .LEHB52-.LFB9348
	.uleb128 .LEHE52-.LEHB52
	.uleb128 .L1769-.LFB9348
	.uleb128 0
	.uleb128 .LEHB53-.LFB9348
	.uleb128 .LEHE53-.LEHB53
	.uleb128 .L1770-.LFB9348
	.uleb128 0
	.uleb128 .LEHB54-.LFB9348
	.uleb128 .LEHE54-.LEHB54
	.uleb128 .L1771-.LFB9348
	.uleb128 0
	.uleb128 .LEHB55-.LFB9348
	.uleb128 .LEHE55-.LEHB55
	.uleb128 .L1773-.LFB9348
	.uleb128 0
	.uleb128 .LEHB56-.LFB9348
	.uleb128 .LEHE56-.LEHB56
	.uleb128 .L1772-.LFB9348
	.uleb128 0
	.uleb128 .LEHB57-.LFB9348
	.uleb128 .LEHE57-.LEHB57
	.uleb128 .L1775-.LFB9348
	.uleb128 0
	.uleb128 .LEHB58-.LFB9348
	.uleb128 .LEHE58-.LEHB58
	.uleb128 .L1777-.LFB9348
	.uleb128 0
	.uleb128 .LEHB59-.LFB9348
	.uleb128 .LEHE59-.LEHB59
	.uleb128 .L1776-.LFB9348
	.uleb128 0
	.uleb128 .LEHB60-.LFB9348
	.uleb128 .LEHE60-.LEHB60
	.uleb128 .L1774-.LFB9348
	.uleb128 0
	.uleb128 .LEHB61-.LFB9348
	.uleb128 .LEHE61-.LEHB61
	.uleb128 .L1776-.LFB9348
	.uleb128 0
	.uleb128 .LEHB62-.LFB9348
	.uleb128 .LEHE62-.LEHB62
	.uleb128 .L1774-.LFB9348
	.uleb128 0
.LLSDACSE9348:
	.text
	.cfi_endproc
	.section	.text.unlikely
	.cfi_startproc
	.cfi_personality 0x9b,DW.ref.__gxx_personality_v0
	.cfi_lsda 0x1b,.LLSDAC9348
	.type	_ZN4asio6detail18completion_handlerINS0_17rewrapped_handlerINS0_7binder1INS0_15wrapped_handlerINS_10io_service6strandEZN7asiopal8Executor5StartERKNSt6chrono10time_pointINS9_3_V212steady_clockENS9_8durationIlSt5ratioILl1ELl1000000000EEEEEERKSt8functionIFvvEEEUlRKSt10error_codeE_NS0_26is_continuation_if_runningEEESP_EESS_EEE11do_completeEPNS0_15task_io_serviceEPNS0_25task_io_service_operationESR_m.cold, @function
_ZN4asio6detail18completion_handlerINS0_17rewrapped_handlerINS0_7binder1INS0_15wrapped_handlerINS_10io_service6strandEZN7asiopal8Executor5StartERKNSt6chrono10time_pointINS9_3_V212steady_clockENS9_8durationIlSt5ratioILl1ELl1000000000EEEEEERKSt8functionIFvvEEEUlRKSt10error_codeE_NS0_26is_continuation_if_runningEEESP_EESS_EEE11do_completeEPNS0_15task_io_serviceEPNS0_25task_io_service_operationESR_m.cold:
.LFSB9348:
.L1624:
	.cfi_def_cfa_offset 720
	.cfi_offset 3, -56
	.cfi_offset 6, -48
	.cfi_offset 12, -40
	.cfi_offset 13, -32
	.cfi_offset 14, -24
	.cfi_offset 15, -16
	sfence
	movq	%r14, %rdi
	call	_ZZN7asiopal8Executor5StartERKNSt6chrono10time_pointINS1_3_V212steady_clockENS1_8durationIlSt5ratioILl1ELl1000000000EEEEEERKSt8functionIFvvEEENUlRKSt10error_codeE_D1Ev
.L1567:
	leaq	128(%rsp), %rdi
	call	_ZN4asio6detail18completion_handlerINS0_7binder1IZN7asiopal8Executor5StartERKNSt6chrono10time_pointINS5_3_V212steady_clockENS5_8durationIlSt5ratioILl1ELl1000000000EEEEEERKSt8functionIFvvEEEUlRKSt10error_codeE_SL_EEE3ptr5resetEv
	leaq	16(%rsp), %rdi
	call	_ZN4asio6detail14strand_service16on_dispatch_exitD1Ev@PLT
	data16	leaq	_ZN4asio6detail15keyword_tss_ptrINS0_10call_stackINS0_14strand_service11strand_implEhE7contextEE6value_E@tlsgd(%rip), %rdi
	.value	0x6666
	rex64
	call	__tls_get_addr@PLT
	movq	112(%rsp), %rdx
	movq	%rdx, (%rax)
.L1539:
	leaq	64(%rsp), %rdi
	call	_ZN4asio6detail18completion_handlerINS0_7binder1IZN7asiopal8Executor5StartERKNSt6chrono10time_pointINS5_3_V212steady_clockENS5_8durationIlSt5ratioILl1ELl1000000000EEEEEERKSt8functionIFvvEEEUlRKSt10error_codeE_SL_EEE3ptr5resetEv
.L1660:
	movq	%r13, %rdi
	call	_ZZN7asiopal8Executor5StartERKNSt6chrono10time_pointINS1_3_V212steady_clockENS1_8durationIlSt5ratioILl1ELl1000000000EEEEEERKSt8functionIFvvEEENUlRKSt10error_codeE_D1Ev
.L1524:
	leaq	224(%rsp), %rdi
	call	_ZZN7asiopal8Executor5StartERKNSt6chrono10time_pointINS1_3_V212steady_clockENS1_8durationIlSt5ratioILl1ELl1000000000EEEEEERKSt8functionIFvvEEENUlRKSt10error_codeE_D1Ev
.L1972:
	leaq	160(%rsp), %rdi
	movq	%rbx, %rbp
	call	_ZZN7asiopal8Executor5StartERKNSt6chrono10time_pointINS1_3_V212steady_clockENS1_8durationIlSt5ratioILl1ELl1000000000EEEEEERKSt8functionIFvvEEENUlRKSt10error_codeE_D1Ev
.L1512:
	sfence
	leaq	560(%rsp), %rdi
	call	_ZZN7asiopal8Executor5StartERKNSt6chrono10time_pointINS1_3_V212steady_clockENS1_8durationIlSt5ratioILl1ELl1000000000EEEEEERKSt8functionIFvvEEENUlRKSt10error_codeE_D1Ev
	movq	%r12, %rdi
	call	_ZZN7asiopal8Executor5StartERKNSt6chrono10time_pointINS1_3_V212steady_clockENS1_8durationIlSt5ratioILl1ELl1000000000EEEEEERKSt8functionIFvvEEENUlRKSt10error_codeE_D1Ev
.L1460:
	leaq	32(%rsp), %rdi
	call	_ZN4asio6detail18completion_handlerINS0_17rewrapped_handlerINS0_7binder1INS0_15wrapped_handlerINS_10io_service6strandEZN7asiopal8Executor5StartERKNSt6chrono10time_pointINS9_3_V212steady_clockENS9_8durationIlSt5ratioILl1ELl1000000000EEEEEERKSt8functionIFvvEEEUlRKSt10error_codeE_NS0_26is_continuation_if_runningEEESP_EESS_EEE3ptr5resetEv
	movq	%rbp, %rdi
.LEHB63:
	call	_Unwind_Resume@PLT
.LEHE63:
.L1659:
	sfence
	leaq	384(%rsp), %r13
	jmp	.L1660
.L1564:
	movq	336(%rsp), %rax
	testq	%rax, %rax
	je	.L1565
	movl	$3, %edx
	movq	%r14, %rsi
	movq	%r14, %rdi
	call	*%rax
.L1565:
	movq	312(%rsp), %rdi
	testq	%rdi, %rdi
	je	.L1567
	call	_ZNSt16_Sp_counted_baseILN9__gnu_cxx12_Lock_policyE2EE10_M_releaseEv@PLT
	jmp	.L1567
.L1463:
	movq	592(%rsp), %rax
	testq	%rax, %rax
	je	.L1464
	movl	$3, %edx
	movq	%rbp, %rsi
	movq	%rbp, %rdi
	call	*%rax
.L1464:
	movq	568(%rsp), %rdi
	testq	%rdi, %rdi
	je	.L1465
	call	_ZNSt16_Sp_counted_baseILN9__gnu_cxx12_Lock_policyE2EE10_M_releaseEv@PLT
.L1465:
	leaq	480(%rsp), %rdi
	call	_ZZN7asiopal8Executor5StartERKNSt6chrono10time_pointINS1_3_V212steady_clockENS1_8durationIlSt5ratioILl1ELl1000000000EEEEEERKSt8functionIFvvEEENUlRKSt10error_codeE_D1Ev
.L1973:
	movq	%rbx, %rbp
	jmp	.L1460
.L1536:
	movq	56(%rbp), %rax
	testq	%rax, %rax
	je	.L1537
	movl	$3, %edx
	movq	%r15, %rsi
	movq	%r15, %rdi
	call	*%rax
.L1537:
	movq	32(%rbp), %rdi
	testq	%rdi, %rdi
	je	.L1539
	call	_ZNSt16_Sp_counted_baseILN9__gnu_cxx12_Lock_policyE2EE10_M_releaseEv@PLT
	jmp	.L1539
.L1505:
	movq	192(%rsp), %rax
	testq	%rax, %rax
	je	.L1506
	movl	$3, %edx
	movq	%rbp, %rsi
	movq	%rbp, %rdi
	call	*%rax
.L1506:
	movq	168(%rsp), %rdi
	testq	%rdi, %rdi
	je	.L1508
	call	_ZNSt16_Sp_counted_baseILN9__gnu_cxx12_Lock_policyE2EE10_M_releaseEv@PLT
.L1508:
	movq	%rbx, %rbp
	jmp	.L1512
.L1515:
	movq	256(%rsp), %rax
	testq	%rax, %rax
	je	.L1516
	movl	$3, %edx
	movq	%rbp, %rsi
	movq	%rbp, %rdi
	call	*%rax
.L1516:
	movq	232(%rsp), %rdi
	testq	%rdi, %rdi
	je	.L1972
	call	_ZNSt16_Sp_counted_baseILN9__gnu_cxx12_Lock_policyE2EE10_M_releaseEv@PLT
	jmp	.L1972
.L1457:
	movq	512(%rsp), %rax
	testq	%rax, %rax
	je	.L1458
	movl	$3, %edx
	movq	%rbp, %rsi
	movq	%rbp, %rdi
	call	*%rax
.L1458:
	movq	488(%rsp), %rdi
	testq	%rdi, %rdi
	je	.L1973
	call	_ZNSt16_Sp_counted_baseILN9__gnu_cxx12_Lock_policyE2EE10_M_releaseEv@PLT
	jmp	.L1973
.L1521:
	movq	416(%rsp), %rax
	testq	%rax, %rax
	je	.L1522
	movl	$3, %edx
	movq	%rbp, %rsi
	movq	%rbp, %rdi
	call	*%rax
.L1522:
	movq	392(%rsp), %rdi
	testq	%rdi, %rdi
	je	.L1524
	call	_ZNSt16_Sp_counted_baseILN9__gnu_cxx12_Lock_policyE2EE10_M_releaseEv@PLT
	jmp	.L1524
	.cfi_endproc
.LFE9348:
	.section	.gcc_except_table
.LLSDAC9348:
	.byte	0xff
	.byte	0xff
	.byte	0x1
	.uleb128 .LLSDACSEC9348-.LLSDACSBC9348
.LLSDACSBC9348:
	.uleb128 .LEHB63-.LCOLDB34
	.uleb128 .LEHE63-.LEHB63
	.uleb128 0
	.uleb128 0
.LLSDACSEC9348:
	.section	.text.unlikely
	.text
	.size	_ZN4asio6detail18completion_handlerINS0_17rewrapped_handlerINS0_7binder1INS0_15wrapped_handlerINS_10io_service6strandEZN7asiopal8Executor5StartERKNSt6chrono10time_pointINS9_3_V212steady_clockENS9_8durationIlSt5ratioILl1ELl1000000000EEEEEERKSt8functionIFvvEEEUlRKSt10error_codeE_NS0_26is_continuation_if_runningEEESP_EESS_EEE11do_completeEPNS0_15task_io_serviceEPNS0_25task_io_service_operationESR_m, .-_ZN4asio6detail18completion_handlerINS0_17rewrapped_handlerINS0_7binder1INS0_15wrapped_handlerINS_10io_service6strandEZN7asiopal8Executor5StartERKNSt6chrono10time_pointINS9_3_V212steady_clockENS9_8durationIlSt5ratioILl1ELl1000000000EEEEEERKSt8functionIFvvEEEUlRKSt10error_codeE_NS0_26is_continuation_if_runningEEESP_EESS_EEE11do_completeEPNS0_15task_io_serviceEPNS0_25task_io_service_operationESR_m
	.section	.text.unlikely
	.size	_ZN4asio6detail18completion_handlerINS0_17rewrapped_handlerINS0_7binder1INS0_15wrapped_handlerINS_10io_service6strandEZN7asiopal8Executor5StartERKNSt6chrono10time_pointINS9_3_V212steady_clockENS9_8durationIlSt5ratioILl1ELl1000000000EEEEEERKSt8functionIFvvEEEUlRKSt10error_codeE_NS0_26is_continuation_if_runningEEESP_EESS_EEE11do_completeEPNS0_15task_io_serviceEPNS0_25task_io_service_operationESR_m.cold, .-_ZN4asio6detail18completion_handlerINS0_17rewrapped_handlerINS0_7binder1INS0_15wrapped_handlerINS_10io_service6strandEZN7asiopal8Executor5StartERKNSt6chrono10time_pointINS9_3_V212steady_clockENS9_8durationIlSt5ratioILl1ELl1000000000EEEEEERKSt8functionIFvvEEEUlRKSt10error_codeE_NS0_26is_continuation_if_runningEEESP_EESS_EEE11do_completeEPNS0_15task_io_serviceEPNS0_25task_io_service_operationESR_m.cold
.LCOLDE34:
	.text
.LHOTE34:
	.section	.text.unlikely
.LCOLDB35:
	.text
.LHOTB35:
	.p2align 4
	.type	_ZN4asio6detail12wait_handlerINS0_15wrapped_handlerINS_10io_service6strandEZN7asiopal8Executor5StartERKNSt6chrono10time_pointINS7_3_V212steady_clockENS7_8durationIlSt5ratioILl1ELl1000000000EEEEEERKSt8functionIFvvEEEUlRKSt10error_codeE_NS0_26is_continuation_if_runningEEEE11do_completeEPNS0_15task_io_serviceEPNS0_25task_io_service_operationESP_m, @function
_ZN4asio6detail12wait_handlerINS0_15wrapped_handlerINS_10io_service6strandEZN7asiopal8Executor5StartERKNSt6chrono10time_pointINS7_3_V212steady_clockENS7_8durationIlSt5ratioILl1ELl1000000000EEEEEERKSt8functionIFvvEEEUlRKSt10error_codeE_NS0_26is_continuation_if_runningEEEE11do_completeEPNS0_15task_io_serviceEPNS0_25task_io_service_operationESP_m:
.LFB8867:
	.cfi_startproc
	.cfi_personality 0x9b,DW.ref.__gxx_personality_v0
	.cfi_lsda 0x1b,.LLSDA8867
	pushq	%r15
	.cfi_def_cfa_offset 16
	.cfi_offset 15, -16
	pxor	%xmm0, %xmm0
	pushq	%r14
	.cfi_def_cfa_offset 24
	.cfi_offset 14, -24
	pushq	%r13
	.cfi_def_cfa_offset 32
	.cfi_offset 13, -32
	pushq	%r12
	.cfi_def_cfa_offset 40
	.cfi_offset 12, -40
	pushq	%rbp
	.cfi_def_cfa_offset 48
	.cfi_offset 6, -48
	movq	%rdi, %rbp
	pushq	%rbx
	.cfi_def_cfa_offset 56
	.cfi_offset 3, -56
	movq	%rsi, %rbx
	subq	$904, %rsp
	.cfi_def_cfa_offset 960
	movdqu	56(%rsi), %xmm3
	movdqu	40(%rsi), %xmm2
	movq	%fs:40, %rax
	movq	%rax, 888(%rsp)
	xorl	%eax, %eax
	leaq	40(%rsi), %rax
	movq	%rsi, 24(%rsp)
	movq	%rax, 16(%rsp)
	movq	88(%rsi), %rax
	movq	%rsi, 32(%rsp)
	movq	$0, 512(%rsp)
	movaps	%xmm2, 464(%rsp)
	movaps	%xmm3, 480(%rsp)
	movups	%xmm0, 56(%rsi)
	testq	%rax, %rax
	je	.L2064
	leaq	496(%rsp), %r12
	leaq	72(%rsi), %rsi
	movl	$2, %edx
	movq	%r12, %rdi
.LEHB64:
	call	*%rax
.LEHE64:
	movdqu	104(%rbx), %xmm5
	movdqu	88(%rbx), %xmm4
	pxor	%xmm0, %xmm0
	leaq	464(%rsp), %rax
	movdqu	24(%rbx), %xmm6
	movq	32(%rsp), %r12
	movq	%rax, 16(%rsp)
	movaps	%xmm4, 512(%rsp)
	movaps	%xmm5, 528(%rsp)
	movups	%xmm0, 104(%rbx)
	movaps	%xmm6, 544(%rsp)
	testq	%r12, %r12
	jne	.L2065
.L2066:
	movq	24(%rsp), %r12
	testq	%r12, %r12
	je	.L2086
	data16	leaq	_ZN4asio6detail15keyword_tss_ptrINS0_10call_stackINS0_15task_io_serviceENS0_27task_io_service_thread_infoEE7contextEE6value_E@tlsgd(%rip), %rdi
	.value	0x6666
	rex64
	call	__tls_get_addr@PLT
	movq	(%rax), %rax
	testq	%rax, %rax
	je	.L2087
	movq	8(%rax), %rax
	testq	%rax, %rax
	je	.L2087
	cmpq	$0, (%rax)
	je	.L2815
.L2087:
	movq	%r12, %rdi
	call	_ZdlPv@PLT
.L2088:
	movq	$0, 24(%rsp)
.L2086:
	testq	%rbp, %rbp
	je	.L2089
	movdqa	480(%rsp), %xmm7
	movq	488(%rsp), %rax
	movaps	%xmm7, 560(%rsp)
	testq	%rax, %rax
	je	.L2090
	cmpq	$0, _ZL28__gthrw___pthread_key_createPjPFvPvE@GOTPCREL(%rip)
	jne	.L2816
	addl	$1, 8(%rax)
.L2090:
	movq	512(%rsp), %rax
	movq	$0, 592(%rsp)
	testq	%rax, %rax
	je	.L2092
	leaq	576(%rsp), %rbp
	leaq	496(%rsp), %rsi
	movl	$2, %edx
	movq	%rbp, %rdi
.LEHB65:
	call	*%rax
.LEHE65:
	movdqa	512(%rsp), %xmm7
	movq	512(%rsp), %rax
	movaps	%xmm7, 592(%rsp)
.L2092:
	movdqa	528(%rsp), %xmm1
	movq	536(%rsp), %rdx
	movaps	%xmm1, 608(%rsp)
	testq	%rdx, %rdx
	je	.L2094
	cmpq	$0, _ZL28__gthrw___pthread_key_createPjPFvPvE@GOTPCREL(%rip)
	jne	.L2817
	addl	$1, 8(%rdx)
.L2094:
	movdqa	480(%rsp), %xmm5
	pxor	%xmm0, %xmm0
	movdqa	464(%rsp), %xmm4
	movq	$0, 672(%rsp)
	movaps	%xmm0, 480(%rsp)
	movaps	%xmm4, 624(%rsp)
	movaps	%xmm5, 640(%rsp)
	testq	%rax, %rax
	je	.L2101
	leaq	656(%rsp), %rbp
	leaq	496(%rsp), %rsi
	movl	$2, %edx
	movq	%rbp, %rdi
.LEHB66:
	call	*%rax
.LEHE66:
	movdqa	512(%rsp), %xmm2
	movq	512(%rsp), %rax
	movaps	%xmm2, 672(%rsp)
.L2101:
	movdqa	528(%rsp), %xmm6
	movq	592(%rsp), %rcx
	pxor	%xmm0, %xmm0
	movq	$0, 752(%rsp)
	movdqa	560(%rsp), %xmm2
	movaps	%xmm0, 528(%rsp)
	movdqa	544(%rsp), %xmm7
	movaps	%xmm6, 688(%rsp)
	movaps	%xmm7, 704(%rsp)
	movaps	%xmm2, 720(%rsp)
	movaps	%xmm0, 560(%rsp)
	testq	%rcx, %rcx
	je	.L2104
	leaq	736(%rsp), %rbp
	leaq	576(%rsp), %rsi
	movl	$2, %edx
	movq	%rbp, %rdi
.LEHB67:
	call	*%rcx
.LEHE67:
	movdqa	592(%rsp), %xmm3
	movq	672(%rsp), %rax
	movaps	%xmm3, 752(%rsp)
.L2104:
	movdqa	608(%rsp), %xmm3
	pxor	%xmm0, %xmm0
	movdqa	640(%rsp), %xmm4
	movq	$0, 832(%rsp)
	movdqa	624(%rsp), %xmm1
	movaps	%xmm0, 608(%rsp)
	movaps	%xmm3, 768(%rsp)
	movaps	%xmm1, 784(%rsp)
	movaps	%xmm4, 800(%rsp)
	movaps	%xmm0, 640(%rsp)
	testq	%rax, %rax
	je	.L2109
	leaq	816(%rsp), %rbp
	leaq	656(%rsp), %rsi
	movl	$2, %edx
	movq	%rbp, %rdi
.LEHB68:
	call	*%rax
.LEHE68:
	movdqa	672(%rsp), %xmm1
	movaps	%xmm1, 832(%rsp)
.L2109:
	movdqa	688(%rsp), %xmm5
	pxor	%xmm0, %xmm0
	movdqa	704(%rsp), %xmm6
	movaps	%xmm0, 688(%rsp)
	movq	472(%rsp), %rbx
	movaps	%xmm5, 848(%rsp)
	movaps	%xmm6, 864(%rsp)
	data16	leaq	_ZN4asio6detail15keyword_tss_ptrINS0_10call_stackINS0_14strand_service11strand_implEhE7contextEE6value_E@tlsgd(%rip), %rdi
	.value	0x6666
	rex64
	call	__tls_get_addr@PLT
	movq	(%rax), %rax
	testq	%rax, %rax
	jne	.L2115
	jmp	.L2114
	.p2align 4,,10
	.p2align 3
.L2119:
	movq	16(%rax), %rax
	testq	%rax, %rax
	je	.L2114
.L2115:
	cmpq	(%rax), %rbx
	jne	.L2119
	cmpq	$0, 8(%rax)
	je	.L2114
	lfence
	movq	808(%rsp), %rax
	movdqa	800(%rsp), %xmm6
	movaps	%xmm6, 144(%rsp)
	testq	%rax, %rax
	je	.L2121
	cmpq	$0, _ZL28__gthrw___pthread_key_createPjPFvPvE@GOTPCREL(%rip)
	jne	.L2818
	addl	$1, 8(%rax)
.L2121:
	movq	832(%rsp), %rax
	movq	$0, 176(%rsp)
	testq	%rax, %rax
	je	.L2123
	leaq	160(%rsp), %rbp
	leaq	816(%rsp), %rsi
	movl	$2, %edx
	movq	%rbp, %rdi
.LEHB69:
	call	*%rax
.LEHE69:
	movdqa	832(%rsp), %xmm3
	movq	832(%rsp), %rax
	movaps	%xmm3, 176(%rsp)
.L2123:
	movdqa	848(%rsp), %xmm2
	movq	856(%rsp), %rdx
	movaps	%xmm2, 192(%rsp)
	testq	%rdx, %rdx
	je	.L2125
	cmpq	$0, _ZL28__gthrw___pthread_key_createPjPFvPvE@GOTPCREL(%rip)
	jne	.L2819
	addl	$1, 8(%rdx)
.L2125:
	movdqa	144(%rsp), %xmm3
	pxor	%xmm0, %xmm0
	movq	144(%rsp), %rcx
	movq	$0, 240(%rsp)
	movq	152(%rsp), %rdi
	movaps	%xmm0, 144(%rsp)
	movaps	%xmm3, 208(%rsp)
	testq	%rax, %rax
	je	.L2132
	leaq	224(%rsp), %rbp
	leaq	160(%rsp), %rsi
	movl	$2, %edx
	movq	%rbp, %rdi
.LEHB70:
	call	*%rax
.LEHE70:
	movq	176(%rsp), %rax
	movq	208(%rsp), %rcx
	movdqa	176(%rsp), %xmm7
	movq	216(%rsp), %rdi
	movaps	%xmm7, 240(%rsp)
.L2132:
	movq	%rcx, %xmm0
	movq	%rdi, %xmm4
	movdqa	192(%rsp), %xmm7
	movdqa	864(%rsp), %xmm6
	pxor	%xmm1, %xmm1
	punpcklqdq	%xmm4, %xmm0
	movq	192(%rsp), %rdx
	movq	200(%rsp), %rsi
	movq	$0, 400(%rsp)
	movaps	%xmm7, 256(%rsp)
	movaps	%xmm1, 192(%rsp)
	movaps	%xmm6, 272(%rsp)
	movaps	%xmm0, 368(%rsp)
	movaps	%xmm1, 208(%rsp)
	testq	%rax, %rax
	je	.L2135
	leaq	384(%rsp), %rbp
	leaq	224(%rsp), %rsi
	movl	$2, %edx
	movq	%rbp, %rdi
.LEHB71:
	call	*%rax
.LEHE71:
	movq	256(%rsp), %rdx
	movq	264(%rsp), %rsi
	movdqa	240(%rsp), %xmm3
	movaps	%xmm3, 400(%rsp)
.L2135:
	movq	%rdx, %xmm0
	movq	%rsi, %xmm1
	movdqa	272(%rsp), %xmm5
	movq	792(%rsp), %rbx
	punpcklqdq	%xmm1, %xmm0
	movaps	%xmm0, 416(%rsp)
	pxor	%xmm0, %xmm0
	movaps	%xmm0, 256(%rsp)
	movaps	%xmm5, 432(%rsp)
	data16	leaq	_ZN4asio6detail15keyword_tss_ptrINS0_10call_stackINS0_14strand_service11strand_implEhE7contextEE6value_E@tlsgd(%rip), %rdi
	.value	0x6666
	rex64
	call	__tls_get_addr@PLT
	movq	(%rax), %rax
	testq	%rax, %rax
	jne	.L2141
	jmp	.L2140
	.p2align 4,,10
	.p2align 3
.L2146:
	movq	16(%rax), %rax
	testq	%rax, %rax
	je	.L2140
.L2141:
	cmpq	(%rax), %rbx
	jne	.L2146
	cmpq	$0, 8(%rax)
	je	.L2140
	lfence
	movl	432(%rsp), %edx
	testl	%edx, %edx
	je	.L2820
.L2148:
	sfence
.L2150:
	movq	424(%rsp), %rbp
	testq	%rbp, %rbp
	je	.L2279
	movq	_ZL28__gthrw___pthread_key_createPjPFvPvE@GOTPCREL(%rip), %rbx
	testq	%rbx, %rbx
	jne	.L2821
	movl	8(%rbp), %eax
	leal	-1(%rax), %edx
	movl	%edx, 8(%rbp)
.L2283:
	cmpl	$1, %eax
	je	.L2822
.L2279:
	movq	400(%rsp), %rax
	testq	%rax, %rax
	je	.L2287
	leaq	384(%rsp), %rdi
	movl	$3, %edx
	movq	%rdi, %rsi
	call	*%rax
.L2287:
	movq	376(%rsp), %rbp
	testq	%rbp, %rbp
	je	.L2289
	movq	_ZL28__gthrw___pthread_key_createPjPFvPvE@GOTPCREL(%rip), %rbx
	testq	%rbx, %rbx
	jne	.L2823
	movl	8(%rbp), %eax
	leal	-1(%rax), %edx
	movl	%edx, 8(%rbp)
.L2291:
	cmpl	$1, %eax
	je	.L2824
.L2289:
	movq	264(%rsp), %rbp
	testq	%rbp, %rbp
	je	.L2296
	movq	_ZL28__gthrw___pthread_key_createPjPFvPvE@GOTPCREL(%rip), %rbx
	testq	%rbx, %rbx
	jne	.L2825
	movl	8(%rbp), %eax
	leal	-1(%rax), %edx
	movl	%edx, 8(%rbp)
.L2298:
	cmpl	$1, %eax
	je	.L2826
.L2296:
	movq	240(%rsp), %rax
	testq	%rax, %rax
	je	.L2302
	leaq	224(%rsp), %rdi
	movl	$3, %edx
	movq	%rdi, %rsi
	call	*%rax
.L2302:
	movq	216(%rsp), %rbp
	testq	%rbp, %rbp
	je	.L2304
	movq	_ZL28__gthrw___pthread_key_createPjPFvPvE@GOTPCREL(%rip), %rbx
	testq	%rbx, %rbx
	jne	.L2827
	movl	8(%rbp), %eax
	leal	-1(%rax), %edx
	movl	%edx, 8(%rbp)
.L2306:
	cmpl	$1, %eax
	je	.L2828
.L2304:
	movq	200(%rsp), %rbp
	testq	%rbp, %rbp
	je	.L2311
	movq	_ZL28__gthrw___pthread_key_createPjPFvPvE@GOTPCREL(%rip), %rbx
	testq	%rbx, %rbx
	jne	.L2829
	movl	8(%rbp), %eax
	leal	-1(%rax), %edx
	movl	%edx, 8(%rbp)
.L2313:
	cmpl	$1, %eax
	je	.L2830
.L2311:
	movq	176(%rsp), %rax
	testq	%rax, %rax
	je	.L2317
	leaq	160(%rsp), %rdi
	movl	$3, %edx
	movq	%rdi, %rsi
	call	*%rax
.L2317:
	movq	152(%rsp), %rbp
	testq	%rbp, %rbp
	je	.L2319
	movq	_ZL28__gthrw___pthread_key_createPjPFvPvE@GOTPCREL(%rip), %rbx
	testq	%rbx, %rbx
	jne	.L2831
	movl	8(%rbp), %eax
	leal	-1(%rax), %edx
	movl	%edx, 8(%rbp)
.L2321:
	cmpl	$1, %eax
	je	.L2832
.L2319:
	sfence
	jmp	.L2325
	.p2align 4,,10
	.p2align 3
.L2064:
	leaq	464(%rsp), %rax
	movdqu	104(%rsi), %xmm4
	movdqu	24(%rsi), %xmm5
	movq	%rsi, %r12
	movq	%rax, 16(%rsp)
	movaps	%xmm4, 528(%rsp)
	movups	%xmm0, 104(%rsi)
	movaps	%xmm5, 544(%rsp)
.L2065:
	movq	112(%r12), %r13
	testq	%r13, %r13
	je	.L2072
	movq	_ZL28__gthrw___pthread_key_createPjPFvPvE@GOTPCREL(%rip), %rbx
	testq	%rbx, %rbx
	jne	.L2833
	movl	8(%r13), %eax
	leal	-1(%rax), %edx
	movl	%edx, 8(%r13)
.L2074:
	cmpl	$1, %eax
	jne	.L2072
	movq	0(%r13), %rax
	movq	%r13, %rdi
	call	*16(%rax)
	testq	%rbx, %rbx
	jne	.L2834
	movl	12(%r13), %eax
	leal	-1(%rax), %edx
	movl	%edx, 12(%r13)
.L2077:
	cmpl	$1, %eax
	je	.L2835
	.p2align 4,,10
	.p2align 3
.L2072:
	movq	88(%r12), %rax
	testq	%rax, %rax
	je	.L2078
	leaq	72(%r12), %rdi
	movl	$3, %edx
	movq	%rdi, %rsi
	call	*%rax
.L2078:
	movq	64(%r12), %r12
	testq	%r12, %r12
	je	.L2080
	movq	_ZL28__gthrw___pthread_key_createPjPFvPvE@GOTPCREL(%rip), %rbx
	testq	%rbx, %rbx
	jne	.L2836
	movl	8(%r12), %eax
	leal	-1(%rax), %edx
	movl	%edx, 8(%r12)
.L2082:
	cmpl	$1, %eax
	jne	.L2080
	movq	(%r12), %rax
	movq	%r12, %rdi
	call	*16(%rax)
	testq	%rbx, %rbx
	jne	.L2837
	movl	12(%r12), %eax
	leal	-1(%rax), %edx
	movl	%edx, 12(%r12)
.L2085:
	cmpl	$1, %eax
	je	.L2838
	.p2align 4,,10
	.p2align 3
.L2080:
	movq	$0, 32(%rsp)
	jmp	.L2066
	.p2align 4,,10
	.p2align 3
.L2114:
	pxor	%xmm0, %xmm0
	leaq	720(%rsp), %r13
	movq	464(%rsp), %r12
	movq	%r13, 80(%rsp)
	movups	%xmm0, 88(%rsp)
	data16	leaq	_ZN4asio6detail15keyword_tss_ptrINS0_10call_stackINS0_15task_io_serviceENS0_27task_io_service_thread_infoEE7contextEE6value_E@tlsgd(%rip), %rdi
	.value	0x6666
	rex64
	call	__tls_get_addr@PLT
	movq	(%rax), %rax
	testq	%rax, %rax
	je	.L2326
	movq	8(%rax), %rax
	testq	%rax, %rax
	je	.L2326
	movq	(%rax), %rbp
	testq	%rbp, %rbp
	je	.L2326
	movq	$0, (%rax)
	movzbl	0(%rbp), %eax
	cmpb	$-73, %al
	ja	.L2839
	movq	%rbp, %rdi
	call	_ZdlPv@PLT
.L2326:
	movl	$185, %edi
.LEHB72:
	call	_Znwm@PLT
.LEHE72:
	movb	$-72, 184(%rax)
	movq	%rax, %rbp
.L2328:
	leaq	_ZN4asio6detail18completion_handlerINS0_17rewrapped_handlerINS0_7binder1INS0_15wrapped_handlerINS_10io_service6strandEZN7asiopal8Executor5StartERKNSt6chrono10time_pointINS9_3_V212steady_clockENS9_8durationIlSt5ratioILl1ELl1000000000EEEEEERKSt8functionIFvvEEEUlRKSt10error_codeE_NS0_26is_continuation_if_runningEEESP_EESS_EEE11do_completeEPNS0_15task_io_serviceEPNS0_25task_io_service_operationESR_m(%rip), %rax
	movq	%rbp, 88(%rsp)
	pxor	%xmm0, %xmm0
	leaq	24(%rbp), %r15
	movq	%rax, 8(%rbp)
	movq	$0, 0(%rbp)
	movdqa	720(%rsp), %xmm7
	movl	$0, 16(%rbp)
	movups	%xmm7, 24(%rbp)
	movq	752(%rsp), %rax
	movq	$0, 56(%rbp)
	movaps	%xmm0, 720(%rsp)
	testq	%rax, %rax
	je	.L2329
	leaq	40(%rbp), %r14
	leaq	736(%rsp), %rsi
	movl	$2, %edx
	movq	%r14, %rdi
.LEHB73:
	call	*%rax
.LEHE73:
	movdqa	752(%rsp), %xmm7
	movups	%xmm7, 56(%rbp)
.L2329:
	movdqa	768(%rsp), %xmm4
	pxor	%xmm0, %xmm0
	movq	$0, 136(%rbp)
	movaps	%xmm0, 768(%rsp)
	movups	%xmm4, 72(%rbp)
	movdqa	784(%rsp), %xmm5
	movups	%xmm5, 88(%rbp)
	movdqa	800(%rsp), %xmm6
	movaps	%xmm0, 800(%rsp)
	movups	%xmm6, 104(%rbp)
	movq	832(%rsp), %rax
	testq	%rax, %rax
	je	.L2331
	leaq	120(%rbp), %r14
	leaq	816(%rsp), %rsi
	movl	$2, %edx
	movq	%r14, %rdi
.LEHB74:
	call	*%rax
.LEHE74:
	movdqa	832(%rsp), %xmm1
	movups	%xmm1, 136(%rbp)
.L2331:
	movdqa	848(%rsp), %xmm2
	pxor	%xmm0, %xmm0
	movaps	%xmm0, 848(%rsp)
	movups	%xmm2, 152(%rbp)
	movq	40(%r12), %rbx
	movdqa	864(%rsp), %xmm3
	movups	%xmm3, 168(%rbp)
	movq	%rbp, 96(%rsp)
	data16	leaq	_ZN4asio6detail15keyword_tss_ptrINS0_10call_stackINS0_15task_io_serviceENS0_27task_io_service_thread_infoEE7contextEE6value_E@tlsgd(%rip), %rdi
	.value	0x6666
	rex64
