	.file	"MasterTCPServer.cpp"
	.text
	.section	.rodata._ZNK4asio6detail15system_category4nameEv.str1.1,"aMS",@progbits,1
.LC0:
	.string	"asio.system"
	.section	.text._ZNK4asio6detail15system_category4nameEv,"axG",@progbits,_ZNK4asio6detail15system_category4nameEv,comdat
	.align 2
	.p2align 4
	.weak	_ZNK4asio6detail15system_category4nameEv
	.type	_ZNK4asio6detail15system_category4nameEv, @function
_ZNK4asio6detail15system_category4nameEv:
.LFB2445:
	.cfi_startproc
	leaq	.LC0(%rip), %rax
	ret
	.cfi_endproc
.LFE2445:
	.size	_ZNK4asio6detail15system_category4nameEv, .-_ZNK4asio6detail15system_category4nameEv
	.section	.rodata._ZNK4asio5error6detail14netdb_category4nameEv.str1.1,"aMS",@progbits,1
.LC1:
	.string	"asio.netdb"
	.section	.text._ZNK4asio5error6detail14netdb_category4nameEv,"axG",@progbits,_ZNK4asio5error6detail14netdb_category4nameEv,comdat
	.align 2
	.p2align 4
	.weak	_ZNK4asio5error6detail14netdb_category4nameEv
	.type	_ZNK4asio5error6detail14netdb_category4nameEv, @function
_ZNK4asio5error6detail14netdb_category4nameEv:
.LFB2485:
	.cfi_startproc
	leaq	.LC1(%rip), %rax
	ret
	.cfi_endproc
.LFE2485:
	.size	_ZNK4asio5error6detail14netdb_category4nameEv, .-_ZNK4asio5error6detail14netdb_category4nameEv
	.section	.rodata._ZNK4asio5error6detail17addrinfo_category4nameEv.str1.1,"aMS",@progbits,1
.LC2:
	.string	"asio.addrinfo"
	.section	.text._ZNK4asio5error6detail17addrinfo_category4nameEv,"axG",@progbits,_ZNK4asio5error6detail17addrinfo_category4nameEv,comdat
	.align 2
	.p2align 4
	.weak	_ZNK4asio5error6detail17addrinfo_category4nameEv
	.type	_ZNK4asio5error6detail17addrinfo_category4nameEv, @function
_ZNK4asio5error6detail17addrinfo_category4nameEv:
.LFB2491:
	.cfi_startproc
	leaq	.LC2(%rip), %rax
	ret
	.cfi_endproc
.LFE2491:
	.size	_ZNK4asio5error6detail17addrinfo_category4nameEv, .-_ZNK4asio5error6detail17addrinfo_category4nameEv
	.section	.rodata._ZNK4asio5error6detail13misc_category4nameEv.str1.1,"aMS",@progbits,1
.LC3:
	.string	"asio.misc"
	.section	.text._ZNK4asio5error6detail13misc_category4nameEv,"axG",@progbits,_ZNK4asio5error6detail13misc_category4nameEv,comdat
	.align 2
	.p2align 4
	.weak	_ZNK4asio5error6detail13misc_category4nameEv
	.type	_ZNK4asio5error6detail13misc_category4nameEv, @function
_ZNK4asio5error6detail13misc_category4nameEv:
.LFB2497:
	.cfi_startproc
	leaq	.LC3(%rip), %rax
	ret
	.cfi_endproc
.LFE2497:
	.size	_ZNK4asio5error6detail13misc_category4nameEv, .-_ZNK4asio5error6detail13misc_category4nameEv
	.section	.text._ZNKSt5ctypeIcE8do_widenEc,"axG",@progbits,_ZNKSt5ctypeIcE8do_widenEc,comdat
	.align 2
	.p2align 4
	.weak	_ZNKSt5ctypeIcE8do_widenEc
	.type	_ZNKSt5ctypeIcE8do_widenEc, @function
_ZNKSt5ctypeIcE8do_widenEc:
.LFB4663:
	.cfi_startproc
	movl	%esi, %eax
	ret
	.cfi_endproc
.LFE4663:
	.size	_ZNKSt5ctypeIcE8do_widenEc, .-_ZNKSt5ctypeIcE8do_widenEc
	.section	.text._ZN4asio6detail7tss_ptrINS0_10call_stackINS0_15task_io_serviceENS0_27task_io_service_thread_infoEE7contextEED2Ev,"axG",@progbits,_ZN4asio6detail7tss_ptrINS0_10call_stackINS0_15task_io_serviceENS0_27task_io_service_thread_infoEE7contextEED5Ev,comdat
	.align 2
	.p2align 4
	.weak	_ZN4asio6detail7tss_ptrINS0_10call_stackINS0_15task_io_serviceENS0_27task_io_service_thread_infoEE7contextEED2Ev
	.type	_ZN4asio6detail7tss_ptrINS0_10call_stackINS0_15task_io_serviceENS0_27task_io_service_thread_infoEE7contextEED2Ev, @function
_ZN4asio6detail7tss_ptrINS0_10call_stackINS0_15task_io_serviceENS0_27task_io_service_thread_infoEE7contextEED2Ev:
.LFB11226:
	.cfi_startproc
	ret
	.cfi_endproc
.LFE11226:
	.size	_ZN4asio6detail7tss_ptrINS0_10call_stackINS0_15task_io_serviceENS0_27task_io_service_thread_infoEE7contextEED2Ev, .-_ZN4asio6detail7tss_ptrINS0_10call_stackINS0_15task_io_serviceENS0_27task_io_service_thread_infoEE7contextEED2Ev
	.weak	_ZN4asio6detail7tss_ptrINS0_10call_stackINS0_15task_io_serviceENS0_27task_io_service_thread_infoEE7contextEED1Ev
	.set	_ZN4asio6detail7tss_ptrINS0_10call_stackINS0_15task_io_serviceENS0_27task_io_service_thread_infoEE7contextEED1Ev,_ZN4asio6detail7tss_ptrINS0_10call_stackINS0_15task_io_serviceENS0_27task_io_service_thread_infoEE7contextEED2Ev
	.section	.text._ZN4asio6detail10service_idINS0_13epoll_reactorEED2Ev,"axG",@progbits,_ZN4asio6detail10service_idINS0_13epoll_reactorEED5Ev,comdat
	.align 2
	.p2align 4
	.weak	_ZN4asio6detail10service_idINS0_13epoll_reactorEED2Ev
	.type	_ZN4asio6detail10service_idINS0_13epoll_reactorEED2Ev, @function
_ZN4asio6detail10service_idINS0_13epoll_reactorEED2Ev:
.LFB11229:
	.cfi_startproc
	ret
	.cfi_endproc
.LFE11229:
	.size	_ZN4asio6detail10service_idINS0_13epoll_reactorEED2Ev, .-_ZN4asio6detail10service_idINS0_13epoll_reactorEED2Ev
	.weak	_ZN4asio6detail10service_idINS0_13epoll_reactorEED1Ev
	.set	_ZN4asio6detail10service_idINS0_13epoll_reactorEED1Ev,_ZN4asio6detail10service_idINS0_13epoll_reactorEED2Ev
	.section	.text._ZN4asio6detail10service_idINS0_15task_io_serviceEED2Ev,"axG",@progbits,_ZN4asio6detail10service_idINS0_15task_io_serviceEED5Ev,comdat
	.align 2
	.p2align 4
	.weak	_ZN4asio6detail10service_idINS0_15task_io_serviceEED2Ev
	.type	_ZN4asio6detail10service_idINS0_15task_io_serviceEED2Ev, @function
_ZN4asio6detail10service_idINS0_15task_io_serviceEED2Ev:
.LFB11232:
	.cfi_startproc
	ret
	.cfi_endproc
.LFE11232:
	.size	_ZN4asio6detail10service_idINS0_15task_io_serviceEED2Ev, .-_ZN4asio6detail10service_idINS0_15task_io_serviceEED2Ev
	.weak	_ZN4asio6detail10service_idINS0_15task_io_serviceEED1Ev
	.set	_ZN4asio6detail10service_idINS0_15task_io_serviceEED1Ev,_ZN4asio6detail10service_idINS0_15task_io_serviceEED2Ev
	.section	.text._ZN4asio6detail7tss_ptrINS0_10call_stackINS0_14strand_service11strand_implEhE7contextEED2Ev,"axG",@progbits,_ZN4asio6detail7tss_ptrINS0_10call_stackINS0_14strand_service11strand_implEhE7contextEED5Ev,comdat
	.align 2
	.p2align 4
	.weak	_ZN4asio6detail7tss_ptrINS0_10call_stackINS0_14strand_service11strand_implEhE7contextEED2Ev
	.type	_ZN4asio6detail7tss_ptrINS0_10call_stackINS0_14strand_service11strand_implEhE7contextEED2Ev, @function
_ZN4asio6detail7tss_ptrINS0_10call_stackINS0_14strand_service11strand_implEhE7contextEED2Ev:
.LFB11235:
	.cfi_startproc
	ret
	.cfi_endproc
.LFE11235:
	.size	_ZN4asio6detail7tss_ptrINS0_10call_stackINS0_14strand_service11strand_implEhE7contextEED2Ev, .-_ZN4asio6detail7tss_ptrINS0_10call_stackINS0_14strand_service11strand_implEhE7contextEED2Ev
	.weak	_ZN4asio6detail7tss_ptrINS0_10call_stackINS0_14strand_service11strand_implEhE7contextEED1Ev
	.set	_ZN4asio6detail7tss_ptrINS0_10call_stackINS0_14strand_service11strand_implEhE7contextEED1Ev,_ZN4asio6detail7tss_ptrINS0_10call_stackINS0_14strand_service11strand_implEhE7contextEED2Ev
	.section	.text._ZN4asio6detail10service_idINS0_14strand_serviceEED2Ev,"axG",@progbits,_ZN4asio6detail10service_idINS0_14strand_serviceEED5Ev,comdat
	.align 2
	.p2align 4
	.weak	_ZN4asio6detail10service_idINS0_14strand_serviceEED2Ev
	.type	_ZN4asio6detail10service_idINS0_14strand_serviceEED2Ev, @function
_ZN4asio6detail10service_idINS0_14strand_serviceEED2Ev:
.LFB11238:
	.cfi_startproc
	ret
	.cfi_endproc
.LFE11238:
	.size	_ZN4asio6detail10service_idINS0_14strand_serviceEED2Ev, .-_ZN4asio6detail10service_idINS0_14strand_serviceEED2Ev
	.weak	_ZN4asio6detail10service_idINS0_14strand_serviceEED1Ev
	.set	_ZN4asio6detail10service_idINS0_14strand_serviceEED1Ev,_ZN4asio6detail10service_idINS0_14strand_serviceEED2Ev
	.section	.text._ZNSt23_Sp_counted_ptr_inplaceIN7asiopal13SocketChannelESaIS1_ELN9__gnu_cxx12_Lock_policyE2EED2Ev,"axG",@progbits,_ZNSt23_Sp_counted_ptr_inplaceIN7asiopal13SocketChannelESaIS1_ELN9__gnu_cxx12_Lock_policyE2EED5Ev,comdat
	.align 2
	.p2align 4
	.weak	_ZNSt23_Sp_counted_ptr_inplaceIN7asiopal13SocketChannelESaIS1_ELN9__gnu_cxx12_Lock_policyE2EED2Ev
	.type	_ZNSt23_Sp_counted_ptr_inplaceIN7asiopal13SocketChannelESaIS1_ELN9__gnu_cxx12_Lock_policyE2EED2Ev, @function
_ZNSt23_Sp_counted_ptr_inplaceIN7asiopal13SocketChannelESaIS1_ELN9__gnu_cxx12_Lock_policyE2EED2Ev:
.LFB11241:
	.cfi_startproc
	ret
	.cfi_endproc
.LFE11241:
	.size	_ZNSt23_Sp_counted_ptr_inplaceIN7asiopal13SocketChannelESaIS1_ELN9__gnu_cxx12_Lock_policyE2EED2Ev, .-_ZNSt23_Sp_counted_ptr_inplaceIN7asiopal13SocketChannelESaIS1_ELN9__gnu_cxx12_Lock_policyE2EED2Ev
	.weak	_ZNSt23_Sp_counted_ptr_inplaceIN7asiopal13SocketChannelESaIS1_ELN9__gnu_cxx12_Lock_policyE2EED1Ev
	.set	_ZNSt23_Sp_counted_ptr_inplaceIN7asiopal13SocketChannelESaIS1_ELN9__gnu_cxx12_Lock_policyE2EED1Ev,_ZNSt23_Sp_counted_ptr_inplaceIN7asiopal13SocketChannelESaIS1_ELN9__gnu_cxx12_Lock_policyE2EED2Ev
	.section	.text._ZNSt23_Sp_counted_ptr_inplaceIN8asiodnp311LinkSessionESaIS1_ELN9__gnu_cxx12_Lock_policyE2EED2Ev,"axG",@progbits,_ZNSt23_Sp_counted_ptr_inplaceIN8asiodnp311LinkSessionESaIS1_ELN9__gnu_cxx12_Lock_policyE2EED5Ev,comdat
	.align 2
	.p2align 4
	.weak	_ZNSt23_Sp_counted_ptr_inplaceIN8asiodnp311LinkSessionESaIS1_ELN9__gnu_cxx12_Lock_policyE2EED2Ev
	.type	_ZNSt23_Sp_counted_ptr_inplaceIN8asiodnp311LinkSessionESaIS1_ELN9__gnu_cxx12_Lock_policyE2EED2Ev, @function
_ZNSt23_Sp_counted_ptr_inplaceIN8asiodnp311LinkSessionESaIS1_ELN9__gnu_cxx12_Lock_policyE2EED2Ev:
.LFB11248:
	.cfi_startproc
	ret
	.cfi_endproc
.LFE11248:
	.size	_ZNSt23_Sp_counted_ptr_inplaceIN8asiodnp311LinkSessionESaIS1_ELN9__gnu_cxx12_Lock_policyE2EED2Ev, .-_ZNSt23_Sp_counted_ptr_inplaceIN8asiodnp311LinkSessionESaIS1_ELN9__gnu_cxx12_Lock_policyE2EED2Ev
	.weak	_ZNSt23_Sp_counted_ptr_inplaceIN8asiodnp311LinkSessionESaIS1_ELN9__gnu_cxx12_Lock_policyE2EED1Ev
	.set	_ZNSt23_Sp_counted_ptr_inplaceIN8asiodnp311LinkSessionESaIS1_ELN9__gnu_cxx12_Lock_policyE2EED1Ev,_ZNSt23_Sp_counted_ptr_inplaceIN8asiodnp311LinkSessionESaIS1_ELN9__gnu_cxx12_Lock_policyE2EED2Ev
	.section	.text._ZNSt23_Sp_counted_ptr_inplaceIN7asiopal8ExecutorESaIS1_ELN9__gnu_cxx12_Lock_policyE2EED2Ev,"axG",@progbits,_ZNSt23_Sp_counted_ptr_inplaceIN7asiopal8ExecutorESaIS1_ELN9__gnu_cxx12_Lock_policyE2EED5Ev,comdat
	.align 2
	.p2align 4
	.weak	_ZNSt23_Sp_counted_ptr_inplaceIN7asiopal8ExecutorESaIS1_ELN9__gnu_cxx12_Lock_policyE2EED2Ev
	.type	_ZNSt23_Sp_counted_ptr_inplaceIN7asiopal8ExecutorESaIS1_ELN9__gnu_cxx12_Lock_policyE2EED2Ev, @function
_ZNSt23_Sp_counted_ptr_inplaceIN7asiopal8ExecutorESaIS1_ELN9__gnu_cxx12_Lock_policyE2EED2Ev:
.LFB11276:
	.cfi_startproc
	ret
	.cfi_endproc
.LFE11276:
	.size	_ZNSt23_Sp_counted_ptr_inplaceIN7asiopal8ExecutorESaIS1_ELN9__gnu_cxx12_Lock_policyE2EED2Ev, .-_ZNSt23_Sp_counted_ptr_inplaceIN7asiopal8ExecutorESaIS1_ELN9__gnu_cxx12_Lock_policyE2EED2Ev
	.weak	_ZNSt23_Sp_counted_ptr_inplaceIN7asiopal8ExecutorESaIS1_ELN9__gnu_cxx12_Lock_policyE2EED1Ev
	.set	_ZNSt23_Sp_counted_ptr_inplaceIN7asiopal8ExecutorESaIS1_ELN9__gnu_cxx12_Lock_policyE2EED1Ev,_ZNSt23_Sp_counted_ptr_inplaceIN7asiopal8ExecutorESaIS1_ELN9__gnu_cxx12_Lock_policyE2EED2Ev
	.section	.text._ZNSt23_Sp_counted_ptr_inplaceIN7openpal6Logger8SettingsESaIS2_ELN9__gnu_cxx12_Lock_policyE2EED2Ev,"axG",@progbits,_ZNSt23_Sp_counted_ptr_inplaceIN7openpal6Logger8SettingsESaIS2_ELN9__gnu_cxx12_Lock_policyE2EED5Ev,comdat
	.align 2
	.p2align 4
	.weak	_ZNSt23_Sp_counted_ptr_inplaceIN7openpal6Logger8SettingsESaIS2_ELN9__gnu_cxx12_Lock_policyE2EED2Ev
	.type	_ZNSt23_Sp_counted_ptr_inplaceIN7openpal6Logger8SettingsESaIS2_ELN9__gnu_cxx12_Lock_policyE2EED2Ev, @function
_ZNSt23_Sp_counted_ptr_inplaceIN7openpal6Logger8SettingsESaIS2_ELN9__gnu_cxx12_Lock_policyE2EED2Ev:
.LFB11297:
	.cfi_startproc
	ret
	.cfi_endproc
.LFE11297:
	.size	_ZNSt23_Sp_counted_ptr_inplaceIN7openpal6Logger8SettingsESaIS2_ELN9__gnu_cxx12_Lock_policyE2EED2Ev, .-_ZNSt23_Sp_counted_ptr_inplaceIN7openpal6Logger8SettingsESaIS2_ELN9__gnu_cxx12_Lock_policyE2EED2Ev
	.weak	_ZNSt23_Sp_counted_ptr_inplaceIN7openpal6Logger8SettingsESaIS2_ELN9__gnu_cxx12_Lock_policyE2EED1Ev
	.set	_ZNSt23_Sp_counted_ptr_inplaceIN7openpal6Logger8SettingsESaIS2_ELN9__gnu_cxx12_Lock_policyE2EED1Ev,_ZNSt23_Sp_counted_ptr_inplaceIN7openpal6Logger8SettingsESaIS2_ELN9__gnu_cxx12_Lock_policyE2EED2Ev
	.section	.text._ZN4asio6detail15system_categoryD2Ev,"axG",@progbits,_ZN4asio6detail15system_categoryD5Ev,comdat
	.align 2
	.p2align 4
	.weak	_ZN4asio6detail15system_categoryD2Ev
	.type	_ZN4asio6detail15system_categoryD2Ev, @function
_ZN4asio6detail15system_categoryD2Ev:
.LFB11205:
	.cfi_startproc
	movq	_ZTVN4asio6detail15system_categoryE@GOTPCREL(%rip), %rax
	addq	$16, %rax
	movq	%rax, (%rdi)
	jmp	_ZNSt3_V214error_categoryD2Ev@PLT
	.cfi_endproc
.LFE11205:
	.size	_ZN4asio6detail15system_categoryD2Ev, .-_ZN4asio6detail15system_categoryD2Ev
	.weak	_ZN4asio6detail15system_categoryD1Ev
	.set	_ZN4asio6detail15system_categoryD1Ev,_ZN4asio6detail15system_categoryD2Ev
	.section	.text._ZN4asio5error6detail14netdb_categoryD2Ev,"axG",@progbits,_ZN4asio5error6detail14netdb_categoryD5Ev,comdat
	.align 2
	.p2align 4
	.weak	_ZN4asio5error6detail14netdb_categoryD2Ev
	.type	_ZN4asio5error6detail14netdb_categoryD2Ev, @function
_ZN4asio5error6detail14netdb_categoryD2Ev:
.LFB11193:
	.cfi_startproc
	movq	_ZTVN4asio5error6detail14netdb_categoryE@GOTPCREL(%rip), %rax
	addq	$16, %rax
	movq	%rax, (%rdi)
	jmp	_ZNSt3_V214error_categoryD2Ev@PLT
	.cfi_endproc
.LFE11193:
	.size	_ZN4asio5error6detail14netdb_categoryD2Ev, .-_ZN4asio5error6detail14netdb_categoryD2Ev
	.weak	_ZN4asio5error6detail14netdb_categoryD1Ev
	.set	_ZN4asio5error6detail14netdb_categoryD1Ev,_ZN4asio5error6detail14netdb_categoryD2Ev
	.section	.text._ZN4asio5error6detail17addrinfo_categoryD2Ev,"axG",@progbits,_ZN4asio5error6detail17addrinfo_categoryD5Ev,comdat
	.align 2
	.p2align 4
	.weak	_ZN4asio5error6detail17addrinfo_categoryD2Ev
	.type	_ZN4asio5error6detail17addrinfo_categoryD2Ev, @function
_ZN4asio5error6detail17addrinfo_categoryD2Ev:
.LFB11189:
	.cfi_startproc
	movq	_ZTVN4asio5error6detail17addrinfo_categoryE@GOTPCREL(%rip), %rax
	addq	$16, %rax
	movq	%rax, (%rdi)
	jmp	_ZNSt3_V214error_categoryD2Ev@PLT
	.cfi_endproc
.LFE11189:
	.size	_ZN4asio5error6detail17addrinfo_categoryD2Ev, .-_ZN4asio5error6detail17addrinfo_categoryD2Ev
	.weak	_ZN4asio5error6detail17addrinfo_categoryD1Ev
	.set	_ZN4asio5error6detail17addrinfo_categoryD1Ev,_ZN4asio5error6detail17addrinfo_categoryD2Ev
	.section	.text._ZN4asio5error6detail13misc_categoryD2Ev,"axG",@progbits,_ZN4asio5error6detail13misc_categoryD5Ev,comdat
	.align 2
	.p2align 4
	.weak	_ZN4asio5error6detail13misc_categoryD2Ev
	.type	_ZN4asio5error6detail13misc_categoryD2Ev, @function
_ZN4asio5error6detail13misc_categoryD2Ev:
.LFB11185:
	.cfi_startproc
	movq	_ZTVN4asio5error6detail13misc_categoryE@GOTPCREL(%rip), %rax
	addq	$16, %rax
	movq	%rax, (%rdi)
	jmp	_ZNSt3_V214error_categoryD2Ev@PLT
	.cfi_endproc
.LFE11185:
	.size	_ZN4asio5error6detail13misc_categoryD2Ev, .-_ZN4asio5error6detail13misc_categoryD2Ev
	.weak	_ZN4asio5error6detail13misc_categoryD1Ev
	.set	_ZN4asio5error6detail13misc_categoryD1Ev,_ZN4asio5error6detail13misc_categoryD2Ev
	.section	.text._ZN4asio6detail15system_categoryD0Ev,"axG",@progbits,_ZN4asio6detail15system_categoryD5Ev,comdat
	.align 2
	.p2align 4
	.weak	_ZN4asio6detail15system_categoryD0Ev
	.type	_ZN4asio6detail15system_categoryD0Ev, @function
_ZN4asio6detail15system_categoryD0Ev:
.LFB11207:
	.cfi_startproc
	movq	_ZTVN4asio6detail15system_categoryE@GOTPCREL(%rip), %rax
	pushq	%rbp
	.cfi_def_cfa_offset 16
	.cfi_offset 6, -16
	movq	%rdi, %rbp
	addq	$16, %rax
	movq	%rax, (%rdi)
	call	_ZNSt3_V214error_categoryD2Ev@PLT
	movq	%rbp, %rdi
	movl	$8, %esi
	popq	%rbp
	.cfi_def_cfa_offset 8
	jmp	_ZdlPvm@PLT
	.cfi_endproc
.LFE11207:
	.size	_ZN4asio6detail15system_categoryD0Ev, .-_ZN4asio6detail15system_categoryD0Ev
	.section	.text._ZN4asio5error6detail14netdb_categoryD0Ev,"axG",@progbits,_ZN4asio5error6detail14netdb_categoryD5Ev,comdat
	.align 2
	.p2align 4
	.weak	_ZN4asio5error6detail14netdb_categoryD0Ev
	.type	_ZN4asio5error6detail14netdb_categoryD0Ev, @function
_ZN4asio5error6detail14netdb_categoryD0Ev:
.LFB11195:
	.cfi_startproc
	movq	_ZTVN4asio5error6detail14netdb_categoryE@GOTPCREL(%rip), %rax
	pushq	%rbp
	.cfi_def_cfa_offset 16
	.cfi_offset 6, -16
	movq	%rdi, %rbp
	addq	$16, %rax
	movq	%rax, (%rdi)
	call	_ZNSt3_V214error_categoryD2Ev@PLT
	movq	%rbp, %rdi
	movl	$8, %esi
	popq	%rbp
	.cfi_def_cfa_offset 8
	jmp	_ZdlPvm@PLT
	.cfi_endproc
.LFE11195:
	.size	_ZN4asio5error6detail14netdb_categoryD0Ev, .-_ZN4asio5error6detail14netdb_categoryD0Ev
	.section	.text._ZN4asio5error6detail17addrinfo_categoryD0Ev,"axG",@progbits,_ZN4asio5error6detail17addrinfo_categoryD5Ev,comdat
	.align 2
	.p2align 4
	.weak	_ZN4asio5error6detail17addrinfo_categoryD0Ev
	.type	_ZN4asio5error6detail17addrinfo_categoryD0Ev, @function
_ZN4asio5error6detail17addrinfo_categoryD0Ev:
.LFB11191:
	.cfi_startproc
	movq	_ZTVN4asio5error6detail17addrinfo_categoryE@GOTPCREL(%rip), %rax
	pushq	%rbp
	.cfi_def_cfa_offset 16
	.cfi_offset 6, -16
	movq	%rdi, %rbp
	addq	$16, %rax
	movq	%rax, (%rdi)
	call	_ZNSt3_V214error_categoryD2Ev@PLT
	movq	%rbp, %rdi
	movl	$8, %esi
	popq	%rbp
	.cfi_def_cfa_offset 8
	jmp	_ZdlPvm@PLT
	.cfi_endproc
.LFE11191:
	.size	_ZN4asio5error6detail17addrinfo_categoryD0Ev, .-_ZN4asio5error6detail17addrinfo_categoryD0Ev
	.section	.text._ZN4asio5error6detail13misc_categoryD0Ev,"axG",@progbits,_ZN4asio5error6detail13misc_categoryD5Ev,comdat
	.align 2
	.p2align 4
	.weak	_ZN4asio5error6detail13misc_categoryD0Ev
	.type	_ZN4asio5error6detail13misc_categoryD0Ev, @function
_ZN4asio5error6detail13misc_categoryD0Ev:
.LFB11187:
	.cfi_startproc
	movq	_ZTVN4asio5error6detail13misc_categoryE@GOTPCREL(%rip), %rax
	pushq	%rbp
	.cfi_def_cfa_offset 16
	.cfi_offset 6, -16
	movq	%rdi, %rbp
	addq	$16, %rax
	movq	%rax, (%rdi)
	call	_ZNSt3_V214error_categoryD2Ev@PLT
	movq	%rbp, %rdi
	movl	$8, %esi
	popq	%rbp
	.cfi_def_cfa_offset 8
	jmp	_ZdlPvm@PLT
	.cfi_endproc
.LFE11187:
	.size	_ZN4asio5error6detail13misc_categoryD0Ev, .-_ZN4asio5error6detail13misc_categoryD0Ev
	.section	.text._ZNSt23_Sp_counted_ptr_inplaceIN7openpal6Logger8SettingsESaIS2_ELN9__gnu_cxx12_Lock_policyE2EED0Ev,"axG",@progbits,_ZNSt23_Sp_counted_ptr_inplaceIN7openpal6Logger8SettingsESaIS2_ELN9__gnu_cxx12_Lock_policyE2EED5Ev,comdat
	.align 2
	.p2align 4
	.weak	_ZNSt23_Sp_counted_ptr_inplaceIN7openpal6Logger8SettingsESaIS2_ELN9__gnu_cxx12_Lock_policyE2EED0Ev
	.type	_ZNSt23_Sp_counted_ptr_inplaceIN7openpal6Logger8SettingsESaIS2_ELN9__gnu_cxx12_Lock_policyE2EED0Ev, @function
_ZNSt23_Sp_counted_ptr_inplaceIN7openpal6Logger8SettingsESaIS2_ELN9__gnu_cxx12_Lock_policyE2EED0Ev:
.LFB11299:
	.cfi_startproc
	movl	$56, %esi
	jmp	_ZdlPvm@PLT
	.cfi_endproc
.LFE11299:
	.size	_ZNSt23_Sp_counted_ptr_inplaceIN7openpal6Logger8SettingsESaIS2_ELN9__gnu_cxx12_Lock_policyE2EED0Ev, .-_ZNSt23_Sp_counted_ptr_inplaceIN7openpal6Logger8SettingsESaIS2_ELN9__gnu_cxx12_Lock_policyE2EED0Ev
	.section	.text._ZNSt23_Sp_counted_ptr_inplaceIN7asiopal8ExecutorESaIS1_ELN9__gnu_cxx12_Lock_policyE2EED0Ev,"axG",@progbits,_ZNSt23_Sp_counted_ptr_inplaceIN7asiopal8ExecutorESaIS1_ELN9__gnu_cxx12_Lock_policyE2EED5Ev,comdat
	.align 2
	.p2align 4
	.weak	_ZNSt23_Sp_counted_ptr_inplaceIN7asiopal8ExecutorESaIS1_ELN9__gnu_cxx12_Lock_policyE2EED0Ev
	.type	_ZNSt23_Sp_counted_ptr_inplaceIN7asiopal8ExecutorESaIS1_ELN9__gnu_cxx12_Lock_policyE2EED0Ev, @function
_ZNSt23_Sp_counted_ptr_inplaceIN7asiopal8ExecutorESaIS1_ELN9__gnu_cxx12_Lock_policyE2EED0Ev:
.LFB11278:
	.cfi_startproc
	movl	$72, %esi
	jmp	_ZdlPvm@PLT
	.cfi_endproc
.LFE11278:
	.size	_ZNSt23_Sp_counted_ptr_inplaceIN7asiopal8ExecutorESaIS1_ELN9__gnu_cxx12_Lock_policyE2EED0Ev, .-_ZNSt23_Sp_counted_ptr_inplaceIN7asiopal8ExecutorESaIS1_ELN9__gnu_cxx12_Lock_policyE2EED0Ev
	.section	.text._ZNSt23_Sp_counted_ptr_inplaceIN8asiodnp311LinkSessionESaIS1_ELN9__gnu_cxx12_Lock_policyE2EED0Ev,"axG",@progbits,_ZNSt23_Sp_counted_ptr_inplaceIN8asiodnp311LinkSessionESaIS1_ELN9__gnu_cxx12_Lock_policyE2EED5Ev,comdat
	.align 2
	.p2align 4
	.weak	_ZNSt23_Sp_counted_ptr_inplaceIN8asiodnp311LinkSessionESaIS1_ELN9__gnu_cxx12_Lock_policyE2EED0Ev
	.type	_ZNSt23_Sp_counted_ptr_inplaceIN8asiodnp311LinkSessionESaIS1_ELN9__gnu_cxx12_Lock_policyE2EED0Ev, @function
_ZNSt23_Sp_counted_ptr_inplaceIN8asiodnp311LinkSessionESaIS1_ELN9__gnu_cxx12_Lock_policyE2EED0Ev:
.LFB11250:
	.cfi_startproc
	movl	$624, %esi
	jmp	_ZdlPvm@PLT
	.cfi_endproc
.LFE11250:
	.size	_ZNSt23_Sp_counted_ptr_inplaceIN8asiodnp311LinkSessionESaIS1_ELN9__gnu_cxx12_Lock_policyE2EED0Ev, .-_ZNSt23_Sp_counted_ptr_inplaceIN8asiodnp311LinkSessionESaIS1_ELN9__gnu_cxx12_Lock_policyE2EED0Ev
	.section	.text._ZNSt23_Sp_counted_ptr_inplaceIN7asiopal13SocketChannelESaIS1_ELN9__gnu_cxx12_Lock_policyE2EED0Ev,"axG",@progbits,_ZNSt23_Sp_counted_ptr_inplaceIN7asiopal13SocketChannelESaIS1_ELN9__gnu_cxx12_Lock_policyE2EED5Ev,comdat
	.align 2
	.p2align 4
	.weak	_ZNSt23_Sp_counted_ptr_inplaceIN7asiopal13SocketChannelESaIS1_ELN9__gnu_cxx12_Lock_policyE2EED0Ev
	.type	_ZNSt23_Sp_counted_ptr_inplaceIN7asiopal13SocketChannelESaIS1_ELN9__gnu_cxx12_Lock_policyE2EED0Ev, @function
_ZNSt23_Sp_counted_ptr_inplaceIN7asiopal13SocketChannelESaIS1_ELN9__gnu_cxx12_Lock_policyE2EED0Ev:
.LFB11243:
	.cfi_startproc
	movl	$112, %esi
	jmp	_ZdlPvm@PLT
	.cfi_endproc
.LFE11243:
	.size	_ZNSt23_Sp_counted_ptr_inplaceIN7asiopal13SocketChannelESaIS1_ELN9__gnu_cxx12_Lock_policyE2EED0Ev, .-_ZNSt23_Sp_counted_ptr_inplaceIN7asiopal13SocketChannelESaIS1_ELN9__gnu_cxx12_Lock_policyE2EED0Ev
	.section	.text._ZNSt23_Sp_counted_ptr_inplaceIN7asiopal13SocketChannelESaIS1_ELN9__gnu_cxx12_Lock_policyE2EE10_M_destroyEv,"axG",@progbits,_ZNSt23_Sp_counted_ptr_inplaceIN7asiopal13SocketChannelESaIS1_ELN9__gnu_cxx12_Lock_policyE2EE10_M_destroyEv,comdat
	.align 2
	.p2align 4
	.weak	_ZNSt23_Sp_counted_ptr_inplaceIN7asiopal13SocketChannelESaIS1_ELN9__gnu_cxx12_Lock_policyE2EE10_M_destroyEv
	.type	_ZNSt23_Sp_counted_ptr_inplaceIN7asiopal13SocketChannelESaIS1_ELN9__gnu_cxx12_Lock_policyE2EE10_M_destroyEv, @function
_ZNSt23_Sp_counted_ptr_inplaceIN7asiopal13SocketChannelESaIS1_ELN9__gnu_cxx12_Lock_policyE2EE10_M_destroyEv:
.LFB11245:
	.cfi_startproc
	movl	$112, %esi
	jmp	_ZdlPvm@PLT
	.cfi_endproc
.LFE11245:
	.size	_ZNSt23_Sp_counted_ptr_inplaceIN7asiopal13SocketChannelESaIS1_ELN9__gnu_cxx12_Lock_policyE2EE10_M_destroyEv, .-_ZNSt23_Sp_counted_ptr_inplaceIN7asiopal13SocketChannelESaIS1_ELN9__gnu_cxx12_Lock_policyE2EE10_M_destroyEv
	.section	.text._ZNSt23_Sp_counted_ptr_inplaceIN8asiodnp311LinkSessionESaIS1_ELN9__gnu_cxx12_Lock_policyE2EE10_M_destroyEv,"axG",@progbits,_ZNSt23_Sp_counted_ptr_inplaceIN8asiodnp311LinkSessionESaIS1_ELN9__gnu_cxx12_Lock_policyE2EE10_M_destroyEv,comdat
	.align 2
	.p2align 4
	.weak	_ZNSt23_Sp_counted_ptr_inplaceIN8asiodnp311LinkSessionESaIS1_ELN9__gnu_cxx12_Lock_policyE2EE10_M_destroyEv
	.type	_ZNSt23_Sp_counted_ptr_inplaceIN8asiodnp311LinkSessionESaIS1_ELN9__gnu_cxx12_Lock_policyE2EE10_M_destroyEv, @function
_ZNSt23_Sp_counted_ptr_inplaceIN8asiodnp311LinkSessionESaIS1_ELN9__gnu_cxx12_Lock_policyE2EE10_M_destroyEv:
.LFB11252:
	.cfi_startproc
	movl	$624, %esi
	jmp	_ZdlPvm@PLT
	.cfi_endproc
.LFE11252:
	.size	_ZNSt23_Sp_counted_ptr_inplaceIN8asiodnp311LinkSessionESaIS1_ELN9__gnu_cxx12_Lock_policyE2EE10_M_destroyEv, .-_ZNSt23_Sp_counted_ptr_inplaceIN8asiodnp311LinkSessionESaIS1_ELN9__gnu_cxx12_Lock_policyE2EE10_M_destroyEv
	.section	.text._ZNSt23_Sp_counted_ptr_inplaceIN7asiopal8ExecutorESaIS1_ELN9__gnu_cxx12_Lock_policyE2EE10_M_destroyEv,"axG",@progbits,_ZNSt23_Sp_counted_ptr_inplaceIN7asiopal8ExecutorESaIS1_ELN9__gnu_cxx12_Lock_policyE2EE10_M_destroyEv,comdat
	.align 2
	.p2align 4
	.weak	_ZNSt23_Sp_counted_ptr_inplaceIN7asiopal8ExecutorESaIS1_ELN9__gnu_cxx12_Lock_policyE2EE10_M_destroyEv
	.type	_ZNSt23_Sp_counted_ptr_inplaceIN7asiopal8ExecutorESaIS1_ELN9__gnu_cxx12_Lock_policyE2EE10_M_destroyEv, @function
_ZNSt23_Sp_counted_ptr_inplaceIN7asiopal8ExecutorESaIS1_ELN9__gnu_cxx12_Lock_policyE2EE10_M_destroyEv:
.LFB11280:
	.cfi_startproc
	movl	$72, %esi
	jmp	_ZdlPvm@PLT
	.cfi_endproc
.LFE11280:
	.size	_ZNSt23_Sp_counted_ptr_inplaceIN7asiopal8ExecutorESaIS1_ELN9__gnu_cxx12_Lock_policyE2EE10_M_destroyEv, .-_ZNSt23_Sp_counted_ptr_inplaceIN7asiopal8ExecutorESaIS1_ELN9__gnu_cxx12_Lock_policyE2EE10_M_destroyEv
	.section	.text._ZNSt23_Sp_counted_ptr_inplaceIN7openpal6Logger8SettingsESaIS2_ELN9__gnu_cxx12_Lock_policyE2EE10_M_destroyEv,"axG",@progbits,_ZNSt23_Sp_counted_ptr_inplaceIN7openpal6Logger8SettingsESaIS2_ELN9__gnu_cxx12_Lock_policyE2EE10_M_destroyEv,comdat
	.align 2
	.p2align 4
	.weak	_ZNSt23_Sp_counted_ptr_inplaceIN7openpal6Logger8SettingsESaIS2_ELN9__gnu_cxx12_Lock_policyE2EE10_M_destroyEv
	.type	_ZNSt23_Sp_counted_ptr_inplaceIN7openpal6Logger8SettingsESaIS2_ELN9__gnu_cxx12_Lock_policyE2EE10_M_destroyEv, @function
_ZNSt23_Sp_counted_ptr_inplaceIN7openpal6Logger8SettingsESaIS2_ELN9__gnu_cxx12_Lock_policyE2EE10_M_destroyEv:
.LFB11301:
	.cfi_startproc
	movl	$56, %esi
	jmp	_ZdlPvm@PLT
	.cfi_endproc
.LFE11301:
	.size	_ZNSt23_Sp_counted_ptr_inplaceIN7openpal6Logger8SettingsESaIS2_ELN9__gnu_cxx12_Lock_policyE2EE10_M_destroyEv, .-_ZNSt23_Sp_counted_ptr_inplaceIN7openpal6Logger8SettingsESaIS2_ELN9__gnu_cxx12_Lock_policyE2EE10_M_destroyEv
	.section	.text._ZNSt23_Sp_counted_ptr_inplaceIN7openpal6Logger8SettingsESaIS2_ELN9__gnu_cxx12_Lock_policyE2EE10_M_disposeEv,"axG",@progbits,_ZNSt23_Sp_counted_ptr_inplaceIN7openpal6Logger8SettingsESaIS2_ELN9__gnu_cxx12_Lock_policyE2EE10_M_disposeEv,comdat
	.align 2
	.p2align 4
	.weak	_ZNSt23_Sp_counted_ptr_inplaceIN7openpal6Logger8SettingsESaIS2_ELN9__gnu_cxx12_Lock_policyE2EE10_M_disposeEv
	.type	_ZNSt23_Sp_counted_ptr_inplaceIN7openpal6Logger8SettingsESaIS2_ELN9__gnu_cxx12_Lock_policyE2EE10_M_disposeEv, @function
_ZNSt23_Sp_counted_ptr_inplaceIN7openpal6Logger8SettingsESaIS2_ELN9__gnu_cxx12_Lock_policyE2EE10_M_disposeEv:
.LFB11300:
	.cfi_startproc
	movq	16(%rdi), %r8
	leaq	32(%rdi), %rax
	cmpq	%rax, %r8
	je	.L36
	movq	32(%rdi), %rsi
	movq	%r8, %rdi
	addq	$1, %rsi
	jmp	_ZdlPvm@PLT
	.p2align 4,,10
	.p2align 3
.L36:
	ret
	.cfi_endproc
.LFE11300:
	.size	_ZNSt23_Sp_counted_ptr_inplaceIN7openpal6Logger8SettingsESaIS2_ELN9__gnu_cxx12_Lock_policyE2EE10_M_disposeEv, .-_ZNSt23_Sp_counted_ptr_inplaceIN7openpal6Logger8SettingsESaIS2_ELN9__gnu_cxx12_Lock_policyE2EE10_M_disposeEv
	.section	.text._ZNSt23_Sp_counted_ptr_inplaceIN7asiopal13SocketChannelESaIS1_ELN9__gnu_cxx12_Lock_policyE2EE14_M_get_deleterERKSt9type_info,"axG",@progbits,_ZNSt23_Sp_counted_ptr_inplaceIN7asiopal13SocketChannelESaIS1_ELN9__gnu_cxx12_Lock_policyE2EE14_M_get_deleterERKSt9type_info,comdat
	.align 2
	.p2align 4
	.weak	_ZNSt23_Sp_counted_ptr_inplaceIN7asiopal13SocketChannelESaIS1_ELN9__gnu_cxx12_Lock_policyE2EE14_M_get_deleterERKSt9type_info
	.type	_ZNSt23_Sp_counted_ptr_inplaceIN7asiopal13SocketChannelESaIS1_ELN9__gnu_cxx12_Lock_policyE2EE14_M_get_deleterERKSt9type_info, @function
_ZNSt23_Sp_counted_ptr_inplaceIN7asiopal13SocketChannelESaIS1_ELN9__gnu_cxx12_Lock_policyE2EE14_M_get_deleterERKSt9type_info:
.LFB11246:
	.cfi_startproc
	cmpq	_ZZNSt19_Sp_make_shared_tag5_S_tiEvE5__tag@GOTPCREL(%rip), %rsi
	pushq	%r12
	.cfi_def_cfa_offset 16
	.cfi_offset 12, -16
	leaq	16(%rdi), %r12
	je	.L38
	movq	8(%rsi), %rdi
	movq	_ZTSSt19_Sp_make_shared_tag@GOTPCREL(%rip), %rsi
	cmpq	%rsi, %rdi
	je	.L38
	cmpb	$42, (%rdi)
	je	.L40
	call	strcmp@PLT
	testl	%eax, %eax
	movl	$0, %eax
	cmovne	%rax, %r12
.L38:
	movq	%r12, %rax
	popq	%r12
	.cfi_remember_state
	.cfi_def_cfa_offset 8
	ret
	.p2align 4,,10
	.p2align 3
.L40:
	.cfi_restore_state
	xorl	%r12d, %r12d
	movq	%r12, %rax
	popq	%r12
	.cfi_def_cfa_offset 8
	ret
	.cfi_endproc
.LFE11246:
	.size	_ZNSt23_Sp_counted_ptr_inplaceIN7asiopal13SocketChannelESaIS1_ELN9__gnu_cxx12_Lock_policyE2EE14_M_get_deleterERKSt9type_info, .-_ZNSt23_Sp_counted_ptr_inplaceIN7asiopal13SocketChannelESaIS1_ELN9__gnu_cxx12_Lock_policyE2EE14_M_get_deleterERKSt9type_info
	.section	.text.unlikely,"ax",@progbits
	.type	_ZN4asio6detail15throw_exceptionISt8bad_castEEvRKT_.isra.0, @function
_ZN4asio6detail15throw_exceptionISt8bad_castEEvRKT_.isra.0:
.LFB11448:
	.cfi_startproc
	pushq	%rax
	.cfi_def_cfa_offset 16
	popq	%rax
	.cfi_def_cfa_offset 8
	movl	$8, %edi
	pushq	%rax
	.cfi_def_cfa_offset 16
	call	__cxa_allocate_exception@PLT
	movq	_ZNSt8bad_castD1Ev@GOTPCREL(%rip), %rdx
	movq	_ZTISt8bad_cast@GOTPCREL(%rip), %rsi
	movq	%rax, %rdi
	movq	_ZTVSt8bad_cast@GOTPCREL(%rip), %rax
	addq	$16, %rax
	movq	%rax, (%rdi)
	call	__cxa_throw@PLT
	.cfi_endproc
.LFE11448:
	.size	_ZN4asio6detail15throw_exceptionISt8bad_castEEvRKT_.isra.0, .-_ZN4asio6detail15throw_exceptionISt8bad_castEEvRKT_.isra.0
	.section	.text._ZNSt23_Sp_counted_ptr_inplaceIN7openpal6Logger8SettingsESaIS2_ELN9__gnu_cxx12_Lock_policyE2EE14_M_get_deleterERKSt9type_info,"axG",@progbits,_ZNSt23_Sp_counted_ptr_inplaceIN7openpal6Logger8SettingsESaIS2_ELN9__gnu_cxx12_Lock_policyE2EE14_M_get_deleterERKSt9type_info,comdat
	.align 2
	.p2align 4
	.weak	_ZNSt23_Sp_counted_ptr_inplaceIN7openpal6Logger8SettingsESaIS2_ELN9__gnu_cxx12_Lock_policyE2EE14_M_get_deleterERKSt9type_info
	.type	_ZNSt23_Sp_counted_ptr_inplaceIN7openpal6Logger8SettingsESaIS2_ELN9__gnu_cxx12_Lock_policyE2EE14_M_get_deleterERKSt9type_info, @function
_ZNSt23_Sp_counted_ptr_inplaceIN7openpal6Logger8SettingsESaIS2_ELN9__gnu_cxx12_Lock_policyE2EE14_M_get_deleterERKSt9type_info:
.LFB11302:
	.cfi_startproc
	cmpq	_ZZNSt19_Sp_make_shared_tag5_S_tiEvE5__tag@GOTPCREL(%rip), %rsi
	pushq	%r12
	.cfi_def_cfa_offset 16
	.cfi_offset 12, -16
	leaq	16(%rdi), %r12
	je	.L45
	movq	8(%rsi), %rdi
	movq	_ZTSSt19_Sp_make_shared_tag@GOTPCREL(%rip), %rsi
	cmpq	%rsi, %rdi
	je	.L45
	cmpb	$42, (%rdi)
	je	.L47
	call	strcmp@PLT
	testl	%eax, %eax
	movl	$0, %eax
	cmovne	%rax, %r12
.L45:
	movq	%r12, %rax
	popq	%r12
	.cfi_remember_state
	.cfi_def_cfa_offset 8
	ret
	.p2align 4,,10
	.p2align 3
.L47:
	.cfi_restore_state
	xorl	%r12d, %r12d
	movq	%r12, %rax
	popq	%r12
	.cfi_def_cfa_offset 8
	ret
	.cfi_endproc
.LFE11302:
	.size	_ZNSt23_Sp_counted_ptr_inplaceIN7openpal6Logger8SettingsESaIS2_ELN9__gnu_cxx12_Lock_policyE2EE14_M_get_deleterERKSt9type_info, .-_ZNSt23_Sp_counted_ptr_inplaceIN7openpal6Logger8SettingsESaIS2_ELN9__gnu_cxx12_Lock_policyE2EE14_M_get_deleterERKSt9type_info
	.section	.text._ZNSt23_Sp_counted_ptr_inplaceIN8asiodnp311LinkSessionESaIS1_ELN9__gnu_cxx12_Lock_policyE2EE14_M_get_deleterERKSt9type_info,"axG",@progbits,_ZNSt23_Sp_counted_ptr_inplaceIN8asiodnp311LinkSessionESaIS1_ELN9__gnu_cxx12_Lock_policyE2EE14_M_get_deleterERKSt9type_info,comdat
	.align 2
	.p2align 4
	.weak	_ZNSt23_Sp_counted_ptr_inplaceIN8asiodnp311LinkSessionESaIS1_ELN9__gnu_cxx12_Lock_policyE2EE14_M_get_deleterERKSt9type_info
	.type	_ZNSt23_Sp_counted_ptr_inplaceIN8asiodnp311LinkSessionESaIS1_ELN9__gnu_cxx12_Lock_policyE2EE14_M_get_deleterERKSt9type_info, @function
_ZNSt23_Sp_counted_ptr_inplaceIN8asiodnp311LinkSessionESaIS1_ELN9__gnu_cxx12_Lock_policyE2EE14_M_get_deleterERKSt9type_info:
.LFB11253:
	.cfi_startproc
	cmpq	_ZZNSt19_Sp_make_shared_tag5_S_tiEvE5__tag@GOTPCREL(%rip), %rsi
	pushq	%r12
	.cfi_def_cfa_offset 16
	.cfi_offset 12, -16
	leaq	16(%rdi), %r12
	je	.L50
	movq	8(%rsi), %rdi
	movq	_ZTSSt19_Sp_make_shared_tag@GOTPCREL(%rip), %rsi
	cmpq	%rsi, %rdi
	je	.L50
	cmpb	$42, (%rdi)
	je	.L52
	call	strcmp@PLT
	testl	%eax, %eax
	movl	$0, %eax
	cmovne	%rax, %r12
.L50:
	movq	%r12, %rax
	popq	%r12
	.cfi_remember_state
	.cfi_def_cfa_offset 8
	ret
	.p2align 4,,10
	.p2align 3
.L52:
	.cfi_restore_state
	xorl	%r12d, %r12d
	movq	%r12, %rax
	popq	%r12
	.cfi_def_cfa_offset 8
	ret
	.cfi_endproc
.LFE11253:
	.size	_ZNSt23_Sp_counted_ptr_inplaceIN8asiodnp311LinkSessionESaIS1_ELN9__gnu_cxx12_Lock_policyE2EE14_M_get_deleterERKSt9type_info, .-_ZNSt23_Sp_counted_ptr_inplaceIN8asiodnp311LinkSessionESaIS1_ELN9__gnu_cxx12_Lock_policyE2EE14_M_get_deleterERKSt9type_info
	.section	.text._ZNSt23_Sp_counted_ptr_inplaceIN7asiopal8ExecutorESaIS1_ELN9__gnu_cxx12_Lock_policyE2EE14_M_get_deleterERKSt9type_info,"axG",@progbits,_ZNSt23_Sp_counted_ptr_inplaceIN7asiopal8ExecutorESaIS1_ELN9__gnu_cxx12_Lock_policyE2EE14_M_get_deleterERKSt9type_info,comdat
	.align 2
	.p2align 4
	.weak	_ZNSt23_Sp_counted_ptr_inplaceIN7asiopal8ExecutorESaIS1_ELN9__gnu_cxx12_Lock_policyE2EE14_M_get_deleterERKSt9type_info
	.type	_ZNSt23_Sp_counted_ptr_inplaceIN7asiopal8ExecutorESaIS1_ELN9__gnu_cxx12_Lock_policyE2EE14_M_get_deleterERKSt9type_info, @function
_ZNSt23_Sp_counted_ptr_inplaceIN7asiopal8ExecutorESaIS1_ELN9__gnu_cxx12_Lock_policyE2EE14_M_get_deleterERKSt9type_info:
.LFB11281:
	.cfi_startproc
	cmpq	_ZZNSt19_Sp_make_shared_tag5_S_tiEvE5__tag@GOTPCREL(%rip), %rsi
	pushq	%r12
	.cfi_def_cfa_offset 16
	.cfi_offset 12, -16
	leaq	16(%rdi), %r12
	je	.L55
	movq	8(%rsi), %rdi
	movq	_ZTSSt19_Sp_make_shared_tag@GOTPCREL(%rip), %rsi
	cmpq	%rsi, %rdi
	je	.L55
	cmpb	$42, (%rdi)
	je	.L57
	call	strcmp@PLT
	testl	%eax, %eax
	movl	$0, %eax
	cmovne	%rax, %r12
.L55:
	movq	%r12, %rax
	popq	%r12
	.cfi_remember_state
	.cfi_def_cfa_offset 8
	ret
	.p2align 4,,10
	.p2align 3
.L57:
	.cfi_restore_state
	xorl	%r12d, %r12d
	movq	%r12, %rax
	popq	%r12
	.cfi_def_cfa_offset 8
	ret
	.cfi_endproc
.LFE11281:
	.size	_ZNSt23_Sp_counted_ptr_inplaceIN7asiopal8ExecutorESaIS1_ELN9__gnu_cxx12_Lock_policyE2EE14_M_get_deleterERKSt9type_info, .-_ZNSt23_Sp_counted_ptr_inplaceIN7asiopal8ExecutorESaIS1_ELN9__gnu_cxx12_Lock_policyE2EE14_M_get_deleterERKSt9type_info
	.section	.rodata._ZNK4asio6detail15system_category7messageB5cxx11Ei.str1.8,"aMS",@progbits,1
	.align 8
.LC4:
	.string	"basic_string::_M_construct null not valid"
	.section	.text._ZNK4asio6detail15system_category7messageB5cxx11Ei,"axG",@progbits,_ZNK4asio6detail15system_category7messageB5cxx11Ei,comdat
	.align 2
	.p2align 4
	.weak	_ZNK4asio6detail15system_category7messageB5cxx11Ei
	.type	_ZNK4asio6detail15system_category7messageB5cxx11Ei, @function
_ZNK4asio6detail15system_category7messageB5cxx11Ei:
.LFB2446:
	.cfi_startproc
	pushq	%r14
	.cfi_def_cfa_offset 16
	.cfi_offset 14, -16
	pushq	%r13
	.cfi_def_cfa_offset 24
	.cfi_offset 13, -24
	pushq	%r12
	.cfi_def_cfa_offset 32
	.cfi_offset 12, -32
	movq	%rdi, %r12
	pushq	%rbp
	.cfi_def_cfa_offset 40
	.cfi_offset 6, -40
	leaq	16(%rdi), %rbp
	subq	$296, %rsp
	.cfi_def_cfa_offset 336
	movq	%fs:40, %rax
	movq	%rax, 280(%rsp)
	xorl	%eax, %eax
	cmpl	$125, %edx
	je	.L75
	pxor	%xmm0, %xmm0
	movl	%edx, %edi
	leaq	16(%rsp), %rsi
	movl	$256, %edx
	movups	%xmm0, 16(%rsp)
	movups	%xmm0, 32(%rsp)
	movups	%xmm0, 48(%rsp)
	movups	%xmm0, 64(%rsp)
	movups	%xmm0, 80(%rsp)
	movups	%xmm0, 96(%rsp)
	movups	%xmm0, 112(%rsp)
	movups	%xmm0, 128(%rsp)
	movups	%xmm0, 144(%rsp)
	movups	%xmm0, 160(%rsp)
	movups	%xmm0, 176(%rsp)
	movups	%xmm0, 192(%rsp)
	movups	%xmm0, 208(%rsp)
	movups	%xmm0, 224(%rsp)
	movups	%xmm0, 240(%rsp)
	movups	%xmm0, 256(%rsp)
	call	strerror_r@PLT
	movq	%rbp, (%r12)
	movq	%rax, %r13
	testq	%rax, %rax
	je	.L63
	movq	%rax, %rdi
	call	strlen@PLT
	movq	%rax, 8(%rsp)
	movq	%rax, %r14
	cmpq	$15, %rax
	ja	.L76
	cmpq	$1, %rax
	jne	.L67
	movzbl	0(%r13), %edx
	movb	%dl, 16(%r12)
.L68:
	movq	%rax, 8(%r12)
	movb	$0, 0(%rbp,%rax)
.L60:
	movq	280(%rsp), %rax
	subq	%fs:40, %rax
	jne	.L77
	addq	$296, %rsp
	.cfi_remember_state
	.cfi_def_cfa_offset 40
	movq	%r12, %rax
	popq	%rbp
	.cfi_def_cfa_offset 32
	popq	%r12
	.cfi_def_cfa_offset 24
	popq	%r13
	.cfi_def_cfa_offset 16
	popq	%r14
	.cfi_def_cfa_offset 8
	ret
	.p2align 4,,10
	.p2align 3
.L76:
	.cfi_restore_state
	leaq	8(%rsp), %rsi
	xorl	%edx, %edx
	movq	%r12, %rdi
	call	_ZNSt7__cxx1112basic_stringIcSt11char_traitsIcESaIcEE9_M_createERmm@PLT
	movq	%rax, (%r12)
	movq	%rax, %rbp
	movq	8(%rsp), %rax
	movq	%rax, 16(%r12)
.L66:
	movq	%rbp, %rdi
	movq	%r14, %rdx
	movq	%r13, %rsi
	call	memcpy@PLT
	movq	8(%rsp), %rax
	movq	(%r12), %rbp
	jmp	.L68
	.p2align 4,,10
	.p2align 3
.L75:
	movq	%rbp, (%rdi)
	xorl	%edx, %edx
	leaq	8(%rsp), %rsi
	movq	$18, 8(%rsp)
	call	_ZNSt7__cxx1112basic_stringIcSt11char_traitsIcESaIcEE9_M_createERmm@PLT
	movq	8(%rsp), %rdx
	movdqa	.LC5(%rip), %xmm0
	movq	%rax, (%r12)
	movq	%rdx, 16(%r12)
	movl	$11876, %edx
	movw	%dx, 16(%rax)
	movups	%xmm0, (%rax)
	movq	8(%rsp), %rax
	movq	(%r12), %rdx
	movq	%rax, 8(%r12)
	movb	$0, (%rdx,%rax)
	jmp	.L60
	.p2align 4,,10
	.p2align 3
.L67:
	testq	%rax, %rax
	je	.L68
	jmp	.L66
.L63:
	leaq	.LC4(%rip), %rdi
	call	_ZSt19__throw_logic_errorPKc@PLT
.L77:
	call	__stack_chk_fail@PLT
	.cfi_endproc
.LFE2446:
	.size	_ZNK4asio6detail15system_category7messageB5cxx11Ei, .-_ZNK4asio6detail15system_category7messageB5cxx11Ei
	.section	.text._ZNK4asio5error6detail17addrinfo_category7messageB5cxx11Ei,"axG",@progbits,_ZNK4asio5error6detail17addrinfo_category7messageB5cxx11Ei,comdat
	.align 2
	.p2align 4
	.weak	_ZNK4asio5error6detail17addrinfo_category7messageB5cxx11Ei
	.type	_ZNK4asio5error6detail17addrinfo_category7messageB5cxx11Ei, @function
_ZNK4asio5error6detail17addrinfo_category7messageB5cxx11Ei:
.LFB2492:
	.cfi_startproc
	pushq	%r12
	.cfi_def_cfa_offset 16
	.cfi_offset 12, -16
	movq	%rdi, %r12
	subq	$16, %rsp
	.cfi_def_cfa_offset 32
	movq	%fs:40, %rax
	movq	%rax, 8(%rsp)
	xorl	%eax, %eax
	leaq	16(%rdi), %rax
	movq	%rax, (%rdi)
	cmpl	$-8, %edx
	je	.L84
	cmpl	$-7, %edx
	je	.L85
	xorl	%edx, %edx
	movq	%rsp, %rsi
	movq	$19, (%rsp)
	call	_ZNSt7__cxx1112basic_stringIcSt11char_traitsIcESaIcEE9_M_createERmm@PLT
	movq	(%rsp), %rdx
	movdqa	.LC8(%rip), %xmm0
	movq	%rax, (%r12)
	movq	%rdx, 16(%r12)
	movl	$28530, %edx
	movw	%dx, 16(%rax)
	movb	$114, 18(%rax)
	movups	%xmm0, (%rax)
	movq	(%rsp), %rax
	movq	(%r12), %rdx
	movq	%rax, 8(%r12)
	movb	$0, (%rdx,%rax)
.L78:
	movq	8(%rsp), %rax
	subq	%fs:40, %rax
	jne	.L86
	addq	$16, %rsp
	.cfi_remember_state
	.cfi_def_cfa_offset 16
	movq	%r12, %rax
	popq	%r12
	.cfi_def_cfa_offset 8
	ret
	.p2align 4,,10
	.p2align 3
.L85:
	.cfi_restore_state
	xorl	%edx, %edx
	movq	%rsp, %rsi
	movq	$25, (%rsp)
	call	_ZNSt7__cxx1112basic_stringIcSt11char_traitsIcESaIcEE9_M_createERmm@PLT
	movq	(%rsp), %rdx
	movdqa	.LC7(%rip), %xmm0
	movabsq	$7310593918082512243, %rcx
	movq	%rax, (%r12)
	movq	%rdx, 16(%r12)
	movq	%rcx, 16(%rax)
	movb	$100, 24(%rax)
	movups	%xmm0, (%rax)
	movq	(%rsp), %rax
	movq	(%r12), %rdx
	movq	%rax, 8(%r12)
	movb	$0, (%rdx,%rax)
	jmp	.L78
	.p2align 4,,10
	.p2align 3
.L84:
	xorl	%edx, %edx
	movq	%rsp, %rsi
	movq	$17, (%rsp)
	call	_ZNSt7__cxx1112basic_stringIcSt11char_traitsIcESaIcEE9_M_createERmm@PLT
	movq	(%rsp), %rdx
	movdqa	.LC6(%rip), %xmm0
	movq	%rax, (%r12)
	movq	%rdx, 16(%r12)
	movb	$100, 16(%rax)
	movups	%xmm0, (%rax)
	movq	(%rsp), %rax
	movq	(%r12), %rdx
	movq	%rax, 8(%r12)
	movb	$0, (%rdx,%rax)
	jmp	.L78
.L86:
	call	__stack_chk_fail@PLT
	.cfi_endproc
.LFE2492:
	.size	_ZNK4asio5error6detail17addrinfo_category7messageB5cxx11Ei, .-_ZNK4asio5error6detail17addrinfo_category7messageB5cxx11Ei
	.section	.text._ZNSt23_Sp_counted_ptr_inplaceIN7asiopal8ExecutorESaIS1_ELN9__gnu_cxx12_Lock_policyE2EE10_M_disposeEv,"axG",@progbits,_ZNSt23_Sp_counted_ptr_inplaceIN7asiopal8ExecutorESaIS1_ELN9__gnu_cxx12_Lock_policyE2EE10_M_disposeEv,comdat
	.align 2
	.p2align 4
	.weak	_ZNSt23_Sp_counted_ptr_inplaceIN7asiopal8ExecutorESaIS1_ELN9__gnu_cxx12_Lock_policyE2EE10_M_disposeEv
	.type	_ZNSt23_Sp_counted_ptr_inplaceIN7asiopal8ExecutorESaIS1_ELN9__gnu_cxx12_Lock_policyE2EE10_M_disposeEv, @function
_ZNSt23_Sp_counted_ptr_inplaceIN7asiopal8ExecutorESaIS1_ELN9__gnu_cxx12_Lock_policyE2EE10_M_disposeEv:
.LFB11279:
	.cfi_startproc
	movq	_ZTVN7asiopal8ExecutorE@GOTPCREL(%rip), %rax
	pushq	%r12
	.cfi_def_cfa_offset 16
	.cfi_offset 12, -16
	pushq	%rbp
	.cfi_def_cfa_offset 24
	.cfi_offset 6, -24
	pushq	%rbx
	.cfi_def_cfa_offset 32
	.cfi_offset 3, -32
	movq	48(%rdi), %rbp
	addq	$16, %rax
	movq	%rdi, %rbx
	movq	%rax, 16(%rdi)
	testq	%rbp, %rbp
	je	.L89
	movq	_ZL28__gthrw___pthread_key_createPjPFvPvE@GOTPCREL(%rip), %r12
	testq	%r12, %r12
	jne	.L101
	movl	8(%rbp), %eax
	leal	-1(%rax), %edx
	movl	%edx, 8(%rbp)
.L91:
	cmpl	$1, %eax
	je	.L102
.L89:
	movq	32(%rbx), %rdi
	testq	%rdi, %rdi
	je	.L87
	cmpq	$0, _ZL28__gthrw___pthread_key_createPjPFvPvE@GOTPCREL(%rip)
	jne	.L103
	movl	12(%rdi), %eax
	leal	-1(%rax), %edx
	movl	%edx, 12(%rdi)
.L98:
	cmpl	$1, %eax
	je	.L104
.L87:
	popq	%rbx
	.cfi_remember_state
	.cfi_def_cfa_offset 24
	popq	%rbp
	.cfi_def_cfa_offset 16
	popq	%r12
	.cfi_def_cfa_offset 8
	ret
	.p2align 4,,10
	.p2align 3
.L102:
	.cfi_restore_state
	movq	0(%rbp), %rax
	movq	%rbp, %rdi
	call	*16(%rax)
	testq	%r12, %r12
	jne	.L105
	movl	12(%rbp), %eax
	leal	-1(%rax), %edx
	movl	%edx, 12(%rbp)
.L94:
	cmpl	$1, %eax
	jne	.L89
	movq	0(%rbp), %rax
	movq	%rbp, %rdi
	call	*24(%rax)
	jmp	.L89
	.p2align 4,,10
	.p2align 3
.L104:
	movq	(%rdi), %rax
	popq	%rbx
	.cfi_remember_state
	.cfi_def_cfa_offset 24
	popq	%rbp
	.cfi_def_cfa_offset 16
	popq	%r12
	.cfi_def_cfa_offset 8
	movq	24(%rax), %rax
	jmp	*%rax
	.p2align 4,,10
	.p2align 3
.L101:
	.cfi_restore_state
	movl	$-1, %eax
	lock xaddl	%eax, 8(%rbp)
	jmp	.L91
	.p2align 4,,10
	.p2align 3
.L103:
	movl	$-1, %eax
	lock xaddl	%eax, 12(%rdi)
	jmp	.L98
	.p2align 4,,10
	.p2align 3
.L105:
	movl	$-1, %eax
	lock xaddl	%eax, 12(%rbp)
	jmp	.L94
	.cfi_endproc
.LFE11279:
	.size	_ZNSt23_Sp_counted_ptr_inplaceIN7asiopal8ExecutorESaIS1_ELN9__gnu_cxx12_Lock_policyE2EE10_M_disposeEv, .-_ZNSt23_Sp_counted_ptr_inplaceIN7asiopal8ExecutorESaIS1_ELN9__gnu_cxx12_Lock_policyE2EE10_M_disposeEv
	.section	.text._ZNK4asio5error6detail13misc_category7messageB5cxx11Ei,"axG",@progbits,_ZNK4asio5error6detail13misc_category7messageB5cxx11Ei,comdat
	.align 2
	.p2align 4
	.weak	_ZNK4asio5error6detail13misc_category7messageB5cxx11Ei
	.type	_ZNK4asio5error6detail13misc_category7messageB5cxx11Ei, @function
_ZNK4asio5error6detail13misc_category7messageB5cxx11Ei:
.LFB2498:
	.cfi_startproc
	pushq	%r12
	.cfi_def_cfa_offset 16
	.cfi_offset 12, -16
	movq	%rdi, %r12
	subq	$16, %rsp
	.cfi_def_cfa_offset 32
	movq	%fs:40, %rax
	movq	%rax, 8(%rsp)
	xorl	%eax, %eax
	leaq	16(%rdi), %rax
	movq	%rax, (%rdi)
	cmpl	$1, %edx
	je	.L114
	cmpl	$2, %edx
	je	.L115
	cmpl	$3, %edx
	je	.L116
	cmpl	$4, %edx
	je	.L117
	movabsq	$8316298233121436513, %rcx
	movl	$28530, %edx
	movq	%rcx, 16(%rdi)
	movl	$1919230051, 8(%rax)
	movw	%dx, 12(%rax)
	movb	$114, 14(%rax)
	movq	$15, 8(%rdi)
	movb	$0, 31(%rdi)
.L106:
	movq	8(%rsp), %rax
	subq	%fs:40, %rax
	jne	.L118
	addq	$16, %rsp
	.cfi_remember_state
	.cfi_def_cfa_offset 16
	movq	%r12, %rax
	popq	%r12
	.cfi_def_cfa_offset 8
	ret
	.p2align 4,,10
	.p2align 3
.L114:
	.cfi_restore_state
	movabsq	$2340011850872286273, %rcx
	movq	%rcx, 16(%rdi)
	movl	$1852141679, 8(%rax)
	movq	$12, 8(%rdi)
	movb	$0, 28(%rdi)
	jmp	.L106
	.p2align 4,,10
	.p2align 3
.L117:
	movq	%rsp, %rsi
	xorl	%edx, %edx
	movq	$57, (%rsp)
	call	_ZNSt7__cxx1112basic_stringIcSt11char_traitsIcESaIcEE9_M_createERmm@PLT
	movq	(%rsp), %rdx
	movdqa	.LC10(%rip), %xmm0
	movabsq	$7310291504967217959, %rsi
	movq	%rax, (%r12)
	movq	%rdx, 16(%r12)
	movups	%xmm0, (%rax)
	movdqa	.LC11(%rip), %xmm0
	movq	%rsi, 48(%rax)
	movups	%xmm0, 16(%rax)
	movdqa	.LC12(%rip), %xmm0
	movb	$116, 56(%rax)
	movups	%xmm0, 32(%rax)
	movq	(%rsp), %rax
	movq	(%r12), %rdx
	movq	%rax, 8(%r12)
	movb	$0, (%rdx,%rax)
	jmp	.L106
	.p2align 4,,10
	.p2align 3
.L115:
	movabsq	$7358994418594246213, %rcx
	movq	%rcx, 16(%rdi)
	movl	$27753, %ecx
	movw	%cx, 8(%rax)
	movb	$101, 10(%rax)
	movq	$11, 8(%rdi)
	movb	$0, 27(%rdi)
	jmp	.L106
	.p2align 4,,10
	.p2align 3
.L116:
	xorl	%edx, %edx
	movq	%rsp, %rsi
	movq	$17, (%rsp)
	call	_ZNSt7__cxx1112basic_stringIcSt11char_traitsIcESaIcEE9_M_createERmm@PLT
	movq	(%rsp), %rdx
	movdqa	.LC9(%rip), %xmm0
	movq	%rax, (%r12)
	movq	%rdx, 16(%r12)
	movb	$100, 16(%rax)
	movups	%xmm0, (%rax)
	movq	(%rsp), %rax
	movq	(%r12), %rdx
	movq	%rax, 8(%r12)
	movb	$0, (%rdx,%rax)
	jmp	.L106
.L118:
	call	__stack_chk_fail@PLT
	.cfi_endproc
.LFE2498:
	.size	_ZNK4asio5error6detail13misc_category7messageB5cxx11Ei, .-_ZNK4asio5error6detail13misc_category7messageB5cxx11Ei
	.section	.text._ZNK4asio5error6detail14netdb_category7messageB5cxx11Ei,"axG",@progbits,_ZNK4asio5error6detail14netdb_category7messageB5cxx11Ei,comdat
	.align 2
	.p2align 4
	.weak	_ZNK4asio5error6detail14netdb_category7messageB5cxx11Ei
	.type	_ZNK4asio5error6detail14netdb_category7messageB5cxx11Ei, @function
_ZNK4asio5error6detail14netdb_category7messageB5cxx11Ei:
.LFB2486:
	.cfi_startproc
	pushq	%r12
	.cfi_def_cfa_offset 16
	.cfi_offset 12, -16
	movq	%rdi, %r12
	subq	$16, %rsp
	.cfi_def_cfa_offset 32
	movq	%fs:40, %rax
	movq	%rax, 8(%rsp)
	xorl	%eax, %eax
	leaq	16(%rdi), %rax
	movq	%rax, (%rdi)
	cmpl	$1, %edx
	je	.L127
	cmpl	$2, %edx
	je	.L128
	cmpl	$4, %edx
	je	.L129
	cmpl	$3, %edx
	je	.L130
	xorl	%edx, %edx
	movq	%rsp, %rsi
	movq	$16, (%rsp)
	call	_ZNSt7__cxx1112basic_stringIcSt11char_traitsIcESaIcEE9_M_createERmm@PLT
	movq	(%rsp), %rdx
	movdqa	.LC22(%rip), %xmm0
	movq	%rax, (%r12)
	movq	%rdx, 16(%r12)
	movups	%xmm0, (%rax)
	movq	(%rsp), %rax
	movq	(%r12), %rdx
	movq	%rax, 8(%r12)
	movb	$0, (%rdx,%rax)
.L119:
	movq	8(%rsp), %rax
	subq	%fs:40, %rax
	jne	.L131
	addq	$16, %rsp
	.cfi_remember_state
	.cfi_def_cfa_offset 16
	movq	%r12, %rax
	popq	%r12
	.cfi_def_cfa_offset 8
	ret
	.p2align 4,,10
	.p2align 3
.L127:
	.cfi_restore_state
	movq	%rsp, %rsi
	xorl	%edx, %edx
	movq	$30, (%rsp)
	call	_ZNSt7__cxx1112basic_stringIcSt11char_traitsIcESaIcEE9_M_createERmm@PLT
	movq	(%rsp), %rdx
	movl	$10597, %esi
	movdqa	.LC13(%rip), %xmm0
	movabsq	$8388361603773658465, %rcx
	movq	%rax, (%r12)
	movq	%rdx, 16(%r12)
	movq	%rcx, 16(%rax)
	movl	$1986622561, 24(%rax)
	movw	%si, 28(%rax)
	movups	%xmm0, (%rax)
	movq	(%rsp), %rax
	movq	(%r12), %rdx
	movq	%rax, 8(%r12)
	movb	$0, (%rdx,%rax)
	jmp	.L119
	.p2align 4,,10
	.p2align 3
.L130:
	xorl	%edx, %edx
	movq	%rsp, %rsi
	movq	$55, (%rsp)
	call	_ZNSt7__cxx1112basic_stringIcSt11char_traitsIcESaIcEE9_M_createERmm@PLT
	movq	(%rsp), %rdx
	movdqa	.LC19(%rip), %xmm0
	movq	%rax, (%r12)
	movq	%rdx, 16(%r12)
	movl	$30059, %edx
	movups	%xmm0, (%rax)
	movdqa	.LC20(%rip), %xmm0
	movl	$1869573152, 48(%rax)
	movups	%xmm0, 16(%rax)
	movdqa	.LC21(%rip), %xmm0
	movw	%dx, 52(%rax)
	movb	$112, 54(%rax)
	movups	%xmm0, 32(%rax)
	movq	(%rsp), %rax
	movq	(%r12), %rdx
	movq	%rax, 8(%r12)
	movb	$0, (%rdx,%rax)
	jmp	.L119
	.p2align 4,,10
	.p2align 3
.L128:
	xorl	%edx, %edx
	movq	%rsp, %rsi
	movq	$51, (%rsp)
	call	_ZNSt7__cxx1112basic_stringIcSt11char_traitsIcESaIcEE9_M_createERmm@PLT
	movq	(%rsp), %rdx
	movl	$25972, %ecx
	movdqa	.LC13(%rip), %xmm0
	movq	%rax, (%r12)
	movq	%rdx, 16(%r12)
	movups	%xmm0, (%rax)
	movdqa	.LC14(%rip), %xmm0
	movw	%cx, 48(%rax)
	movups	%xmm0, 16(%rax)
	movdqa	.LC15(%rip), %xmm0
	movb	$114, 50(%rax)
	movups	%xmm0, 32(%rax)
	movq	(%rsp), %rax
	movq	(%r12), %rdx
	movq	%rax, 8(%r12)
	movb	$0, (%rdx,%rax)
	jmp	.L119
	.p2align 4,,10
	.p2align 3
.L129:
	xorl	%edx, %edx
	movq	%rsp, %rsi
	movq	$56, (%rsp)
	call	_ZNSt7__cxx1112basic_stringIcSt11char_traitsIcESaIcEE9_M_createERmm@PLT
	movq	(%rsp), %rdx
	movdqa	.LC16(%rip), %xmm0
	movabsq	$7022344801645520244, %rcx
	movq	%rax, (%r12)
	movq	%rdx, 16(%r12)
	movups	%xmm0, (%rax)
	movdqa	.LC17(%rip), %xmm0
	movq	%rcx, 48(%rax)
	movups	%xmm0, 16(%rax)
	movdqa	.LC18(%rip), %xmm0
	movups	%xmm0, 32(%rax)
	movq	(%rsp), %rax
	movq	(%r12), %rdx
	movq	%rax, 8(%r12)
	movb	$0, (%rdx,%rax)
	jmp	.L119
.L131:
	call	__stack_chk_fail@PLT
	.cfi_endproc
.LFE2486:
	.size	_ZNK4asio5error6detail14netdb_category7messageB5cxx11Ei, .-_ZNK4asio5error6detail14netdb_category7messageB5cxx11Ei
	.section	.text._ZNSt23_Sp_counted_ptr_inplaceIN8asiodnp311LinkSessionESaIS1_ELN9__gnu_cxx12_Lock_policyE2EE10_M_disposeEv,"axG",@progbits,_ZNSt23_Sp_counted_ptr_inplaceIN8asiodnp311LinkSessionESaIS1_ELN9__gnu_cxx12_Lock_policyE2EE10_M_disposeEv,comdat
	.align 2
	.p2align 4
	.weak	_ZNSt23_Sp_counted_ptr_inplaceIN8asiodnp311LinkSessionESaIS1_ELN9__gnu_cxx12_Lock_policyE2EE10_M_disposeEv
	.type	_ZNSt23_Sp_counted_ptr_inplaceIN8asiodnp311LinkSessionESaIS1_ELN9__gnu_cxx12_Lock_policyE2EE10_M_disposeEv, @function
_ZNSt23_Sp_counted_ptr_inplaceIN8asiodnp311LinkSessionESaIS1_ELN9__gnu_cxx12_Lock_policyE2EE10_M_disposeEv:
.LFB11251:
	.cfi_startproc
	movq	_ZTVN8asiodnp311LinkSessionE@GOTPCREL(%rip), %rax
	pushq	%r12
	.cfi_def_cfa_offset 16
	.cfi_offset 12, -16
	pushq	%rbp
	.cfi_def_cfa_offset 24
	.cfi_offset 6, -24
	leaq	96(%rax), %rdx
	leaq	16(%rax), %rcx
	pushq	%rbx
	.cfi_def_cfa_offset 32
	.cfi_offset 3, -32
	movq	616(%rdi), %r12
	movq	%rdx, %xmm1
	movq	%rcx, %xmm0
	leaq	144(%rax), %rdx
	movq	%rdi, %rbx
	punpcklqdq	%xmm1, %xmm0
	movq	%rdx, 32(%rdi)
	leaq	224(%rax), %rdx
	addq	$184, %rax
	movups	%xmm0, 16(%rdi)
	movq	%rdx, %xmm2
	movq	%rax, %xmm0
	punpcklqdq	%xmm2, %xmm0
	movups	%xmm0, 56(%rdi)
	testq	%r12, %r12
	je	.L134
	movq	_ZL28__gthrw___pthread_key_createPjPFvPvE@GOTPCREL(%rip), %rbp
	testq	%rbp, %rbp
	jne	.L195
	movl	8(%r12), %eax
	leal	-1(%rax), %edx
	movl	%edx, 8(%r12)
.L136:
	cmpl	$1, %eax
	je	.L196
.L134:
	leaq	584(%rbx), %rdi
	call	_ZN7openpal8TimerRefD1Ev@PLT
	movq	192(%rbx), %r12
	testq	%r12, %r12
	je	.L141
	movq	_ZL28__gthrw___pthread_key_createPjPFvPvE@GOTPCREL(%rip), %rbp
	testq	%rbp, %rbp
	jne	.L197
	movl	8(%r12), %eax
	leal	-1(%rax), %edx
	movl	%edx, 8(%r12)
.L143:
	cmpl	$1, %eax
	je	.L198
.L141:
	movq	176(%rbx), %r12
	testq	%r12, %r12
	je	.L148
	movq	_ZL28__gthrw___pthread_key_createPjPFvPvE@GOTPCREL(%rip), %rbp
	testq	%rbp, %rbp
	jne	.L199
	movl	8(%r12), %eax
	leal	-1(%rax), %edx
	movl	%edx, 8(%r12)
.L150:
	cmpl	$1, %eax
	je	.L200
.L148:
	movq	160(%rbx), %r12
	testq	%r12, %r12
	je	.L155
	movq	_ZL28__gthrw___pthread_key_createPjPFvPvE@GOTPCREL(%rip), %rbp
	testq	%rbp, %rbp
	jne	.L201
	movl	8(%r12), %eax
	leal	-1(%rax), %edx
	movl	%edx, 8(%r12)
.L157:
	cmpl	$1, %eax
	je	.L202
.L155:
	movq	144(%rbx), %r12
	testq	%r12, %r12
	je	.L162
	movq	_ZL28__gthrw___pthread_key_createPjPFvPvE@GOTPCREL(%rip), %rbp
	testq	%rbp, %rbp
	jne	.L203
	movl	8(%r12), %eax
	leal	-1(%rax), %edx
	movl	%edx, 8(%r12)
.L164:
	cmpl	$1, %eax
	je	.L204
.L162:
	movq	128(%rbx), %r12
	testq	%r12, %r12
	je	.L169
	movq	_ZL28__gthrw___pthread_key_createPjPFvPvE@GOTPCREL(%rip), %rbp
	testq	%rbp, %rbp
	jne	.L205
	movl	8(%r12), %eax
	leal	-1(%rax), %edx
	movl	%edx, 8(%r12)
.L171:
	cmpl	$1, %eax
	je	.L206
.L169:
	movq	104(%rbx), %r12
	testq	%r12, %r12
	je	.L176
	movq	_ZL28__gthrw___pthread_key_createPjPFvPvE@GOTPCREL(%rip), %rbp
	testq	%rbp, %rbp
	jne	.L207
	movl	8(%r12), %eax
	leal	-1(%rax), %edx
	movl	%edx, 8(%r12)
.L178:
	cmpl	$1, %eax
	je	.L208
.L176:
	movq	88(%rbx), %r12
	testq	%r12, %r12
	je	.L183
	movq	_ZL28__gthrw___pthread_key_createPjPFvPvE@GOTPCREL(%rip), %rbp
	testq	%rbp, %rbp
	jne	.L209
	movl	8(%r12), %eax
	leal	-1(%rax), %edx
	movl	%edx, 8(%r12)
.L185:
	cmpl	$1, %eax
	je	.L210
.L183:
	movq	48(%rbx), %rdi
	testq	%rdi, %rdi
	je	.L132
	cmpq	$0, _ZL28__gthrw___pthread_key_createPjPFvPvE@GOTPCREL(%rip)
	jne	.L211
	movl	12(%rdi), %eax
	leal	-1(%rax), %edx
	movl	%edx, 12(%rdi)
.L192:
	cmpl	$1, %eax
	je	.L212
.L132:
	popq	%rbx
	.cfi_remember_state
	.cfi_def_cfa_offset 24
	popq	%rbp
	.cfi_def_cfa_offset 16
	popq	%r12
	.cfi_def_cfa_offset 8
	ret
	.p2align 4,,10
	.p2align 3
.L196:
	.cfi_restore_state
	movq	(%r12), %rax
	movq	%r12, %rdi
	call	*16(%rax)
	testq	%rbp, %rbp
	jne	.L213
	movl	12(%r12), %eax
	leal	-1(%rax), %edx
	movl	%edx, 12(%r12)
.L139:
	cmpl	$1, %eax
	jne	.L134
	movq	(%r12), %rax
	movq	%r12, %rdi
	call	*24(%rax)
	jmp	.L134
	.p2align 4,,10
	.p2align 3
.L198:
	movq	(%r12), %rax
	movq	%r12, %rdi
	call	*16(%rax)
	testq	%rbp, %rbp
	jne	.L214
	movl	12(%r12), %eax
	leal	-1(%rax), %edx
	movl	%edx, 12(%r12)
.L146:
	cmpl	$1, %eax
	jne	.L141
	movq	(%r12), %rax
	movq	%r12, %rdi
	call	*24(%rax)
	jmp	.L141
	.p2align 4,,10
	.p2align 3
.L200:
	movq	(%r12), %rax
	movq	%r12, %rdi
	call	*16(%rax)
	testq	%rbp, %rbp
	jne	.L215
	movl	12(%r12), %eax
	leal	-1(%rax), %edx
	movl	%edx, 12(%r12)
.L153:
	cmpl	$1, %eax
	jne	.L148
	movq	(%r12), %rax
	movq	%r12, %rdi
	call	*24(%rax)
	jmp	.L148
	.p2align 4,,10
	.p2align 3
.L208:
	movq	(%r12), %rax
	movq	%r12, %rdi
	call	*16(%rax)
	testq	%rbp, %rbp
	jne	.L216
	movl	12(%r12), %eax
	leal	-1(%rax), %edx
	movl	%edx, 12(%r12)
.L181:
	cmpl	$1, %eax
	jne	.L176
	movq	(%r12), %rax
	movq	%r12, %rdi
	call	*24(%rax)
	jmp	.L176
	.p2align 4,,10
	.p2align 3
.L204:
	movq	(%r12), %rax
	movq	%r12, %rdi
	call	*16(%rax)
	testq	%rbp, %rbp
	jne	.L217
	movl	12(%r12), %eax
	leal	-1(%rax), %edx
	movl	%edx, 12(%r12)
.L167:
	cmpl	$1, %eax
	jne	.L162
	movq	(%r12), %rax
	movq	%r12, %rdi
	call	*24(%rax)
	jmp	.L162
	.p2align 4,,10
	.p2align 3
.L212:
	movq	(%rdi), %rax
	popq	%rbx
	.cfi_remember_state
	.cfi_def_cfa_offset 24
	popq	%rbp
	.cfi_def_cfa_offset 16
	popq	%r12
	.cfi_def_cfa_offset 8
	movq	24(%rax), %rax
	jmp	*%rax
	.p2align 4,,10
	.p2align 3
.L202:
	.cfi_restore_state
	movq	(%r12), %rax
	movq	%r12, %rdi
	call	*16(%rax)
	testq	%rbp, %rbp
	jne	.L218
	movl	12(%r12), %eax
	leal	-1(%rax), %edx
	movl	%edx, 12(%r12)
.L160:
	cmpl	$1, %eax
	jne	.L155
	movq	(%r12), %rax
	movq	%r12, %rdi
	call	*24(%rax)
	jmp	.L155
	.p2align 4,,10
	.p2align 3
.L206:
	movq	(%r12), %rax
	movq	%r12, %rdi
	call	*16(%rax)
	testq	%rbp, %rbp
	jne	.L219
	movl	12(%r12), %eax
	leal	-1(%rax), %edx
	movl	%edx, 12(%r12)
.L174:
	cmpl	$1, %eax
	jne	.L169
	movq	(%r12), %rax
	movq	%r12, %rdi
	call	*24(%rax)
	jmp	.L169
	.p2align 4,,10
	.p2align 3
.L210:
	movq	(%r12), %rax
	movq	%r12, %rdi
	call	*16(%rax)
	testq	%rbp, %rbp
	jne	.L220
	movl	12(%r12), %eax
	leal	-1(%rax), %edx
	movl	%edx, 12(%r12)
.L188:
	cmpl	$1, %eax
	jne	.L183
	movq	(%r12), %rax
	movq	%r12, %rdi
	call	*24(%rax)
	jmp	.L183
	.p2align 4,,10
	.p2align 3
.L207:
	movl	$-1, %eax
	lock xaddl	%eax, 8(%r12)
	jmp	.L178
	.p2align 4,,10
	.p2align 3
.L205:
	movl	$-1, %eax
	lock xaddl	%eax, 8(%r12)
	jmp	.L171
	.p2align 4,,10
	.p2align 3
.L199:
	movl	$-1, %eax
	lock xaddl	%eax, 8(%r12)
	jmp	.L150
	.p2align 4,,10
	.p2align 3
.L201:
	movl	$-1, %eax
	lock xaddl	%eax, 8(%r12)
	jmp	.L157
	.p2align 4,,10
	.p2align 3
.L203:
	movl	$-1, %eax
	lock xaddl	%eax, 8(%r12)
	jmp	.L164
	.p2align 4,,10
	.p2align 3
.L195:
	movl	$-1, %eax
	lock xaddl	%eax, 8(%r12)
	jmp	.L136
	.p2align 4,,10
	.p2align 3
.L211:
	movl	$-1, %eax
	lock xaddl	%eax, 12(%rdi)
	jmp	.L192
	.p2align 4,,10
	.p2align 3
.L197:
	movl	$-1, %eax
	lock xaddl	%eax, 8(%r12)
	jmp	.L143
	.p2align 4,,10
	.p2align 3
.L209:
	movl	$-1, %eax
	lock xaddl	%eax, 8(%r12)
	jmp	.L185
	.p2align 4,,10
	.p2align 3
.L217:
	movl	$-1, %eax
	lock xaddl	%eax, 12(%r12)
	jmp	.L167
	.p2align 4,,10
	.p2align 3
.L220:
	movl	$-1, %eax
	lock xaddl	%eax, 12(%r12)
	jmp	.L188
	.p2align 4,,10
	.p2align 3
.L215:
	movl	$-1, %eax
	lock xaddl	%eax, 12(%r12)
	jmp	.L153
	.p2align 4,,10
	.p2align 3
.L219:
	movl	$-1, %eax
	lock xaddl	%eax, 12(%r12)
	jmp	.L174
	.p2align 4,,10
	.p2align 3
.L213:
	movl	$-1, %eax
	lock xaddl	%eax, 12(%r12)
	jmp	.L139
	.p2align 4,,10
	.p2align 3
.L214:
	movl	$-1, %eax
	lock xaddl	%eax, 12(%r12)
	jmp	.L146
	.p2align 4,,10
	.p2align 3
.L216:
	movl	$-1, %eax
	lock xaddl	%eax, 12(%r12)
	jmp	.L181
	.p2align 4,,10
	.p2align 3
.L218:
	movl	$-1, %eax
	lock xaddl	%eax, 12(%r12)
	jmp	.L160
	.cfi_endproc
.LFE11251:
	.size	_ZNSt23_Sp_counted_ptr_inplaceIN8asiodnp311LinkSessionESaIS1_ELN9__gnu_cxx12_Lock_policyE2EE10_M_disposeEv, .-_ZNSt23_Sp_counted_ptr_inplaceIN8asiodnp311LinkSessionESaIS1_ELN9__gnu_cxx12_Lock_policyE2EE10_M_disposeEv
	.section	.text.unlikely._ZSt20__throw_bad_weak_ptrv,"axG",@progbits,_ZSt20__throw_bad_weak_ptrv,comdat
	.weak	_ZSt20__throw_bad_weak_ptrv
	.type	_ZSt20__throw_bad_weak_ptrv, @function
_ZSt20__throw_bad_weak_ptrv:
.LFB1225:
	.cfi_startproc
	pushq	%rax
	.cfi_def_cfa_offset 16
	popq	%rax
	.cfi_def_cfa_offset 8
	movl	$8, %edi
	pushq	%rax
	.cfi_def_cfa_offset 16
	call	__cxa_allocate_exception@PLT
	movq	_ZNSt12bad_weak_ptrD1Ev@GOTPCREL(%rip), %rdx
	movq	_ZTISt12bad_weak_ptr@GOTPCREL(%rip), %rsi
	movq	%rax, %rdi
	movq	_ZTVSt12bad_weak_ptr@GOTPCREL(%rip), %rax
	addq	$16, %rax
	movq	%rax, (%rdi)
	call	__cxa_throw@PLT
	.cfi_endproc
.LFE1225:
	.size	_ZSt20__throw_bad_weak_ptrv, .-_ZSt20__throw_bad_weak_ptrv
	.section	.text._ZN7openpal6LoggerD2Ev,"axG",@progbits,_ZN7openpal6LoggerD5Ev,comdat
	.align 2
	.p2align 4
	.weak	_ZN7openpal6LoggerD2Ev
	.type	_ZN7openpal6LoggerD2Ev, @function
_ZN7openpal6LoggerD2Ev:
.LFB2043:
	.cfi_startproc
	pushq	%r12
	.cfi_def_cfa_offset 16
	.cfi_offset 12, -16
	pushq	%rbp
	.cfi_def_cfa_offset 24
	.cfi_offset 6, -24
	pushq	%rbx
	.cfi_def_cfa_offset 32
	.cfi_offset 3, -32
	movq	24(%rdi), %rbp
	movq	%rdi, %rbx
	testq	%rbp, %rbp
	je	.L225
	movq	_ZL28__gthrw___pthread_key_createPjPFvPvE@GOTPCREL(%rip), %r12
	testq	%r12, %r12
	jne	.L239
	movl	8(%rbp), %eax
	leal	-1(%rax), %edx
	movl	%edx, 8(%rbp)
.L227:
	cmpl	$1, %eax
	je	.L240
.L225:
	movq	8(%rbx), %rbp
	testq	%rbp, %rbp
	je	.L223
	movq	_ZL28__gthrw___pthread_key_createPjPFvPvE@GOTPCREL(%rip), %r12
	testq	%r12, %r12
	jne	.L241
	movl	8(%rbp), %eax
	leal	-1(%rax), %edx
	movl	%edx, 8(%rbp)
.L234:
	cmpl	$1, %eax
	je	.L242
.L223:
	popq	%rbx
	.cfi_remember_state
	.cfi_def_cfa_offset 24
	popq	%rbp
	.cfi_def_cfa_offset 16
	popq	%r12
	.cfi_def_cfa_offset 8
	ret
	.p2align 4,,10
	.p2align 3
.L240:
	.cfi_restore_state
	movq	0(%rbp), %rax
	movq	%rbp, %rdi
	call	*16(%rax)
	testq	%r12, %r12
	jne	.L243
	movl	12(%rbp), %eax
	leal	-1(%rax), %edx
	movl	%edx, 12(%rbp)
.L230:
	cmpl	$1, %eax
	jne	.L225
	movq	0(%rbp), %rax
	movq	%rbp, %rdi
	call	*24(%rax)
	jmp	.L225
	.p2align 4,,10
	.p2align 3
.L242:
	movq	0(%rbp), %rax
	movq	%rbp, %rdi
	call	*16(%rax)
	testq	%r12, %r12
	jne	.L244
	movl	12(%rbp), %eax
	leal	-1(%rax), %edx
	movl	%edx, 12(%rbp)
.L237:
	cmpl	$1, %eax
	jne	.L223
	movq	0(%rbp), %rax
	popq	%rbx
	.cfi_remember_state
	.cfi_def_cfa_offset 24
	movq	%rbp, %rdi
	popq	%rbp
	.cfi_def_cfa_offset 16
	popq	%r12
	.cfi_def_cfa_offset 8
	movq	24(%rax), %rax
	jmp	*%rax
	.p2align 4,,10
	.p2align 3
.L239:
	.cfi_restore_state
	movl	$-1, %eax
	lock xaddl	%eax, 8(%rbp)
	jmp	.L227
	.p2align 4,,10
	.p2align 3
.L241:
	movl	$-1, %eax
	lock xaddl	%eax, 8(%rbp)
	jmp	.L234
	.p2align 4,,10
	.p2align 3
.L243:
	movl	$-1, %eax
	lock xaddl	%eax, 12(%rbp)
	jmp	.L230
	.p2align 4,,10
	.p2align 3
.L244:
	movl	$-1, %eax
	lock xaddl	%eax, 12(%rbp)
	jmp	.L237
	.cfi_endproc
.LFE2043:
	.size	_ZN7openpal6LoggerD2Ev, .-_ZN7openpal6LoggerD2Ev
	.weak	_ZN7openpal6LoggerD1Ev
	.set	_ZN7openpal6LoggerD1Ev,_ZN7openpal6LoggerD2Ev
	.section	.rodata._ZNSt12system_errorC2ESt10error_codePKc.str1.1,"aMS",@progbits,1
.LC23:
	.string	": "
	.section	.text._ZNSt12system_errorC2ESt10error_codePKc,"axG",@progbits,_ZNSt12system_errorC5ESt10error_codePKc,comdat
	.align 2
	.p2align 4
	.weak	_ZNSt12system_errorC2ESt10error_codePKc
	.type	_ZNSt12system_errorC2ESt10error_codePKc, @function
_ZNSt12system_errorC2ESt10error_codePKc:
.LFB2384:
	.cfi_startproc
	.cfi_personality 0x9b,DW.ref.__gxx_personality_v0
	.cfi_lsda 0x1b,.LLSDA2384
	pushq	%r14
	.cfi_def_cfa_offset 16
	.cfi_offset 14, -16
	movq	%rcx, %r14
	pushq	%r13
	.cfi_def_cfa_offset 24
	.cfi_offset 13, -24
	pushq	%r12
	.cfi_def_cfa_offset 32
	.cfi_offset 12, -32
	movq	%rsi, %r12
	pushq	%rbp
	.cfi_def_cfa_offset 40
	.cfi_offset 6, -40
	movq	%rdx, %rbp
	pushq	%rbx
	.cfi_def_cfa_offset 48
	.cfi_offset 3, -48
	movq	%rdi, %rbx
	subq	$112, %rsp
	.cfi_def_cfa_offset 160
	movq	%fs:40, %rax
	movq	%rax, 104(%rsp)
	xorl	%eax, %eax
	movq	(%rdx), %rax
	leaq	64(%rsp), %r13
	movl	%esi, %edx
	movq	%r13, %rdi
	movq	%rbp, %rsi
.LEHB0:
	call	*32(%rax)
.LEHE0:
	movl	$2, %r8d
	xorl	%edx, %edx
	xorl	%esi, %esi
	leaq	.LC23(%rip), %rcx
	movq	%r13, %rdi
.LEHB1:
	call	_ZNSt7__cxx1112basic_stringIcSt11char_traitsIcESaIcEE10_M_replaceEmmPKcm@PLT
.LEHE1:
	leaq	48(%rsp), %r13
	leaq	16(%rax), %rdx
	movq	%r13, 32(%rsp)
	movq	(%rax), %rcx
	cmpq	%rdx, %rcx
	je	.L265
	movq	%rcx, 32(%rsp)
	movq	16(%rax), %rcx
	movq	%rcx, 48(%rsp)
.L247:
	movq	8(%rax), %rcx
	movb	$0, 16(%rax)
	movq	%r14, %rdi
	movq	%rcx, 40(%rsp)
	movq	%rdx, (%rax)
	movq	$0, 8(%rax)
	call	strlen@PLT
	leaq	32(%rsp), %rdi
	movq	%r14, %rcx
	xorl	%edx, %edx
	movq	%rax, %r8
	xorl	%esi, %esi
.LEHB2:
	call	_ZNSt7__cxx1112basic_stringIcSt11char_traitsIcESaIcEE10_M_replaceEmmPKcm@PLT
.LEHE2:
	leaq	16(%rsp), %r14
	leaq	16(%rax), %rdx
	movq	%r14, (%rsp)
	movq	(%rax), %rcx
	cmpq	%rdx, %rcx
	je	.L266
	movq	%rcx, (%rsp)
	movq	16(%rax), %rcx
	movq	%rcx, 16(%rsp)
.L249:
	movq	8(%rax), %rcx
	movb	$0, 16(%rax)
	movq	%rsp, %rsi
	movq	%rbx, %rdi
	movq	%rcx, 8(%rsp)
	movq	%rdx, (%rax)
	movq	$0, 8(%rax)
.LEHB3:
	call	_ZNSt13runtime_errorC2ERKNSt7__cxx1112basic_stringIcSt11char_traitsIcESaIcEEE@PLT
.LEHE3:
	movq	(%rsp), %rdi
	cmpq	%r14, %rdi
	je	.L250
	movq	16(%rsp), %rax
	leaq	1(%rax), %rsi
	call	_ZdlPvm@PLT
.L250:
	movq	32(%rsp), %rdi
	cmpq	%r13, %rdi
	je	.L251
	movq	48(%rsp), %rax
	leaq	1(%rax), %rsi
	call	_ZdlPvm@PLT
.L251:
	movq	64(%rsp), %rdi
	leaq	80(%rsp), %rax
	cmpq	%rax, %rdi
	je	.L252
	movq	80(%rsp), %rax
	leaq	1(%rax), %rsi
	call	_ZdlPvm@PLT
.L252:
	movq	_ZTVSt12system_error@GOTPCREL(%rip), %rax
	movq	%r12, 16(%rbx)
	movq	%rbp, 24(%rbx)
	addq	$16, %rax
	movq	%rax, (%rbx)
	movq	104(%rsp), %rax
	subq	%fs:40, %rax
	jne	.L267
	addq	$112, %rsp
	.cfi_remember_state
	.cfi_def_cfa_offset 48
	popq	%rbx
	.cfi_def_cfa_offset 40
	popq	%rbp
	.cfi_def_cfa_offset 32
	popq	%r12
	.cfi_def_cfa_offset 24
	popq	%r13
	.cfi_def_cfa_offset 16
	popq	%r14
	.cfi_def_cfa_offset 8
	ret
	.p2align 4,,10
	.p2align 3
.L265:
	.cfi_restore_state
	movdqu	16(%rax), %xmm0
	movaps	%xmm0, 48(%rsp)
	jmp	.L247
	.p2align 4,,10
	.p2align 3
.L266:
	movdqu	16(%rax), %xmm1
	movaps	%xmm1, 16(%rsp)
	jmp	.L249
.L267:
	call	__stack_chk_fail@PLT
.L262:
	movq	%rax, %rbp
	jmp	.L253
.L260:
	movq	%rax, %rbp
	jmp	.L257
.L261:
	movq	%rax, %rbp
	jmp	.L255
.L253:
	movq	(%rsp), %rdi
	cmpq	%r14, %rdi
	je	.L255
	movq	16(%rsp), %rax
	leaq	1(%rax), %rsi
	call	_ZdlPvm@PLT
.L255:
	movq	32(%rsp), %rdi
	cmpq	%r13, %rdi
	je	.L257
	movq	48(%rsp), %rax
	leaq	1(%rax), %rsi
	call	_ZdlPvm@PLT
.L257:
	movq	64(%rsp), %rdi
	leaq	80(%rsp), %rax
	cmpq	%rax, %rdi
	je	.L258
	movq	80(%rsp), %rax
	leaq	1(%rax), %rsi
	call	_ZdlPvm@PLT
.L258:
	movq	%rbp, %rdi
.LEHB4:
	call	_Unwind_Resume@PLT
.LEHE4:
	.cfi_endproc
.LFE2384:
	.globl	__gxx_personality_v0
	.section	.gcc_except_table._ZNSt12system_errorC2ESt10error_codePKc,"aG",@progbits,_ZNSt12system_errorC5ESt10error_codePKc,comdat
.LLSDA2384:
	.byte	0xff
	.byte	0xff
	.byte	0x1
	.uleb128 .LLSDACSE2384-.LLSDACSB2384
.LLSDACSB2384:
	.uleb128 .LEHB0-.LFB2384
	.uleb128 .LEHE0-.LEHB0
	.uleb128 0
	.uleb128 0
	.uleb128 .LEHB1-.LFB2384
	.uleb128 .LEHE1-.LEHB1
	.uleb128 .L260-.LFB2384
	.uleb128 0
	.uleb128 .LEHB2-.LFB2384
	.uleb128 .LEHE2-.LEHB2
	.uleb128 .L261-.LFB2384
	.uleb128 0
	.uleb128 .LEHB3-.LFB2384
	.uleb128 .LEHE3-.LEHB3
	.uleb128 .L262-.LFB2384
	.uleb128 0
	.uleb128 .LEHB4-.LFB2384
	.uleb128 .LEHE4-.LEHB4
	.uleb128 0
	.uleb128 0
.LLSDACSE2384:
	.section	.text._ZNSt12system_errorC2ESt10error_codePKc,"axG",@progbits,_ZNSt12system_errorC5ESt10error_codePKc,comdat
	.size	_ZNSt12system_errorC2ESt10error_codePKc, .-_ZNSt12system_errorC2ESt10error_codePKc
	.weak	_ZNSt12system_errorC1ESt10error_codePKc
	.set	_ZNSt12system_errorC1ESt10error_codePKc,_ZNSt12system_errorC2ESt10error_codePKc
	.section	.text._ZN4asio15system_categoryEv,"axG",@progbits,_ZN4asio15system_categoryEv,comdat
	.p2align 4
	.weak	_ZN4asio15system_categoryEv
	.type	_ZN4asio15system_categoryEv, @function
_ZN4asio15system_categoryEv:
.LFB2449:
	.cfi_startproc
	pushq	%r12
	.cfi_def_cfa_offset 16
	.cfi_offset 12, -16
	pushq	%rbp
	.cfi_def_cfa_offset 24
	.cfi_offset 6, -24
	subq	$8, %rsp
	.cfi_def_cfa_offset 32
	movq	_ZGVZN4asio15system_categoryEvE8instance@GOTPCREL(%rip), %rbp
	movzbl	0(%rbp), %eax
	testb	%al, %al
	je	.L269
.L276:
	movq	_ZZN4asio15system_categoryEvE8instance@GOTPCREL(%rip), %r12
	addq	$8, %rsp
	.cfi_remember_state
	.cfi_def_cfa_offset 24
	popq	%rbp
	.cfi_def_cfa_offset 16
	movq	%r12, %rax
	popq	%r12
	.cfi_def_cfa_offset 8
	ret
	.p2align 4,,10
	.p2align 3
.L269:
	.cfi_restore_state
	movq	%rbp, %rdi
	call	__cxa_guard_acquire@PLT
	testl	%eax, %eax
	je	.L276
	movq	_ZZN4asio15system_categoryEvE8instance@GOTPCREL(%rip), %r12
	movq	_ZN4asio6detail15system_categoryD1Ev@GOTPCREL(%rip), %rdi
	leaq	__dso_handle(%rip), %rdx
	movq	%r12, %rsi
	call	__cxa_atexit@PLT
	movq	%rbp, %rdi
	call	__cxa_guard_release@PLT
	addq	$8, %rsp
	.cfi_def_cfa_offset 24
	movq	%r12, %rax
	popq	%rbp
	.cfi_def_cfa_offset 16
	popq	%r12
	.cfi_def_cfa_offset 8
	ret
	.cfi_endproc
.LFE2449:
	.size	_ZN4asio15system_categoryEv, .-_ZN4asio15system_categoryEv
	.section	.text._ZNSt23_Sp_counted_ptr_inplaceIN7asiopal13SocketChannelESaIS1_ELN9__gnu_cxx12_Lock_policyE2EE10_M_disposeEv,"axG",@progbits,_ZNSt23_Sp_counted_ptr_inplaceIN7asiopal13SocketChannelESaIS1_ELN9__gnu_cxx12_Lock_policyE2EE10_M_disposeEv,comdat
	.align 2
	.p2align 4
	.weak	_ZNSt23_Sp_counted_ptr_inplaceIN7asiopal13SocketChannelESaIS1_ELN9__gnu_cxx12_Lock_policyE2EE10_M_disposeEv
	.type	_ZNSt23_Sp_counted_ptr_inplaceIN7asiopal13SocketChannelESaIS1_ELN9__gnu_cxx12_Lock_policyE2EE10_M_disposeEv, @function
_ZNSt23_Sp_counted_ptr_inplaceIN7asiopal13SocketChannelESaIS1_ELN9__gnu_cxx12_Lock_policyE2EE10_M_disposeEv:
.LFB11244:
	.cfi_startproc
	.cfi_personality 0x9b,DW.ref.__gxx_personality_v0
	.cfi_lsda 0x1b,.LLSDA11244
	pushq	%r15
	.cfi_def_cfa_offset 16
	.cfi_offset 15, -16
	movq	%rdi, %r15
	pushq	%r14
	.cfi_def_cfa_offset 24
	.cfi_offset 14, -24
	pushq	%r13
	.cfi_def_cfa_offset 32
	.cfi_offset 13, -32
	pushq	%r12
	.cfi_def_cfa_offset 40
	.cfi_offset 12, -40
	pushq	%rbp
	.cfi_def_cfa_offset 48
	.cfi_offset 6, -48
	pushq	%rbx
	.cfi_def_cfa_offset 56
	.cfi_offset 3, -56
	subq	$72, %rsp
	.cfi_def_cfa_offset 128
	movl	80(%rdi), %r12d
	movq	%fs:40, %rax
	movq	%rax, 56(%rsp)
	movq	_ZTVN7asiopal13SocketChannelE@GOTPCREL(%rip), %rax
	addq	$16, %rax
	movq	%rax, 16(%rdi)
	cmpl	$-1, %r12d
	jne	.L409
.L278:
	movq	_ZTVN7asiopal13IAsyncChannelE@GOTPCREL(%rip), %rax
	movq	64(%r15), %rbp
	addq	$16, %rax
	movq	%rax, 16(%r15)
	testq	%rbp, %rbp
	je	.L325
	movq	_ZL28__gthrw___pthread_key_createPjPFvPvE@GOTPCREL(%rip), %rbx
	testq	%rbx, %rbx
	jne	.L410
	movl	8(%rbp), %eax
	leal	-1(%rax), %edx
	movl	%edx, 8(%rbp)
.L327:
	cmpl	$1, %eax
	je	.L411
.L325:
	movq	48(%r15), %rbp
	testq	%rbp, %rbp
	je	.L332
	movq	_ZL28__gthrw___pthread_key_createPjPFvPvE@GOTPCREL(%rip), %rbx
	testq	%rbx, %rbx
	jne	.L412
	movl	8(%rbp), %eax
	leal	-1(%rax), %edx
	movl	%edx, 8(%rbp)
.L334:
	cmpl	$1, %eax
	je	.L413
.L332:
	movq	32(%r15), %rdi
	testq	%rdi, %rdi
	je	.L277
	cmpq	$0, _ZL28__gthrw___pthread_key_createPjPFvPvE@GOTPCREL(%rip)
	jne	.L414
	movl	12(%rdi), %eax
	leal	-1(%rax), %edx
	movl	%edx, 12(%rdi)
.L341:
	cmpl	$1, %eax
	je	.L415
.L277:
	movq	56(%rsp), %rax
	subq	%fs:40, %rax
	jne	.L404
	addq	$72, %rsp
	.cfi_remember_state
	.cfi_def_cfa_offset 56
	popq	%rbx
	.cfi_def_cfa_offset 48
	popq	%rbp
	.cfi_def_cfa_offset 40
	popq	%r12
	.cfi_def_cfa_offset 32
	popq	%r13
	.cfi_def_cfa_offset 24
	popq	%r14
	.cfi_def_cfa_offset 16
	popq	%r15
	.cfi_def_cfa_offset 8
	ret
	.p2align 4,,10
	.p2align 3
.L409:
	.cfi_restore_state
	movq	88(%rdi), %rbp
	testq	%rbp, %rbp
	je	.L307
	movq	104(%rdi), %rax
	movzbl	84(%rdi), %ebx
	movq	40(%rax), %rax
	movq	%rax, 16(%rsp)
	leaq	40(%rbp), %rax
	movq	%rax, %rdi
	movq	%rax, 24(%rsp)
	call	pthread_mutex_lock@PLT
	movq	88(%r15), %r11
	cmpb	$0, 144(%r11)
	jne	.L280
	andl	$64, %ebx
	jne	.L416
.L281:
	movq	$0, 8(%rsp)
	xorl	%ebp, %ebp
	movl	$0, 4(%rsp)
.L290:
	movslq	4(%rsp), %r10
	movq	%r10, %rax
	salq	$4, %rax
	movq	96(%rax,%r11), %rbx
	testq	%rbx, %rbx
	je	.L346
	movq	_ZGVZN4asio15system_categoryEvE8instance@GOTPCREL(%rip), %r14
	movq	_ZZN4asio15system_categoryEvE8instance@GOTPCREL(%rip), %r12
	movq	%rax, %r13
	movzbl	(%r14), %eax
	testb	%al, %al
	je	.L417
	.p2align 4,,10
	.p2align 3
.L285:
	movq	88(%r15), %r11
	movl	$125, 24(%rbx)
	movq	%r12, 32(%rbx)
	leaq	(%r11,%r13), %rdi
	movq	96(%rdi), %rax
	testq	%rax, %rax
	je	.L287
	movq	(%rax), %rdx
	movq	%rdx, 96(%rdi)
	testq	%rdx, %rdx
	je	.L418
	movq	$0, (%rax)
	movq	$0, (%rbx)
	testq	%rbp, %rbp
	je	.L419
.L344:
	movq	%rbx, 0(%rbp)
	testq	%rdx, %rdx
	je	.L282
.L289:
	movzbl	(%r14), %eax
	movq	%rbx, %rbp
	movq	%rdx, %rbx
	testb	%al, %al
	jne	.L285
.L417:
	movq	%r14, %rdi
	call	__cxa_guard_acquire@PLT
	testl	%eax, %eax
	je	.L285
	movq	_ZN4asio6detail15system_categoryD1Ev@GOTPCREL(%rip), %rdi
	leaq	__dso_handle(%rip), %rdx
	movq	%r12, %rsi
	call	__cxa_atexit@PLT
	movq	%r14, %rdi
	call	__cxa_guard_release@PLT
	jmp	.L285
	.p2align 4,,10
	.p2align 3
.L280:
	movq	24(%rsp), %rdi
	call	pthread_mutex_unlock@PLT
.L402:
	movl	80(%r15), %r12d
	cmpl	$-1, %r12d
	je	.L278
.L307:
	call	__errno_location@PLT
	movzbl	84(%r15), %ebp
	movq	%rax, %rbx
	testb	$8, %bpl
	jne	.L400
	movq	_ZGVZN4asio15system_categoryEvE8instance@GOTPCREL(%rip), %r14
.L309:
	movl	$0, (%rbx)
	movl	%r12d, %edi
	call	close@PLT
	movl	%eax, %ebp
	movzbl	(%r14), %eax
	testb	%al, %al
	je	.L420
.L314:
	testl	%ebp, %ebp
	je	.L278
	movl	(%rbx), %ebp
	movzbl	(%r14), %eax
	testb	%al, %al
	je	.L421
.L318:
	cmpl	$11, %ebp
	je	.L320
.L408:
	movzbl	(%r14), %eax
	testb	%al, %al
	jne	.L278
	movq	%r14, %rdi
	call	__cxa_guard_acquire@PLT
	testl	%eax, %eax
	je	.L278
	movq	_ZZN4asio15system_categoryEvE8instance@GOTPCREL(%rip), %rsi
	movq	_ZN4asio6detail15system_categoryD1Ev@GOTPCREL(%rip), %rdi
	leaq	__dso_handle(%rip), %rdx
	call	__cxa_atexit@PLT
	movq	%r14, %rdi
	call	__cxa_guard_release@PLT
	jmp	.L278
	.p2align 4,,10
	.p2align 3
.L411:
	movq	0(%rbp), %rax
	movq	%rbp, %rdi
	call	*16(%rax)
	testq	%rbx, %rbx
	jne	.L422
	movl	12(%rbp), %eax
	leal	-1(%rax), %edx
	movl	%edx, 12(%rbp)
.L330:
	cmpl	$1, %eax
	jne	.L325
	movq	0(%rbp), %rax
	movq	%rbp, %rdi
	call	*24(%rax)
	jmp	.L325
	.p2align 4,,10
	.p2align 3
.L413:
	movq	0(%rbp), %rax
	movq	%rbp, %rdi
	call	*16(%rax)
	testq	%rbx, %rbx
	jne	.L423
	movl	12(%rbp), %eax
	leal	-1(%rax), %edx
	movl	%edx, 12(%rbp)
.L337:
	cmpl	$1, %eax
	jne	.L332
	movq	0(%rbp), %rax
	movq	%rbp, %rdi
	call	*24(%rax)
	jmp	.L332
	.p2align 4,,10
	.p2align 3
.L415:
	movq	56(%rsp), %rax
	subq	%fs:40, %rax
	jne	.L404
	movq	(%rdi), %rax
	movq	24(%rax), %rax
	addq	$72, %rsp
	.cfi_remember_state
	.cfi_def_cfa_offset 56
	popq	%rbx
	.cfi_def_cfa_offset 48
	popq	%rbp
	.cfi_def_cfa_offset 40
	popq	%r12
	.cfi_def_cfa_offset 32
	popq	%r13
	.cfi_def_cfa_offset 24
	popq	%r14
	.cfi_def_cfa_offset 16
	popq	%r15
	.cfi_def_cfa_offset 8
	jmp	*%rax
	.p2align 4,,10
	.p2align 3
.L412:
	.cfi_restore_state
	movl	$-1, %eax
	lock xaddl	%eax, 8(%rbp)
	jmp	.L334
	.p2align 4,,10
	.p2align 3
.L414:
	movl	$-1, %eax
	lock xaddl	%eax, 12(%rdi)
	jmp	.L341
	.p2align 4,,10
	.p2align 3
.L410:
	movl	$-1, %eax
	lock xaddl	%eax, 8(%rbp)
	jmp	.L327
	.p2align 4,,10
	.p2align 3
.L287:
	movq	$0, (%rbx)
	testq	%rbp, %rbp
	je	.L349
	movq	%rbx, 0(%rbp)
.L282:
	addl	$1, 4(%rsp)
	movl	4(%rsp), %eax
	cmpl	$3, %eax
	je	.L424
.L348:
	movq	%rbx, %rbp
	jmp	.L290
	.p2align 4,,10
	.p2align 3
.L418:
	movq	$0, 104(%rdi)
	movq	$0, (%rax)
	movq	$0, (%rbx)
	testq	%rbp, %rbp
	jne	.L344
	.p2align 4,,10
	.p2align 3
.L349:
	addl	$1, 4(%rsp)
	movl	4(%rsp), %eax
	movq	%rbx, 8(%rsp)
	cmpl	$3, %eax
	jne	.L348
.L424:
	movl	$-1, 88(%r11)
	movq	24(%rsp), %rdi
	movb	$1, 144(%r11)
	call	pthread_mutex_unlock@PLT
	movq	16(%rsp), %r14
	movq	88(%r15), %rbp
	leaq	120(%r14), %r12
	movq	%r12, %rdi
	call	pthread_mutex_lock@PLT
	cmpq	160(%r14), %rbp
	je	.L425
.L291:
	movq	32(%rbp), %rax
	testq	%rax, %rax
	je	.L292
	movq	24(%rbp), %rdx
	movq	%rdx, 24(%rax)
.L292:
	movq	24(%rbp), %rax
	testq	%rax, %rax
	je	.L293
	movq	32(%rbp), %rdx
	movq	%rdx, 32(%rax)
.L293:
	movq	16(%rsp), %r14
	movq	%r12, %rdi
	movq	168(%r14), %rax
	movq	$0, 32(%rbp)
	movq	%rax, 24(%rbp)
	movq	%rbp, 168(%r14)
	call	pthread_mutex_unlock@PLT
	cmpq	$0, 8(%rsp)
	movq	$0, 88(%r15)
	je	.L402
	movq	40(%r14), %rbp
	cmpb	$0, 40(%rbp)
	je	.L295
	data16	leaq	_ZN4asio6detail15keyword_tss_ptrINS0_10call_stackINS0_15task_io_serviceENS0_27task_io_service_thread_infoEE7contextEE6value_E@tlsgd(%rip), %rdi
	.value	0x6666
	rex64
	call	__tls_get_addr@PLT
	movq	(%rax), %rax
	testq	%rax, %rax
	jne	.L298
	jmp	.L295
	.p2align 4,,10
	.p2align 3
.L296:
	movq	16(%rax), %rax
	testq	%rax, %rax
	je	.L295
.L298:
	cmpq	(%rax), %rbp
	jne	.L296
	movq	8(%rax), %rax
	testq	%rax, %rax
	je	.L295
	movq	16(%rax), %rdx
	testq	%rdx, %rdx
	je	.L299
	movq	8(%rsp), %rsi
	movq	%rsi, (%rdx)
.L300:
	movq	%rbx, 16(%rax)
	jmp	.L402
	.p2align 4,,10
	.p2align 3
.L419:
	movq	%rbx, 8(%rsp)
	jmp	.L289
	.p2align 4,,10
	.p2align 3
.L420:
	movq	%r14, %rdi
	call	__cxa_guard_acquire@PLT
	testl	%eax, %eax
	je	.L314
	movq	_ZZN4asio15system_categoryEvE8instance@GOTPCREL(%rip), %rsi
	movq	_ZN4asio6detail15system_categoryD1Ev@GOTPCREL(%rip), %rdi
	leaq	__dso_handle(%rip), %rdx
	call	__cxa_atexit@PLT
	movq	%r14, %rdi
	call	__cxa_guard_release@PLT
	jmp	.L314
	.p2align 4,,10
	.p2align 3
.L400:
	orl	$8, %ebp
	leaq	40(%rsp), %rcx
	movl	$13, %edx
	movl	%r12d, %edi
	movb	%bpl, 84(%r15)
	movl	$8, %r8d
	movl	$1, %esi
	movl	$0, (%rax)
	movq	$0, 40(%rsp)
	call	setsockopt@PLT
	movq	_ZGVZN4asio15system_categoryEvE8instance@GOTPCREL(%rip), %r14
	movzbl	(%r14), %eax
	testb	%al, %al
	jne	.L309
	movq	%r14, %rdi
	call	__cxa_guard_acquire@PLT
	testl	%eax, %eax
	je	.L309
	movq	_ZZN4asio15system_categoryEvE8instance@GOTPCREL(%rip), %rsi
	movq	_ZN4asio6detail15system_categoryD1Ev@GOTPCREL(%rip), %rdi
	leaq	__dso_handle(%rip), %rdx
	call	__cxa_atexit@PLT
	movq	%r14, %rdi
	call	__cxa_guard_release@PLT
	jmp	.L309
	.p2align 4,,10
	.p2align 3
.L295:
	leaq	48(%rbp), %r12
	movq	%r12, %rdi
	call	pthread_mutex_lock@PLT
	movq	200(%rbp), %rax
	testq	%rax, %rax
	je	.L302
	movq	8(%rsp), %rcx
	movq	%rcx, (%rax)
.L303:
	movq	136(%rbp), %rax
	movq	%rbx, 200(%rbp)
	orq	$1, %rax
	movq	%rax, 136(%rbp)
	cmpq	$1, %rax
	je	.L304
	movq	%r12, %rdi
	call	pthread_mutex_unlock@PLT
	leaq	88(%rbp), %rdi
	call	pthread_cond_signal@PLT
	jmp	.L402
.L304:
	cmpb	$0, 176(%rbp)
	jne	.L306
	movq	144(%rbp), %rax
	testq	%rax, %rax
	je	.L306
	movb	$1, 176(%rbp)
	leaq	88(%rax), %rdx
	leaq	40(%rsp), %rcx
	movl	$3, %esi
	movq	%rdx, 44(%rsp)
	movl	88(%rax), %edx
	movl	$-2147483639, 40(%rsp)
	movl	96(%rax), %edi
	call	epoll_ctl@PLT
.L306:
	movq	%r12, %rdi
	call	pthread_mutex_unlock@PLT
	jmp	.L402
	.p2align 4,,10
	.p2align 3
.L422:
	movl	$-1, %eax
	lock xaddl	%eax, 12(%rbp)
	jmp	.L330
	.p2align 4,,10
	.p2align 3
.L423:
	movl	$-1, %eax
	lock xaddl	%eax, 12(%rbp)
	jmp	.L337
	.p2align 4,,10
	.p2align 3
.L416:
	movq	16(%rsp), %rax
	movl	$0, 40(%rsp)
	leaq	40(%rsp), %rcx
	movl	%r12d, %edx
	movq	$0, 44(%rsp)
	movl	$2, %esi
	movl	96(%rax), %edi
	call	epoll_ctl@PLT
	movq	88(%r15), %r11
	jmp	.L281
	.p2align 4,,10
	.p2align 3
.L346:
	movq	%rbp, %rbx
	jmp	.L282
	.p2align 4,,10
	.p2align 3
.L425:
	movq	24(%rbp), %rax
	movq	16(%rsp), %rcx
	movq	%rax, 160(%rcx)
	jmp	.L291
.L421:
	movq	%r14, %rdi
	call	__cxa_guard_acquire@PLT
	testl	%eax, %eax
	je	.L318
	movq	_ZZN4asio15system_categoryEvE8instance@GOTPCREL(%rip), %rsi
	movq	_ZN4asio6detail15system_categoryD1Ev@GOTPCREL(%rip), %rdi
	leaq	__dso_handle(%rip), %rdx
	call	__cxa_atexit@PLT
	movq	%r14, %rdi
	call	__cxa_guard_release@PLT
	jmp	.L318
.L320:
	movl	%r12d, %edi
	leaq	40(%rsp), %rdx
	movl	$21537, %esi
	xorl	%eax, %eax
	movl	$0, 40(%rsp)
	call	ioctl@PLT
	andb	$-4, 84(%r15)
	movl	%r12d, %edi
	movl	$0, (%rbx)
	call	close@PLT
	jmp	.L408
.L302:
	movq	8(%rsp), %rax
	movq	%rax, 192(%rbp)
	jmp	.L303
.L299:
	movq	8(%rsp), %rcx
	movq	%rcx, 8(%rax)
	jmp	.L300
.L404:
	call	__stack_chk_fail@PLT
	.cfi_endproc
.LFE11244:
	.section	.gcc_except_table._ZNSt23_Sp_counted_ptr_inplaceIN7asiopal13SocketChannelESaIS1_ELN9__gnu_cxx12_Lock_policyE2EE10_M_disposeEv,"aG",@progbits,_ZNSt23_Sp_counted_ptr_inplaceIN7asiopal13SocketChannelESaIS1_ELN9__gnu_cxx12_Lock_policyE2EE10_M_disposeEv,comdat
.LLSDA11244:
	.byte	0xff
	.byte	0xff
	.byte	0x1
	.uleb128 .LLSDACSE11244-.LLSDACSB11244
.LLSDACSB11244:
.LLSDACSE11244:
	.section	.text._ZNSt23_Sp_counted_ptr_inplaceIN7asiopal13SocketChannelESaIS1_ELN9__gnu_cxx12_Lock_policyE2EE10_M_disposeEv,"axG",@progbits,_ZNSt23_Sp_counted_ptr_inplaceIN7asiopal13SocketChannelESaIS1_ELN9__gnu_cxx12_Lock_policyE2EE10_M_disposeEv,comdat
	.size	_ZNSt23_Sp_counted_ptr_inplaceIN7asiopal13SocketChannelESaIS1_ELN9__gnu_cxx12_Lock_policyE2EE10_M_disposeEv, .-_ZNSt23_Sp_counted_ptr_inplaceIN7asiopal13SocketChannelESaIS1_ELN9__gnu_cxx12_Lock_policyE2EE10_M_disposeEv
	.section	.text._ZN8asiodnp315MasterTCPServerD2Ev,"axG",@progbits,_ZN8asiodnp315MasterTCPServerD5Ev,comdat
	.align 2
	.p2align 4
	.weak	_ZN8asiodnp315MasterTCPServerD2Ev
	.type	_ZN8asiodnp315MasterTCPServerD2Ev, @function
_ZN8asiodnp315MasterTCPServerD2Ev:
.LFB11153:
	.cfi_startproc
	.cfi_personality 0x9b,DW.ref.__gxx_personality_v0
	.cfi_lsda 0x1b,.LLSDA11153
	pushq	%r15
	.cfi_def_cfa_offset 16
	.cfi_offset 15, -16
	pushq	%r14
	.cfi_def_cfa_offset 24
	.cfi_offset 14, -24
	pushq	%r13
	.cfi_def_cfa_offset 32
	.cfi_offset 13, -32
	pushq	%r12
	.cfi_def_cfa_offset 40
	.cfi_offset 12, -40
	pushq	%rbp
	.cfi_def_cfa_offset 48
	.cfi_offset 6, -48
	pushq	%rbx
	.cfi_def_cfa_offset 56
	.cfi_offset 3, -56
	movq	%rdi, %rbx
	subq	$72, %rsp
	.cfi_def_cfa_offset 128
	movq	232(%rdi), %r12
	movq	%fs:40, %rax
	movq	%rax, 56(%rsp)
	movq	_ZTVN8asiodnp315MasterTCPServerE@GOTPCREL(%rip), %rax
	addq	$16, %rax
	movq	%rax, (%rdi)
	testq	%r12, %r12
	je	.L428
	movq	_ZL28__gthrw___pthread_key_createPjPFvPvE@GOTPCREL(%rip), %rbp
	testq	%rbp, %rbp
	jne	.L665
	movl	8(%r12), %eax
	leal	-1(%rax), %edx
	movl	%edx, 8(%r12)
.L430:
	cmpl	$1, %eax
	je	.L666
.L428:
	movq	216(%rbx), %r12
	testq	%r12, %r12
	je	.L435
	movq	_ZL28__gthrw___pthread_key_createPjPFvPvE@GOTPCREL(%rip), %rbp
	testq	%rbp, %rbp
	jne	.L667
	movl	8(%r12), %eax
	leal	-1(%rax), %edx
	movl	%edx, 8(%r12)
.L437:
	cmpl	$1, %eax
	je	.L668
.L435:
	movq	_ZTVN7asiopal9TCPServerE@GOTPCREL(%rip), %rax
	movl	136(%rbx), %r12d
	addq	$16, %rax
	movq	%rax, (%rbx)
	cmpl	$-1, %r12d
	jne	.L669
.L441:
	movl	104(%rbx), %r12d
	cmpl	$-1, %r12d
	jne	.L670
.L484:
	movq	64(%rbx), %r12
	testq	%r12, %r12
	je	.L528
	movq	_ZL28__gthrw___pthread_key_createPjPFvPvE@GOTPCREL(%rip), %rbp
	testq	%rbp, %rbp
	jne	.L671
	movl	8(%r12), %eax
	leal	-1(%rax), %edx
	movl	%edx, 8(%r12)
.L530:
	cmpl	$1, %eax
	je	.L672
.L528:
	movq	48(%rbx), %r12
	testq	%r12, %r12
	je	.L535
	movq	_ZL28__gthrw___pthread_key_createPjPFvPvE@GOTPCREL(%rip), %rbp
	testq	%rbp, %rbp
	jne	.L673
	movl	8(%r12), %eax
	leal	-1(%rax), %edx
	movl	%edx, 8(%r12)
.L537:
	cmpl	$1, %eax
	je	.L674
.L535:
	movq	32(%rbx), %r12
	testq	%r12, %r12
	je	.L542
	movq	_ZL28__gthrw___pthread_key_createPjPFvPvE@GOTPCREL(%rip), %rbp
	testq	%rbp, %rbp
	jne	.L675
	movl	8(%r12), %eax
	leal	-1(%rax), %edx
	movl	%edx, 8(%r12)
.L544:
	cmpl	$1, %eax
	je	.L676
.L542:
	movq	16(%rbx), %rdi
	testq	%rdi, %rdi
	je	.L426
	cmpq	$0, _ZL28__gthrw___pthread_key_createPjPFvPvE@GOTPCREL(%rip)
	jne	.L677
	movl	12(%rdi), %eax
	leal	-1(%rax), %edx
	movl	%edx, 12(%rdi)
.L551:
	cmpl	$1, %eax
	je	.L678
.L426:
	movq	56(%rsp), %rax
	subq	%fs:40, %rax
	jne	.L664
	addq	$72, %rsp
	.cfi_remember_state
	.cfi_def_cfa_offset 56
	popq	%rbx
	.cfi_def_cfa_offset 48
	popq	%rbp
	.cfi_def_cfa_offset 40
	popq	%r12
	.cfi_def_cfa_offset 32
	popq	%r13
	.cfi_def_cfa_offset 24
	popq	%r14
	.cfi_def_cfa_offset 16
	popq	%r15
	.cfi_def_cfa_offset 8
	ret
	.p2align 4,,10
	.p2align 3
.L670:
	.cfi_restore_state
	movq	112(%rbx), %rbp
	testq	%rbp, %rbp
	je	.L513
	movq	128(%rbx), %rax
	movzbl	108(%rbx), %r13d
	movq	40(%rax), %rax
	movq	%rax, 16(%rsp)
	leaq	40(%rbp), %rax
	movq	%rax, %rdi
	movq	%rax, 24(%rsp)
	call	pthread_mutex_lock@PLT
	movq	112(%rbx), %r11
	cmpb	$0, 144(%r11)
	jne	.L486
	andl	$64, %r13d
	jne	.L679
.L487:
	movq	$0, 8(%rsp)
	xorl	%ebp, %ebp
	movl	$0, 4(%rsp)
.L496:
	movslq	4(%rsp), %r10
	movq	%r10, %rax
	salq	$4, %rax
	movq	96(%rax,%r11), %r14
	testq	%r14, %r14
	je	.L560
	movq	_ZGVZN4asio15system_categoryEvE8instance@GOTPCREL(%rip), %r15
	movq	_ZZN4asio15system_categoryEvE8instance@GOTPCREL(%rip), %r13
	movq	%rax, %r12
	movzbl	(%r15), %eax
	testb	%al, %al
	je	.L680
	.p2align 4,,10
	.p2align 3
.L491:
	movq	112(%rbx), %r11
	movl	$125, 24(%r14)
	movq	%r13, 32(%r14)
	leaq	(%r11,%r12), %rdi
	movq	96(%rdi), %rax
	testq	%rax, %rax
	je	.L493
	movq	(%rax), %rdx
	movq	%rdx, 96(%rdi)
	testq	%rdx, %rdx
	je	.L681
	movq	$0, (%rax)
	movq	$0, (%r14)
	testq	%rbp, %rbp
	je	.L682
.L554:
	movq	%r14, 0(%rbp)
	testq	%rdx, %rdx
	je	.L488
.L495:
	movzbl	(%r15), %eax
	movq	%r14, %rbp
	movq	%rdx, %r14
	testb	%al, %al
	jne	.L491
.L680:
	movq	%r15, %rdi
	call	__cxa_guard_acquire@PLT
	testl	%eax, %eax
	je	.L491
	movq	_ZN4asio6detail15system_categoryD1Ev@GOTPCREL(%rip), %rdi
	leaq	__dso_handle(%rip), %rdx
	movq	%r13, %rsi
	call	__cxa_atexit@PLT
	movq	%r15, %rdi
	call	__cxa_guard_release@PLT
	jmp	.L491
	.p2align 4,,10
	.p2align 3
.L669:
	movq	144(%rbx), %rbp
	testq	%rbp, %rbp
	je	.L470
	movq	160(%rbx), %rax
	movzbl	140(%rbx), %r13d
	movq	40(%rax), %rax
	movq	%rax, 16(%rsp)
	leaq	40(%rbp), %rax
	movq	%rax, %rdi
	movq	%rax, 24(%rsp)
	call	pthread_mutex_lock@PLT
	movq	144(%rbx), %r11
	cmpb	$0, 144(%r11)
	jne	.L443
	andl	$64, %r13d
	jne	.L683
.L444:
	movq	$0, 8(%rsp)
	xorl	%ebp, %ebp
	movl	$0, 4(%rsp)
.L453:
	movslq	4(%rsp), %r10
	movq	%r10, %rax
	salq	$4, %rax
	movq	96(%rax,%r11), %r14
	testq	%r14, %r14
	je	.L557
	movq	_ZGVZN4asio15system_categoryEvE8instance@GOTPCREL(%rip), %r15
	movq	_ZZN4asio15system_categoryEvE8instance@GOTPCREL(%rip), %r13
	movq	%rax, %r12
	movzbl	(%r15), %eax
	testb	%al, %al
	je	.L684
	.p2align 4,,10
	.p2align 3
.L448:
	movq	144(%rbx), %r11
	movl	$125, 24(%r14)
	movq	%r13, 32(%r14)
	leaq	(%r11,%r12), %rdi
	movq	96(%rdi), %rax
	testq	%rax, %rax
	je	.L450
	movq	(%rax), %rdx
	movq	%rdx, 96(%rdi)
	testq	%rdx, %rdx
	je	.L685
	movq	$0, (%rax)
	movq	$0, (%r14)
	testq	%rbp, %rbp
	je	.L686
.L555:
	movq	%r14, 0(%rbp)
	testq	%rdx, %rdx
	je	.L445
.L452:
	movzbl	(%r15), %eax
	movq	%r14, %rbp
	movq	%rdx, %r14
	testb	%al, %al
	jne	.L448
.L684:
	movq	%r15, %rdi
	call	__cxa_guard_acquire@PLT
	testl	%eax, %eax
	je	.L448
	movq	_ZN4asio6detail15system_categoryD1Ev@GOTPCREL(%rip), %rdi
	leaq	__dso_handle(%rip), %rdx
	movq	%r13, %rsi
	call	__cxa_atexit@PLT
	movq	%r15, %rdi
	call	__cxa_guard_release@PLT
	jmp	.L448
	.p2align 4,,10
	.p2align 3
.L486:
	movq	24(%rsp), %rdi
	call	pthread_mutex_unlock@PLT
.L663:
	movl	104(%rbx), %r12d
	cmpl	$-1, %r12d
	je	.L484
.L513:
	call	__errno_location@PLT
	movzbl	108(%rbx), %r13d
	movq	%rax, %rbp
	testb	$8, %r13b
	jne	.L660
	movq	_ZGVZN4asio15system_categoryEvE8instance@GOTPCREL(%rip), %r15
.L515:
	movl	$0, 0(%rbp)
	movl	%r12d, %edi
	call	close@PLT
	movl	%eax, %r13d
	movzbl	(%r15), %eax
	testb	%al, %al
	je	.L687
.L520:
	testl	%r13d, %r13d
	je	.L484
	movl	0(%rbp), %r13d
	movzbl	(%r15), %eax
	testb	%al, %al
	je	.L688
.L524:
	cmpl	$11, %r13d
	je	.L526
	movzbl	(%r15), %eax
	testb	%al, %al
	jne	.L484
	movq	%r15, %rdi
	call	__cxa_guard_acquire@PLT
	testl	%eax, %eax
	je	.L484
	movq	_ZZN4asio15system_categoryEvE8instance@GOTPCREL(%rip), %rsi
	movq	_ZN4asio6detail15system_categoryD1Ev@GOTPCREL(%rip), %rdi
	leaq	__dso_handle(%rip), %rdx
	call	__cxa_atexit@PLT
	movq	%r15, %rdi
	call	__cxa_guard_release@PLT
	jmp	.L484
	.p2align 4,,10
	.p2align 3
.L443:
	movq	24(%rsp), %rdi
	call	pthread_mutex_unlock@PLT
.L662:
	movl	136(%rbx), %r12d
	cmpl	$-1, %r12d
	je	.L441
.L470:
	call	__errno_location@PLT
	movzbl	140(%rbx), %r13d
	movq	%rax, %rbp
	testb	$8, %r13b
	jne	.L659
	movq	_ZGVZN4asio15system_categoryEvE8instance@GOTPCREL(%rip), %r15
.L472:
	movl	$0, 0(%rbp)
	movl	%r12d, %edi
	call	close@PLT
	movl	%eax, %r14d
	movzbl	(%r15), %eax
	testb	%al, %al
	je	.L689
.L477:
	testl	%r14d, %r14d
	je	.L441
	movl	0(%rbp), %r14d
	movzbl	(%r15), %eax
	testb	%al, %al
	je	.L690
.L481:
	cmpl	$11, %r14d
	je	.L483
	movzbl	(%r15), %eax
	testb	%al, %al
	jne	.L441
	movq	%r15, %rdi
	call	__cxa_guard_acquire@PLT
	testl	%eax, %eax
	je	.L441
	movq	_ZZN4asio15system_categoryEvE8instance@GOTPCREL(%rip), %r13
	movq	_ZN4asio6detail15system_categoryD1Ev@GOTPCREL(%rip), %rdi
	leaq	__dso_handle(%rip), %rdx
	movq	%r13, %rsi
	call	__cxa_atexit@PLT
	movq	%r15, %rdi
	call	__cxa_guard_release@PLT
	jmp	.L441
	.p2align 4,,10
	.p2align 3
.L666:
	movq	(%r12), %rax
	movq	%r12, %rdi
	call	*16(%rax)
	testq	%rbp, %rbp
	jne	.L691
	movl	12(%r12), %eax
	leal	-1(%rax), %edx
	movl	%edx, 12(%r12)
.L433:
	cmpl	$1, %eax
	jne	.L428
	movq	(%r12), %rax
	movq	%r12, %rdi
	call	*24(%rax)
	jmp	.L428
	.p2align 4,,10
	.p2align 3
.L668:
	movq	(%r12), %rax
	movq	%r12, %rdi
	call	*16(%rax)
	testq	%rbp, %rbp
	jne	.L692
	movl	12(%r12), %eax
	leal	-1(%rax), %edx
	movl	%edx, 12(%r12)
.L440:
	cmpl	$1, %eax
	jne	.L435
	movq	(%r12), %rax
	movq	%r12, %rdi
	call	*24(%rax)
	jmp	.L435
	.p2align 4,,10
	.p2align 3
.L672:
	movq	(%r12), %rax
	movq	%r12, %rdi
	call	*16(%rax)
	testq	%rbp, %rbp
	jne	.L693
	movl	12(%r12), %eax
	leal	-1(%rax), %edx
	movl	%edx, 12(%r12)
.L533:
	cmpl	$1, %eax
	jne	.L528
	movq	(%r12), %rax
	movq	%r12, %rdi
	call	*24(%rax)
	jmp	.L528
	.p2align 4,,10
	.p2align 3
.L674:
	movq	(%r12), %rax
	movq	%r12, %rdi
	call	*16(%rax)
	testq	%rbp, %rbp
	jne	.L694
	movl	12(%r12), %eax
	leal	-1(%rax), %edx
	movl	%edx, 12(%r12)
.L540:
	cmpl	$1, %eax
	jne	.L535
	movq	(%r12), %rax
	movq	%r12, %rdi
	call	*24(%rax)
	jmp	.L535
	.p2align 4,,10
	.p2align 3
.L678:
	movq	56(%rsp), %rax
	subq	%fs:40, %rax
	jne	.L664
	movq	(%rdi), %rax
	movq	24(%rax), %rax
	addq	$72, %rsp
	.cfi_remember_state
	.cfi_def_cfa_offset 56
	popq	%rbx
	.cfi_def_cfa_offset 48
	popq	%rbp
	.cfi_def_cfa_offset 40
	popq	%r12
	.cfi_def_cfa_offset 32
	popq	%r13
	.cfi_def_cfa_offset 24
	popq	%r14
	.cfi_def_cfa_offset 16
	popq	%r15
	.cfi_def_cfa_offset 8
	jmp	*%rax
	.p2align 4,,10
	.p2align 3
.L676:
	.cfi_restore_state
	movq	(%r12), %rax
	movq	%r12, %rdi
	call	*16(%rax)
	testq	%rbp, %rbp
	jne	.L695
	movl	12(%r12), %eax
	leal	-1(%rax), %edx
	movl	%edx, 12(%r12)
.L547:
	cmpl	$1, %eax
	jne	.L542
	movq	(%r12), %rax
	movq	%r12, %rdi
	call	*24(%rax)
	jmp	.L542
	.p2align 4,,10
	.p2align 3
.L671:
	movl	$-1, %eax
	lock xaddl	%eax, 8(%r12)
	jmp	.L530
	.p2align 4,,10
	.p2align 3
.L665:
	movl	$-1, %eax
	lock xaddl	%eax, 8(%r12)
	jmp	.L430
	.p2align 4,,10
	.p2align 3
.L675:
	movl	$-1, %eax
	lock xaddl	%eax, 8(%r12)
	jmp	.L544
	.p2align 4,,10
	.p2align 3
.L677:
	movl	$-1, %eax
	lock xaddl	%eax, 12(%rdi)
	jmp	.L551
	.p2align 4,,10
	.p2align 3
.L667:
	movl	$-1, %eax
	lock xaddl	%eax, 8(%r12)
	jmp	.L437
	.p2align 4,,10
	.p2align 3
.L673:
	movl	$-1, %eax
	lock xaddl	%eax, 8(%r12)
	jmp	.L537
	.p2align 4,,10
	.p2align 3
.L450:
	movq	$0, (%r14)
	testq	%rbp, %rbp
	je	.L564
	movq	%r14, 0(%rbp)
.L445:
	addl	$1, 4(%rsp)
	movl	4(%rsp), %eax
	cmpl	$3, %eax
	je	.L696
.L559:
	movq	%r14, %rbp
	jmp	.L453
	.p2align 4,,10
	.p2align 3
.L493:
	movq	$0, (%r14)
	testq	%rbp, %rbp
	je	.L563
	movq	%r14, 0(%rbp)
.L488:
	addl	$1, 4(%rsp)
	movl	4(%rsp), %eax
	cmpl	$3, %eax
	je	.L697
.L562:
	movq	%r14, %rbp
	jmp	.L496
	.p2align 4,,10
	.p2align 3
.L685:
	movq	$0, 104(%rdi)
	movq	$0, (%rax)
	movq	$0, (%r14)
	testq	%rbp, %rbp
	jne	.L555
	.p2align 4,,10
	.p2align 3
.L564:
	addl	$1, 4(%rsp)
	movl	4(%rsp), %eax
	movq	%r14, 8(%rsp)
	cmpl	$3, %eax
	jne	.L559
.L696:
	movl	$-1, 88(%r11)
	movq	24(%rsp), %rdi
	movb	$1, 144(%r11)
	call	pthread_mutex_unlock@PLT
	movq	16(%rsp), %r15
	movq	144(%rbx), %rbp
	leaq	120(%r15), %r12
	movq	%r12, %rdi
	call	pthread_mutex_lock@PLT
	cmpq	160(%r15), %rbp
	je	.L698
.L454:
	movq	32(%rbp), %rax
	testq	%rax, %rax
	je	.L455
	movq	24(%rbp), %rdx
	movq	%rdx, 24(%rax)
.L455:
	movq	24(%rbp), %rax
	testq	%rax, %rax
	je	.L456
	movq	32(%rbp), %rdx
	movq	%rdx, 32(%rax)
.L456:
	movq	16(%rsp), %r15
	movq	%r12, %rdi
	movq	168(%r15), %rax
	movq	$0, 32(%rbp)
	movq	%rax, 24(%rbp)
	movq	%rbp, 168(%r15)
	call	pthread_mutex_unlock@PLT
	cmpq	$0, 8(%rsp)
	movq	$0, 144(%rbx)
	je	.L662
	movq	40(%r15), %rbp
	cmpb	$0, 40(%rbp)
	je	.L458
	data16	leaq	_ZN4asio6detail15keyword_tss_ptrINS0_10call_stackINS0_15task_io_serviceENS0_27task_io_service_thread_infoEE7contextEE6value_E@tlsgd(%rip), %rdi
	.value	0x6666
	rex64
	call	__tls_get_addr@PLT
	movq	(%rax), %rax
	testq	%rax, %rax
	jne	.L461
	jmp	.L458
	.p2align 4,,10
	.p2align 3
.L459:
	movq	16(%rax), %rax
	testq	%rax, %rax
	je	.L458
.L461:
	cmpq	(%rax), %rbp
	jne	.L459
	movq	8(%rax), %rax
	testq	%rax, %rax
	je	.L458
	movq	16(%rax), %rdx
	movq	8(%rsp), %rcx
	testq	%rdx, %rdx
	je	.L462
	movq	%rcx, (%rdx)
.L463:
	movq	%r14, 16(%rax)
	jmp	.L662
	.p2align 4,,10
	.p2align 3
.L681:
	movq	$0, 104(%rdi)
	movq	$0, (%rax)
	movq	$0, (%r14)
	testq	%rbp, %rbp
	jne	.L554
	.p2align 4,,10
	.p2align 3
.L563:
	addl	$1, 4(%rsp)
	movl	4(%rsp), %eax
	movq	%r14, 8(%rsp)
	cmpl	$3, %eax
	jne	.L562
.L697:
	movl	$-1, 88(%r11)
	movq	24(%rsp), %rdi
	movb	$1, 144(%r11)
	call	pthread_mutex_unlock@PLT
	movq	16(%rsp), %r15
	movq	112(%rbx), %rbp
	leaq	120(%r15), %r12
	movq	%r12, %rdi
	call	pthread_mutex_lock@PLT
	cmpq	160(%r15), %rbp
	je	.L699
.L497:
	movq	32(%rbp), %rax
	testq	%rax, %rax
	je	.L498
	movq	24(%rbp), %rdx
	movq	%rdx, 24(%rax)
.L498:
	movq	24(%rbp), %rax
	testq	%rax, %rax
	je	.L499
	movq	32(%rbp), %rdx
	movq	%rdx, 32(%rax)
.L499:
	movq	16(%rsp), %r15
	movq	%r12, %rdi
	movq	168(%r15), %rax
	movq	$0, 32(%rbp)
	movq	%rax, 24(%rbp)
	movq	%rbp, 168(%r15)
	call	pthread_mutex_unlock@PLT
	cmpq	$0, 8(%rsp)
	movq	$0, 112(%rbx)
	je	.L663
	movq	40(%r15), %rbp
	cmpb	$0, 40(%rbp)
	je	.L501
	data16	leaq	_ZN4asio6detail15keyword_tss_ptrINS0_10call_stackINS0_15task_io_serviceENS0_27task_io_service_thread_infoEE7contextEE6value_E@tlsgd(%rip), %rdi
	.value	0x6666
	rex64
	call	__tls_get_addr@PLT
	movq	(%rax), %rax
	testq	%rax, %rax
	jne	.L504
	jmp	.L501
	.p2align 4,,10
	.p2align 3
.L502:
	movq	16(%rax), %rax
	testq	%rax, %rax
	je	.L501
.L504:
	cmpq	(%rax), %rbp
	jne	.L502
	movq	8(%rax), %rax
	testq	%rax, %rax
	je	.L501
	movq	16(%rax), %rdx
	movq	8(%rsp), %rcx
	testq	%rdx, %rdx
	je	.L505
	movq	%rcx, (%rdx)
.L506:
	movq	%r14, 16(%rax)
	jmp	.L663
	.p2align 4,,10
	.p2align 3
.L682:
	movq	%r14, 8(%rsp)
	jmp	.L495
	.p2align 4,,10
	.p2align 3
.L686:
	movq	%r14, 8(%rsp)
	jmp	.L452
	.p2align 4,,10
	.p2align 3
.L687:
	movq	%r15, %rdi
	call	__cxa_guard_acquire@PLT
	testl	%eax, %eax
	je	.L520
	movq	_ZZN4asio15system_categoryEvE8instance@GOTPCREL(%rip), %rsi
	movq	_ZN4asio6detail15system_categoryD1Ev@GOTPCREL(%rip), %rdi
	leaq	__dso_handle(%rip), %rdx
	call	__cxa_atexit@PLT
	movq	%r15, %rdi
	call	__cxa_guard_release@PLT
	jmp	.L520
	.p2align 4,,10
	.p2align 3
.L659:
	orl	$8, %r13d
	leaq	40(%rsp), %rcx
	movl	$8, %r8d
	movl	%r12d, %edi
	movb	%r13b, 140(%rbx)
	movl	$13, %edx
	movl	$1, %esi
	movl	$0, (%rax)
	movq	$0, 40(%rsp)
	call	setsockopt@PLT
	movq	_ZGVZN4asio15system_categoryEvE8instance@GOTPCREL(%rip), %r15
	movzbl	(%r15), %eax
	testb	%al, %al
	jne	.L472
	movq	%r15, %rdi
	call	__cxa_guard_acquire@PLT
	testl	%eax, %eax
	je	.L472
	movq	_ZZN4asio15system_categoryEvE8instance@GOTPCREL(%rip), %r13
	movq	_ZN4asio6detail15system_categoryD1Ev@GOTPCREL(%rip), %rdi
	leaq	__dso_handle(%rip), %rdx
	movq	%r13, %rsi
	call	__cxa_atexit@PLT
	movq	%r15, %rdi
	call	__cxa_guard_release@PLT
	jmp	.L472
	.p2align 4,,10
	.p2align 3
.L689:
	movq	%r15, %rdi
	call	__cxa_guard_acquire@PLT
	testl	%eax, %eax
	je	.L477
	movq	_ZZN4asio15system_categoryEvE8instance@GOTPCREL(%rip), %r13
	movq	_ZN4asio6detail15system_categoryD1Ev@GOTPCREL(%rip), %rdi
	leaq	__dso_handle(%rip), %rdx
	movq	%r13, %rsi
	call	__cxa_atexit@PLT
	movq	%r15, %rdi
	call	__cxa_guard_release@PLT
	jmp	.L477
	.p2align 4,,10
	.p2align 3
.L660:
	orl	$8, %r13d
	leaq	40(%rsp), %rcx
	movl	$8, %r8d
	movl	%r12d, %edi
	movb	%r13b, 108(%rbx)
	movl	$13, %edx
	movl	$1, %esi
	movl	$0, (%rax)
	movq	$0, 40(%rsp)
	call	setsockopt@PLT
	movq	_ZGVZN4asio15system_categoryEvE8instance@GOTPCREL(%rip), %r15
	movzbl	(%r15), %eax
	testb	%al, %al
	jne	.L515
	movq	%r15, %rdi
	call	__cxa_guard_acquire@PLT
	testl	%eax, %eax
	je	.L515
	movq	_ZZN4asio15system_categoryEvE8instance@GOTPCREL(%rip), %rsi
	movq	_ZN4asio6detail15system_categoryD1Ev@GOTPCREL(%rip), %rdi
	leaq	__dso_handle(%rip), %rdx
	call	__cxa_atexit@PLT
	movq	%r15, %rdi
	call	__cxa_guard_release@PLT
	jmp	.L515
	.p2align 4,,10
	.p2align 3
.L526:
	leaq	40(%rsp), %rdx
	movl	$21537, %esi
	movl	%r12d, %edi
	xorl	%eax, %eax
	movl	$0, 40(%rsp)
	call	ioctl@PLT
	andb	$-4, 108(%rbx)
	movl	%r12d, %edi
	movl	$0, 0(%rbp)
	call	close@PLT
	call	_ZN4asio15system_categoryEv@PLT
	jmp	.L484
.L483:
	leaq	40(%rsp), %rdx
	movl	$21537, %esi
	movl	%r12d, %edi
	xorl	%eax, %eax
	movl	$0, 40(%rsp)
	call	ioctl@PLT
	andb	$-4, 140(%rbx)
	movl	%r12d, %edi
	movl	$0, 0(%rbp)
	call	close@PLT
	call	_ZN4asio15system_categoryEv@PLT
	jmp	.L441
	.p2align 4,,10
	.p2align 3
.L501:
	leaq	48(%rbp), %r12
	movq	%r12, %rdi
	call	pthread_mutex_lock@PLT
	movq	200(%rbp), %rax
	testq	%rax, %rax
	je	.L508
	movq	8(%rsp), %rcx
	movq	%rcx, (%rax)
.L509:
	movq	136(%rbp), %rax
	movq	%r14, 200(%rbp)
	orq	$1, %rax
	movq	%rax, 136(%rbp)
	cmpq	$1, %rax
	je	.L510
	movq	%r12, %rdi
	call	pthread_mutex_unlock@PLT
	leaq	88(%rbp), %rdi
	call	pthread_cond_signal@PLT
	jmp	.L663
.L510:
	cmpb	$0, 176(%rbp)
	jne	.L512
	movq	144(%rbp), %rax
	testq	%rax, %rax
	je	.L512
	movb	$1, 176(%rbp)
	leaq	88(%rax), %rdx
	leaq	40(%rsp), %rcx
	movl	$3, %esi
	movq	%rdx, 44(%rsp)
	movl	88(%rax), %edx
	movl	$-2147483639, 40(%rsp)
	movl	96(%rax), %edi
	call	epoll_ctl@PLT
.L512:
	movq	%r12, %rdi
	call	pthread_mutex_unlock@PLT
	jmp	.L663
	.p2align 4,,10
	.p2align 3
.L458:
	leaq	48(%rbp), %r12
	movq	%r12, %rdi
	call	pthread_mutex_lock@PLT
	movq	200(%rbp), %rax
	testq	%rax, %rax
	je	.L465
	movq	8(%rsp), %rcx
	movq	%rcx, (%rax)
.L466:
	movq	136(%rbp), %rax
	movq	%r14, 200(%rbp)
	orq	$1, %rax
	movq	%rax, 136(%rbp)
	cmpq	$1, %rax
	je	.L467
	movq	%r12, %rdi
	call	pthread_mutex_unlock@PLT
	leaq	88(%rbp), %rdi
	call	pthread_cond_signal@PLT
	jmp	.L662
.L467:
	cmpb	$0, 176(%rbp)
	jne	.L469
	movq	144(%rbp), %rax
	testq	%rax, %rax
	je	.L469
	movb	$1, 176(%rbp)
	leaq	88(%rax), %rdx
	leaq	40(%rsp), %rcx
	movl	$3, %esi
	movq	%rdx, 44(%rsp)
	movl	88(%rax), %edx
	movl	$-2147483639, 40(%rsp)
	movl	96(%rax), %edi
	call	epoll_ctl@PLT
.L469:
	movq	%r12, %rdi
	call	pthread_mutex_unlock@PLT
	jmp	.L662
	.p2align 4,,10
	.p2align 3
.L691:
	movl	$-1, %eax
	lock xaddl	%eax, 12(%r12)
	jmp	.L433
	.p2align 4,,10
	.p2align 3
.L692:
	movl	$-1, %eax
	lock xaddl	%eax, 12(%r12)
	jmp	.L440
	.p2align 4,,10
	.p2align 3
.L694:
	movl	$-1, %eax
	lock xaddl	%eax, 12(%r12)
	jmp	.L540
	.p2align 4,,10
	.p2align 3
.L693:
	movl	$-1, %eax
	lock xaddl	%eax, 12(%r12)
	jmp	.L533
	.p2align 4,,10
	.p2align 3
.L695:
	movl	$-1, %eax
	lock xaddl	%eax, 12(%r12)
	jmp	.L547
	.p2align 4,,10
	.p2align 3
.L557:
	movq	%rbp, %r14
	jmp	.L445
	.p2align 4,,10
	.p2align 3
.L683:
	movq	16(%rsp), %rax
	movl	$0, 40(%rsp)
	leaq	40(%rsp), %rcx
	movl	%r12d, %edx
	movq	$0, 44(%rsp)
	movl	$2, %esi
	movl	96(%rax), %edi
	call	epoll_ctl@PLT
	movq	144(%rbx), %r11
	jmp	.L444
	.p2align 4,,10
	.p2align 3
.L679:
	movq	16(%rsp), %rax
	movl	$0, 40(%rsp)
	leaq	40(%rsp), %rcx
	movl	%r12d, %edx
	movq	$0, 44(%rsp)
	movl	$2, %esi
	movl	96(%rax), %edi
	call	epoll_ctl@PLT
	movq	112(%rbx), %r11
	jmp	.L487
	.p2align 4,,10
	.p2align 3
.L560:
	movq	%rbp, %r14
	jmp	.L488
	.p2align 4,,10
	.p2align 3
.L699:
	movq	24(%rbp), %rax
	movq	16(%rsp), %rcx
	movq	%rax, 160(%rcx)
	jmp	.L497
	.p2align 4,,10
	.p2align 3
.L698:
	movq	24(%rbp), %rax
	movq	16(%rsp), %rcx
	movq	%rax, 160(%rcx)
	jmp	.L454
.L688:
	movq	%r15, %rdi
	call	__cxa_guard_acquire@PLT
	testl	%eax, %eax
	je	.L524
	movq	_ZZN4asio15system_categoryEvE8instance@GOTPCREL(%rip), %rsi
	movq	_ZN4asio6detail15system_categoryD1Ev@GOTPCREL(%rip), %rdi
	leaq	__dso_handle(%rip), %rdx
	call	__cxa_atexit@PLT
	movq	%r15, %rdi
	call	__cxa_guard_release@PLT
	jmp	.L524
.L690:
	movq	%r15, %rdi
	call	__cxa_guard_acquire@PLT
	testl	%eax, %eax
	je	.L481
	movq	_ZZN4asio15system_categoryEvE8instance@GOTPCREL(%rip), %r13
	movq	_ZN4asio6detail15system_categoryD1Ev@GOTPCREL(%rip), %rdi
	leaq	__dso_handle(%rip), %rdx
	movq	%r13, %rsi
	call	__cxa_atexit@PLT
	movq	%r15, %rdi
	call	__cxa_guard_release@PLT
	jmp	.L481
.L508:
	movq	8(%rsp), %rax
	movq	%rax, 192(%rbp)
	jmp	.L509
.L465:
	movq	8(%rsp), %rax
	movq	%rax, 192(%rbp)
	jmp	.L466
.L462:
	movq	%rcx, 8(%rax)
	jmp	.L463
.L505:
	movq	%rcx, 8(%rax)
	jmp	.L506
.L664:
	call	__stack_chk_fail@PLT
	.cfi_endproc
.LFE11153:
	.section	.gcc_except_table._ZN8asiodnp315MasterTCPServerD2Ev,"aG",@progbits,_ZN8asiodnp315MasterTCPServerD5Ev,comdat
.LLSDA11153:
	.byte	0xff
	.byte	0xff
	.byte	0x1
	.uleb128 .LLSDACSE11153-.LLSDACSB11153
.LLSDACSB11153:
.LLSDACSE11153:
	.section	.text._ZN8asiodnp315MasterTCPServerD2Ev,"axG",@progbits,_ZN8asiodnp315MasterTCPServerD5Ev,comdat
	.size	_ZN8asiodnp315MasterTCPServerD2Ev, .-_ZN8asiodnp315MasterTCPServerD2Ev
	.weak	_ZN8asiodnp315MasterTCPServerD1Ev
	.set	_ZN8asiodnp315MasterTCPServerD1Ev,_ZN8asiodnp315MasterTCPServerD2Ev
	.section	.text._ZN8asiodnp315MasterTCPServerD0Ev,"axG",@progbits,_ZN8asiodnp315MasterTCPServerD5Ev,comdat
	.align 2
	.p2align 4
	.weak	_ZN8asiodnp315MasterTCPServerD0Ev
	.type	_ZN8asiodnp315MasterTCPServerD0Ev, @function
_ZN8asiodnp315MasterTCPServerD0Ev:
.LFB11155:
	.cfi_startproc
	.cfi_personality 0x9b,DW.ref.__gxx_personality_v0
	.cfi_lsda 0x1b,.LLSDA11155
	pushq	%r15
	.cfi_def_cfa_offset 16
	.cfi_offset 15, -16
	pushq	%r14
	.cfi_def_cfa_offset 24
	.cfi_offset 14, -24
	pushq	%r13
	.cfi_def_cfa_offset 32
	.cfi_offset 13, -32
	pushq	%r12
	.cfi_def_cfa_offset 40
	.cfi_offset 12, -40
	pushq	%rbp
	.cfi_def_cfa_offset 48
	.cfi_offset 6, -48
	movq	%rdi, %rbp
	pushq	%rbx
	.cfi_def_cfa_offset 56
	.cfi_offset 3, -56
	subq	$72, %rsp
	.cfi_def_cfa_offset 128
	movq	232(%rdi), %r12
	movq	%fs:40, %rax
	movq	%rax, 56(%rsp)
	movq	_ZTVN8asiodnp315MasterTCPServerE@GOTPCREL(%rip), %rax
	addq	$16, %rax
	movq	%rax, (%rdi)
	testq	%r12, %r12
	je	.L702
	movq	_ZL28__gthrw___pthread_key_createPjPFvPvE@GOTPCREL(%rip), %rbx
	testq	%rbx, %rbx
	jne	.L938
	movl	8(%r12), %eax
	leal	-1(%rax), %edx
	movl	%edx, 8(%r12)
.L704:
	cmpl	$1, %eax
	je	.L939
.L702:
	movq	216(%rbp), %r12
	testq	%r12, %r12
	je	.L709
	movq	_ZL28__gthrw___pthread_key_createPjPFvPvE@GOTPCREL(%rip), %rbx
	testq	%rbx, %rbx
	jne	.L940
	movl	8(%r12), %eax
	leal	-1(%rax), %edx
	movl	%edx, 8(%r12)
.L711:
	cmpl	$1, %eax
	je	.L941
.L709:
	movq	_ZTVN7asiopal9TCPServerE@GOTPCREL(%rip), %rax
	movl	136(%rbp), %r13d
	addq	$16, %rax
	movq	%rax, 0(%rbp)
	cmpl	$-1, %r13d
	jne	.L942
.L715:
	movl	104(%rbp), %r13d
	cmpl	$-1, %r13d
	jne	.L943
.L758:
	movq	64(%rbp), %r12
	testq	%r12, %r12
	je	.L802
	movq	_ZL28__gthrw___pthread_key_createPjPFvPvE@GOTPCREL(%rip), %rbx
	testq	%rbx, %rbx
	jne	.L944
	movl	8(%r12), %eax
	leal	-1(%rax), %edx
	movl	%edx, 8(%r12)
.L804:
	cmpl	$1, %eax
	je	.L945
.L802:
	movq	48(%rbp), %r12
	testq	%r12, %r12
	je	.L809
	movq	_ZL28__gthrw___pthread_key_createPjPFvPvE@GOTPCREL(%rip), %rbx
	testq	%rbx, %rbx
	jne	.L946
	movl	8(%r12), %eax
	leal	-1(%rax), %edx
	movl	%edx, 8(%r12)
.L811:
	cmpl	$1, %eax
	je	.L947
.L809:
	movq	32(%rbp), %r12
	testq	%r12, %r12
	je	.L816
	movq	_ZL28__gthrw___pthread_key_createPjPFvPvE@GOTPCREL(%rip), %rbx
	testq	%rbx, %rbx
	jne	.L948
	movl	8(%r12), %eax
	leal	-1(%rax), %edx
	movl	%edx, 8(%r12)
.L818:
	cmpl	$1, %eax
	je	.L949
.L816:
	movq	16(%rbp), %rdi
	testq	%rdi, %rdi
	je	.L823
	cmpq	$0, _ZL28__gthrw___pthread_key_createPjPFvPvE@GOTPCREL(%rip)
	jne	.L950
	movl	12(%rdi), %eax
	leal	-1(%rax), %edx
	movl	%edx, 12(%rdi)
.L825:
	cmpl	$1, %eax
	je	.L951
.L823:
	movq	56(%rsp), %rax
	subq	%fs:40, %rax
	jne	.L952
	addq	$72, %rsp
	.cfi_remember_state
	.cfi_def_cfa_offset 56
	movq	%rbp, %rdi
	movl	$240, %esi
	popq	%rbx
	.cfi_def_cfa_offset 48
	popq	%rbp
	.cfi_def_cfa_offset 40
	popq	%r12
	.cfi_def_cfa_offset 32
	popq	%r13
	.cfi_def_cfa_offset 24
	popq	%r14
	.cfi_def_cfa_offset 16
	popq	%r15
	.cfi_def_cfa_offset 8
	jmp	_ZdlPvm@PLT
	.p2align 4,,10
	.p2align 3
.L943:
	.cfi_restore_state
	movq	112(%rbp), %r12
	testq	%r12, %r12
	je	.L787
	movq	128(%rbp), %rax
	movzbl	108(%rbp), %ebx
	movq	40(%rax), %rax
	movq	%rax, 16(%rsp)
	leaq	40(%r12), %rax
	movq	%rax, %rdi
	movq	%rax, 24(%rsp)
	call	pthread_mutex_lock@PLT
	movq	112(%rbp), %r11
	cmpb	$0, 144(%r11)
	jne	.L760
	andl	$64, %ebx
	jne	.L953
.L761:
	movq	$0, 8(%rsp)
	xorl	%r12d, %r12d
	movl	$0, 4(%rsp)
.L770:
	movslq	4(%rsp), %r10
	movq	%r10, %rax
	salq	$4, %rax
	movq	96(%rax,%r11), %r14
	testq	%r14, %r14
	je	.L834
	movq	_ZGVZN4asio15system_categoryEvE8instance@GOTPCREL(%rip), %r15
	movq	_ZZN4asio15system_categoryEvE8instance@GOTPCREL(%rip), %rbx
	movq	%rax, %r13
	movzbl	(%r15), %eax
	testb	%al, %al
	je	.L954
	.p2align 4,,10
	.p2align 3
.L765:
	movq	112(%rbp), %r11
	movl	$125, 24(%r14)
	movq	%rbx, 32(%r14)
	leaq	(%r11,%r13), %rdi
	movq	96(%rdi), %rax
	testq	%rax, %rax
	je	.L767
	movq	(%rax), %rdx
	movq	%rdx, 96(%rdi)
	testq	%rdx, %rdx
	je	.L955
	movq	$0, (%rax)
	movq	$0, (%r14)
	testq	%r12, %r12
	je	.L956
.L828:
	movq	%r14, (%r12)
	testq	%rdx, %rdx
	je	.L762
.L769:
	movzbl	(%r15), %eax
	movq	%r14, %r12
	movq	%rdx, %r14
	testb	%al, %al
	jne	.L765
.L954:
	movq	%r15, %rdi
	call	__cxa_guard_acquire@PLT
	testl	%eax, %eax
	je	.L765
	movq	_ZN4asio6detail15system_categoryD1Ev@GOTPCREL(%rip), %rdi
	leaq	__dso_handle(%rip), %rdx
	movq	%rbx, %rsi
	call	__cxa_atexit@PLT
	movq	%r15, %rdi
	call	__cxa_guard_release@PLT
	jmp	.L765
	.p2align 4,,10
	.p2align 3
.L942:
	movq	144(%rbp), %r12
	testq	%r12, %r12
	je	.L744
	movq	160(%rbp), %rax
	movzbl	140(%rbp), %ebx
	movq	40(%rax), %rax
	movq	%rax, 16(%rsp)
	leaq	40(%r12), %rax
	movq	%rax, %rdi
	movq	%rax, 24(%rsp)
	call	pthread_mutex_lock@PLT
	movq	144(%rbp), %r11
	cmpb	$0, 144(%r11)
	jne	.L717
	andl	$64, %ebx
	jne	.L957
.L718:
	movq	$0, 8(%rsp)
	xorl	%r13d, %r13d
	movl	$0, 4(%rsp)
.L727:
	movslq	4(%rsp), %r10
	movq	%r10, %rax
	salq	$4, %rax
	movq	96(%rax,%r11), %r14
	testq	%r14, %r14
	je	.L831
	movq	_ZGVZN4asio15system_categoryEvE8instance@GOTPCREL(%rip), %r15
	movq	_ZZN4asio15system_categoryEvE8instance@GOTPCREL(%rip), %rbx
	movq	%rax, %r12
	movzbl	(%r15), %eax
	testb	%al, %al
	je	.L958
	.p2align 4,,10
	.p2align 3
.L722:
	movq	144(%rbp), %r11
	movl	$125, 24(%r14)
	movq	%rbx, 32(%r14)
	leaq	(%r11,%r12), %rdi
	movq	96(%rdi), %rax
	testq	%rax, %rax
	je	.L724
	movq	(%rax), %rdx
	movq	%rdx, 96(%rdi)
	testq	%rdx, %rdx
	je	.L959
	movq	$0, (%rax)
	movq	$0, (%r14)
	testq	%r13, %r13
	je	.L960
.L829:
	movq	%r14, 0(%r13)
	testq	%rdx, %rdx
	je	.L719
.L726:
	movzbl	(%r15), %eax
	movq	%r14, %r13
	movq	%rdx, %r14
	testb	%al, %al
	jne	.L722
.L958:
	movq	%r15, %rdi
	call	__cxa_guard_acquire@PLT
	testl	%eax, %eax
	je	.L722
	movq	_ZN4asio6detail15system_categoryD1Ev@GOTPCREL(%rip), %rdi
	leaq	__dso_handle(%rip), %rdx
	movq	%rbx, %rsi
	call	__cxa_atexit@PLT
	movq	%r15, %rdi
	call	__cxa_guard_release@PLT
	jmp	.L722
	.p2align 4,,10
	.p2align 3
.L760:
	movq	24(%rsp), %rdi
	call	pthread_mutex_unlock@PLT
.L937:
	movl	104(%rbp), %r13d
	cmpl	$-1, %r13d
	je	.L758
.L787:
	call	__errno_location@PLT
	movzbl	108(%rbp), %r12d
	movq	%rax, %rbx
	testb	$8, %r12b
	jne	.L934
	movq	_ZGVZN4asio15system_categoryEvE8instance@GOTPCREL(%rip), %r15
.L789:
	movl	$0, (%rbx)
	movl	%r13d, %edi
	call	close@PLT
	movl	%eax, %r12d
	movzbl	(%r15), %eax
	testb	%al, %al
	je	.L961
.L794:
	testl	%r12d, %r12d
	je	.L758
	movl	(%rbx), %r12d
	movzbl	(%r15), %eax
	testb	%al, %al
	je	.L962
.L798:
	cmpl	$11, %r12d
	je	.L800
	movzbl	(%r15), %eax
	testb	%al, %al
	jne	.L758
	movq	%r15, %rdi
	call	__cxa_guard_acquire@PLT
	testl	%eax, %eax
	je	.L758
	movq	_ZZN4asio15system_categoryEvE8instance@GOTPCREL(%rip), %rsi
	movq	_ZN4asio6detail15system_categoryD1Ev@GOTPCREL(%rip), %rdi
	leaq	__dso_handle(%rip), %rdx
	call	__cxa_atexit@PLT
	movq	%r15, %rdi
	call	__cxa_guard_release@PLT
	jmp	.L758
	.p2align 4,,10
	.p2align 3
.L717:
	movq	24(%rsp), %rdi
	call	pthread_mutex_unlock@PLT
.L936:
	movl	136(%rbp), %r13d
	cmpl	$-1, %r13d
	je	.L715
.L744:
	call	__errno_location@PLT
	movzbl	140(%rbp), %r12d
	movq	%rax, %r14
	testb	$8, %r12b
	jne	.L933
	movq	_ZGVZN4asio15system_categoryEvE8instance@GOTPCREL(%rip), %r15
.L746:
	movl	$0, (%r14)
	movl	%r13d, %edi
	call	close@PLT
	movl	%eax, %r12d
	movzbl	(%r15), %eax
	testb	%al, %al
	je	.L963
.L751:
	testl	%r12d, %r12d
	je	.L715
	movl	(%r14), %r12d
	movzbl	(%r15), %eax
	testb	%al, %al
	je	.L964
.L755:
	cmpl	$11, %r12d
	je	.L757
	movzbl	(%r15), %eax
	testb	%al, %al
	jne	.L715
	movq	%r15, %rdi
	call	__cxa_guard_acquire@PLT
	testl	%eax, %eax
	je	.L715
	movq	_ZZN4asio15system_categoryEvE8instance@GOTPCREL(%rip), %rbx
	movq	_ZN4asio6detail15system_categoryD1Ev@GOTPCREL(%rip), %rdi
	leaq	__dso_handle(%rip), %rdx
	movq	%rbx, %rsi
	call	__cxa_atexit@PLT
	movq	%r15, %rdi
	call	__cxa_guard_release@PLT
	jmp	.L715
	.p2align 4,,10
	.p2align 3
.L939:
	movq	(%r12), %rax
	movq	%r12, %rdi
	call	*16(%rax)
	testq	%rbx, %rbx
	jne	.L965
	movl	12(%r12), %eax
	leal	-1(%rax), %edx
	movl	%edx, 12(%r12)
.L707:
	cmpl	$1, %eax
	jne	.L702
	movq	(%r12), %rax
	movq	%r12, %rdi
	call	*24(%rax)
	jmp	.L702
	.p2align 4,,10
	.p2align 3
.L941:
	movq	(%r12), %rax
	movq	%r12, %rdi
	call	*16(%rax)
	testq	%rbx, %rbx
	jne	.L966
	movl	12(%r12), %eax
	leal	-1(%rax), %edx
	movl	%edx, 12(%r12)
.L714:
	cmpl	$1, %eax
	jne	.L709
	movq	(%r12), %rax
	movq	%r12, %rdi
	call	*24(%rax)
	jmp	.L709
	.p2align 4,,10
	.p2align 3
.L945:
	movq	(%r12), %rax
	movq	%r12, %rdi
	call	*16(%rax)
	testq	%rbx, %rbx
	jne	.L967
	movl	12(%r12), %eax
	leal	-1(%rax), %edx
	movl	%edx, 12(%r12)
.L807:
	cmpl	$1, %eax
	jne	.L802
	movq	(%r12), %rax
	movq	%r12, %rdi
	call	*24(%rax)
	jmp	.L802
	.p2align 4,,10
	.p2align 3
.L947:
	movq	(%r12), %rax
	movq	%r12, %rdi
	call	*16(%rax)
	testq	%rbx, %rbx
	jne	.L968
	movl	12(%r12), %eax
	leal	-1(%rax), %edx
	movl	%edx, 12(%r12)
.L814:
	cmpl	$1, %eax
	jne	.L809
	movq	(%r12), %rax
	movq	%r12, %rdi
	call	*24(%rax)
	jmp	.L809
	.p2align 4,,10
	.p2align 3
.L951:
	movq	(%rdi), %rax
	call	*24(%rax)
	jmp	.L823
	.p2align 4,,10
	.p2align 3
.L949:
	movq	(%r12), %rax
	movq	%r12, %rdi
	call	*16(%rax)
	testq	%rbx, %rbx
	jne	.L969
	movl	12(%r12), %eax
	leal	-1(%rax), %edx
	movl	%edx, 12(%r12)
.L821:
	cmpl	$1, %eax
	jne	.L816
	movq	(%r12), %rax
	movq	%r12, %rdi
	call	*24(%rax)
	jmp	.L816
	.p2align 4,,10
	.p2align 3
.L944:
	movl	$-1, %eax
	lock xaddl	%eax, 8(%r12)
	jmp	.L804
	.p2align 4,,10
	.p2align 3
.L938:
	movl	$-1, %eax
	lock xaddl	%eax, 8(%r12)
	jmp	.L704
	.p2align 4,,10
	.p2align 3
.L948:
	movl	$-1, %eax
	lock xaddl	%eax, 8(%r12)
	jmp	.L818
	.p2align 4,,10
	.p2align 3
.L950:
	movl	$-1, %eax
	lock xaddl	%eax, 12(%rdi)
	jmp	.L825
	.p2align 4,,10
	.p2align 3
.L940:
	movl	$-1, %eax
	lock xaddl	%eax, 8(%r12)
	jmp	.L711
	.p2align 4,,10
	.p2align 3
.L946:
	movl	$-1, %eax
	lock xaddl	%eax, 8(%r12)
	jmp	.L811
	.p2align 4,,10
	.p2align 3
.L724:
	movq	$0, (%r14)
	testq	%r13, %r13
	je	.L838
	movq	%r14, 0(%r13)
.L719:
	addl	$1, 4(%rsp)
	movl	4(%rsp), %eax
	cmpl	$3, %eax
	je	.L970
.L833:
	movq	%r14, %r13
	jmp	.L727
	.p2align 4,,10
	.p2align 3
.L767:
	movq	$0, (%r14)
	testq	%r12, %r12
	je	.L837
	movq	%r14, (%r12)
.L762:
	addl	$1, 4(%rsp)
	movl	4(%rsp), %eax
	cmpl	$3, %eax
	je	.L971
.L836:
	movq	%r14, %r12
	jmp	.L770
	.p2align 4,,10
	.p2align 3
.L959:
	movq	$0, 104(%rdi)
	movq	$0, (%rax)
	movq	$0, (%r14)
	testq	%r13, %r13
	jne	.L829
	.p2align 4,,10
	.p2align 3
.L838:
	addl	$1, 4(%rsp)
	movl	4(%rsp), %eax
	movq	%r14, 8(%rsp)
	cmpl	$3, %eax
	jne	.L833
.L970:
	movl	$-1, 88(%r11)
	movq	24(%rsp), %rdi
	movb	$1, 144(%r11)
	call	pthread_mutex_unlock@PLT
	movq	16(%rsp), %r15
	movq	144(%rbp), %rbx
	leaq	120(%r15), %r12
	movq	%r12, %rdi
	call	pthread_mutex_lock@PLT
	cmpq	160(%r15), %rbx
	je	.L972
.L728:
	movq	32(%rbx), %rax
	testq	%rax, %rax
	je	.L729
	movq	24(%rbx), %rdx
	movq	%rdx, 24(%rax)
.L729:
	movq	24(%rbx), %rax
	testq	%rax, %rax
	je	.L730
	movq	32(%rbx), %rdx
	movq	%rdx, 32(%rax)
.L730:
	movq	16(%rsp), %r15
	movq	%r12, %rdi
	movq	168(%r15), %rax
	movq	$0, 32(%rbx)
	movq	%rax, 24(%rbx)
	movq	%rbx, 168(%r15)
	call	pthread_mutex_unlock@PLT
	cmpq	$0, 8(%rsp)
	movq	$0, 144(%rbp)
	je	.L936
	movq	40(%r15), %rbx
	cmpb	$0, 40(%rbx)
	je	.L732
	data16	leaq	_ZN4asio6detail15keyword_tss_ptrINS0_10call_stackINS0_15task_io_serviceENS0_27task_io_service_thread_infoEE7contextEE6value_E@tlsgd(%rip), %rdi
	.value	0x6666
	rex64
	call	__tls_get_addr@PLT
	movq	(%rax), %rax
	testq	%rax, %rax
	jne	.L735
	jmp	.L732
	.p2align 4,,10
	.p2align 3
.L733:
	movq	16(%rax), %rax
	testq	%rax, %rax
	je	.L732
.L735:
	cmpq	(%rax), %rbx
	jne	.L733
	movq	8(%rax), %rax
	testq	%rax, %rax
	je	.L732
	movq	16(%rax), %rdx
	movq	8(%rsp), %rcx
	testq	%rdx, %rdx
	je	.L736
	movq	%rcx, (%rdx)
.L737:
	movq	%r14, 16(%rax)
	jmp	.L936
	.p2align 4,,10
	.p2align 3
.L955:
	movq	$0, 104(%rdi)
	movq	$0, (%rax)
	movq	$0, (%r14)
	testq	%r12, %r12
	jne	.L828
	.p2align 4,,10
	.p2align 3
.L837:
	addl	$1, 4(%rsp)
	movl	4(%rsp), %eax
	movq	%r14, 8(%rsp)
	cmpl	$3, %eax
	jne	.L836
.L971:
	movl	$-1, 88(%r11)
	movq	24(%rsp), %rdi
	movb	$1, 144(%r11)
	call	pthread_mutex_unlock@PLT
	movq	16(%rsp), %r15
	movq	112(%rbp), %rbx
	leaq	120(%r15), %r12
	movq	%r12, %rdi
	call	pthread_mutex_lock@PLT
	cmpq	160(%r15), %rbx
	je	.L973
.L771:
	movq	32(%rbx), %rax
	testq	%rax, %rax
	je	.L772
	movq	24(%rbx), %rdx
	movq	%rdx, 24(%rax)
.L772:
	movq	24(%rbx), %rax
	testq	%rax, %rax
	je	.L773
	movq	32(%rbx), %rdx
	movq	%rdx, 32(%rax)
.L773:
	movq	16(%rsp), %r15
	movq	%r12, %rdi
	movq	168(%r15), %rax
	movq	$0, 32(%rbx)
	movq	%rax, 24(%rbx)
	movq	%rbx, 168(%r15)
	call	pthread_mutex_unlock@PLT
	cmpq	$0, 8(%rsp)
	movq	$0, 112(%rbp)
	je	.L937
	movq	40(%r15), %rbx
	cmpb	$0, 40(%rbx)
	je	.L775
	data16	leaq	_ZN4asio6detail15keyword_tss_ptrINS0_10call_stackINS0_15task_io_serviceENS0_27task_io_service_thread_infoEE7contextEE6value_E@tlsgd(%rip), %rdi
	.value	0x6666
	rex64
	call	__tls_get_addr@PLT
	movq	(%rax), %rax
	testq	%rax, %rax
	jne	.L778
	jmp	.L775
	.p2align 4,,10
	.p2align 3
.L776:
	movq	16(%rax), %rax
	testq	%rax, %rax
	je	.L775
.L778:
	cmpq	(%rax), %rbx
	jne	.L776
	movq	8(%rax), %rax
	testq	%rax, %rax
	je	.L775
	movq	16(%rax), %rdx
	movq	8(%rsp), %rcx
	testq	%rdx, %rdx
	je	.L779
	movq	%rcx, (%rdx)
.L780:
	movq	%r14, 16(%rax)
	jmp	.L937
	.p2align 4,,10
	.p2align 3
.L956:
	movq	%r14, 8(%rsp)
	jmp	.L769
	.p2align 4,,10
	.p2align 3
.L960:
	movq	%r14, 8(%rsp)
	jmp	.L726
	.p2align 4,,10
	.p2align 3
.L961:
	movq	%r15, %rdi
	call	__cxa_guard_acquire@PLT
	testl	%eax, %eax
	je	.L794
	movq	_ZZN4asio15system_categoryEvE8instance@GOTPCREL(%rip), %rsi
	movq	_ZN4asio6detail15system_categoryD1Ev@GOTPCREL(%rip), %rdi
	leaq	__dso_handle(%rip), %rdx
	call	__cxa_atexit@PLT
	movq	%r15, %rdi
	call	__cxa_guard_release@PLT
	jmp	.L794
	.p2align 4,,10
	.p2align 3
.L933:
	orl	$8, %r12d
	leaq	40(%rsp), %rcx
	movl	$8, %r8d
	movl	%r13d, %edi
	movb	%r12b, 140(%rbp)
	movl	$13, %edx
	movl	$1, %esi
	movl	$0, (%rax)
	movq	$0, 40(%rsp)
	call	setsockopt@PLT
	movq	_ZGVZN4asio15system_categoryEvE8instance@GOTPCREL(%rip), %r15
	movzbl	(%r15), %eax
	testb	%al, %al
	jne	.L746
	movq	%r15, %rdi
	call	__cxa_guard_acquire@PLT
	testl	%eax, %eax
	je	.L746
	movq	_ZZN4asio15system_categoryEvE8instance@GOTPCREL(%rip), %rbx
	movq	_ZN4asio6detail15system_categoryD1Ev@GOTPCREL(%rip), %rdi
	leaq	__dso_handle(%rip), %rdx
	movq	%rbx, %rsi
	call	__cxa_atexit@PLT
	movq	%r15, %rdi
	call	__cxa_guard_release@PLT
	jmp	.L746
	.p2align 4,,10
	.p2align 3
.L963:
	movq	%r15, %rdi
	call	__cxa_guard_acquire@PLT
	testl	%eax, %eax
	je	.L751
	movq	_ZZN4asio15system_categoryEvE8instance@GOTPCREL(%rip), %rbx
	movq	_ZN4asio6detail15system_categoryD1Ev@GOTPCREL(%rip), %rdi
	leaq	__dso_handle(%rip), %rdx
	movq	%rbx, %rsi
	call	__cxa_atexit@PLT
	movq	%r15, %rdi
	call	__cxa_guard_release@PLT
	jmp	.L751
	.p2align 4,,10
	.p2align 3
.L934:
	orl	$8, %r12d
	leaq	40(%rsp), %rcx
	movl	$8, %r8d
	movl	%r13d, %edi
	movb	%r12b, 108(%rbp)
	movl	$13, %edx
	movl	$1, %esi
	movl	$0, (%rax)
	movq	$0, 40(%rsp)
	call	setsockopt@PLT
	movq	_ZGVZN4asio15system_categoryEvE8instance@GOTPCREL(%rip), %r15
	movzbl	(%r15), %eax
	testb	%al, %al
	jne	.L789
	movq	%r15, %rdi
	call	__cxa_guard_acquire@PLT
	testl	%eax, %eax
	je	.L789
	movq	_ZZN4asio15system_categoryEvE8instance@GOTPCREL(%rip), %rsi
	movq	_ZN4asio6detail15system_categoryD1Ev@GOTPCREL(%rip), %rdi
	leaq	__dso_handle(%rip), %rdx
	call	__cxa_atexit@PLT
	movq	%r15, %rdi
	call	__cxa_guard_release@PLT
	jmp	.L789
	.p2align 4,,10
	.p2align 3
.L800:
	leaq	40(%rsp), %rdx
	movl	$21537, %esi
	movl	%r13d, %edi
	xorl	%eax, %eax
	movl	$0, 40(%rsp)
	call	ioctl@PLT
	andb	$-4, 108(%rbp)
	movl	%r13d, %edi
	movl	$0, (%rbx)
	call	close@PLT
	call	_ZN4asio15system_categoryEv@PLT
	jmp	.L758
.L757:
	leaq	40(%rsp), %rdx
	movl	$21537, %esi
	movl	%r13d, %edi
	xorl	%eax, %eax
	movl	$0, 40(%rsp)
	call	ioctl@PLT
	andb	$-4, 140(%rbp)
	movl	%r13d, %edi
	movl	$0, (%r14)
	call	close@PLT
	call	_ZN4asio15system_categoryEv@PLT
	jmp	.L715
	.p2align 4,,10
	.p2align 3
.L775:
	leaq	48(%rbx), %r12
	movq	%r12, %rdi
	call	pthread_mutex_lock@PLT
	movq	200(%rbx), %rax
	testq	%rax, %rax
	je	.L782
	movq	8(%rsp), %rcx
	movq	%rcx, (%rax)
.L783:
	movq	136(%rbx), %rax
	movq	%r14, 200(%rbx)
	orq	$1, %rax
	movq	%rax, 136(%rbx)
	cmpq	$1, %rax
	je	.L784
	movq	%r12, %rdi
	call	pthread_mutex_unlock@PLT
	leaq	88(%rbx), %rdi
	call	pthread_cond_signal@PLT
	jmp	.L937
.L784:
	cmpb	$0, 176(%rbx)
	jne	.L786
	movq	144(%rbx), %rax
	testq	%rax, %rax
	je	.L786
	movb	$1, 176(%rbx)
	leaq	88(%rax), %rdx
	leaq	40(%rsp), %rcx
	movl	$3, %esi
	movq	%rdx, 44(%rsp)
	movl	88(%rax), %edx
	movl	$-2147483639, 40(%rsp)
	movl	96(%rax), %edi
	call	epoll_ctl@PLT
.L786:
	movq	%r12, %rdi
	call	pthread_mutex_unlock@PLT
	jmp	.L937
	.p2align 4,,10
	.p2align 3
.L732:
	leaq	48(%rbx), %r12
	movq	%r12, %rdi
	call	pthread_mutex_lock@PLT
	movq	200(%rbx), %rax
	testq	%rax, %rax
	je	.L739
	movq	8(%rsp), %rcx
	movq	%rcx, (%rax)
.L740:
	movq	136(%rbx), %rax
	movq	%r14, 200(%rbx)
	orq	$1, %rax
	movq	%rax, 136(%rbx)
	cmpq	$1, %rax
	je	.L741
	movq	%r12, %rdi
	call	pthread_mutex_unlock@PLT
	leaq	88(%rbx), %rdi
	call	pthread_cond_signal@PLT
	jmp	.L936
.L741:
	cmpb	$0, 176(%rbx)
	jne	.L743
	movq	144(%rbx), %rax
	testq	%rax, %rax
	je	.L743
	movb	$1, 176(%rbx)
	leaq	88(%rax), %rdx
	leaq	40(%rsp), %rcx
	movl	$3, %esi
	movq	%rdx, 44(%rsp)
	movl	88(%rax), %edx
	movl	$-2147483639, 40(%rsp)
	movl	96(%rax), %edi
	call	epoll_ctl@PLT
.L743:
	movq	%r12, %rdi
	call	pthread_mutex_unlock@PLT
	jmp	.L936
	.p2align 4,,10
	.p2align 3
.L965:
	movl	$-1, %eax
	lock xaddl	%eax, 12(%r12)
	jmp	.L707
	.p2align 4,,10
	.p2align 3
.L966:
	movl	$-1, %eax
	lock xaddl	%eax, 12(%r12)
	jmp	.L714
	.p2align 4,,10
	.p2align 3
.L968:
	movl	$-1, %eax
	lock xaddl	%eax, 12(%r12)
	jmp	.L814
	.p2align 4,,10
	.p2align 3
.L967:
	movl	$-1, %eax
	lock xaddl	%eax, 12(%r12)
	jmp	.L807
	.p2align 4,,10
	.p2align 3
.L969:
	movl	$-1, %eax
	lock xaddl	%eax, 12(%r12)
	jmp	.L821
	.p2align 4,,10
	.p2align 3
.L831:
	movq	%r13, %r14
	jmp	.L719
	.p2align 4,,10
	.p2align 3
.L957:
	movq	16(%rsp), %rax
	movl	$0, 40(%rsp)
	leaq	40(%rsp), %rcx
	movl	%r13d, %edx
	movq	$0, 44(%rsp)
	movl	$2, %esi
	movl	96(%rax), %edi
	call	epoll_ctl@PLT
	movq	144(%rbp), %r11
	jmp	.L718
	.p2align 4,,10
	.p2align 3
.L953:
	movq	16(%rsp), %rax
	movl	$0, 40(%rsp)
	leaq	40(%rsp), %rcx
	movl	%r13d, %edx
	movq	$0, 44(%rsp)
	movl	$2, %esi
	movl	96(%rax), %edi
	call	epoll_ctl@PLT
	movq	112(%rbp), %r11
	jmp	.L761
	.p2align 4,,10
	.p2align 3
.L834:
	movq	%r12, %r14
	jmp	.L762
	.p2align 4,,10
	.p2align 3
.L973:
	movq	24(%rbx), %rax
	movq	16(%rsp), %rcx
	movq	%rax, 160(%rcx)
	jmp	.L771
	.p2align 4,,10
	.p2align 3
.L972:
	movq	24(%rbx), %rax
	movq	16(%rsp), %rcx
	movq	%rax, 160(%rcx)
	jmp	.L728
.L962:
	movq	%r15, %rdi
	call	__cxa_guard_acquire@PLT
	testl	%eax, %eax
	je	.L798
	movq	_ZZN4asio15system_categoryEvE8instance@GOTPCREL(%rip), %rsi
	movq	_ZN4asio6detail15system_categoryD1Ev@GOTPCREL(%rip), %rdi
	leaq	__dso_handle(%rip), %rdx
	call	__cxa_atexit@PLT
	movq	%r15, %rdi
	call	__cxa_guard_release@PLT
	jmp	.L798
.L964:
	movq	%r15, %rdi
	call	__cxa_guard_acquire@PLT
	testl	%eax, %eax
	je	.L755
	movq	_ZZN4asio15system_categoryEvE8instance@GOTPCREL(%rip), %rbx
	movq	_ZN4asio6detail15system_categoryD1Ev@GOTPCREL(%rip), %rdi
	leaq	__dso_handle(%rip), %rdx
	movq	%rbx, %rsi
	call	__cxa_atexit@PLT
	movq	%r15, %rdi
	call	__cxa_guard_release@PLT
	jmp	.L755
.L782:
	movq	8(%rsp), %rax
	movq	%rax, 192(%rbx)
	jmp	.L783
.L739:
	movq	8(%rsp), %rax
	movq	%rax, 192(%rbx)
	jmp	.L740
.L736:
	movq	%rcx, 8(%rax)
	jmp	.L737
.L779:
	movq	%rcx, 8(%rax)
	jmp	.L780
.L952:
	call	__stack_chk_fail@PLT
	.cfi_endproc
.LFE11155:
	.section	.gcc_except_table._ZN8asiodnp315MasterTCPServerD0Ev,"aG",@progbits,_ZN8asiodnp315MasterTCPServerD5Ev,comdat
.LLSDA11155:
	.byte	0xff
	.byte	0xff
	.byte	0x1
	.uleb128 .LLSDACSE11155-.LLSDACSB11155
.LLSDACSB11155:
.LLSDACSE11155:
	.section	.text._ZN8asiodnp315MasterTCPServerD0Ev,"axG",@progbits,_ZN8asiodnp315MasterTCPServerD5Ev,comdat
	.size	_ZN8asiodnp315MasterTCPServerD0Ev, .-_ZN8asiodnp315MasterTCPServerD0Ev
	.section	.text._ZN4asio6detail13epoll_reactor21deregister_descriptorEiRPNS1_16descriptor_stateEb,"axG",@progbits,_ZN4asio6detail13epoll_reactor21deregister_descriptorEiRPNS1_16descriptor_stateEb,comdat
	.align 2
	.p2align 4
	.weak	_ZN4asio6detail13epoll_reactor21deregister_descriptorEiRPNS1_16descriptor_stateEb
	.type	_ZN4asio6detail13epoll_reactor21deregister_descriptorEiRPNS1_16descriptor_stateEb, @function
_ZN4asio6detail13epoll_reactor21deregister_descriptorEiRPNS1_16descriptor_stateEb:
.LFB3365:
	.cfi_startproc
	pushq	%r15
	.cfi_def_cfa_offset 16
	.cfi_offset 15, -16
	pushq	%r14
	.cfi_def_cfa_offset 24
	.cfi_offset 14, -24
	pushq	%r13
	.cfi_def_cfa_offset 32
	.cfi_offset 13, -32
	pushq	%r12
	.cfi_def_cfa_offset 40
	.cfi_offset 12, -40
	pushq	%rbp
	.cfi_def_cfa_offset 48
	.cfi_offset 6, -48
	pushq	%rbx
	.cfi_def_cfa_offset 56
	.cfi_offset 3, -56
	subq	$72, %rsp
	.cfi_def_cfa_offset 128
	movq	(%rdx), %r12
	movq	%rdi, 16(%rsp)
	movq	%fs:40, %rax
	movq	%rax, 56(%rsp)
	xorl	%eax, %eax
	testq	%r12, %r12
	je	.L974
	leaq	40(%r12), %rax
	movq	%rdx, %r15
	movl	%esi, %r13d
	movl	%ecx, %ebx
	movq	%rax, %rdi
	movq	%rax, 24(%rsp)
	call	pthread_mutex_lock@PLT
	movq	(%r15), %r11
	cmpb	$0, 144(%r11)
	jne	.L976
	testb	%bl, %bl
	je	.L1037
.L977:
	movq	$0, 8(%rsp)
	xorl	%r12d, %r12d
	movl	$0, 4(%rsp)
.L986:
	movslq	4(%rsp), %r10
	movq	%r10, %rax
	salq	$4, %rax
	movq	96(%rax,%r11), %rbx
	testq	%rbx, %rbx
	je	.L1006
	movq	_ZGVZN4asio15system_categoryEvE8instance@GOTPCREL(%rip), %r13
	movq	_ZZN4asio15system_categoryEvE8instance@GOTPCREL(%rip), %r14
	movq	%rax, %rbp
	movzbl	0(%r13), %eax
	testb	%al, %al
	je	.L1038
	.p2align 4,,10
	.p2align 3
.L981:
	movq	(%r15), %r11
	movl	$125, 24(%rbx)
	movq	%r14, 32(%rbx)
	leaq	(%r11,%rbp), %rdi
	movq	96(%rdi), %rax
	testq	%rax, %rax
	je	.L983
	movq	(%rax), %rdx
	movq	%rdx, 96(%rdi)
	testq	%rdx, %rdx
	je	.L1039
	movq	$0, (%rax)
	movq	$0, (%rbx)
	testq	%r12, %r12
	je	.L1040
.L1004:
	movq	%rbx, (%r12)
	testq	%rdx, %rdx
	je	.L978
.L985:
	movzbl	0(%r13), %eax
	movq	%rbx, %r12
	movq	%rdx, %rbx
	testb	%al, %al
	jne	.L981
.L1038:
	movq	%r13, %rdi
	call	__cxa_guard_acquire@PLT
	testl	%eax, %eax
	je	.L981
	movq	_ZN4asio6detail15system_categoryD1Ev@GOTPCREL(%rip), %rdi
	leaq	__dso_handle(%rip), %rdx
	movq	%r14, %rsi
	call	__cxa_atexit@PLT
	movq	%r13, %rdi
	call	__cxa_guard_release@PLT
	jmp	.L981
	.p2align 4,,10
	.p2align 3
.L1042:
	movl	$-1, 88(%r11)
	movq	24(%rsp), %rdi
	movb	$1, 144(%r11)
	call	pthread_mutex_unlock@PLT
	movq	16(%rsp), %r14
	movq	(%r15), %r12
	leaq	120(%r14), %r13
	movq	%r13, %rdi
	call	pthread_mutex_lock@PLT
	cmpq	160(%r14), %r12
	je	.L1041
.L987:
	movq	32(%r12), %rax
	testq	%rax, %rax
	je	.L988
	movq	24(%r12), %rdx
	movq	%rdx, 24(%rax)
.L988:
	movq	24(%r12), %rax
	testq	%rax, %rax
	je	.L989
	movq	32(%r12), %rdx
	movq	%rdx, 32(%rax)
.L989:
	movq	16(%rsp), %r14
	movq	%r13, %rdi
	movq	168(%r14), %rax
	movq	$0, 32(%r12)
	movq	%rax, 24(%r12)
	movq	%r12, 168(%r14)
	call	pthread_mutex_unlock@PLT
	cmpq	$0, 8(%rsp)
	movq	$0, (%r15)
	je	.L974
	movq	40(%r14), %rbp
	cmpb	$0, 40(%rbp)
	je	.L991
	data16	leaq	_ZN4asio6detail15keyword_tss_ptrINS0_10call_stackINS0_15task_io_serviceENS0_27task_io_service_thread_infoEE7contextEE6value_E@tlsgd(%rip), %rdi
	.value	0x6666
	rex64
	call	__tls_get_addr@PLT
	movq	(%rax), %rax
	testq	%rax, %rax
	jne	.L994
	jmp	.L991
	.p2align 4,,10
	.p2align 3
.L992:
	movq	16(%rax), %rax
	testq	%rax, %rax
	je	.L991
.L994:
	cmpq	(%rax), %rbp
	jne	.L992
	movq	8(%rax), %rax
	testq	%rax, %rax
	je	.L991
	movq	16(%rax), %rdx
	movq	8(%rsp), %rcx
	testq	%rdx, %rdx
	je	.L995
	movq	%rcx, (%rdx)
.L996:
	movq	%rbx, 16(%rax)
	.p2align 4,,10
	.p2align 3
.L974:
	movq	56(%rsp), %rax
	subq	%fs:40, %rax
	jne	.L1036
	addq	$72, %rsp
	.cfi_remember_state
	.cfi_def_cfa_offset 56
	popq	%rbx
	.cfi_def_cfa_offset 48
	popq	%rbp
	.cfi_def_cfa_offset 40
	popq	%r12
	.cfi_def_cfa_offset 32
	popq	%r13
	.cfi_def_cfa_offset 24
	popq	%r14
	.cfi_def_cfa_offset 16
	popq	%r15
	.cfi_def_cfa_offset 8
	ret
	.p2align 4,,10
	.p2align 3
.L976:
	.cfi_restore_state
	movq	56(%rsp), %rax
	subq	%fs:40, %rax
	jne	.L1036
	movq	24(%rsp), %rdi
.L1035:
	addq	$72, %rsp
	.cfi_remember_state
	.cfi_def_cfa_offset 56
	popq	%rbx
	.cfi_def_cfa_offset 48
	popq	%rbp
	.cfi_def_cfa_offset 40
	popq	%r12
	.cfi_def_cfa_offset 32
	popq	%r13
	.cfi_def_cfa_offset 24
	popq	%r14
	.cfi_def_cfa_offset 16
	popq	%r15
	.cfi_def_cfa_offset 8
	jmp	pthread_mutex_unlock@PLT
	.p2align 4,,10
	.p2align 3
.L983:
	.cfi_restore_state
	movq	$0, (%rbx)
	testq	%r12, %r12
	je	.L1009
	movq	%rbx, (%r12)
.L978:
	addl	$1, 4(%rsp)
	movl	4(%rsp), %eax
	cmpl	$3, %eax
	je	.L1042
	movq	%rbx, %r12
	jmp	.L986
	.p2align 4,,10
	.p2align 3
.L1039:
	movq	$0, 104(%rdi)
	movq	$0, (%rax)
	movq	$0, (%rbx)
	testq	%r12, %r12
	jne	.L1004
	.p2align 4,,10
	.p2align 3
.L1009:
	movq	%rbx, 8(%rsp)
	jmp	.L978
	.p2align 4,,10
	.p2align 3
.L1040:
	movq	%rbx, 8(%rsp)
	jmp	.L985
	.p2align 4,,10
	.p2align 3
.L991:
	leaq	48(%rbp), %r12
	movq	%r12, %rdi
	call	pthread_mutex_lock@PLT
	movq	200(%rbp), %rax
	testq	%rax, %rax
	je	.L997
	movq	8(%rsp), %rcx
	movq	%rcx, (%rax)
.L998:
	movq	136(%rbp), %rax
	movq	%rbx, 200(%rbp)
	orq	$1, %rax
	movq	%rax, 136(%rbp)
	cmpq	$1, %rax
	je	.L999
	movq	%r12, %rdi
	call	pthread_mutex_unlock@PLT
	movq	56(%rsp), %rax
	subq	%fs:40, %rax
	jne	.L1036
	addq	$72, %rsp
	.cfi_remember_state
	.cfi_def_cfa_offset 56
	leaq	88(%rbp), %rdi
	popq	%rbx
	.cfi_def_cfa_offset 48
	popq	%rbp
	.cfi_def_cfa_offset 40
	popq	%r12
	.cfi_def_cfa_offset 32
	popq	%r13
	.cfi_def_cfa_offset 24
	popq	%r14
	.cfi_def_cfa_offset 16
	popq	%r15
	.cfi_def_cfa_offset 8
	jmp	pthread_cond_signal@PLT
.L999:
	.cfi_restore_state
	cmpb	$0, 176(%rbp)
	jne	.L1001
	movq	144(%rbp), %rax
	testq	%rax, %rax
	je	.L1001
	movb	$1, 176(%rbp)
	leaq	88(%rax), %rdx
	leaq	44(%rsp), %rcx
	movl	$3, %esi
	movq	%rdx, 48(%rsp)
	movl	88(%rax), %edx
	movl	$-2147483639, 44(%rsp)
	movl	96(%rax), %edi
	call	epoll_ctl@PLT
.L1001:
	movq	56(%rsp), %rax
	subq	%fs:40, %rax
	jne	.L1036
	movq	%r12, %rdi
	jmp	.L1035
	.p2align 4,,10
	.p2align 3
.L1006:
	movq	%r12, %rbx
	jmp	.L978
	.p2align 4,,10
	.p2align 3
.L1037:
	movq	16(%rsp), %rax
	leaq	44(%rsp), %rcx
	movl	%r13d, %edx
	movl	$2, %esi
	movl	$0, 44(%rsp)
	movq	$0, 48(%rsp)
	movl	96(%rax), %edi
	call	epoll_ctl@PLT
	movq	(%r15), %r11
	jmp	.L977
	.p2align 4,,10
	.p2align 3
.L1041:
	movq	24(%r12), %rax
	movq	16(%rsp), %rcx
	movq	%rax, 160(%rcx)
	jmp	.L987
.L997:
	movq	8(%rsp), %rax
	movq	%rax, 192(%rbp)
	jmp	.L998
.L995:
	movq	%rcx, 8(%rax)
	jmp	.L996
.L1036:
	call	__stack_chk_fail@PLT
	.cfi_endproc
.LFE3365:
	.size	_ZN4asio6detail13epoll_reactor21deregister_descriptorEiRPNS1_16descriptor_stateEb, .-_ZN4asio6detail13epoll_reactor21deregister_descriptorEiRPNS1_16descriptor_stateEb
	.section	.text._ZN4asio6detail28reactive_socket_service_base7destroyERNS1_24base_implementation_typeE,"axG",@progbits,_ZN4asio6detail28reactive_socket_service_base7destroyERNS1_24base_implementation_typeE,comdat
	.align 2
	.p2align 4
	.weak	_ZN4asio6detail28reactive_socket_service_base7destroyERNS1_24base_implementation_typeE
	.type	_ZN4asio6detail28reactive_socket_service_base7destroyERNS1_24base_implementation_typeE, @function
_ZN4asio6detail28reactive_socket_service_base7destroyERNS1_24base_implementation_typeE:
.LFB3920:
	.cfi_startproc
	pushq	%r15
	.cfi_def_cfa_offset 16
	.cfi_offset 15, -16
	pushq	%r14
	.cfi_def_cfa_offset 24
	.cfi_offset 14, -24
	pushq	%r13
	.cfi_def_cfa_offset 32
	.cfi_offset 13, -32
	pushq	%r12
	.cfi_def_cfa_offset 40
	.cfi_offset 12, -40
	pushq	%rbp
	.cfi_def_cfa_offset 48
	.cfi_offset 6, -48
	pushq	%rbx
	.cfi_def_cfa_offset 56
	.cfi_offset 3, -56
	subq	$72, %rsp
	.cfi_def_cfa_offset 128
	movl	(%rsi), %r12d
	movq	%fs:40, %rax
	movq	%rax, 56(%rsp)
	xorl	%eax, %eax
	cmpl	$-1, %r12d
	jne	.L1151
.L1043:
	movq	56(%rsp), %rax
	subq	%fs:40, %rax
	jne	.L1150
	addq	$72, %rsp
	.cfi_remember_state
	.cfi_def_cfa_offset 56
	popq	%rbx
	.cfi_def_cfa_offset 48
	popq	%rbp
	.cfi_def_cfa_offset 40
	popq	%r12
	.cfi_def_cfa_offset 32
	popq	%r13
	.cfi_def_cfa_offset 24
	popq	%r14
	.cfi_def_cfa_offset 16
	popq	%r15
	.cfi_def_cfa_offset 8
	ret
	.p2align 4,,10
	.p2align 3
.L1151:
	.cfi_restore_state
	movq	8(%rsi), %rbp
	movq	%rsi, %r15
	testq	%rbp, %rbp
	je	.L1073
	movq	(%rdi), %rax
	movzbl	4(%rsi), %ebx
	movq	%rax, 16(%rsp)
	leaq	40(%rbp), %rax
	movq	%rax, %rdi
	movq	%rax, 24(%rsp)
	call	pthread_mutex_lock@PLT
	movq	8(%r15), %r11
	cmpb	$0, 144(%r11)
	jne	.L1046
	andl	$64, %ebx
	jne	.L1152
.L1047:
	movq	$0, 8(%rsp)
	xorl	%ebp, %ebp
	movl	$0, 4(%rsp)
.L1056:
	movslq	4(%rsp), %r10
	movq	%r10, %rax
	salq	$4, %rax
	movq	96(%rax,%r11), %rbx
	testq	%rbx, %rbx
	je	.L1093
	movq	_ZGVZN4asio15system_categoryEvE8instance@GOTPCREL(%rip), %r14
	movq	_ZZN4asio15system_categoryEvE8instance@GOTPCREL(%rip), %r12
	movq	%rax, %r13
	movzbl	(%r14), %eax
	testb	%al, %al
	je	.L1153
	.p2align 4,,10
	.p2align 3
.L1051:
	movq	8(%r15), %r11
	movl	$125, 24(%rbx)
	movq	%r12, 32(%rbx)
	leaq	(%r11,%r13), %rdi
	movq	96(%rdi), %rax
	testq	%rax, %rax
	je	.L1053
	movq	(%rax), %rdx
	movq	%rdx, 96(%rdi)
	testq	%rdx, %rdx
	je	.L1154
	movq	$0, (%rax)
	movq	$0, (%rbx)
	testq	%rbp, %rbp
	je	.L1155
.L1091:
	movq	%rbx, 0(%rbp)
	testq	%rdx, %rdx
	je	.L1048
.L1055:
	movzbl	(%r14), %eax
	movq	%rbx, %rbp
	movq	%rdx, %rbx
	testb	%al, %al
	jne	.L1051
.L1153:
	movq	%r14, %rdi
	call	__cxa_guard_acquire@PLT
	testl	%eax, %eax
	je	.L1051
	movq	_ZN4asio6detail15system_categoryD1Ev@GOTPCREL(%rip), %rdi
	leaq	__dso_handle(%rip), %rdx
	movq	%r12, %rsi
	call	__cxa_atexit@PLT
	movq	%r14, %rdi
	call	__cxa_guard_release@PLT
	jmp	.L1051
	.p2align 4,,10
	.p2align 3
.L1046:
	movq	24(%rsp), %rdi
	call	pthread_mutex_unlock@PLT
.L1149:
	movl	(%r15), %r12d
	cmpl	$-1, %r12d
	je	.L1043
.L1073:
	call	__errno_location@PLT
	movzbl	4(%r15), %ebp
	movq	%rax, %rbx
	testb	$8, %bpl
	jne	.L1147
	movq	_ZGVZN4asio15system_categoryEvE8instance@GOTPCREL(%rip), %r14
.L1075:
	movl	$0, (%rbx)
	movl	%r12d, %edi
	call	close@PLT
	movl	%eax, %ebp
	movzbl	(%r14), %eax
	testb	%al, %al
	je	.L1156
.L1080:
	testl	%ebp, %ebp
	je	.L1043
	movl	(%rbx), %ebp
	movzbl	(%r14), %eax
	testb	%al, %al
	je	.L1157
.L1084:
	cmpl	$11, %ebp
	je	.L1086
	movzbl	(%r14), %eax
	testb	%al, %al
	jne	.L1043
	movq	%r14, %rdi
	call	__cxa_guard_acquire@PLT
	testl	%eax, %eax
	je	.L1043
	movq	_ZZN4asio15system_categoryEvE8instance@GOTPCREL(%rip), %rsi
	movq	_ZN4asio6detail15system_categoryD1Ev@GOTPCREL(%rip), %rdi
	leaq	__dso_handle(%rip), %rdx
	call	__cxa_atexit@PLT
	movq	56(%rsp), %rax
	subq	%fs:40, %rax
	jne	.L1150
	addq	$72, %rsp
	.cfi_remember_state
	.cfi_def_cfa_offset 56
	movq	%r14, %rdi
	popq	%rbx
	.cfi_def_cfa_offset 48
	popq	%rbp
	.cfi_def_cfa_offset 40
	popq	%r12
	.cfi_def_cfa_offset 32
	popq	%r13
	.cfi_def_cfa_offset 24
	popq	%r14
	.cfi_def_cfa_offset 16
	popq	%r15
	.cfi_def_cfa_offset 8
	jmp	__cxa_guard_release@PLT
	.p2align 4,,10
	.p2align 3
.L1053:
	.cfi_restore_state
	movq	$0, (%rbx)
	testq	%rbp, %rbp
	je	.L1096
	movq	%rbx, 0(%rbp)
.L1048:
	addl	$1, 4(%rsp)
	movl	4(%rsp), %eax
	cmpl	$3, %eax
	je	.L1158
.L1095:
	movq	%rbx, %rbp
	jmp	.L1056
	.p2align 4,,10
	.p2align 3
.L1154:
	movq	$0, 104(%rdi)
	movq	$0, (%rax)
	movq	$0, (%rbx)
	testq	%rbp, %rbp
	jne	.L1091
	.p2align 4,,10
	.p2align 3
.L1096:
	addl	$1, 4(%rsp)
	movl	4(%rsp), %eax
	movq	%rbx, 8(%rsp)
	cmpl	$3, %eax
	jne	.L1095
.L1158:
	movl	$-1, 88(%r11)
	movq	24(%rsp), %rdi
	movb	$1, 144(%r11)
	call	pthread_mutex_unlock@PLT
	movq	16(%rsp), %r14
	movq	8(%r15), %rbp
	leaq	120(%r14), %r12
	movq	%r12, %rdi
	call	pthread_mutex_lock@PLT
	cmpq	160(%r14), %rbp
	je	.L1159
.L1057:
	movq	32(%rbp), %rax
	testq	%rax, %rax
	je	.L1058
	movq	24(%rbp), %rdx
	movq	%rdx, 24(%rax)
.L1058:
	movq	24(%rbp), %rax
	testq	%rax, %rax
	je	.L1059
	movq	32(%rbp), %rdx
	movq	%rdx, 32(%rax)
.L1059:
	movq	16(%rsp), %r14
	movq	%r12, %rdi
	movq	168(%r14), %rax
	movq	$0, 32(%rbp)
	movq	%rax, 24(%rbp)
	movq	%rbp, 168(%r14)
	call	pthread_mutex_unlock@PLT
	cmpq	$0, 8(%rsp)
	movq	$0, 8(%r15)
	je	.L1149
	movq	40(%r14), %rbp
	cmpb	$0, 40(%rbp)
	je	.L1061
	data16	leaq	_ZN4asio6detail15keyword_tss_ptrINS0_10call_stackINS0_15task_io_serviceENS0_27task_io_service_thread_infoEE7contextEE6value_E@tlsgd(%rip), %rdi
	.value	0x6666
	rex64
	call	__tls_get_addr@PLT
	movq	(%rax), %rax
	testq	%rax, %rax
	jne	.L1064
	jmp	.L1061
	.p2align 4,,10
	.p2align 3
.L1062:
	movq	16(%rax), %rax
	testq	%rax, %rax
	je	.L1061
.L1064:
	cmpq	(%rax), %rbp
	jne	.L1062
	movq	8(%rax), %rax
	testq	%rax, %rax
	je	.L1061
	movq	16(%rax), %rdx
	movq	8(%rsp), %rcx
	testq	%rdx, %rdx
	je	.L1065
	movq	%rcx, (%rdx)
.L1066:
	movq	%rbx, 16(%rax)
	jmp	.L1149
	.p2align 4,,10
	.p2align 3
.L1155:
	movq	%rbx, 8(%rsp)
	jmp	.L1055
	.p2align 4,,10
	.p2align 3
.L1156:
	movq	%r14, %rdi
	call	__cxa_guard_acquire@PLT
	testl	%eax, %eax
	je	.L1080
	movq	_ZZN4asio15system_categoryEvE8instance@GOTPCREL(%rip), %rsi
	movq	_ZN4asio6detail15system_categoryD1Ev@GOTPCREL(%rip), %rdi
	leaq	__dso_handle(%rip), %rdx
	call	__cxa_atexit@PLT
	movq	%r14, %rdi
	call	__cxa_guard_release@PLT
	jmp	.L1080
	.p2align 4,,10
	.p2align 3
.L1147:
	orl	$8, %ebp
	leaq	40(%rsp), %rcx
	movl	$13, %edx
	movl	%r12d, %edi
	movb	%bpl, 4(%r15)
	movl	$8, %r8d
	movl	$1, %esi
	movl	$0, (%rax)
	movq	$0, 40(%rsp)
	call	setsockopt@PLT
	movq	_ZGVZN4asio15system_categoryEvE8instance@GOTPCREL(%rip), %r14
	movzbl	(%r14), %eax
	testb	%al, %al
	jne	.L1075
	movq	%r14, %rdi
	call	__cxa_guard_acquire@PLT
	testl	%eax, %eax
	je	.L1075
	movq	_ZZN4asio15system_categoryEvE8instance@GOTPCREL(%rip), %rsi
	movq	_ZN4asio6detail15system_categoryD1Ev@GOTPCREL(%rip), %rdi
	leaq	__dso_handle(%rip), %rdx
	call	__cxa_atexit@PLT
	movq	%r14, %rdi
	call	__cxa_guard_release@PLT
	jmp	.L1075
	.p2align 4,,10
	.p2align 3
.L1061:
	leaq	48(%rbp), %r12
	movq	%r12, %rdi
	call	pthread_mutex_lock@PLT
	movq	200(%rbp), %rax
	testq	%rax, %rax
	je	.L1068
	movq	8(%rsp), %rcx
	movq	%rcx, (%rax)
.L1069:
	movq	136(%rbp), %rax
	movq	%rbx, 200(%rbp)
	orq	$1, %rax
	movq	%rax, 136(%rbp)
	cmpq	$1, %rax
	je	.L1070
	movq	%r12, %rdi
	call	pthread_mutex_unlock@PLT
	leaq	88(%rbp), %rdi
	call	pthread_cond_signal@PLT
	jmp	.L1149
.L1070:
	cmpb	$0, 176(%rbp)
	jne	.L1072
	movq	144(%rbp), %rax
	testq	%rax, %rax
	je	.L1072
	movb	$1, 176(%rbp)
	leaq	88(%rax), %rdx
	leaq	40(%rsp), %rcx
	movl	$3, %esi
	movq	%rdx, 44(%rsp)
	movl	88(%rax), %edx
	movl	$-2147483639, 40(%rsp)
	movl	96(%rax), %edi
	call	epoll_ctl@PLT
.L1072:
	movq	%r12, %rdi
	call	pthread_mutex_unlock@PLT
	jmp	.L1149
	.p2align 4,,10
	.p2align 3
.L1093:
	movq	%rbp, %rbx
	jmp	.L1048
	.p2align 4,,10
	.p2align 3
.L1152:
	movq	16(%rsp), %rax
	movl	$0, 40(%rsp)
	leaq	40(%rsp), %rcx
	movl	%r12d, %edx
	movq	$0, 44(%rsp)
	movl	$2, %esi
	movl	96(%rax), %edi
	call	epoll_ctl@PLT
	movq	8(%r15), %r11
	jmp	.L1047
	.p2align 4,,10
	.p2align 3
.L1159:
	movq	24(%rbp), %rax
	movq	16(%rsp), %rcx
	movq	%rax, 160(%rcx)
	jmp	.L1057
.L1157:
	movq	%r14, %rdi
	call	__cxa_guard_acquire@PLT
	testl	%eax, %eax
	je	.L1084
	movq	_ZZN4asio15system_categoryEvE8instance@GOTPCREL(%rip), %rsi
	movq	_ZN4asio6detail15system_categoryD1Ev@GOTPCREL(%rip), %rdi
	leaq	__dso_handle(%rip), %rdx
	call	__cxa_atexit@PLT
	movq	%r14, %rdi
	call	__cxa_guard_release@PLT
	jmp	.L1084
.L1086:
	leaq	40(%rsp), %rdx
	movl	$21537, %esi
	movl	%r12d, %edi
	xorl	%eax, %eax
	movl	$0, 40(%rsp)
	call	ioctl@PLT
	andb	$-4, 4(%r15)
	movl	%r12d, %edi
	movl	$0, (%rbx)
	call	close@PLT
	movzbl	(%r14), %eax
	testb	%al, %al
	jne	.L1043
	movq	%r14, %rdi
	call	__cxa_guard_acquire@PLT
	testl	%eax, %eax
	je	.L1043
	movq	_ZZN4asio15system_categoryEvE8instance@GOTPCREL(%rip), %rsi
	movq	_ZN4asio6detail15system_categoryD1Ev@GOTPCREL(%rip), %rdi
	leaq	__dso_handle(%rip), %rdx
	call	__cxa_atexit@PLT
	movq	%r14, %rdi
	call	__cxa_guard_release@PLT
	jmp	.L1043
.L1068:
	movq	8(%rsp), %rax
	movq	%rax, 192(%rbp)
	jmp	.L1069
.L1065:
	movq	%rcx, 8(%rax)
	jmp	.L1066
.L1150:
	call	__stack_chk_fail@PLT
	.cfi_endproc
.LFE3920:
	.size	_ZN4asio6detail28reactive_socket_service_base7destroyERNS1_24base_implementation_typeE, .-_ZN4asio6detail28reactive_socket_service_base7destroyERNS1_24base_implementation_typeE
	.text
	.align 2
	.p2align 4
	.globl	_ZN8asiodnp315MasterTCPServerC2ERKN7openpal6LoggerERKSt10shared_ptrIN7asiopal8ExecutorEERKNS6_10IPEndpointERKS5_INS_16IListenCallbacksEERKS5_INS6_15ResourceManagerEERSt10error_code
	.type	_ZN8asiodnp315MasterTCPServerC2ERKN7openpal6LoggerERKSt10shared_ptrIN7asiopal8ExecutorEERKNS6_10IPEndpointERKS5_INS_16IListenCallbacksEERKS5_INS6_15ResourceManagerEERSt10error_code, @function
_ZN8asiodnp315MasterTCPServerC2ERKN7openpal6LoggerERKSt10shared_ptrIN7asiopal8ExecutorEERKNS6_10IPEndpointERKS5_INS_16IListenCallbacksEERKS5_INS6_15ResourceManagerEERSt10error_code:
.LFB8253:
	.cfi_startproc
	pushq	%r12
	.cfi_def_cfa_offset 16
	.cfi_offset 12, -16
	movq	%r8, %r12
	pushq	%rbp
	.cfi_def_cfa_offset 24
	.cfi_offset 6, -24
	movq	%r9, %rbp
	pushq	%rbx
	.cfi_def_cfa_offset 32
	.cfi_offset 3, -32
	movq	32(%rsp), %r8
	movq	%rdi, %rbx
	call	_ZN7asiopal9TCPServerC2ERKN7openpal6LoggerERKSt10shared_ptrINS_8ExecutorEERKNS_10IPEndpointERSt10error_code@PLT
	movq	_ZTVN8asiodnp315MasterTCPServerE@GOTPCREL(%rip), %rax
	addq	$16, %rax
	movq	%rax, (%rbx)
	movq	(%r12), %rax
	movq	%rax, 208(%rbx)
	movq	8(%r12), %rax
	movq	%rax, 216(%rbx)
	testq	%rax, %rax
	je	.L1161
	cmpq	$0, _ZL28__gthrw___pthread_key_createPjPFvPvE@GOTPCREL(%rip)
	jne	.L1172
	addl	$1, 8(%rax)
.L1161:
	movq	0(%rbp), %rax
	movq	%rax, 224(%rbx)
	movq	8(%rbp), %rax
	movq	%rax, 232(%rbx)
	testq	%rax, %rax
	je	.L1160
	cmpq	$0, _ZL28__gthrw___pthread_key_createPjPFvPvE@GOTPCREL(%rip)
	jne	.L1173
	addl	$1, 8(%rax)
.L1160:
	popq	%rbx
	.cfi_remember_state
	.cfi_def_cfa_offset 24
	popq	%rbp
	.cfi_def_cfa_offset 16
	popq	%r12
	.cfi_def_cfa_offset 8
	ret
	.p2align 4,,10
	.p2align 3
.L1172:
	.cfi_restore_state
	lock addl	$1, 8(%rax)
	jmp	.L1161
	.p2align 4,,10
	.p2align 3
.L1173:
	lock addl	$1, 8(%rax)
	popq	%rbx
	.cfi_def_cfa_offset 24
	popq	%rbp
	.cfi_def_cfa_offset 16
	popq	%r12
	.cfi_def_cfa_offset 8
	ret
	.cfi_endproc
.LFE8253:
	.size	_ZN8asiodnp315MasterTCPServerC2ERKN7openpal6LoggerERKSt10shared_ptrIN7asiopal8ExecutorEERKNS6_10IPEndpointERKS5_INS_16IListenCallbacksEERKS5_INS6_15ResourceManagerEERSt10error_code, .-_ZN8asiodnp315MasterTCPServerC2ERKN7openpal6LoggerERKSt10shared_ptrIN7asiopal8ExecutorEERKNS6_10IPEndpointERKS5_INS_16IListenCallbacksEERKS5_INS6_15ResourceManagerEERSt10error_code
	.globl	_ZN8asiodnp315MasterTCPServerC1ERKN7openpal6LoggerERKSt10shared_ptrIN7asiopal8ExecutorEERKNS6_10IPEndpointERKS5_INS_16IListenCallbacksEERKS5_INS6_15ResourceManagerEERSt10error_code
	.set	_ZN8asiodnp315MasterTCPServerC1ERKN7openpal6LoggerERKSt10shared_ptrIN7asiopal8ExecutorEERKNS6_10IPEndpointERKS5_INS_16IListenCallbacksEERKS5_INS6_15ResourceManagerEERSt10error_code,_ZN8asiodnp315MasterTCPServerC2ERKN7openpal6LoggerERKSt10shared_ptrIN7asiopal8ExecutorEERKNS6_10IPEndpointERKS5_INS_16IListenCallbacksEERKS5_INS6_15ResourceManagerEERSt10error_code
	.section	.text.unlikely._ZN4asio6detail15throw_exceptionISt12system_errorEEvRKT_,"axG",@progbits,_ZN4asio6detail15throw_exceptionISt12system_errorEEvRKT_,comdat
	.weak	_ZN4asio6detail15throw_exceptionISt12system_errorEEvRKT_
	.type	_ZN4asio6detail15throw_exceptionISt12system_errorEEvRKT_, @function
_ZN4asio6detail15throw_exceptionISt12system_errorEEvRKT_:
.LFB8556:
	.cfi_startproc
	pushq	%rbp
	.cfi_def_cfa_offset 16
	.cfi_offset 6, -16
	pushq	%rbx
	.cfi_def_cfa_offset 24
	.cfi_offset 3, -24
	movq	%rdi, %rbx
	movl	$32, %edi
	pushq	%rax
	.cfi_def_cfa_offset 32
	call	__cxa_allocate_exception@PLT
	movq	%rbx, %rsi
	movq	%rax, %rdi
	movq	%rax, %rbp
	call	_ZNSt13runtime_errorC2ERKS_@PLT
	movq	_ZTVSt12system_error@GOTPCREL(%rip), %rax
	movups	16(%rbx), %xmm0
	movq	%rbp, %rdi
	movq	_ZNSt12system_errorD1Ev@GOTPCREL(%rip), %rdx
	movq	_ZTISt12system_error@GOTPCREL(%rip), %rsi
	addq	$16, %rax
	movups	%xmm0, 16(%rbp)
	movq	%rax, 0(%rbp)
	call	__cxa_throw@PLT
	.cfi_endproc
.LFE8556:
	.size	_ZN4asio6detail15throw_exceptionISt12system_errorEEvRKT_, .-_ZN4asio6detail15throw_exceptionISt12system_errorEEvRKT_
	.section	.text._ZN4asio6detail14do_throw_errorERKSt10error_code,"axG",@progbits,_ZN4asio6detail14do_throw_errorERKSt10error_code,comdat
	.p2align 4
	.weak	_ZN4asio6detail14do_throw_errorERKSt10error_code
	.type	_ZN4asio6detail14do_throw_errorERKSt10error_code, @function
_ZN4asio6detail14do_throw_errorERKSt10error_code:
.LFB2478:
	.cfi_startproc
	.cfi_personality 0x9b,DW.ref.__gxx_personality_v0
	.cfi_lsda 0x1b,.LLSDA2478
	pushq	%r13
	.cfi_def_cfa_offset 16
	.cfi_offset 13, -16
	pushq	%r12
	.cfi_def_cfa_offset 24
	.cfi_offset 12, -24
	pushq	%rbp
	.cfi_def_cfa_offset 32
	.cfi_offset 6, -32
	pushq	%rbx
	.cfi_def_cfa_offset 40
	.cfi_offset 3, -40
	subq	$88, %rsp
	.cfi_def_cfa_offset 128
	movq	8(%rdi), %rbx
	movl	(%rdi), %r12d
	movq	%fs:40, %rax
	movq	%rax, 72(%rsp)
	xorl	%eax, %eax
	leaq	32(%rsp), %rbp
	movq	%rsp, %r13
	movq	(%rbx), %rax
	movq	%rbx, %rsi
	movq	%rbp, %rdi
	movl	%r12d, %edx
.LEHB5:
	call	*32(%rax)
.LEHE5:
	movq	%rbp, %rsi
	movq	%r13, %rdi
.LEHB6:
	call	_ZNSt13runtime_errorC2ERKNSt7__cxx1112basic_stringIcSt11char_traitsIcESaIcEEE@PLT
.LEHE6:
	movq	32(%rsp), %rdi
	leaq	48(%rsp), %rax
	cmpq	%rax, %rdi
	je	.L1177
	movq	48(%rsp), %rax
	leaq	1(%rax), %rsi
	call	_ZdlPvm@PLT
.L1177:
	movq	_ZTVSt12system_error@GOTPCREL(%rip), %rax
	movq	%r13, %rdi
	movl	%r12d, 16(%rsp)
	movq	%rbx, 24(%rsp)
	addq	$16, %rax
	movq	%rax, (%rsp)
.LEHB7:
	call	_ZN4asio6detail15throw_exceptionISt12system_errorEEvRKT_@PLT
.LEHE7:
.L1183:
	movq	%rax, %rbp
	jmp	.L1178
.L1182:
	movq	%rax, %rbp
	jmp	.L1180
.L1178:
	movq	32(%rsp), %rdi
	leaq	48(%rsp), %rax
	cmpq	%rax, %rdi
	je	.L1185
	movq	48(%rsp), %rax
	leaq	1(%rax), %rsi
	call	_ZdlPvm@PLT
	jmp	.L1185
.L1180:
	movq	%r13, %rdi
	call	_ZNSt12system_errorD1Ev@PLT
.L1185:
	movq	%rbp, %rdi
.LEHB8:
	call	_Unwind_Resume@PLT
.LEHE8:
	.cfi_endproc
.LFE2478:
	.section	.gcc_except_table._ZN4asio6detail14do_throw_errorERKSt10error_code,"aG",@progbits,_ZN4asio6detail14do_throw_errorERKSt10error_code,comdat
.LLSDA2478:
	.byte	0xff
	.byte	0xff
	.byte	0x1
	.uleb128 .LLSDACSE2478-.LLSDACSB2478
.LLSDACSB2478:
	.uleb128 .LEHB5-.LFB2478
	.uleb128 .LEHE5-.LEHB5
	.uleb128 0
	.uleb128 0
	.uleb128 .LEHB6-.LFB2478
	.uleb128 .LEHE6-.LEHB6
	.uleb128 .L1183-.LFB2478
	.uleb128 0
	.uleb128 .LEHB7-.LFB2478
	.uleb128 .LEHE7-.LEHB7
	.uleb128 .L1182-.LFB2478
	.uleb128 0
	.uleb128 .LEHB8-.LFB2478
	.uleb128 .LEHE8-.LEHB8
	.uleb128 0
	.uleb128 0
.LLSDACSE2478:
	.section	.text._ZN4asio6detail14do_throw_errorERKSt10error_code,"axG",@progbits,_ZN4asio6detail14do_throw_errorERKSt10error_code,comdat
	.size	_ZN4asio6detail14do_throw_errorERKSt10error_code, .-_ZN4asio6detail14do_throw_errorERKSt10error_code
	.section	.text._ZN4asio6detail14do_throw_errorERKSt10error_codePKc,"axG",@progbits,_ZN4asio6detail14do_throw_errorERKSt10error_codePKc,comdat
	.p2align 4
	.weak	_ZN4asio6detail14do_throw_errorERKSt10error_codePKc
	.type	_ZN4asio6detail14do_throw_errorERKSt10error_codePKc, @function
_ZN4asio6detail14do_throw_errorERKSt10error_codePKc:
.LFB2479:
	.cfi_startproc
	.cfi_personality 0x9b,DW.ref.__gxx_personality_v0
	.cfi_lsda 0x1b,.LLSDA2479
	pushq	%r12
	.cfi_def_cfa_offset 16
	.cfi_offset 12, -16
	movq	%rsi, %rcx
	pushq	%rbp
	.cfi_def_cfa_offset 24
	.cfi_offset 6, -24
	subq	$56, %rsp
	.cfi_def_cfa_offset 80
	movl	(%rdi), %esi
	movq	8(%rdi), %rdx
	movq	%fs:40, %rax
	movq	%rax, 40(%rsp)
	xorl	%eax, %eax
	movq	%rsp, %rbp
	movq	%rbp, %rdi
.LEHB9:
	call	_ZNSt12system_errorC1ESt10error_codePKc@PLT
.LEHE9:
	movq	%rbp, %rdi
.LEHB10:
	call	_ZN4asio6detail15throw_exceptionISt12system_errorEEvRKT_@PLT
.LEHE10:
.L1189:
	movq	%rax, %r12
.L1187:
	movq	%rbp, %rdi
	call	_ZNSt12system_errorD1Ev@PLT
	movq	%r12, %rdi
.LEHB11:
	call	_Unwind_Resume@PLT
.LEHE11:
	.cfi_endproc
.LFE2479:
	.section	.gcc_except_table._ZN4asio6detail14do_throw_errorERKSt10error_codePKc,"aG",@progbits,_ZN4asio6detail14do_throw_errorERKSt10error_codePKc,comdat
.LLSDA2479:
	.byte	0xff
	.byte	0xff
	.byte	0x1
	.uleb128 .LLSDACSE2479-.LLSDACSB2479
.LLSDACSB2479:
	.uleb128 .LEHB9-.LFB2479
	.uleb128 .LEHE9-.LEHB9
	.uleb128 0
	.uleb128 0
	.uleb128 .LEHB10-.LFB2479
	.uleb128 .LEHE10-.LEHB10
	.uleb128 .L1189-.LFB2479
	.uleb128 0
	.uleb128 .LEHB11-.LFB2479
	.uleb128 .LEHE11-.LEHB11
	.uleb128 0
	.uleb128 0
.LLSDACSE2479:
	.section	.text._ZN4asio6detail14do_throw_errorERKSt10error_codePKc,"axG",@progbits,_ZN4asio6detail14do_throw_errorERKSt10error_codePKc,comdat
	.size	_ZN4asio6detail14do_throw_errorERKSt10error_codePKc, .-_ZN4asio6detail14do_throw_errorERKSt10error_codePKc
	.section	.text.unlikely._ZN4asio6detail15throw_exceptionISt12out_of_rangeEEvRKT_,"axG",@progbits,_ZN4asio6detail15throw_exceptionISt12out_of_rangeEEvRKT_,comdat
	.weak	_ZN4asio6detail15throw_exceptionISt12out_of_rangeEEvRKT_
	.type	_ZN4asio6detail15throw_exceptionISt12out_of_rangeEEvRKT_, @function
_ZN4asio6detail15throw_exceptionISt12out_of_rangeEEvRKT_:
.LFB8707:
	.cfi_startproc
	pushq	%r12
	.cfi_def_cfa_offset 16
	.cfi_offset 12, -16
	movq	%rdi, %r12
	movl	$16, %edi
	pushq	%rbp
	.cfi_def_cfa_offset 24
	.cfi_offset 6, -24
	pushq	%rax
	.cfi_def_cfa_offset 32
	call	__cxa_allocate_exception@PLT
	movq	%r12, %rsi
	movq	%rax, %rdi
	movq	%rax, %rbp
	call	_ZNSt11logic_errorC2ERKS_@PLT
	movq	_ZTVSt12out_of_range@GOTPCREL(%rip), %rax
	movq	_ZNSt12out_of_rangeD1Ev@GOTPCREL(%rip), %rdx
	movq	%rbp, %rdi
	movq	_ZTISt12out_of_range@GOTPCREL(%rip), %rsi
	addq	$16, %rax
	movq	%rax, 0(%rbp)
	call	__cxa_throw@PLT
	.cfi_endproc
.LFE8707:
	.size	_ZN4asio6detail15throw_exceptionISt12out_of_rangeEEvRKT_, .-_ZN4asio6detail15throw_exceptionISt12out_of_rangeEEvRKT_
	.section	.text._ZNSt7__cxx1115basic_stringbufIcSt11char_traitsIcESaIcEED2Ev,"axG",@progbits,_ZNSt7__cxx1115basic_stringbufIcSt11char_traitsIcESaIcEED5Ev,comdat
	.align 2
	.p2align 4
	.weak	_ZNSt7__cxx1115basic_stringbufIcSt11char_traitsIcESaIcEED2Ev
	.type	_ZNSt7__cxx1115basic_stringbufIcSt11char_traitsIcESaIcEED2Ev, @function
_ZNSt7__cxx1115basic_stringbufIcSt11char_traitsIcESaIcEED2Ev:
.LFB8790:
	.cfi_startproc
	movq	_ZTVNSt7__cxx1115basic_stringbufIcSt11char_traitsIcESaIcEEE@GOTPCREL(%rip), %rax
	pushq	%rbx
	.cfi_def_cfa_offset 16
	.cfi_offset 3, -16
	movq	%rdi, %rbx
	addq	$16, %rax
	movq	%rax, (%rdi)
	movq	72(%rdi), %rdi
	leaq	88(%rbx), %rax
	cmpq	%rax, %rdi
	je	.L1194
	movq	88(%rbx), %rax
	leaq	1(%rax), %rsi
	call	_ZdlPvm@PLT
.L1194:
	movq	_ZTVSt15basic_streambufIcSt11char_traitsIcEE@GOTPCREL(%rip), %rax
	leaq	56(%rbx), %rdi
	addq	$16, %rax
	movq	%rax, (%rbx)
	popq	%rbx
	.cfi_def_cfa_offset 8
	jmp	_ZNSt6localeD1Ev@PLT
	.cfi_endproc
.LFE8790:
	.size	_ZNSt7__cxx1115basic_stringbufIcSt11char_traitsIcESaIcEED2Ev, .-_ZNSt7__cxx1115basic_stringbufIcSt11char_traitsIcESaIcEED2Ev
	.weak	_ZNSt7__cxx1115basic_stringbufIcSt11char_traitsIcESaIcEED1Ev
	.set	_ZNSt7__cxx1115basic_stringbufIcSt11char_traitsIcESaIcEED1Ev,_ZNSt7__cxx1115basic_stringbufIcSt11char_traitsIcESaIcEED2Ev
	.section	.text._ZNSt7__cxx1115basic_stringbufIcSt11char_traitsIcESaIcEED0Ev,"axG",@progbits,_ZNSt7__cxx1115basic_stringbufIcSt11char_traitsIcESaIcEED5Ev,comdat
	.align 2
	.p2align 4
	.weak	_ZNSt7__cxx1115basic_stringbufIcSt11char_traitsIcESaIcEED0Ev
	.type	_ZNSt7__cxx1115basic_stringbufIcSt11char_traitsIcESaIcEED0Ev, @function
_ZNSt7__cxx1115basic_stringbufIcSt11char_traitsIcESaIcEED0Ev:
.LFB8792:
	.cfi_startproc
	movq	_ZTVNSt7__cxx1115basic_stringbufIcSt11char_traitsIcESaIcEEE@GOTPCREL(%rip), %rax
	pushq	%rbp
	.cfi_def_cfa_offset 16
	.cfi_offset 6, -16
	movq	%rdi, %rbp
	addq	$16, %rax
	movq	%rax, (%rdi)
	movq	72(%rdi), %rdi
	leaq	88(%rbp), %rax
	cmpq	%rax, %rdi
	je	.L1197
	movq	88(%rbp), %rax
	leaq	1(%rax), %rsi
	call	_ZdlPvm@PLT
.L1197:
	movq	_ZTVSt15basic_streambufIcSt11char_traitsIcEE@GOTPCREL(%rip), %rax
	leaq	56(%rbp), %rdi
	addq	$16, %rax
	movq	%rax, 0(%rbp)
	call	_ZNSt6localeD1Ev@PLT
	movq	%rbp, %rdi
	movl	$104, %esi
	popq	%rbp
	.cfi_def_cfa_offset 8
	jmp	_ZdlPvm@PLT
	.cfi_endproc
.LFE8792:
	.size	_ZNSt7__cxx1115basic_stringbufIcSt11char_traitsIcESaIcEED0Ev, .-_ZNSt7__cxx1115basic_stringbufIcSt11char_traitsIcESaIcEED0Ev
	.section	.rodata._ZNK4asio2ip6detail8endpoint9to_stringB5cxx11ERSt10error_code.str1.1,"aMS",@progbits,1
.LC25:
	.string	"%lu"
	.section	.text._ZNK4asio2ip6detail8endpoint9to_stringB5cxx11ERSt10error_code,"axG",@progbits,_ZNK4asio2ip6detail8endpoint9to_stringB5cxx11ERSt10error_code,comdat
	.align 2
	.p2align 4
	.weak	_ZNK4asio2ip6detail8endpoint9to_stringB5cxx11ERSt10error_code
	.type	_ZNK4asio2ip6detail8endpoint9to_stringB5cxx11ERSt10error_code, @function
_ZNK4asio2ip6detail8endpoint9to_stringB5cxx11ERSt10error_code:
.LFB6000:
	.cfi_startproc
	.cfi_personality 0x9b,DW.ref.__gxx_personality_v0
	.cfi_lsda 0x1b,.LLSDA6000
	pushq	%r15
	.cfi_def_cfa_offset 16
	.cfi_offset 15, -16
	pushq	%r14
	.cfi_def_cfa_offset 24
	.cfi_offset 14, -24
	pushq	%r13
	.cfi_def_cfa_offset 32
	.cfi_offset 13, -32
	movq	%rdx, %r13
	pushq	%r12
	.cfi_def_cfa_offset 40
	.cfi_offset 12, -40
	movq	%rdi, %r12
	pushq	%rbp
	.cfi_def_cfa_offset 48
	.cfi_offset 6, -48
	pushq	%rbx
	.cfi_def_cfa_offset 56
	.cfi_offset 3, -56
	movq	%rsi, %rbx
	subq	$600, %rsp
	.cfi_def_cfa_offset 656
	movq	%fs:40, %rax
	movq	%rax, 584(%rsp)
	xorl	%eax, %eax
	call	__errno_location@PLT
	cmpw	$2, (%rbx)
	movq	%rax, %rbp
	je	.L1296
	movl	24(%rbx), %r14d
	movdqu	8(%rbx), %xmm1
	movl	$0, 0(%rbp)
	leaq	512(%rsp), %r15
	movq	.LC24(%rip), %rax
	leaq	104(%rsp), %rsi
	movl	$63, %ecx
	movq	%r15, %rdx
	movl	$10, %edi
	movl	%r14d, 8(%rsp)
	movq	%rax, 96(%rsp)
	movq	%r14, 120(%rsp)
	movups	%xmm1, 104(%rsp)
	call	inet_ntop@PLT
	movq	_ZGVZN4asio15system_categoryEvE8instance@GOTPCREL(%rip), %r8
	movq	%rax, %r9
	movzbl	(%r8), %eax
	testb	%al, %al
	je	.L1203
.L1286:
	movq	_ZZN4asio15system_categoryEvE8instance@GOTPCREL(%rip), %rcx
.L1204:
	movl	0(%rbp), %eax
	movq	%rcx, 8(%r13)
	movl	%eax, 0(%r13)
	testq	%r9, %r9
	je	.L1295
	testq	%r14, %r14
	je	.L1216
	movzbl	104(%rsp), %eax
	movb	$0, 496(%rsp)
	movq	$37, 480(%rsp)
	movq	$0, 488(%rsp)
	cmpb	$-2, %al
	je	.L1297
	cmpb	$-1, %al
	jne	.L1287
	movzbl	105(%rsp), %eax
	leaq	481(%rsp), %rbp
	andl	$15, %eax
	cmpb	$2, %al
	je	.L1213
.L1215:
	movq	%r14, %r8
	leaq	.LC25(%rip), %rcx
	movq	%rbp, %rdi
	xorl	%eax, %eax
	movl	$16, %edx
	movl	$1, %esi
	movq	%r9, 8(%rsp)
	call	__sprintf_chk@PLT
	movq	8(%rsp), %r9
.L1214:
	leaq	480(%rsp), %rsi
	movl	$63, %edx
	movq	%r15, %rdi
	movq	%r9, 8(%rsp)
	call	__strcat_chk@PLT
	movq	8(%rsp), %r9
.L1216:
	movq	%r9, %rdi
	leaq	80(%rsp), %rbp
	movq	%r9, 8(%rsp)
	leaq	64(%rsp), %r14
	movq	%rbp, 64(%rsp)
	call	strlen@PLT
	movq	8(%rsp), %r9
	cmpq	$15, %rax
	movq	%rax, 56(%rsp)
	movq	%rax, %r15
	ja	.L1298
	cmpq	$1, %rax
	jne	.L1218
	movzbl	(%r9), %edx
	movb	%dl, 80(%rsp)
	movq	%rbp, %rdx
	jmp	.L1229
	.p2align 4,,10
	.p2align 3
.L1296:
	movl	4(%rbx), %eax
	movl	$0, 0(%rbp)
	pxor	%xmm0, %xmm0
	leaq	512(%rsp), %rdx
	leaq	100(%rsp), %rsi
	movl	$16, %ecx
	movl	$2, %edi
	movl	$0, 96(%rsp)
	movl	%eax, 100(%rsp)
	movq	$0, 120(%rsp)
	movups	%xmm0, 104(%rsp)
	call	inet_ntop@PLT
	movq	_ZGVZN4asio15system_categoryEvE8instance@GOTPCREL(%rip), %r8
	movq	%rax, %r14
	movzbl	(%r8), %eax
	testb	%al, %al
	je	.L1201
.L1288:
	movq	_ZZN4asio15system_categoryEvE8instance@GOTPCREL(%rip), %rcx
.L1202:
	movl	0(%rbp), %eax
	movq	%rcx, 8(%r13)
	movl	%eax, 0(%r13)
	testq	%r14, %r14
	je	.L1295
	leaq	80(%rsp), %rbp
	movq	%r14, %rdi
	leaq	64(%rsp), %r15
	movq	%rbp, 64(%rsp)
	call	strlen@PLT
	movq	%rax, 56(%rsp)
	movq	%rax, %r8
	cmpq	$15, %rax
	ja	.L1299
	cmpq	$1, %rax
	jne	.L1228
	movzbl	(%r14), %edx
	movb	%dl, 80(%rsp)
	movq	%rbp, %rdx
.L1229:
	movq	%rax, 72(%rsp)
	movb	$0, (%rdx,%rax)
	movl	0(%r13), %eax
	testl	%eax, %eax
	jne	.L1211
.L1230:
	leaq	208(%rsp), %r13
	leaq	96(%rsp), %r14
	movq	%r13, %rdi
	call	_ZNSt8ios_baseC2Ev@PLT
	movq	_ZTVSt9basic_iosIcSt11char_traitsIcEE@GOTPCREL(%rip), %rax
	pxor	%xmm0, %xmm0
	xorl	%esi, %esi
	movups	%xmm0, 440(%rsp)
	addq	$16, %rax
	movups	%xmm0, 456(%rsp)
	movq	%rax, 208(%rsp)
	xorl	%eax, %eax
	movw	%ax, 432(%rsp)
	movq	_ZTTNSt7__cxx1119basic_ostringstreamIcSt11char_traitsIcESaIcEEE@GOTPCREL(%rip), %rax
	movq	$0, 424(%rsp)
	movq	8(%rax), %rcx
	movq	16(%rax), %rax
	movq	-24(%rcx), %rdi
	movq	%rcx, 96(%rsp)
	movq	%rcx, 8(%rsp)
	addq	%r14, %rdi
	movq	%rax, 16(%rsp)
	movq	%rax, (%rdi)
.LEHB12:
	call	_ZNSt9basic_iosIcSt11char_traitsIcEE4initEPSt15basic_streambufIcS1_E@PLT
.LEHE12:
	movq	_ZTVNSt7__cxx1119basic_ostringstreamIcSt11char_traitsIcESaIcEEE@GOTPCREL(%rip), %rax
	leaq	104(%rsp), %r15
	leaq	24(%rax), %rcx
	addq	$64, %rax
	movq	%rax, 208(%rsp)
	movq	_ZTVSt15basic_streambufIcSt11char_traitsIcEE@GOTPCREL(%rip), %rax
	movq	%rcx, %xmm0
	movq	%rcx, 24(%rsp)
	addq	$16, %rax
	movq	%rax, %xmm2
	leaq	160(%rsp), %rax
	punpcklqdq	%xmm2, %xmm0
	movq	%rax, %rdi
	movq	%rax, 32(%rsp)
	movaps	%xmm0, 96(%rsp)
	pxor	%xmm0, %xmm0
	movaps	%xmm0, 112(%rsp)
	movaps	%xmm0, 128(%rsp)
	movaps	%xmm0, 144(%rsp)
	call	_ZNSt6localeC1Ev@PLT
	movq	_ZTVNSt7__cxx1115basic_stringbufIcSt11char_traitsIcESaIcEEE@GOTPCREL(%rip), %rax
	movq	%r15, %rsi
	movq	%r13, %rdi
	movl	$16, 168(%rsp)
	addq	$16, %rax
	movb	$0, 192(%rsp)
	movq	%rax, 104(%rsp)
	leaq	192(%rsp), %rax
	movq	%rax, 40(%rsp)
	movq	%rax, 176(%rsp)
	movq	$0, 184(%rsp)
.LEHB13:
	call	_ZNSt9basic_iosIcSt11char_traitsIcEE4initEPSt15basic_streambufIcS1_E@PLT
.LEHE13:
.LEHB14:
	call	_ZNSt6locale7classicEv@PLT
	leaq	56(%rsp), %r15
	movq	%rax, %rdx
	movq	%r13, %rsi
	movq	%r15, %rdi
	call	_ZNSt9basic_iosIcSt11char_traitsIcEE5imbueERKSt6locale@PLT
	movq	%r15, %rdi
	call	_ZNSt6localeD1Ev@PLT
	cmpw	$2, (%rbx)
	je	.L1300
	leaq	53(%rsp), %rsi
	movl	$1, %edx
	movq	%r14, %rdi
	movb	$91, 53(%rsp)
	call	_ZSt16__ostream_insertIcSt11char_traitsIcEERSt13basic_ostreamIT_T0_ES6_PKS3_l@PLT
	movq	72(%rsp), %rdx
	movq	64(%rsp), %rsi
	movq	%rax, %rdi
	call	_ZSt16__ostream_insertIcSt11char_traitsIcEERSt13basic_ostreamIT_T0_ES6_PKS3_l@PLT
	movq	%rax, %rdi
	leaq	54(%rsp), %rsi
	movl	$1, %edx
	movb	$93, 54(%rsp)
	call	_ZSt16__ostream_insertIcSt11char_traitsIcEERSt13basic_ostreamIT_T0_ES6_PKS3_l@PLT
.L1237:
	leaq	55(%rsp), %rsi
	movl	$1, %edx
	movq	%r14, %rdi
	movb	$58, 55(%rsp)
	call	_ZSt16__ostream_insertIcSt11char_traitsIcEERSt13basic_ostreamIT_T0_ES6_PKS3_l@PLT
	movzwl	2(%rbx), %esi
	movq	%rax, %rdi
	rolw	$8, %si
	movzwl	%si, %esi
	call	_ZNSo9_M_insertImEERSoT_@PLT
.LEHE14:
	movq	144(%rsp), %rax
	leaq	16(%r12), %rbx
	movq	$0, 8(%r12)
	movq	%rbx, (%r12)
	movb	$0, 16(%r12)
	testq	%rax, %rax
	je	.L1238
	movq	128(%rsp), %r8
	movq	136(%rsp), %rcx
	cmpq	%r8, %rax
	ja	.L1301
	subq	%rcx, %r8
	xorl	%edx, %edx
	xorl	%esi, %esi
	movq	%r12, %rdi
.LEHB15:
	call	_ZNSt7__cxx1112basic_stringIcSt11char_traitsIcESaIcEE10_M_replaceEmmPKcm@PLT
.L1240:
	movq	_ZTVNSt7__cxx1119basic_ostringstreamIcSt11char_traitsIcESaIcEEE@GOTPCREL(%rip), %rax
	movq	24(%rsp), %xmm0
	movq	176(%rsp), %rdi
	addq	$64, %rax
	movq	%rax, 208(%rsp)
	movq	_ZTVNSt7__cxx1115basic_stringbufIcSt11char_traitsIcESaIcEEE@GOTPCREL(%rip), %rax
	addq	$16, %rax
	movq	%rax, %xmm3
	punpcklqdq	%xmm3, %xmm0
	movaps	%xmm0, 96(%rsp)
	cmpq	40(%rsp), %rdi
	je	.L1242
	movq	192(%rsp), %rax
	leaq	1(%rax), %rsi
	call	_ZdlPvm@PLT
.L1242:
	movq	_ZTVSt15basic_streambufIcSt11char_traitsIcEE@GOTPCREL(%rip), %rax
	movq	32(%rsp), %rdi
	addq	$16, %rax
	movq	%rax, 104(%rsp)
	call	_ZNSt6localeD1Ev@PLT
	movq	8(%rsp), %rax
	movq	16(%rsp), %rbx
	movq	%r13, %rdi
	movq	%rax, 96(%rsp)
	movq	-24(%rax), %rax
	movq	%rbx, 96(%rsp,%rax)
	movq	_ZTVSt9basic_iosIcSt11char_traitsIcEE@GOTPCREL(%rip), %rax
	addq	$16, %rax
	movq	%rax, 208(%rsp)
	call	_ZNSt8ios_baseD2Ev@PLT
	jmp	.L1231
	.p2align 4,,10
	.p2align 3
.L1201:
	movq	%r8, %rdi
	movq	%r8, 8(%rsp)
	call	__cxa_guard_acquire@PLT
	movq	8(%rsp), %r8
	testl	%eax, %eax
	je	.L1288
	movq	_ZZN4asio15system_categoryEvE8instance@GOTPCREL(%rip), %rcx
	movq	_ZN4asio6detail15system_categoryD1Ev@GOTPCREL(%rip), %rdi
	movq	%r8, 8(%rsp)
	leaq	__dso_handle(%rip), %rdx
	movq	%rcx, %rsi
	movq	%rcx, 16(%rsp)
	call	__cxa_atexit@PLT
	movq	8(%rsp), %r8
	movq	%r8, %rdi
	call	__cxa_guard_release@PLT
	movq	16(%rsp), %rcx
	movq	8(%rsp), %r8
	jmp	.L1202
	.p2align 4,,10
	.p2align 3
.L1295:
	testl	%eax, %eax
	je	.L1302
	leaq	80(%rsp), %rbp
	movb	$0, 80(%rsp)
	movq	%rbp, 64(%rsp)
	movq	$0, 72(%rsp)
	testl	%eax, %eax
	je	.L1230
.L1211:
	leaq	16(%r12), %rax
	movb	$0, 16(%r12)
	movq	%rax, (%r12)
	movq	$0, 8(%r12)
.L1231:
	movq	64(%rsp), %rdi
	cmpq	%rbp, %rdi
	je	.L1199
	movq	80(%rsp), %rax
	leaq	1(%rax), %rsi
	call	_ZdlPvm@PLT
.L1199:
	movq	584(%rsp), %rax
	subq	%fs:40, %rax
	jne	.L1303
	addq	$600, %rsp
	.cfi_remember_state
	.cfi_def_cfa_offset 56
	movq	%r12, %rax
	popq	%rbx
	.cfi_def_cfa_offset 48
	popq	%rbp
	.cfi_def_cfa_offset 40
	popq	%r12
	.cfi_def_cfa_offset 32
	popq	%r13
	.cfi_def_cfa_offset 24
	popq	%r14
	.cfi_def_cfa_offset 16
	popq	%r15
	.cfi_def_cfa_offset 8
	ret
	.p2align 4,,10
	.p2align 3
.L1301:
	.cfi_restore_state
	subq	%rcx, %rax
	xorl	%edx, %edx
	xorl	%esi, %esi
	movq	%r12, %rdi
	movq	%rax, %r8
	call	_ZNSt7__cxx1112basic_stringIcSt11char_traitsIcESaIcEE10_M_replaceEmmPKcm@PLT
.LEHE15:
	jmp	.L1240
	.p2align 4,,10
	.p2align 3
.L1228:
	testq	%r8, %r8
	jne	.L1304
.L1258:
	movq	%rbp, %rdx
	jmp	.L1229
	.p2align 4,,10
	.p2align 3
.L1299:
	movq	%r15, %rdi
	leaq	56(%rsp), %rsi
	xorl	%edx, %edx
	movq	%r8, 8(%rsp)
.LEHB16:
	call	_ZNSt7__cxx1112basic_stringIcSt11char_traitsIcESaIcEE9_M_createERmm@PLT
.LEHE16:
	movq	8(%rsp), %r8
	movq	%rax, 64(%rsp)
	movq	%rax, %rdi
	movq	56(%rsp), %rax
	movq	%rax, 80(%rsp)
.L1227:
	movq	%r8, %rdx
	movq	%r14, %rsi
	call	memcpy@PLT
	movq	56(%rsp), %rax
	movq	64(%rsp), %rdx
	jmp	.L1229
	.p2align 4,,10
	.p2align 3
.L1203:
	movq	%r8, %rdi
	movq	%r9, 24(%rsp)
	movq	%r8, 16(%rsp)
	call	__cxa_guard_acquire@PLT
	movq	16(%rsp), %r8
	movq	24(%rsp), %r9
	testl	%eax, %eax
	je	.L1286
	movq	_ZZN4asio15system_categoryEvE8instance@GOTPCREL(%rip), %rcx
	movq	_ZN4asio6detail15system_categoryD1Ev@GOTPCREL(%rip), %rdi
	movq	%r9, 32(%rsp)
	leaq	__dso_handle(%rip), %rdx
	movq	%r8, 16(%rsp)
	movq	%rcx, %rsi
	movq	%rcx, 24(%rsp)
	call	__cxa_atexit@PLT
	movq	16(%rsp), %r8
	movq	%r8, %rdi
	call	__cxa_guard_release@PLT
	movq	32(%rsp), %r9
	movq	24(%rsp), %rcx
	movq	16(%rsp), %r8
	jmp	.L1204
	.p2align 4,,10
	.p2align 3
.L1300:
	movq	72(%rsp), %rdx
	movq	64(%rsp), %rsi
	movq	%r14, %rdi
.LEHB17:
	call	_ZSt16__ostream_insertIcSt11char_traitsIcEERSt13basic_ostreamIT_T0_ES6_PKS3_l@PLT
.LEHE17:
	jmp	.L1237
	.p2align 4,,10
	.p2align 3
.L1302:
	movzbl	(%r8), %eax
	testb	%al, %al
	je	.L1305
.L1225:
	leaq	80(%rsp), %rbp
	movl	$22, 0(%r13)
	movq	%rcx, 8(%r13)
	movb	$0, 80(%rsp)
	movq	%rbp, 64(%rsp)
	movq	$0, 72(%rsp)
	jmp	.L1211
	.p2align 4,,10
	.p2align 3
.L1218:
	testq	%r15, %r15
	je	.L1258
	movq	%rbp, %rdi
	jmp	.L1217
	.p2align 4,,10
	.p2align 3
.L1298:
	movq	%r14, %rdi
	leaq	56(%rsp), %rsi
	xorl	%edx, %edx
	movq	%r9, 8(%rsp)
.LEHB18:
	call	_ZNSt7__cxx1112basic_stringIcSt11char_traitsIcESaIcEE9_M_createERmm@PLT
.LEHE18:
	movq	8(%rsp), %r9
	movq	%rax, 64(%rsp)
	movq	%rax, %rdi
	movq	56(%rsp), %rax
	movq	%rax, 80(%rsp)
.L1217:
	movq	%r15, %rdx
	movq	%r9, %rsi
	call	memcpy@PLT
	movq	56(%rsp), %rax
	movq	64(%rsp), %rdx
	jmp	.L1229
	.p2align 4,,10
	.p2align 3
.L1238:
	leaq	176(%rsp), %rsi
	movq	%r12, %rdi
.LEHB19:
	call	_ZNSt7__cxx1112basic_stringIcSt11char_traitsIcESaIcEE9_M_assignERKS4_@PLT
.LEHE19:
	jmp	.L1240
	.p2align 4,,10
	.p2align 3
.L1297:
	movzbl	105(%rsp), %eax
	andl	$-64, %eax
	cmpb	$-128, %al
	je	.L1213
.L1287:
	leaq	481(%rsp), %rbp
	jmp	.L1215
	.p2align 4,,10
	.p2align 3
.L1213:
	movl	8(%rsp), %edi
	leaq	481(%rsp), %rbp
	movq	%r9, 16(%rsp)
	movq	%rbp, %rsi
	call	if_indextoname@PLT
	movq	16(%rsp), %r9
	testq	%rax, %rax
	jne	.L1214
	jmp	.L1215
	.p2align 4,,10
	.p2align 3
.L1305:
	movq	%r8, %rdi
	movq	%rcx, 16(%rsp)
	movq	%r8, 8(%rsp)
	call	__cxa_guard_acquire@PLT
	movq	8(%rsp), %r8
	movq	16(%rsp), %rcx
	testl	%eax, %eax
	je	.L1225
	movq	_ZN4asio6detail15system_categoryD1Ev@GOTPCREL(%rip), %rdi
	movq	%rcx, %rsi
	movq	%rcx, 8(%rsp)
	leaq	__dso_handle(%rip), %rdx
	movq	%r8, 16(%rsp)
	call	__cxa_atexit@PLT
	movq	16(%rsp), %r8
	movq	%r8, %rdi
	call	__cxa_guard_release@PLT
	movq	8(%rsp), %rcx
	jmp	.L1225
.L1303:
	call	__stack_chk_fail@PLT
.L1304:
	movq	%rbp, %rdi
	jmp	.L1227
.L1260:
	movq	%rax, %rbx
	jmp	.L1234
.L1262:
	movq	%rax, %r13
	jmp	.L1243
.L1233:
	movq	%r15, %rdi
	call	_ZNSt7__cxx1115basic_stringbufIcSt11char_traitsIcESaIcEED1Ev@PLT
	movq	8(%rsp), %rax
	movq	16(%rsp), %rdx
	movq	%rax, 96(%rsp)
	movq	-24(%rax), %rax
	movq	%rdx, 96(%rsp,%rax)
.L1234:
	movq	_ZTVSt9basic_iosIcSt11char_traitsIcEE@GOTPCREL(%rip), %rax
	movq	%r13, %rdi
	movq	%rbx, %r12
	addq	$16, %rax
	movq	%rax, 208(%rsp)
	call	_ZNSt8ios_baseD2Ev@PLT
.L1235:
	movq	64(%rsp), %rdi
	cmpq	%rbp, %rdi
	je	.L1247
	movq	80(%rsp), %rax
	leaq	1(%rax), %rsi
	call	_ZdlPvm@PLT
.L1247:
	movq	%r12, %rdi
.LEHB20:
	call	_Unwind_Resume@PLT
.LEHE20:
.L1243:
	movq	(%r12), %rdi
	cmpq	%rdi, %rbx
	je	.L1244
	movq	16(%r12), %rsi
	addq	$1, %rsi
	call	_ZdlPvm@PLT
.L1244:
	movq	%r13, %r12
.L1245:
	movq	%r14, %rdi
	call	_ZNSt7__cxx1119basic_ostringstreamIcSt11char_traitsIcESaIcEED1Ev@PLT
	jmp	.L1235
.L1261:
	movq	%rax, %rbx
	jmp	.L1233
.L1259:
	movq	%rax, %r12
	jmp	.L1245
	.cfi_endproc
.LFE6000:
	.section	.gcc_except_table._ZNK4asio2ip6detail8endpoint9to_stringB5cxx11ERSt10error_code,"aG",@progbits,_ZNK4asio2ip6detail8endpoint9to_stringB5cxx11ERSt10error_code,comdat
.LLSDA6000:
	.byte	0xff
	.byte	0xff
	.byte	0x1
	.uleb128 .LLSDACSE6000-.LLSDACSB6000
.LLSDACSB6000:
	.uleb128 .LEHB12-.LFB6000
	.uleb128 .LEHE12-.LEHB12
	.uleb128 .L1260-.LFB6000
	.uleb128 0
	.uleb128 .LEHB13-.LFB6000
	.uleb128 .LEHE13-.LEHB13
	.uleb128 .L1261-.LFB6000
	.uleb128 0
	.uleb128 .LEHB14-.LFB6000
	.uleb128 .LEHE14-.LEHB14
	.uleb128 .L1259-.LFB6000
	.uleb128 0
	.uleb128 .LEHB15-.LFB6000
	.uleb128 .LEHE15-.LEHB15
	.uleb128 .L1262-.LFB6000
	.uleb128 0
	.uleb128 .LEHB16-.LFB6000
	.uleb128 .LEHE16-.LEHB16
	.uleb128 0
	.uleb128 0
	.uleb128 .LEHB17-.LFB6000
	.uleb128 .LEHE17-.LEHB17
	.uleb128 .L1259-.LFB6000
	.uleb128 0
	.uleb128 .LEHB18-.LFB6000
	.uleb128 .LEHE18-.LEHB18
	.uleb128 0
	.uleb128 0
	.uleb128 .LEHB19-.LFB6000
	.uleb128 .LEHE19-.LEHB19
	.uleb128 .L1262-.LFB6000
	.uleb128 0
	.uleb128 .LEHB20-.LFB6000
	.uleb128 .LEHE20-.LEHB20
	.uleb128 0
	.uleb128 0
.LLSDACSE6000:
	.section	.text._ZNK4asio2ip6detail8endpoint9to_stringB5cxx11ERSt10error_code,"axG",@progbits,_ZNK4asio2ip6detail8endpoint9to_stringB5cxx11ERSt10error_code,comdat
	.size	_ZNK4asio2ip6detail8endpoint9to_stringB5cxx11ERSt10error_code, .-_ZNK4asio2ip6detail8endpoint9to_stringB5cxx11ERSt10error_code
	.section	.rodata.str1.1,"aMS",@progbits,1
.LC26:
	.string	"session-"
	.section	.text.unlikely
	.align 2
.LCOLDB27:
	.text
.LHOTB27:
	.align 2
	.p2align 4
	.globl	_ZN8asiodnp315MasterTCPServer17SessionIdToStringB5cxx11Em
	.type	_ZN8asiodnp315MasterTCPServer17SessionIdToStringB5cxx11Em, @function
_ZN8asiodnp315MasterTCPServer17SessionIdToStringB5cxx11Em:
.LFB8278:
	.cfi_startproc
	.cfi_personality 0x9b,DW.ref.__gxx_personality_v0
	.cfi_lsda 0x1b,.LLSDA8278
	pushq	%r15
	.cfi_def_cfa_offset 16
	.cfi_offset 15, -16
	pushq	%r14
	.cfi_def_cfa_offset 24
	.cfi_offset 14, -24
	pushq	%r13
	.cfi_def_cfa_offset 32
	.cfi_offset 13, -32
	pushq	%r12
	.cfi_def_cfa_offset 40
	.cfi_offset 12, -40
	movq	%rdi, %r12
	pushq	%rbp
	.cfi_def_cfa_offset 48
	.cfi_offset 6, -48
	pushq	%rbx
	.cfi_def_cfa_offset 56
	.cfi_offset 3, -56
	subq	$424, %rsp
	.cfi_def_cfa_offset 480
	movq	%rsi, 16(%rsp)
	leaq	144(%rsp), %r13
	leaq	32(%rsp), %rbp
	movq	%r13, %rdi
	movq	%fs:40, %rax
	movq	%rax, 408(%rsp)
	xorl	%eax, %eax
	call	_ZNSt8ios_baseC2Ev@PLT
	movq	_ZTVSt9basic_iosIcSt11char_traitsIcEE@GOTPCREL(%rip), %rax
	pxor	%xmm0, %xmm0
	xorl	%esi, %esi
	movups	%xmm0, 376(%rsp)
	addq	$16, %rax
	movups	%xmm0, 392(%rsp)
	movq	%rax, 144(%rsp)
	xorl	%eax, %eax
	movw	%ax, 368(%rsp)
	movq	_ZTTNSt7__cxx1119basic_ostringstreamIcSt11char_traitsIcESaIcEEE@GOTPCREL(%rip), %rax
	movq	$0, 360(%rsp)
	movq	8(%rax), %rbx
	movq	16(%rax), %rax
	movq	-24(%rbx), %rdi
	movq	%rbx, 32(%rsp)
	movq	%rax, (%rsp)
	addq	%rbp, %rdi
	movq	%rax, (%rdi)
.LEHB21:
	call	_ZNSt9basic_iosIcSt11char_traitsIcEE4initEPSt15basic_streambufIcS1_E@PLT
.LEHE21:
	movq	_ZTVNSt7__cxx1119basic_ostringstreamIcSt11char_traitsIcESaIcEEE@GOTPCREL(%rip), %rax
	leaq	96(%rsp), %r15
	leaq	40(%rsp), %r14
	movq	%r15, %rdi
	leaq	24(%rax), %rdx
	addq	$64, %rax
	movq	%rax, 144(%rsp)
	movq	_ZTVSt15basic_streambufIcSt11char_traitsIcEE@GOTPCREL(%rip), %rax
	movq	%rdx, %xmm0
	movq	%rdx, 8(%rsp)
	addq	$16, %rax
	movq	%rax, %xmm1
	punpcklqdq	%xmm1, %xmm0
	movaps	%xmm0, 32(%rsp)
	pxor	%xmm0, %xmm0
	movaps	%xmm0, 48(%rsp)
	movaps	%xmm0, 64(%rsp)
	movaps	%xmm0, 80(%rsp)
	call	_ZNSt6localeC1Ev@PLT
	movq	_ZTVNSt7__cxx1115basic_stringbufIcSt11char_traitsIcESaIcEEE@GOTPCREL(%rip), %rax
	movq	%r14, %rsi
	movq	%r13, %rdi
	movl	$16, 104(%rsp)
	addq	$16, %rax
	movb	$0, 128(%rsp)
	movq	%rax, 40(%rsp)
	leaq	128(%rsp), %rax
	movq	%rax, 24(%rsp)
	movq	%rax, 112(%rsp)
	movq	$0, 120(%rsp)
.LEHB22:
	call	_ZNSt9basic_iosIcSt11char_traitsIcEE4initEPSt15basic_streambufIcS1_E@PLT
.LEHE22:
	movl	$8, %edx
	leaq	.LC26(%rip), %rsi
	movq	%rbp, %rdi
.LEHB23:
	call	_ZSt16__ostream_insertIcSt11char_traitsIcEERSt13basic_ostreamIT_T0_ES6_PKS3_l@PLT
	movq	16(%rsp), %rsi
	movq	%rbp, %rdi
	call	_ZNSo9_M_insertImEERSoT_@PLT
.LEHE23:
	movq	80(%rsp), %rax
	leaq	16(%r12), %r14
	movq	$0, 8(%r12)
	movq	%r14, (%r12)
	movb	$0, 16(%r12)
	testq	%rax, %rax
	je	.L1310
	movq	64(%rsp), %r8
	movq	72(%rsp), %rcx
	cmpq	%r8, %rax
	ja	.L1326
	subq	%rcx, %r8
	xorl	%edx, %edx
	xorl	%esi, %esi
	movq	%r12, %rdi
.LEHB24:
	call	_ZNSt7__cxx1112basic_stringIcSt11char_traitsIcESaIcEE10_M_replaceEmmPKcm@PLT
.L1312:
	movq	_ZTVNSt7__cxx1119basic_ostringstreamIcSt11char_traitsIcESaIcEEE@GOTPCREL(%rip), %rax
	movq	8(%rsp), %xmm0
	movq	112(%rsp), %rdi
	addq	$64, %rax
	movq	%rax, 144(%rsp)
	movq	_ZTVNSt7__cxx1115basic_stringbufIcSt11char_traitsIcESaIcEEE@GOTPCREL(%rip), %rax
	addq	$16, %rax
	movq	%rax, %xmm2
	punpcklqdq	%xmm2, %xmm0
	movaps	%xmm0, 32(%rsp)
	cmpq	24(%rsp), %rdi
	je	.L1314
	movq	128(%rsp), %rax
	leaq	1(%rax), %rsi
	call	_ZdlPvm@PLT
.L1314:
	movq	_ZTVSt15basic_streambufIcSt11char_traitsIcEE@GOTPCREL(%rip), %rax
	movq	%r15, %rdi
	addq	$16, %rax
	movq	%rax, 40(%rsp)
	call	_ZNSt6localeD1Ev@PLT
	movq	-24(%rbx), %rax
	movq	(%rsp), %rcx
	movq	%r13, %rdi
	movq	%rbx, 32(%rsp)
	movq	%rcx, 32(%rsp,%rax)
	movq	_ZTVSt9basic_iosIcSt11char_traitsIcEE@GOTPCREL(%rip), %rax
	addq	$16, %rax
	movq	%rax, 144(%rsp)
	call	_ZNSt8ios_baseD2Ev@PLT
	movq	408(%rsp), %rax
	subq	%fs:40, %rax
	jne	.L1327
	addq	$424, %rsp
	.cfi_remember_state
	.cfi_def_cfa_offset 56
	movq	%r12, %rax
	popq	%rbx
	.cfi_def_cfa_offset 48
	popq	%rbp
	.cfi_def_cfa_offset 40
	popq	%r12
	.cfi_def_cfa_offset 32
	popq	%r13
	.cfi_def_cfa_offset 24
	popq	%r14
	.cfi_def_cfa_offset 16
	popq	%r15
	.cfi_def_cfa_offset 8
	ret
	.p2align 4,,10
	.p2align 3
.L1326:
	.cfi_restore_state
	subq	%rcx, %rax
	xorl	%edx, %edx
	xorl	%esi, %esi
	movq	%r12, %rdi
	movq	%rax, %r8
	call	_ZNSt7__cxx1112basic_stringIcSt11char_traitsIcESaIcEE10_M_replaceEmmPKcm@PLT
	jmp	.L1312
	.p2align 4,,10
	.p2align 3
.L1310:
	leaq	112(%rsp), %rsi
	movq	%r12, %rdi
	call	_ZNSt7__cxx1112basic_stringIcSt11char_traitsIcESaIcEE9_M_assignERKS4_@PLT
.LEHE24:
	jmp	.L1312
.L1327:
	call	__stack_chk_fail@PLT
.L1319:
	movq	%rax, %r12
	jmp	.L1317
.L1321:
	movq	%rax, %rbp
	jmp	.L1308
.L1320:
	movq	%rax, %rbp
	jmp	.L1309
.L1322:
	movq	%rax, %rbx
	jmp	.L1315
	.section	.gcc_except_table,"a",@progbits
.LLSDA8278:
	.byte	0xff
	.byte	0xff
	.byte	0x1
	.uleb128 .LLSDACSE8278-.LLSDACSB8278
.LLSDACSB8278:
	.uleb128 .LEHB21-.LFB8278
	.uleb128 .LEHE21-.LEHB21
	.uleb128 .L1320-.LFB8278
	.uleb128 0
	.uleb128 .LEHB22-.LFB8278
	.uleb128 .LEHE22-.LEHB22
	.uleb128 .L1321-.LFB8278
	.uleb128 0
	.uleb128 .LEHB23-.LFB8278
	.uleb128 .LEHE23-.LEHB23
	.uleb128 .L1319-.LFB8278
	.uleb128 0
	.uleb128 .LEHB24-.LFB8278
	.uleb128 .LEHE24-.LEHB24
	.uleb128 .L1322-.LFB8278
	.uleb128 0
.LLSDACSE8278:
	.text
	.cfi_endproc
	.section	.text.unlikely
	.cfi_startproc
	.cfi_personality 0x9b,DW.ref.__gxx_personality_v0
	.cfi_lsda 0x1b,.LLSDAC8278
	.type	_ZN8asiodnp315MasterTCPServer17SessionIdToStringB5cxx11Em.cold, @function
_ZN8asiodnp315MasterTCPServer17SessionIdToStringB5cxx11Em.cold:
.LFSB8278:
.L1315:
	.cfi_def_cfa_offset 480
	.cfi_offset 3, -56
	.cfi_offset 6, -48
	.cfi_offset 12, -40
	.cfi_offset 13, -32
	.cfi_offset 14, -24
	.cfi_offset 15, -16
	movq	(%r12), %rdi
	cmpq	%rdi, %r14
	je	.L1316
	movq	16(%r12), %rsi
	addq	$1, %rsi
	call	_ZdlPvm@PLT
.L1316:
	movq	%rbx, %r12
.L1317:
	movq	%rbp, %rdi
	call	_ZNSt7__cxx1119basic_ostringstreamIcSt11char_traitsIcESaIcEED1Ev@PLT
	movq	%r12, %rdi
.LEHB25:
	call	_Unwind_Resume@PLT
.L1308:
	movq	%r14, %rdi
	call	_ZNSt7__cxx1115basic_stringbufIcSt11char_traitsIcESaIcEED1Ev@PLT
	movq	%rbx, 32(%rsp)
	movq	-24(%rbx), %rax
	movq	(%rsp), %rbx
	movq	%rbx, 32(%rsp,%rax)
.L1309:
	movq	_ZTVSt9basic_iosIcSt11char_traitsIcEE@GOTPCREL(%rip), %rax
	movq	%r13, %rdi
	addq	$16, %rax
	movq	%rax, 144(%rsp)
	call	_ZNSt8ios_baseD2Ev@PLT
	movq	%rbp, %rdi
	call	_Unwind_Resume@PLT
.LEHE25:
	.cfi_endproc
.LFE8278:
	.section	.gcc_except_table
.LLSDAC8278:
	.byte	0xff
	.byte	0xff
	.byte	0x1
	.uleb128 .LLSDACSEC8278-.LLSDACSBC8278
.LLSDACSBC8278:
	.uleb128 .LEHB25-.LCOLDB27
	.uleb128 .LEHE25-.LEHB25
	.uleb128 0
	.uleb128 0
.LLSDACSEC8278:
	.section	.text.unlikely
	.text
	.size	_ZN8asiodnp315MasterTCPServer17SessionIdToStringB5cxx11Em, .-_ZN8asiodnp315MasterTCPServer17SessionIdToStringB5cxx11Em
	.section	.text.unlikely
	.size	_ZN8asiodnp315MasterTCPServer17SessionIdToStringB5cxx11Em.cold, .-_ZN8asiodnp315MasterTCPServer17SessionIdToStringB5cxx11Em.cold
.LCOLDE27:
	.text
.LHOTE27:
	.section	.text._ZN4asio2iplsIcSt11char_traitsIcENS0_3tcpEEERSt13basic_ostreamIT_T0_ES9_RKNS0_14basic_endpointIT1_EE,"axG",@progbits,_ZN4asio2iplsIcSt11char_traitsIcENS0_3tcpEEERSt13basic_ostreamIT_T0_ES9_RKNS0_14basic_endpointIT1_EE,comdat
	.p2align 4
	.weak	_ZN4asio2iplsIcSt11char_traitsIcENS0_3tcpEEERSt13basic_ostreamIT_T0_ES9_RKNS0_14basic_endpointIT1_EE
	.type	_ZN4asio2iplsIcSt11char_traitsIcENS0_3tcpEEERSt13basic_ostreamIT_T0_ES9_RKNS0_14basic_endpointIT1_EE, @function
_ZN4asio2iplsIcSt11char_traitsIcENS0_3tcpEEERSt13basic_ostreamIT_T0_ES9_RKNS0_14basic_endpointIT1_EE:
.LFB9220:
	.cfi_startproc
	.cfi_personality 0x9b,DW.ref.__gxx_personality_v0
	.cfi_lsda 0x1b,.LLSDA9220
	pushq	%r14
	.cfi_def_cfa_offset 16
	.cfi_offset 14, -16
	pushq	%r13
	.cfi_def_cfa_offset 24
	.cfi_offset 13, -24
	pushq	%r12
	.cfi_def_cfa_offset 32
	.cfi_offset 12, -32
	movq	%rdi, %r12
	pushq	%rbp
	.cfi_def_cfa_offset 40
	.cfi_offset 6, -40
	pushq	%rbx
	.cfi_def_cfa_offset 48
	.cfi_offset 3, -48
	subq	$112, %rsp
	.cfi_def_cfa_offset 160
	movq	%fs:40, %rax
	movq	%rax, 104(%rsp)
	xorl	%eax, %eax
	cmpw	$2, (%rsi)
	movzwl	2(%rsi), %eax
	je	.L1348
	movl	24(%rsi), %edx
	movdqu	8(%rsi), %xmm0
	movq	$10, 32(%rsp)
	movw	%ax, 34(%rsp)
	movl	%edx, 56(%rsp)
	movups	%xmm0, 40(%rsp)
.L1330:
	leaq	16(%rsp), %rbp
	movl	$0, 16(%rsp)
	call	_ZNSt3_V215system_categoryEv@PLT
	leaq	64(%rsp), %rdi
	leaq	32(%rsp), %rsi
	movq	%rbp, %rdx
	movq	%rax, 24(%rsp)
.LEHB26:
	call	_ZNK4asio2ip6detail8endpoint9to_stringB5cxx11ERSt10error_code@PLT
.LEHE26:
	movl	16(%rsp), %eax
	testl	%eax, %eax
	je	.L1331
	movq	(%r12), %rax
	movq	-24(%rax), %rdi
	addq	%r12, %rdi
	testb	$4, 28(%rdi)
	jne	.L1349
	movl	32(%rdi), %esi
	orl	$4, %esi
.LEHB27:
	call	_ZNSt9basic_iosIcSt11char_traitsIcEE5clearESt12_Ios_Iostate@PLT
	movq	64(%rsp), %rdi
.L1334:
	leaq	80(%rsp), %rax
	cmpq	%rax, %rdi
	je	.L1339
	movq	80(%rsp), %rax
	leaq	1(%rax), %rsi
	call	_ZdlPvm@PLT
.L1339:
	movq	104(%rsp), %rax
	subq	%fs:40, %rax
	jne	.L1350
	addq	$112, %rsp
	.cfi_remember_state
	.cfi_def_cfa_offset 48
	movq	%r12, %rax
	popq	%rbx
	.cfi_def_cfa_offset 40
	popq	%rbp
	.cfi_def_cfa_offset 32
	popq	%r12
	.cfi_def_cfa_offset 24
	popq	%r13
	.cfi_def_cfa_offset 16
	popq	%r14
	.cfi_def_cfa_offset 8
	ret
	.p2align 4,,10
	.p2align 3
.L1331:
	.cfi_restore_state
	cmpq	$0, 72(%rsp)
	movq	64(%rsp), %rdi
	je	.L1334
	movq	%rdi, %r13
	leaq	15(%rsp), %r14
	jmp	.L1338
	.p2align 4,,10
	.p2align 3
.L1352:
	movzbl	57(%rbp,%rbx), %ebx
.L1337:
	movl	$1, %edx
	movq	%r14, %rsi
	movq	%r12, %rdi
	movb	%bl, 15(%rsp)
	call	_ZSt16__ostream_insertIcSt11char_traitsIcEERSt13basic_ostreamIT_T0_ES6_PKS3_l@PLT
	movq	64(%rsp), %rdi
	movq	72(%rsp), %rax
	addq	$1, %r13
	addq	%rdi, %rax
	cmpq	%r13, %rax
	je	.L1334
.L1338:
	movq	(%r12), %rax
	movzbl	0(%r13), %ebx
	movq	-24(%rax), %rax
	movq	240(%r12,%rax), %rbp
	testq	%rbp, %rbp
	je	.L1351
	cmpb	$0, 56(%rbp)
	jne	.L1352
	movq	%rbp, %rdi
	call	_ZNKSt5ctypeIcE13_M_widen_initEv@PLT
	movq	0(%rbp), %rax
	movq	48(%rax), %rdx
	cmpq	_ZNKSt5ctypeIcE8do_widenEc@GOTPCREL(%rip), %rdx
	je	.L1337
	movsbl	%bl, %esi
	movq	%rbp, %rdi
	call	*%rdx
	movl	%eax, %ebx
	jmp	.L1337
	.p2align 4,,10
	.p2align 3
.L1348:
	movl	4(%rsi), %edx
	pxor	%xmm0, %xmm0
	movl	$2, %ecx
	movl	$0, 56(%rsp)
	movw	%cx, 32(%rsp)
	movw	%ax, 34(%rsp)
	movl	%edx, 36(%rsp)
	movups	%xmm0, 40(%rsp)
	jmp	.L1330
.L1351:
	call	_ZSt16__throw_bad_castv@PLT
.L1350:
	call	__stack_chk_fail@PLT
.L1349:
	movq	%rbp, %rdi
	call	_ZN4asio6detail14do_throw_errorERKSt10error_code@PLT
.LEHE27:
.L1343:
	movq	%rax, %rbp
.L1340:
	movq	64(%rsp), %rdi
	leaq	80(%rsp), %rax
	cmpq	%rax, %rdi
	je	.L1341
	movq	80(%rsp), %rax
	leaq	1(%rax), %rsi
	call	_ZdlPvm@PLT
.L1341:
	movq	%rbp, %rdi
.LEHB28:
	call	_Unwind_Resume@PLT
.LEHE28:
	.cfi_endproc
.LFE9220:
	.section	.gcc_except_table
.LLSDA9220:
	.byte	0xff
	.byte	0xff
	.byte	0x1
	.uleb128 .LLSDACSE9220-.LLSDACSB9220
.LLSDACSB9220:
	.uleb128 .LEHB26-.LFB9220
	.uleb128 .LEHE26-.LEHB26
	.uleb128 0
	.uleb128 0
	.uleb128 .LEHB27-.LFB9220
	.uleb128 .LEHE27-.LEHB27
	.uleb128 .L1343-.LFB9220
	.uleb128 0
	.uleb128 .LEHB28-.LFB9220
	.uleb128 .LEHE28-.LEHB28
	.uleb128 0
	.uleb128 0
.LLSDACSE9220:
	.section	.text._ZN4asio2iplsIcSt11char_traitsIcENS0_3tcpEEERSt13basic_ostreamIT_T0_ES9_RKNS0_14basic_endpointIT1_EE,"axG",@progbits,_ZN4asio2iplsIcSt11char_traitsIcENS0_3tcpEEERSt13basic_ostreamIT_T0_ES9_RKNS0_14basic_endpointIT1_EE,comdat
	.size	_ZN4asio2iplsIcSt11char_traitsIcENS0_3tcpEEERSt13basic_ostreamIT_T0_ES9_RKNS0_14basic_endpointIT1_EE, .-_ZN4asio2iplsIcSt11char_traitsIcENS0_3tcpEEERSt13basic_ostreamIT_T0_ES9_RKNS0_14basic_endpointIT1_EE
	.section	.text._ZNSt16_Sp_counted_baseILN9__gnu_cxx12_Lock_policyE2EE10_M_releaseEv,"axG",@progbits,_ZNSt16_Sp_counted_baseILN9__gnu_cxx12_Lock_policyE2EE10_M_releaseEv,comdat
	.align 2
	.p2align 4
	.weak	_ZNSt16_Sp_counted_baseILN9__gnu_cxx12_Lock_policyE2EE10_M_releaseEv
	.type	_ZNSt16_Sp_counted_baseILN9__gnu_cxx12_Lock_policyE2EE10_M_releaseEv, @function
_ZNSt16_Sp_counted_baseILN9__gnu_cxx12_Lock_policyE2EE10_M_releaseEv:
.LFB9343:
	.cfi_startproc
	pushq	%rbp
	.cfi_def_cfa_offset 16
	.cfi_offset 6, -16
	movq	%rdi, %rbp
	pushq	%rbx
	.cfi_def_cfa_offset 24
	.cfi_offset 3, -24
	subq	$8, %rsp
	.cfi_def_cfa_offset 32
	movq	_ZL28__gthrw___pthread_key_createPjPFvPvE@GOTPCREL(%rip), %rbx
	testq	%rbx, %rbx
	jne	.L1362
	movl	8(%rdi), %eax
	leal	-1(%rax), %edx
	movl	%edx, 8(%rdi)
.L1355:
	cmpl	$1, %eax
	je	.L1363
.L1353:
	addq	$8, %rsp
	.cfi_remember_state
	.cfi_def_cfa_offset 24
	popq	%rbx
	.cfi_def_cfa_offset 16
	popq	%rbp
	.cfi_def_cfa_offset 8
	ret
	.p2align 4,,10
	.p2align 3
.L1363:
	.cfi_restore_state
	movq	0(%rbp), %rax
	movq	%rbp, %rdi
	call	*16(%rax)
	testq	%rbx, %rbx
	jne	.L1364
	movl	12(%rbp), %eax
	leal	-1(%rax), %edx
	movl	%edx, 12(%rbp)
.L1359:
	cmpl	$1, %eax
	jne	.L1353
	movq	0(%rbp), %rax
	movq	%rbp, %rdi
	movq	24(%rax), %rax
	addq	$8, %rsp
	.cfi_remember_state
	.cfi_def_cfa_offset 24
	popq	%rbx
	.cfi_def_cfa_offset 16
	popq	%rbp
	.cfi_def_cfa_offset 8
	jmp	*%rax
	.p2align 4,,10
	.p2align 3
.L1362:
	.cfi_restore_state
	movl	$-1, %eax
	lock xaddl	%eax, 8(%rdi)
	jmp	.L1355
	.p2align 4,,10
	.p2align 3
.L1364:
	movl	$-1, %eax
	lock xaddl	%eax, 12(%rbp)
	jmp	.L1359
	.cfi_endproc
.LFE9343:
	.size	_ZNSt16_Sp_counted_baseILN9__gnu_cxx12_Lock_policyE2EE10_M_releaseEv, .-_ZNSt16_Sp_counted_baseILN9__gnu_cxx12_Lock_policyE2EE10_M_releaseEv
	.section	.text.unlikely
	.align 2
.LCOLDB28:
	.text
.LHOTB28:
	.align 2
	.p2align 4
	.globl	_ZN8asiodnp315MasterTCPServer10OnShutdownEv
	.type	_ZN8asiodnp315MasterTCPServer10OnShutdownEv, @function
_ZN8asiodnp315MasterTCPServer10OnShutdownEv:
.LFB8255:
	.cfi_startproc
	.cfi_personality 0x9b,DW.ref.__gxx_personality_v0
	.cfi_lsda 0x1b,.LLSDA8255
	pushq	%rbp
	.cfi_def_cfa_offset 16
	.cfi_offset 6, -16
	pushq	%rbx
	.cfi_def_cfa_offset 24
	.cfi_offset 3, -24
	subq	$40, %rsp
	.cfi_def_cfa_offset 64
	movq	16(%rdi), %rdx
	movq	224(%rdi), %r8
	movq	%fs:40, %rax
	movq	%rax, 24(%rsp)
	xorl	%eax, %eax
	testq	%rdx, %rdx
	je	.L1366
	movl	8(%rdx), %eax
	leaq	8(%rdx), %rcx
.L1368:
	testl	%eax, %eax
	je	.L1366
	leal	1(%rax), %esi
	lock cmpxchgl	%esi, (%rcx)
	jne	.L1368
	movq	8(%rdi), %rax
	movq	%rsp, %rsi
	movq	%r8, %rdi
	movq	%rdx, 8(%rsp)
	movq	%rax, (%rsp)
.LEHB29:
	call	_ZN7asiopal15ResourceManager6DetachERKSt10shared_ptrINS_9IResourceEE@PLT
.LEHE29:
	movq	8(%rsp), %rbp
	testq	%rbp, %rbp
	je	.L1365
	movq	_ZL28__gthrw___pthread_key_createPjPFvPvE@GOTPCREL(%rip), %rbx
	testq	%rbx, %rbx
	jne	.L1389
	movl	8(%rbp), %eax
	leal	-1(%rax), %edx
	movl	%edx, 8(%rbp)
.L1372:
	cmpl	$1, %eax
	je	.L1390
.L1365:
	movq	24(%rsp), %rax
	subq	%fs:40, %rax
	jne	.L1391
	addq	$40, %rsp
	.cfi_remember_state
	.cfi_def_cfa_offset 24
	popq	%rbx
	.cfi_def_cfa_offset 16
	popq	%rbp
	.cfi_def_cfa_offset 8
	ret
	.p2align 4,,10
	.p2align 3
.L1390:
	.cfi_restore_state
	movq	0(%rbp), %rax
	movq	%rbp, %rdi
	call	*16(%rax)
	testq	%rbx, %rbx
	jne	.L1392
	movl	12(%rbp), %eax
	leal	-1(%rax), %edx
	movl	%edx, 12(%rbp)
.L1375:
	cmpl	$1, %eax
	jne	.L1365
	movq	0(%rbp), %rax
	movq	%rbp, %rdi
	call	*24(%rax)
	jmp	.L1365
	.p2align 4,,10
	.p2align 3
.L1389:
	movl	$-1, %eax
	lock xaddl	%eax, 8(%rbp)
	jmp	.L1372
	.p2align 4,,10
	.p2align 3
.L1392:
	movl	$-1, %eax
	lock xaddl	%eax, 12(%rbp)
	jmp	.L1375
.L1391:
	call	__stack_chk_fail@PLT
.L1379:
	movq	%rax, %rbp
	jmp	.L1376
	.section	.gcc_except_table
.LLSDA8255:
	.byte	0xff
	.byte	0xff
	.byte	0x1
	.uleb128 .LLSDACSE8255-.LLSDACSB8255
.LLSDACSB8255:
	.uleb128 .LEHB29-.LFB8255
	.uleb128 .LEHE29-.LEHB29
	.uleb128 .L1379-.LFB8255
	.uleb128 0
.LLSDACSE8255:
	.text
	.cfi_endproc
	.section	.text.unlikely
	.cfi_startproc
	.cfi_personality 0x9b,DW.ref.__gxx_personality_v0
	.cfi_lsda 0x1b,.LLSDAC8255
	.type	_ZN8asiodnp315MasterTCPServer10OnShutdownEv.cold, @function
_ZN8asiodnp315MasterTCPServer10OnShutdownEv.cold:
.LFSB8255:
.L1366:
	.cfi_def_cfa_offset 64
	.cfi_offset 3, -24
	.cfi_offset 6, -16
.LEHB30:
	call	_ZSt20__throw_bad_weak_ptrv@PLT
.L1376:
	movq	8(%rsp), %rdi
	testq	%rdi, %rdi
	je	.L1377
	call	_ZNSt16_Sp_counted_baseILN9__gnu_cxx12_Lock_policyE2EE10_M_releaseEv@PLT
.L1377:
	movq	%rbp, %rdi
	call	_Unwind_Resume@PLT
.LEHE30:
	.cfi_endproc
.LFE8255:
	.section	.gcc_except_table
.LLSDAC8255:
	.byte	0xff
	.byte	0xff
	.byte	0x1
	.uleb128 .LLSDACSEC8255-.LLSDACSBC8255
.LLSDACSBC8255:
	.uleb128 .LEHB30-.LCOLDB28
	.uleb128 .LEHE30-.LEHB30
	.uleb128 0
	.uleb128 0
.LLSDACSEC8255:
	.section	.text.unlikely
	.text
	.size	_ZN8asiodnp315MasterTCPServer10OnShutdownEv, .-_ZN8asiodnp315MasterTCPServer10OnShutdownEv
	.section	.text.unlikely
	.size	_ZN8asiodnp315MasterTCPServer10OnShutdownEv.cold, .-_ZN8asiodnp315MasterTCPServer10OnShutdownEv.cold
.LCOLDE28:
	.text
.LHOTE28:
	.section	.text.unlikely
	.align 2
.LCOLDB29:
	.text
.LHOTB29:
	.align 2
	.p2align 4
	.type	_ZN7asiopal13IAsyncChannel16CheckForShutdownESt10shared_ptrIS0_E.isra.0, @function
_ZN7asiopal13IAsyncChannel16CheckForShutdownESt10shared_ptrIS0_E.isra.0:
.LFB11447:
	.cfi_startproc
	.cfi_personality 0x9b,DW.ref.__gxx_personality_v0
	.cfi_lsda 0x1b,.LLSDA11447
	pushq	%r14
	.cfi_def_cfa_offset 16
	.cfi_offset 14, -16
	pushq	%r13
	.cfi_def_cfa_offset 24
	.cfi_offset 13, -24
	pushq	%r12
	.cfi_def_cfa_offset 32
	.cfi_offset 12, -32
	pushq	%rbp
	.cfi_def_cfa_offset 40
	.cfi_offset 6, -40
	pushq	%rbx
	.cfi_def_cfa_offset 48
	.cfi_offset 3, -48
	subq	$48, %rsp
	.cfi_def_cfa_offset 96
	movq	(%rdi), %rbx
	movq	%fs:40, %rax
	movq	%rax, 40(%rsp)
	xorl	%eax, %eax
	cmpb	$0, 57(%rbx)
	jne	.L1394
	cmpb	$0, 58(%rbx)
	je	.L1395
.L1394:
	movq	8(%rdi), %r12
	testq	%r12, %r12
	je	.L1396
	movq	_ZL28__gthrw___pthread_key_createPjPFvPvE@GOTPCREL(%rip), %rbp
	leaq	8(%r12), %rdx
	testq	%rbp, %rbp
	jne	.L1463
	addl	$1, 8(%r12)
	movq	%rbx, %rax
.L1398:
	movq	24(%rax), %r13
	testq	%rbp, %rbp
	jne	.L1464
	addl	$1, 8(%r12)
	movq	%r12, 8(%rsp)
.L1399:
	data16	leaq	_ZN4asio6detail15keyword_tss_ptrINS0_10call_stackINS0_15task_io_serviceENS0_27task_io_service_thread_infoEE7contextEE6value_E@tlsgd(%rip), %rdi
	.value	0x6666
	rex64
	call	__tls_get_addr@PLT
	movq	40(%r13), %r14
	movq	(%rax), %rax
	testq	%rax, %rax
	je	.L1400
	movq	8(%rax), %rax
	testq	%rax, %rax
	je	.L1400
	movq	(%rax), %rbp
	testq	%rbp, %rbp
	je	.L1400
	movq	$0, (%rax)
	movzbl	0(%rbp), %eax
	cmpb	$39, %al
	jbe	.L1401
	movb	%al, 40(%rbp)
	jmp	.L1402
	.p2align 4,,10
	.p2align 3
.L1395:
	movq	48(%rbx), %rdi
	pxor	%xmm0, %xmm0
	movups	%xmm0, 40(%rbx)
	testq	%rdi, %rdi
	je	.L1393
	movq	40(%rsp), %rax
	subq	%fs:40, %rax
	jne	.L1462
	addq	$48, %rsp
	.cfi_remember_state
	.cfi_def_cfa_offset 48
	popq	%rbx
	.cfi_def_cfa_offset 40
	popq	%rbp
	.cfi_def_cfa_offset 32
	popq	%r12
	.cfi_def_cfa_offset 24
	popq	%r13
	.cfi_def_cfa_offset 16
	popq	%r14
	.cfi_def_cfa_offset 8
	jmp	_ZNSt16_Sp_counted_baseILN9__gnu_cxx12_Lock_policyE2EE10_M_releaseEv@PLT
	.p2align 4,,10
	.p2align 3
.L1401:
	.cfi_restore_state
	movq	%rbp, %rdi
	call	_ZdlPv@PLT
.L1400:
	movl	$41, %edi
.LEHB31:
	call	_Znwm@PLT
.LEHE31:
	movb	$40, 40(%rax)
	movq	%rax, %rbp
.L1402:
	movq	_ZN4asio6detail18completion_handlerIZN7asiopal13IAsyncChannel16CheckForShutdownESt10shared_ptrIS3_EEUlvE_E11do_completeEPNS0_15task_io_serviceEPNS0_25task_io_service_operationERKSt10error_codem@GOTPCREL(%rip), %rax
	movq	%rbx, %xmm0
	movq	$0, 0(%rbp)
	movhps	8(%rsp), %xmm0
	movl	$0, 16(%rbp)
	movq	%rax, 8(%rbp)
	movups	%xmm0, 24(%rbp)
	movq	48(%r13), %rax
	leaq	24(%rax), %rdi
	call	pthread_mutex_lock@PLT
	movq	48(%r13), %rdi
	cmpb	$0, 64(%rdi)
	je	.L1403
	cmpq	$0, 80(%rdi)
	movq	$0, 0(%rbp)
	je	.L1404
	movq	80(%rdi), %rax
	movq	%rbp, (%rax)
	movq	%rbp, 80(%rdi)
.L1405:
	addq	$24, %rdi
	call	pthread_mutex_unlock@PLT
.L1406:
	testq	%r12, %r12
	je	.L1393
	movq	_ZL28__gthrw___pthread_key_createPjPFvPvE@GOTPCREL(%rip), %rbp
	testq	%rbp, %rbp
	jne	.L1465
	movl	8(%r12), %eax
	leal	-1(%rax), %edx
	movl	%edx, 8(%r12)
.L1428:
	cmpl	$1, %eax
	je	.L1466
.L1393:
	movq	40(%rsp), %rax
	subq	%fs:40, %rax
	jne	.L1462
	addq	$48, %rsp
	.cfi_remember_state
	.cfi_def_cfa_offset 48
	popq	%rbx
	.cfi_def_cfa_offset 40
	popq	%rbp
	.cfi_def_cfa_offset 32
	popq	%r12
	.cfi_def_cfa_offset 24
	popq	%r13
	.cfi_def_cfa_offset 16
	popq	%r14
	.cfi_def_cfa_offset 8
	ret
	.p2align 4,,10
	.p2align 3
.L1403:
	.cfi_restore_state
	movb	$1, 64(%rdi)
	addq	$24, %rdi
	call	pthread_mutex_unlock@PLT
	movq	48(%r13), %r13
	movq	$0, 0(%rbp)
	cmpq	$0, 96(%r13)
	je	.L1407
	movq	96(%r13), %rax
	movq	%rbp, (%rax)
	movq	%rbp, 96(%r13)
.L1408:
	movq	40(%r14), %rbx
	cmpb	$0, 40(%rbx)
	jne	.L1467
.L1409:
	lock addq	$1, 184(%rbx)
	leaq	48(%rbx), %rbp
	movq	%rbp, %rdi
	call	pthread_mutex_lock@PLT
	cmpq	$0, 200(%rbx)
	movq	$0, 0(%r13)
	je	.L1414
	movq	200(%rbx), %rax
	movq	%r13, (%rax)
	movq	%r13, 200(%rbx)
.L1415:
	movq	136(%rbx), %rax
	orq	$1, %rax
	movq	%rax, 136(%rbx)
	cmpq	$1, %rax
	je	.L1416
	movq	%rbp, %rdi
	call	pthread_mutex_unlock@PLT
	leaq	88(%rbx), %rdi
	call	pthread_cond_signal@PLT
	jmp	.L1406
	.p2align 4,,10
	.p2align 3
.L1396:
	movq	$0, 8(%rsp)
	movq	24(%rbx), %r13
	jmp	.L1399
	.p2align 4,,10
	.p2align 3
.L1466:
	movq	(%r12), %rax
	movq	%r12, %rdi
	call	*16(%rax)
	testq	%rbp, %rbp
	jne	.L1468
	movl	12(%r12), %eax
	leal	-1(%rax), %edx
	movl	%edx, 12(%r12)
.L1431:
	cmpl	$1, %eax
	jne	.L1393
	movq	40(%rsp), %rax
	subq	%fs:40, %rax
	jne	.L1462
	movq	(%r12), %rax
	movq	%r12, %rdi
	movq	24(%rax), %rax
	addq	$48, %rsp
	.cfi_remember_state
	.cfi_def_cfa_offset 48
	popq	%rbx
	.cfi_def_cfa_offset 40
	popq	%rbp
	.cfi_def_cfa_offset 32
	popq	%r12
	.cfi_def_cfa_offset 24
	popq	%r13
	.cfi_def_cfa_offset 16
	popq	%r14
	.cfi_def_cfa_offset 8
	jmp	*%rax
	.p2align 4,,10
	.p2align 3
.L1407:
	.cfi_restore_state
	movq	%rbp, %xmm0
	punpcklqdq	%xmm0, %xmm0
	movups	%xmm0, 88(%r13)
	jmp	.L1408
	.p2align 4,,10
	.p2align 3
.L1467:
	data16	leaq	_ZN4asio6detail15keyword_tss_ptrINS0_10call_stackINS0_15task_io_serviceENS0_27task_io_service_thread_infoEE7contextEE6value_E@tlsgd(%rip), %rdi
	.value	0x6666
	rex64
	call	__tls_get_addr@PLT
	movq	(%rax), %rax
	testq	%rax, %rax
	jne	.L1412
	jmp	.L1409
	.p2align 4,,10
	.p2align 3
.L1410:
	movq	16(%rax), %rax
	testq	%rax, %rax
	je	.L1409
.L1412:
	cmpq	(%rax), %rbx
	jne	.L1410
	movq	8(%rax), %rax
	testq	%rax, %rax
	je	.L1409
	addq	$1, 24(%rax)
	cmpq	$0, 16(%rax)
	movq	$0, 0(%r13)
	je	.L1413
	movq	16(%rax), %rdx
	movq	%r13, (%rdx)
	movq	%r13, 16(%rax)
	jmp	.L1406
	.p2align 4,,10
	.p2align 3
.L1404:
	movq	%rbp, %xmm0
	punpcklqdq	%xmm0, %xmm0
	movups	%xmm0, 72(%rdi)
	jmp	.L1405
	.p2align 4,,10
	.p2align 3
.L1465:
	movl	$-1, %eax
	lock xaddl	%eax, 8(%r12)
	jmp	.L1428
	.p2align 4,,10
	.p2align 3
.L1416:
	cmpb	$0, 176(%rbx)
	jne	.L1418
	movq	144(%rbx), %rax
	testq	%rax, %rax
	je	.L1418
	leaq	88(%rax), %rdx
	movb	$1, 176(%rbx)
	movl	96(%rax), %edi
	leaq	28(%rsp), %rcx
	movq	%rdx, 32(%rsp)
	movl	88(%rax), %edx
	movl	$3, %esi
	movl	$-2147483639, 28(%rsp)
	call	epoll_ctl@PLT
.L1418:
	movq	%rbp, %rdi
	call	pthread_mutex_unlock@PLT
	jmp	.L1406
	.p2align 4,,10
	.p2align 3
.L1464:
	lock addl	$1, (%rdx)
	movq	%r12, 8(%rsp)
	jmp	.L1399
	.p2align 4,,10
	.p2align 3
.L1463:
	lock addl	$1, (%rdx)
	movq	(%rdi), %rax
	jmp	.L1398
	.p2align 4,,10
	.p2align 3
.L1468:
	movl	$-1, %eax
	lock xaddl	%eax, 12(%r12)
	jmp	.L1431
	.p2align 4,,10
	.p2align 3
.L1414:
	movq	%r13, %xmm0
	punpcklqdq	%xmm0, %xmm0
	movups	%xmm0, 192(%rbx)
	jmp	.L1415
	.p2align 4,,10
	.p2align 3
.L1413:
	movq	%r13, %xmm0
	punpcklqdq	%xmm0, %xmm0
	movups	%xmm0, 8(%rax)
	jmp	.L1406
.L1462:
	call	__stack_chk_fail@PLT
.L1437:
	movq	%rax, %rbp
	jmp	.L1421
	.section	.gcc_except_table
.LLSDA11447:
	.byte	0xff
	.byte	0xff
	.byte	0x1
	.uleb128 .LLSDACSE11447-.LLSDACSB11447
.LLSDACSB11447:
	.uleb128 .LEHB31-.LFB11447
	.uleb128 .LEHE31-.LEHB31
	.uleb128 .L1437-.LFB11447
	.uleb128 0
.LLSDACSE11447:
	.text
	.cfi_endproc
	.section	.text.unlikely
	.cfi_startproc
	.cfi_personality 0x9b,DW.ref.__gxx_personality_v0
	.cfi_lsda 0x1b,.LLSDAC11447
	.type	_ZN7asiopal13IAsyncChannel16CheckForShutdownESt10shared_ptrIS0_E.isra.0.cold, @function
_ZN7asiopal13IAsyncChannel16CheckForShutdownESt10shared_ptrIS0_E.isra.0.cold:
.LFSB11447:
.L1421:
	.cfi_def_cfa_offset 96
	.cfi_offset 3, -48
	.cfi_offset 6, -40
	.cfi_offset 12, -32
	.cfi_offset 13, -24
	.cfi_offset 14, -16
	cmpq	$0, 8(%rsp)
	je	.L1422
	movq	8(%rsp), %rdi
	call	_ZNSt16_Sp_counted_baseILN9__gnu_cxx12_Lock_policyE2EE10_M_releaseEv@PLT
.L1422:
	testq	%r12, %r12
	je	.L1424
	movq	%r12, %rdi
	call	_ZNSt16_Sp_counted_baseILN9__gnu_cxx12_Lock_policyE2EE10_M_releaseEv@PLT
.L1424:
	movq	%rbp, %rdi
.LEHB32:
	call	_Unwind_Resume@PLT
.LEHE32:
	.cfi_endproc
.LFE11447:
	.section	.gcc_except_table
.LLSDAC11447:
	.byte	0xff
	.byte	0xff
	.byte	0x1
	.uleb128 .LLSDACSEC11447-.LLSDACSBC11447
.LLSDACSBC11447:
	.uleb128 .LEHB32-.LCOLDB29
	.uleb128 .LEHE32-.LEHB32
	.uleb128 0
	.uleb128 0
.LLSDACSEC11447:
	.section	.text.unlikely
	.text
	.size	_ZN7asiopal13IAsyncChannel16CheckForShutdownESt10shared_ptrIS0_E.isra.0, .-_ZN7asiopal13IAsyncChannel16CheckForShutdownESt10shared_ptrIS0_E.isra.0
	.section	.text.unlikely
	.size	_ZN7asiopal13IAsyncChannel16CheckForShutdownESt10shared_ptrIS0_E.isra.0.cold, .-_ZN7asiopal13IAsyncChannel16CheckForShutdownESt10shared_ptrIS0_E.isra.0.cold
.LCOLDE29:
	.text
.LHOTE29:
	.section	.text._ZNSt8_Rb_treeISt10shared_ptrIN7asiopal9IResourceEES3_St9_IdentityIS3_ESt4lessIS3_ESaIS3_EE16_M_insert_uniqueIS3_EESt4pairISt17_Rb_tree_iteratorIS3_EbEOT_,"axG",@progbits,_ZNSt8_Rb_treeISt10shared_ptrIN7asiopal9IResourceEES3_St9_IdentityIS3_ESt4lessIS3_ESaIS3_EE16_M_insert_uniqueIS3_EESt4pairISt17_Rb_tree_iteratorIS3_EbEOT_,comdat
	.align 2
	.p2align 4
	.weak	_ZNSt8_Rb_treeISt10shared_ptrIN7asiopal9IResourceEES3_St9_IdentityIS3_ESt4lessIS3_ESaIS3_EE16_M_insert_uniqueIS3_EESt4pairISt17_Rb_tree_iteratorIS3_EbEOT_
	.type	_ZNSt8_Rb_treeISt10shared_ptrIN7asiopal9IResourceEES3_St9_IdentityIS3_ESt4lessIS3_ESaIS3_EE16_M_insert_uniqueIS3_EESt4pairISt17_Rb_tree_iteratorIS3_EbEOT_, @function
_ZNSt8_Rb_treeISt10shared_ptrIN7asiopal9IResourceEES3_St9_IdentityIS3_ESt4lessIS3_ESaIS3_EE16_M_insert_uniqueIS3_EESt4pairISt17_Rb_tree_iteratorIS3_EbEOT_:
.LFB10092:
	.cfi_startproc
	pushq	%r15
	.cfi_def_cfa_offset 16
	.cfi_offset 15, -16
	pushq	%r14
	.cfi_def_cfa_offset 24
	.cfi_offset 14, -24
	leaq	8(%rdi), %r14
	pushq	%r13
	.cfi_def_cfa_offset 32
	.cfi_offset 13, -32
	movq	%rsi, %r13
	pushq	%r12
	.cfi_def_cfa_offset 40
	.cfi_offset 12, -40
	pushq	%rbp
	.cfi_def_cfa_offset 48
	.cfi_offset 6, -48
	movq	%rdi, %rbp
	pushq	%rbx
	.cfi_def_cfa_offset 56
	.cfi_offset 3, -56
	subq	$8, %rsp
	.cfi_def_cfa_offset 64
	movq	16(%rdi), %r12
	testq	%r12, %r12
	je	.L1470
	movq	(%rsi), %rbx
	.p2align 4,,10
	.p2align 3
.L1475:
	movq	32(%r12), %rax
	movq	16(%r12), %rdx
	movq	24(%r12), %rcx
	cmpq	%rax, %rbx
	jb	.L1471
	testq	%rcx, %rcx
	je	.L1472
	movq	%rcx, %r12
	jmp	.L1475
	.p2align 4,,10
	.p2align 3
.L1471:
	testq	%rdx, %rdx
	je	.L1474
	movq	%rdx, %r12
	jmp	.L1475
	.p2align 4,,10
	.p2align 3
.L1472:
	cmpq	%rax, %rbx
	jbe	.L1480
.L1479:
	movl	$1, %r15d
	cmpq	%r12, %r14
	jne	.L1485
.L1476:
	movl	$48, %edi
	call	_Znwm@PLT
	pxor	%xmm0, %xmm0
	movq	%r12, %rdx
	movq	%r14, %rcx
	movdqu	0(%r13), %xmm1
	movq	%rax, %rsi
	movl	%r15d, %edi
	movq	%rax, %rbx
	movups	%xmm0, 0(%r13)
	movups	%xmm1, 32(%rax)
	call	_ZSt29_Rb_tree_insert_and_rebalancebPSt18_Rb_tree_node_baseS0_RS_@PLT
	addq	$1, 40(%rbp)
	addq	$8, %rsp
	.cfi_remember_state
	.cfi_def_cfa_offset 56
	movq	%rbx, %rax
	movl	$1, %edx
	popq	%rbx
	.cfi_def_cfa_offset 48
	popq	%rbp
	.cfi_def_cfa_offset 40
	popq	%r12
	.cfi_def_cfa_offset 32
	popq	%r13
	.cfi_def_cfa_offset 24
	popq	%r14
	.cfi_def_cfa_offset 16
	popq	%r15
	.cfi_def_cfa_offset 8
	ret
	.p2align 4,,10
	.p2align 3
.L1474:
	.cfi_restore_state
	cmpq	24(%rbp), %r12
	je	.L1479
.L1478:
	movq	%r12, %rdi
	call	_ZSt18_Rb_tree_decrementPSt18_Rb_tree_node_base@PLT
	cmpq	32(%rax), %rbx
	ja	.L1479
	movq	%rax, %r12
.L1480:
	addq	$8, %rsp
	.cfi_remember_state
	.cfi_def_cfa_offset 56
	movq	%r12, %rax
	xorl	%edx, %edx
	popq	%rbx
	.cfi_def_cfa_offset 48
	popq	%rbp
	.cfi_def_cfa_offset 40
	popq	%r12
	.cfi_def_cfa_offset 32
	popq	%r13
	.cfi_def_cfa_offset 24
	popq	%r14
	.cfi_def_cfa_offset 16
	popq	%r15
	.cfi_def_cfa_offset 8
	ret
	.p2align 4,,10
	.p2align 3
.L1485:
	.cfi_restore_state
	xorl	%r15d, %r15d
	cmpq	32(%r12), %rbx
	setb	%r15b
	jmp	.L1476
	.p2align 4,,10
	.p2align 3
.L1470:
	movq	%r14, %r12
	cmpq	%r14, 24(%rdi)
	je	.L1482
	movq	(%rsi), %rbx
	jmp	.L1478
.L1482:
	movl	$1, %r15d
	jmp	.L1476
	.cfi_endproc
.LFE10092:
	.size	_ZNSt8_Rb_treeISt10shared_ptrIN7asiopal9IResourceEES3_St9_IdentityIS3_ESt4lessIS3_ESaIS3_EE16_M_insert_uniqueIS3_EESt4pairISt17_Rb_tree_iteratorIS3_EbEOT_, .-_ZNSt8_Rb_treeISt10shared_ptrIN7asiopal9IResourceEES3_St9_IdentityIS3_ESt4lessIS3_ESaIS3_EE16_M_insert_uniqueIS3_EESt4pairISt17_Rb_tree_iteratorIS3_EbEOT_
	.section	.rodata.str1.1
.LC30:
	.string	"remote_endpoint"
.LC31:
	.string	"Accepted connection from: %s"
	.section	.rodata.str1.8,"aMS",@progbits,1
	.align 8
.LC32:
	.string	"/home/master/projects/Procont_EE/utils/dnp3_src/cpp/libs/src/asiodnp3/MasterTCPServer.cpp(67)"
	.section	.rodata.str1.1
.LC34:
	.string	"close"
.LC35:
	.string	"Rejected connection from: %s"
	.section	.rodata.str1.8
	.align 8
.LC36:
	.string	"/home/master/projects/Procont_EE/utils/dnp3_src/cpp/libs/src/asiodnp3/MasterTCPServer.cpp(90)"
	.section	.text.unlikely
	.align 2
.LCOLDB37:
	.text
.LHOTB37:
	.align 2
	.p2align 4
	.globl	_ZN8asiodnp315MasterTCPServer16AcceptConnectionEmRKSt10shared_ptrIN7asiopal8ExecutorEEN4asio19basic_stream_socketINS7_2ip3tcpENS7_21stream_socket_serviceISA_EEEE
	.type	_ZN8asiodnp315MasterTCPServer16AcceptConnectionEmRKSt10shared_ptrIN7asiopal8ExecutorEEN4asio19basic_stream_socketINS7_2ip3tcpENS7_21stream_socket_serviceISA_EEEE, @function
_ZN8asiodnp315MasterTCPServer16AcceptConnectionEmRKSt10shared_ptrIN7asiopal8ExecutorEEN4asio19basic_stream_socketINS7_2ip3tcpENS7_21stream_socket_serviceISA_EEEE:
.LFB8269:
	.cfi_startproc
	.cfi_personality 0x9b,DW.ref.__gxx_personality_v0
	.cfi_lsda 0x1b,.LLSDA8269
	pushq	%r15
	.cfi_def_cfa_offset 16
	.cfi_offset 15, -16
	pushq	%r14
	.cfi_def_cfa_offset 24
	.cfi_offset 14, -24
	pushq	%r13
	.cfi_def_cfa_offset 32
	.cfi_offset 13, -32
	pushq	%r12
	.cfi_def_cfa_offset 40
	.cfi_offset 12, -40
	pushq	%rbp
	.cfi_def_cfa_offset 48
	.cfi_offset 6, -48
	pushq	%rbx
	.cfi_def_cfa_offset 56
	.cfi_offset 3, -56
	movq	%rcx, %rbx
	subq	$856, %rsp
	.cfi_def_cfa_offset 912
	movq	%rdi, 16(%rsp)
	leaq	416(%rsp), %r14
	leaq	304(%rsp), %r15
	movq	%rsi, 40(%rsp)
	movq	%r14, %rdi
	movq	%rdx, 112(%rsp)
	movq	%fs:40, %rax
	movq	%rax, 840(%rsp)
	xorl	%eax, %eax
	movq	%r15, 48(%rsp)
	movq	%r14, 72(%rsp)
	call	_ZNSt8ios_baseC2Ev@PLT
	pxor	%xmm0, %xmm0
	xorl	%r9d, %r9d
	xorl	%esi, %esi
	movq	_ZTVSt9basic_iosIcSt11char_traitsIcEE@GOTPCREL(%rip), %rax
	movups	%xmm0, 648(%rsp)
	movw	%r9w, 640(%rsp)
	addq	$16, %rax
	movups	%xmm0, 664(%rsp)
	movq	%rax, 416(%rsp)
	movq	_ZTTNSt7__cxx1119basic_ostringstreamIcSt11char_traitsIcESaIcEEE@GOTPCREL(%rip), %rax
	movq	$0, 632(%rsp)
	movq	8(%rax), %rcx
	movq	16(%rax), %rax
	addq	-24(%rcx), %r15
	movq	%rcx, 304(%rsp)
	movq	%r15, %rdi
	movq	%rcx, 56(%rsp)
	movq	%rax, 64(%rsp)
	movq	%rax, (%r15)
.LEHB33:
	call	_ZNSt9basic_iosIcSt11char_traitsIcEE4initEPSt15basic_streambufIcS1_E@PLT
.LEHE33:
	movq	_ZTVNSt7__cxx1119basic_ostringstreamIcSt11char_traitsIcESaIcEEE@GOTPCREL(%rip), %rax
	leaq	24(%rax), %rdx
	addq	$64, %rax
	movq	%rax, 416(%rsp)
	movq	_ZTVSt15basic_streambufIcSt11char_traitsIcEE@GOTPCREL(%rip), %rax
	movq	%rdx, %xmm0
	movq	%rdx, 80(%rsp)
	addq	$16, %rax
	movq	%rax, %xmm1
	leaq	368(%rsp), %rax
	punpcklqdq	%xmm1, %xmm0
	movq	%rax, %rdi
	movq	%rax, 88(%rsp)
	movaps	%xmm0, 304(%rsp)
	pxor	%xmm0, %xmm0
	movaps	%xmm0, 320(%rsp)
	movaps	%xmm0, 336(%rsp)
	movaps	%xmm0, 352(%rsp)
	call	_ZNSt6localeC1Ev@PLT
	movq	_ZTVNSt7__cxx1115basic_stringbufIcSt11char_traitsIcESaIcEEE@GOTPCREL(%rip), %rax
	movq	%r14, %rdi
	movl	$16, 376(%rsp)
	movq	$0, 392(%rsp)
	addq	$16, %rax
	movb	$0, 400(%rsp)
	movq	%rax, 312(%rsp)
	leaq	400(%rsp), %rax
	movq	%rax, 96(%rsp)
	movq	%rax, 384(%rsp)
	leaq	312(%rsp), %rax
	movq	%rax, %rsi
	movq	%rax, 144(%rsp)
.LEHB34:
	call	_ZNSt9basic_iosIcSt11char_traitsIcEE4initEPSt15basic_streambufIcS1_E@PLT
.LEHE34:
	movl	$0, 176(%rsp)
	call	_ZNSt3_V215system_categoryEv@PLT
	movl	(%rbx), %r12d
	pxor	%xmm0, %xmm0
	movl	$2, %r8d
	movaps	%xmm0, 272(%rsp)
	movq	%rax, (%rsp)
	movq	%rax, 184(%rsp)
	movq	$0, 288(%rsp)
	movl	$0, 296(%rsp)
	movw	%r8w, 272(%rsp)
	cmpl	$-1, %r12d
	je	.L1885
	call	__errno_location@PLT
	leaq	208(%rsp), %r15
	movl	%r12d, %edi
	movl	$28, 208(%rsp)
	movl	$0, (%rax)
	movq	%rax, %rbp
	movq	%r15, %rdx
	leaq	272(%rsp), %rax
	movq	%rax, %rsi
	movq	%rax, 24(%rsp)
	call	getpeername@PLT
	movl	208(%rsp), %r13d
	movl	%eax, %r12d
	movq	_ZGVZN4asio15system_categoryEvE8instance@GOTPCREL(%rip), %rax
	movzbl	(%rax), %eax
	testb	%al, %al
	je	.L1492
.L1883:
	movq	_ZZN4asio15system_categoryEvE8instance@GOTPCREL(%rip), %rax
	movq	%rax, 8(%rsp)
	movq	%rax, %rdx
.L1493:
	movl	0(%rbp), %eax
	movq	%rdx, 184(%rsp)
	movl	%eax, 176(%rsp)
	testl	%r12d, %r12d
	je	.L1886
	pxor	%xmm0, %xmm0
	movl	$2, %esi
	movq	$0, 256(%rsp)
	movaps	%xmm0, 240(%rsp)
	movl	$0, 264(%rsp)
	movw	%si, 240(%rsp)
	testl	%eax, %eax
	jne	.L1491
.L1498:
	leaq	240(%rsp), %rax
	movq	48(%rsp), %rdi
	movq	%rax, %rsi
	movq	%rax, 136(%rsp)
.LEHB35:
	call	_ZN4asio2iplsIcSt11char_traitsIcENS0_3tcpEEERSt13basic_ostreamIT_T0_ES9_RKNS0_14basic_endpointIT1_EE@PLT
.LEHE35:
	movq	16(%rsp), %rax
	movl	(%rbx), %edi
	pxor	%xmm0, %xmm0
	movl	$2, %ecx
	movq	208(%rax), %r13
	movq	0(%r13), %rax
	movq	16(%rax), %rax
	movaps	%xmm0, 272(%rsp)
	movl	$0, 176(%rsp)
	movq	%rax, 104(%rsp)
	movq	(%rsp), %rax
	movq	$0, 288(%rsp)
	movq	%rax, 184(%rsp)
	movl	$0, 296(%rsp)
	movw	%cx, 272(%rsp)
	cmpl	$-1, %edi
	je	.L1887
	movl	$0, 0(%rbp)
	movq	24(%rsp), %rsi
	movq	%r15, %rdx
	movl	$28, 208(%rsp)
	call	getpeername@PLT
	movl	208(%rsp), %r14d
	movl	%eax, %r12d
	movq	_ZGVZN4asio15system_categoryEvE8instance@GOTPCREL(%rip), %rax
	movzbl	(%rax), %eax
	testb	%al, %al
	je	.L1888
.L1502:
	movl	0(%rbp), %eax
	movq	8(%rsp), %rcx
	movl	%eax, 176(%rsp)
	movq	%rcx, 184(%rsp)
	testl	%r12d, %r12d
	jne	.L1504
	movl	$0, 176(%rsp)
	movq	(%rsp), %rax
	movq	%rax, 184(%rsp)
	cmpl	$128, %r14d
	ja	.L1889
	movl	296(%rsp), %edx
	movl	276(%rsp), %eax
	cmpw	$2, 272(%rsp)
	movdqu	280(%rsp), %xmm0
	movl	%edx, 32(%rsp)
	je	.L1507
	movq	.LC24(%rip), %rax
	movl	$0, 0(%rbp)
	leaq	720(%rsp), %r14
	leaq	248(%rsp), %rsi
	movl	32(%rsp), %r12d
	movl	$63, %ecx
	movq	%r14, %rdx
	movl	$10, %edi
	movq	%rax, 240(%rsp)
	movq	(%rsp), %rax
	movq	%r12, 264(%rsp)
	movl	$0, 208(%rsp)
	movq	%rax, 216(%rsp)
	movups	%xmm0, 248(%rsp)
	call	inet_ntop@PLT
	movq	%rax, 128(%rsp)
	movq	_ZGVZN4asio15system_categoryEvE8instance@GOTPCREL(%rip), %rax
	movzbl	(%rax), %eax
	testb	%al, %al
	je	.L1890
.L1512:
	movl	0(%rbp), %eax
	movq	8(%rsp), %rdx
	cmpq	$0, 128(%rsp)
	movl	%eax, 208(%rsp)
	movq	%rdx, 216(%rsp)
	je	.L1891
	testq	%r12, %r12
	jne	.L1698
.L1521:
	movq	128(%rsp), %rdi
	leaq	288(%rsp), %rax
	movq	%rax, 32(%rsp)
	movq	%rax, 272(%rsp)
	call	strlen@PLT
	movq	%rax, 176(%rsp)
	movq	%rax, %r12
	cmpq	$15, %rax
	ja	.L1892
	cmpq	$1, %rax
	jne	.L1523
	movq	128(%rsp), %rdx
	movzbl	(%rdx), %edx
	movb	%dl, 288(%rsp)
	movq	32(%rsp), %rdx
.L1524:
	movq	%rax, 280(%rsp)
	movb	$0, (%rdx,%rax)
	movl	208(%rsp), %edx
	testl	%edx, %edx
	je	.L1526
	jmp	.L1516
	.p2align 4,,10
	.p2align 3
.L1504:
	testl	%eax, %eax
	jne	.L1500
.L1507:
	movl	$0, 0(%rbp)
	leaq	720(%rsp), %r14
	pxor	%xmm0, %xmm0
	leaq	244(%rsp), %rsi
	movl	%eax, 244(%rsp)
	movq	(%rsp), %rax
	movl	$16, %ecx
	movq	%r14, %rdx
	movl	$2, %edi
	movl	$0, 240(%rsp)
	movq	$0, 264(%rsp)
	movl	$0, 208(%rsp)
	movq	%rax, 216(%rsp)
	movups	%xmm0, 248(%rsp)
	call	inet_ntop@PLT
	movq	%rax, %r12
	movq	_ZGVZN4asio15system_categoryEvE8instance@GOTPCREL(%rip), %rax
	movzbl	(%rax), %eax
	testb	%al, %al
	je	.L1893
.L1510:
	movl	0(%rbp), %eax
	movq	8(%rsp), %rdx
	movl	%eax, 208(%rsp)
	movq	%rdx, 216(%rsp)
	testq	%r12, %r12
	je	.L1894
	leaq	288(%rsp), %rax
	movq	%r12, %rdi
	movq	%rax, 32(%rsp)
	movq	%rax, 272(%rsp)
	call	strlen@PLT
	movq	%rax, 128(%rsp)
	movq	%rax, 176(%rsp)
	cmpq	$15, %rax
	ja	.L1895
	cmpq	$1, %rax
	jne	.L1538
	movzbl	(%r12), %edx
	movb	%dl, 288(%rsp)
	movq	32(%rsp), %rdx
.L1539:
	movq	%rax, 280(%rsp)
	movb	$0, (%rdx,%rax)
	movl	208(%rsp), %eax
	testl	%eax, %eax
	jne	.L1536
.L1526:
	movq	24(%rsp), %rdx
	movq	40(%rsp), %rsi
	movq	%r13, %rdi
	movq	104(%rsp), %rax
.LEHB36:
	call	*%rax
.LEHE36:
	movq	272(%rsp), %rdi
	movl	%eax, %r12d
	cmpq	32(%rsp), %rdi
	je	.L1543
	movq	288(%rsp), %rax
	leaq	1(%rax), %rsi
	call	_ZdlPvm@PLT
.L1543:
	testb	%r12b, %r12b
	je	.L1544
	movq	16(%rsp), %rax
	movq	%r15, %rsi
	movl	$8, 208(%rsp)
	leaq	24(%rax), %rbp
	movq	%rbp, %rdi
.LEHB37:
	call	_ZNK7openpal6Logger9IsEnabledERKNS_10LogFiltersE@PLT
.LEHE37:
	testb	%al, %al
	je	.L1545
	movq	352(%rsp), %rax
	leaq	256(%rsp), %r12
	movq	$0, 248(%rsp)
	movq	%r12, 240(%rsp)
	movb	$0, 256(%rsp)
	testq	%rax, %rax
	je	.L1546
	movq	336(%rsp), %r8
	movq	344(%rsp), %rcx
	cmpq	%r8, %rax
	jbe	.L1547
	subq	%rcx, %rax
	movq	136(%rsp), %rdi
	xorl	%edx, %edx
	xorl	%esi, %esi
	movq	%rax, %r8
.LEHB38:
	call	_ZNSt7__cxx1112basic_stringIcSt11char_traitsIcESaIcEE10_M_replaceEmmPKcm@PLT
.LEHE38:
.L1548:
	movq	%r14, %rdi
	movl	$120, %ecx
	movl	$1, %edx
	xorl	%eax, %eax
	movq	240(%rsp), %r9
	leaq	.LC31(%rip), %r8
	movl	$120, %esi
	call	__snprintf_chk@PLT
	movq	240(%rsp), %rdi
	cmpq	%r12, %rdi
	je	.L1550
	movq	256(%rsp), %rax
	leaq	1(%rax), %rsi
	call	_ZdlPvm@PLT
.L1550:
	movq	%r14, %rcx
	leaq	.LC32(%rip), %rdx
	movq	%r15, %rsi
	movq	%rbp, %rdi
	movl	$8, 208(%rsp)
.LEHB39:
	call	_ZN7openpal6Logger3LogERKNS_10LogFiltersEPKcS5_@PLT
.LEHE39:
.L1545:
	movq	24(%rbx), %rax
	movl	$72, %edi
	movq	%rax, 200(%rsp)
	movl	(%rbx), %eax
	movl	$-1, (%rbx)
	movl	%eax, 176(%rsp)
	movzbl	4(%rbx), %eax
	movb	$0, 4(%rbx)
	movb	%al, 180(%rsp)
	movq	8(%rbx), %rax
	movq	$0, 8(%rbx)
	movq	%rax, 184(%rsp)
	movl	16(%rbx), %eax
	movl	$2, 16(%rbx)
	movl	%eax, 192(%rsp)
	movq	112(%rsp), %rax
	movq	(%rax), %r12
	addq	$24, %r12
.LEHB40:
	call	_Znwm@PLT
.LEHE40:
	movq	%rax, %rbp
	leaq	8(%rax), %rax
	movq	%r12, %rsi
	movq	%rax, (%rsp)
	movq	.LC33(%rip), %rax
	leaq	16(%rbp), %r13
	movq	%r13, %rdi
	movq	%rax, 8(%rbp)
	movq	_ZTVSt23_Sp_counted_ptr_inplaceIN7asiopal8ExecutorESaIS1_ELN9__gnu_cxx12_Lock_policyE2EE@GOTPCREL(%rip), %rax
	addq	$16, %rax
	movq	%rax, 0(%rbp)
.LEHB41:
	call	_ZN7asiopal8ExecutorC1ERKSt10shared_ptrINS_2IOEE@PLT
.LEHE41:
	movq	32(%rbp), %rdi
	testq	%rdi, %rdi
	je	.L1554
	movl	8(%rdi), %eax
	testl	%eax, %eax
	jne	.L1557
.L1554:
	movq	_ZL28__gthrw___pthread_key_createPjPFvPvE@GOTPCREL(%rip), %rbx
	movq	%r13, 24(%rbp)
	testq	%rbx, %rbx
	jne	.L1896
	addl	$1, 12(%rbp)
.L1558:
	testq	%rdi, %rdi
	je	.L1560
	testq	%rbx, %rbx
	jne	.L1897
	movl	12(%rdi), %eax
	leal	-1(%rax), %edx
	movl	%edx, 12(%rdi)
.L1562:
	cmpl	$1, %eax
	jne	.L1560
	movq	(%rdi), %rax
	call	*24(%rax)
	.p2align 4,,10
	.p2align 3
.L1560:
	movq	%rbp, 32(%rbp)
.L1557:
	movl	$112, %edi
.LEHB42:
	call	_Znwm@PLT
.LEHE42:
	movq	%rax, %r12
	movq	.LC33(%rip), %rax
	movq	%r13, %xmm0
	movq	%rbp, %xmm3
	movq	_ZL28__gthrw___pthread_key_createPjPFvPvE@GOTPCREL(%rip), %rbx
	punpcklqdq	%xmm3, %xmm0
	leaq	16(%r12), %r14
	movq	%rax, 8(%r12)
	movq	_ZTVSt23_Sp_counted_ptr_inplaceIN7asiopal13SocketChannelESaIS1_ELN9__gnu_cxx12_Lock_policyE2EE@GOTPCREL(%rip), %rax
	movaps	%xmm0, 160(%rsp)
	addq	$16, %rax
	movq	%rax, (%r12)
	testq	%rbx, %rbx
	jne	.L1898
	addl	$1, 8(%rbp)
.L1565:
	movq	200(%rsp), %rax
	leaq	160(%rsp), %rsi
	movq	%r15, %rdx
	movq	%r14, %rdi
	movq	%rsi, 8(%rsp)
	movq	%rax, 232(%rsp)
	movl	176(%rsp), %eax
	movl	$-1, 176(%rsp)
	movl	%eax, 208(%rsp)
	movzbl	180(%rsp), %eax
	movb	$0, 180(%rsp)
	movb	%al, 212(%rsp)
	movq	184(%rsp), %rax
	movq	$0, 184(%rsp)
	movq	%rax, 216(%rsp)
	movl	192(%rsp), %eax
	movl	$2, 192(%rsp)
	movl	%eax, 224(%rsp)
.LEHB43:
	call	_ZN7asiopal13SocketChannelC1ESt10shared_ptrINS_8ExecutorEEN4asio19basic_stream_socketINS4_2ip3tcpENS4_21stream_socket_serviceIS7_EEEE@PLT
.LEHE43:
	movq	232(%rsp), %rax
	movq	%r15, %rsi
	leaq	40(%rax), %rdi
	call	_ZN4asio6detail28reactive_socket_service_base7destroyERNS1_24base_implementation_typeE@PLT
	movq	168(%rsp), %rdi
	testq	%rdi, %rdi
	je	.L1566
	call	_ZNSt16_Sp_counted_baseILN9__gnu_cxx12_Lock_policyE2EE10_M_releaseEv@PLT
.L1566:
	movq	32(%r12), %rdi
	testq	%rdi, %rdi
	je	.L1570
	movl	8(%rdi), %eax
	testl	%eax, %eax
	jne	.L1571
.L1570:
	movq	%r14, 24(%r12)
	testq	%rbx, %rbx
	jne	.L1899
	addl	$1, 12(%r12)
.L1572:
	testq	%rdi, %rdi
	je	.L1574
	testq	%rbx, %rbx
	jne	.L1900
	movl	12(%rdi), %eax
	leal	-1(%rax), %edx
	movl	%edx, 12(%rdi)
.L1576:
	cmpl	$1, %eax
	jne	.L1574
	movq	(%rdi), %rax
	call	*24(%rax)
	.p2align 4,,10
	.p2align 3
.L1574:
	movq	%r12, 32(%r12)
.L1571:
	movq	%r12, %xmm4
	movq	%r14, %xmm0
	movq	%rbp, %rdi
	punpcklqdq	%xmm4, %xmm0
	leaq	176(%rsp), %r14
	movaps	%xmm0, 160(%rsp)
	call	_ZNSt16_Sp_counted_baseILN9__gnu_cxx12_Lock_policyE2EE10_M_releaseEv@PLT
	movq	200(%rsp), %rax
	movq	%r14, %rsi
	leaq	40(%rax), %rdi
	call	_ZN4asio6detail28reactive_socket_service_base7destroyERNS1_24base_implementation_typeE@PLT
	movq	16(%rsp), %rax
	movq	224(%rax), %rax
	movq	%rax, (%rsp)
	leaq	8(%rax), %r13
	testq	%rbx, %rbx
	je	.L1578
	movq	%r13, %rdi
	call	_ZL26__gthrw_pthread_mutex_lockP15pthread_mutex_t@PLT
	testl	%eax, %eax
	jne	.L1901
.L1578:
	movq	(%rsp), %rax
	cmpb	$0, 48(%rax)
	je	.L1579
	testq	%rbx, %rbx
	je	.L1581
	movq	%r13, %rdi
	call	_ZL28__gthrw_pthread_mutex_unlockP15pthread_mutex_t@PLT
.L1581:
	movq	160(%rsp), %rbp
	cmpb	$0, 56(%rbp)
	jne	.L1633
	movq	0(%rbp), %rax
	movb	$1, 56(%rbp)
	movq	%rbp, %rdi
.LEHB44:
	call	*32(%rax)
.LEHE44:
	movq	16(%rbp), %r12
	testq	%r12, %r12
	je	.L1635
	movl	8(%r12), %eax
	leaq	8(%r12), %rdx
.L1637:
	testl	%eax, %eax
	je	.L1866
	leal	1(%rax), %ecx
	lock cmpxchgl	%ecx, (%rdx)
	jne	.L1637
	movq	8(%rbp), %r13
	movq	24(%rbp), %rbp
	testq	%rbx, %rbx
	jne	.L1902
	addl	$1, 8(%r12)
.L1639:
	data16	leaq	_ZN4asio6detail15keyword_tss_ptrINS0_10call_stackINS0_15task_io_serviceENS0_27task_io_service_thread_infoEE7contextEE6value_E@tlsgd(%rip), %rdi
	.value	0x6666
	rex64
	call	__tls_get_addr@PLT
	movq	40(%rbp), %rbx
	movq	(%rax), %rax
	testq	%rax, %rax
	je	.L1640
	movq	8(%rax), %rax
	testq	%rax, %rax
	je	.L1640
	movq	(%rax), %r14
	testq	%r14, %r14
	je	.L1640
	movq	$0, (%rax)
	movzbl	(%r14), %eax
	cmpb	$39, %al
	jbe	.L1641
	movb	%al, 40(%r14)
.L1642:
	movq	_ZN4asio6detail18completion_handlerIZN7asiopal13IAsyncChannel8ShutdownEvEUlvE_E11do_completeEPNS0_15task_io_serviceEPNS0_25task_io_service_operationERKSt10error_codem@GOTPCREL(%rip), %rax
	movq	%r12, %xmm7
	movq	%r13, %xmm0
	movq	$0, (%r14)
	punpcklqdq	%xmm7, %xmm0
	movl	$0, 16(%r14)
	movq	%rax, 8(%r14)
	movups	%xmm0, 24(%r14)
	movq	48(%rbp), %rax
	leaq	24(%rax), %rdi
	call	pthread_mutex_lock@PLT
	movq	48(%rbp), %rdi
	cmpb	$0, 64(%rdi)
	je	.L1643
	cmpq	$0, 80(%rdi)
	movq	$0, (%r14)
	je	.L1644
	movq	80(%rdi), %rax
	movq	%r14, (%rax)
	movq	%r14, 80(%rdi)
.L1645:
	addq	$24, %rdi
	call	pthread_mutex_unlock@PLT
.L1646:
	movq	%r12, %rdi
	call	_ZNSt16_Sp_counted_baseILN9__gnu_cxx12_Lock_policyE2EE10_M_releaseEv@PLT
.L1633:
	movq	168(%rsp), %rdi
	testq	%rdi, %rdi
	je	.L1661
	call	_ZNSt16_Sp_counted_baseILN9__gnu_cxx12_Lock_policyE2EE10_M_releaseEv@PLT
	jmp	.L1661
	.p2align 4,,10
	.p2align 3
.L1886:
	movl	$0, 176(%rsp)
	movq	(%rsp), %rax
	movq	%rax, 184(%rsp)
	cmpl	$128, %r13d
	ja	.L1903
	movq	288(%rsp), %rax
	movdqa	272(%rsp), %xmm5
	movq	%rax, 256(%rsp)
	movl	296(%rsp), %eax
	movaps	%xmm5, 240(%rsp)
	movl	%eax, 264(%rsp)
	jmp	.L1498
	.p2align 4,,10
	.p2align 3
.L1893:
	movq	_ZGVZN4asio15system_categoryEvE8instance@GOTPCREL(%rip), %rdi
	call	__cxa_guard_acquire@PLT
	testl	%eax, %eax
	je	.L1510
	movq	8(%rsp), %rsi
	movq	_ZN4asio6detail15system_categoryD1Ev@GOTPCREL(%rip), %rdi
	leaq	__dso_handle(%rip), %rdx
	call	__cxa_atexit@PLT
	movq	_ZGVZN4asio15system_categoryEvE8instance@GOTPCREL(%rip), %rdi
	call	__cxa_guard_release@PLT
	jmp	.L1510
	.p2align 4,,10
	.p2align 3
.L1492:
	movq	_ZGVZN4asio15system_categoryEvE8instance@GOTPCREL(%rip), %rdi
	call	__cxa_guard_acquire@PLT
	testl	%eax, %eax
	je	.L1883
	movq	_ZZN4asio15system_categoryEvE8instance@GOTPCREL(%rip), %rax
	movq	_ZN4asio6detail15system_categoryD1Ev@GOTPCREL(%rip), %rdi
	leaq	__dso_handle(%rip), %rdx
	movq	%rax, %rsi
	movq	%rax, 8(%rsp)
	call	__cxa_atexit@PLT
	movq	_ZGVZN4asio15system_categoryEvE8instance@GOTPCREL(%rip), %rdi
	call	__cxa_guard_release@PLT
	movq	8(%rsp), %rdx
	jmp	.L1493
	.p2align 4,,10
	.p2align 3
.L1888:
	movq	_ZGVZN4asio15system_categoryEvE8instance@GOTPCREL(%rip), %rdi
	call	__cxa_guard_acquire@PLT
	testl	%eax, %eax
	je	.L1502
	movq	8(%rsp), %rsi
	movq	_ZN4asio6detail15system_categoryD1Ev@GOTPCREL(%rip), %rdi
	leaq	__dso_handle(%rip), %rdx
	call	__cxa_atexit@PLT
	movq	_ZGVZN4asio15system_categoryEvE8instance@GOTPCREL(%rip), %rdi
	call	__cxa_guard_release@PLT
	jmp	.L1502
	.p2align 4,,10
	.p2align 3
.L1894:
	testl	%eax, %eax
	je	.L1904
.L1532:
	leaq	288(%rsp), %rax
	movb	$0, 288(%rsp)
	movq	%rax, 32(%rsp)
	movq	%rax, 272(%rsp)
	movq	$0, 280(%rsp)
.L1536:
	movq	%r15, %rdi
.LEHB45:
	call	_ZN4asio6detail14do_throw_errorERKSt10error_code@PLT
.LEHE45:
	.p2align 4,,10
	.p2align 3
.L1538:
	cmpq	$0, 128(%rsp)
	jne	.L1905
	movq	32(%rsp), %rdx
	jmp	.L1539
	.p2align 4,,10
	.p2align 3
.L1698:
	movzbl	248(%rsp), %eax
	movb	$0, 704(%rsp)
	movq	$37, 688(%rsp)
	movq	$0, 696(%rsp)
	cmpb	$-2, %al
	je	.L1906
	cmpb	$-1, %al
	jne	.L1884
	movzbl	249(%rsp), %eax
	leaq	689(%rsp), %r9
	andl	$15, %eax
	cmpb	$2, %al
	je	.L1518
.L1520:
	movq	%r12, %r8
	leaq	.LC25(%rip), %rcx
	movq	%r9, %rdi
	xorl	%eax, %eax
	movl	$16, %edx
	movl	$1, %esi
	call	__sprintf_chk@PLT
.L1519:
	leaq	688(%rsp), %rsi
	movl	$63, %edx
	movq	%r14, %rdi
	call	__strcat_chk@PLT
	jmp	.L1521
	.p2align 4,,10
	.p2align 3
.L1544:
	movq	(%rsp), %rax
	movl	(%rbx), %esi
	movl	$0, 208(%rsp)
	movq	%rax, 216(%rsp)
	cmpl	$-1, %esi
	je	.L1664
	movzbl	4(%rbx), %ecx
	movq	24(%rbx), %rax
	leaq	8(%rbx), %rdx
	shrb	$6, %cl
	movq	40(%rax), %rdi
	xorl	$1, %ecx
	andl	$1, %ecx
	call	_ZN4asio6detail13epoll_reactor21deregister_descriptorEiRPNS1_16descriptor_stateEb@PLT
	movl	(%rbx), %r12d
	cmpl	$-1, %r12d
	je	.L1664
	movl	$0, 0(%rbp)
	movl	%r12d, %edi
.LEHB46:
	call	close@PLT
	movl	%eax, %r13d
	movq	_ZGVZN4asio15system_categoryEvE8instance@GOTPCREL(%rip), %rax
	movzbl	(%rax), %eax
	testb	%al, %al
	je	.L1907
.L1666:
	movl	0(%rbp), %eax
	movl	%eax, 208(%rsp)
	movq	8(%rsp), %rax
	movq	%rax, 216(%rsp)
	testl	%r13d, %r13d
	jne	.L1908
.L1664:
	movl	$-1, (%rbx)
	movb	$0, 4(%rbx)
.L1663:
	movq	16(%rsp), %rbp
	movq	%r15, %rsi
	movl	$8, 208(%rsp)
	addq	$24, %rbp
	movq	%rbp, %rdi
	call	_ZNK7openpal6Logger9IsEnabledERKNS_10LogFiltersE@PLT
	testb	%al, %al
	jne	.L1909
.L1661:
	movq	_ZTVNSt7__cxx1119basic_ostringstreamIcSt11char_traitsIcESaIcEEE@GOTPCREL(%rip), %rax
	movq	80(%rsp), %xmm0
	movq	384(%rsp), %rdi
	addq	$64, %rax
	movq	%rax, 416(%rsp)
	movq	_ZTVNSt7__cxx1115basic_stringbufIcSt11char_traitsIcESaIcEEE@GOTPCREL(%rip), %rax
	addq	$16, %rax
	movq	%rax, %xmm2
	punpcklqdq	%xmm2, %xmm0
	movaps	%xmm0, 304(%rsp)
	cmpq	96(%rsp), %rdi
	je	.L1682
	movq	400(%rsp), %rax
	leaq	1(%rax), %rsi
	call	_ZdlPvm@PLT
.L1682:
	movq	_ZTVSt15basic_streambufIcSt11char_traitsIcEE@GOTPCREL(%rip), %rax
	movq	88(%rsp), %rdi
	addq	$16, %rax
	movq	%rax, 312(%rsp)
	call	_ZNSt6localeD1Ev@PLT
	movq	56(%rsp), %rax
	movq	64(%rsp), %rbx
	movq	72(%rsp), %rdi
	movq	%rax, 304(%rsp)
	movq	-24(%rax), %rax
	movq	%rbx, 304(%rsp,%rax)
	movq	_ZTVSt9basic_iosIcSt11char_traitsIcEE@GOTPCREL(%rip), %rax
	addq	$16, %rax
	movq	%rax, 416(%rsp)
	call	_ZNSt8ios_baseD2Ev@PLT
	movq	840(%rsp), %rax
	subq	%fs:40, %rax
	jne	.L1910
	addq	$856, %rsp
	.cfi_remember_state
	.cfi_def_cfa_offset 56
	popq	%rbx
	.cfi_def_cfa_offset 48
	popq	%rbp
	.cfi_def_cfa_offset 40
	popq	%r12
	.cfi_def_cfa_offset 32
	popq	%r13
	.cfi_def_cfa_offset 24
	popq	%r14
	.cfi_def_cfa_offset 16
	popq	%r15
	.cfi_def_cfa_offset 8
	ret
	.p2align 4,,10
	.p2align 3
.L1909:
	.cfi_restore_state
	movq	144(%rsp), %rsi
	movq	24(%rsp), %rdi
	call	_ZNKSt7__cxx1115basic_stringbufIcSt11char_traitsIcESaIcEE3strEv@PLT
	movq	%r14, %rdi
	movl	$120, %ecx
	movl	$1, %edx
	xorl	%eax, %eax
	movq	272(%rsp), %r9
	leaq	.LC35(%rip), %r8
	movl	$120, %esi
	call	__snprintf_chk@PLT
	movq	272(%rsp), %rdi
	cmpq	32(%rsp), %rdi
	je	.L1681
	movq	288(%rsp), %rax
	leaq	1(%rax), %rsi
	call	_ZdlPvm@PLT
.L1681:
	movq	%r14, %rcx
	leaq	.LC36(%rip), %rdx
	movq	%r15, %rsi
	movq	%rbp, %rdi
	movl	$8, 208(%rsp)
	call	_ZN7openpal6Logger3LogERKNS_10LogFiltersEPKcS5_@PLT
.LEHE46:
	jmp	.L1661
	.p2align 4,,10
	.p2align 3
.L1579:
	movq	16(%rsp), %rax
	leaq	208(%rax), %rcx
	movq	%rcx, 104(%rsp)
	movq	%rax, %rcx
	movq	232(%rax), %rax
	movdqu	224(%rcx), %xmm6
	movaps	%xmm6, 112(%rsp)
	movaps	%xmm6, 176(%rsp)
	testq	%rax, %rax
	je	.L1582
	testq	%rbx, %rbx
	jne	.L1911
	addl	$1, 8(%rax)
.L1582:
	movq	40(%rsp), %rsi
	movq	24(%rsp), %rdi
.LEHB47:
	call	_ZN8asiodnp315MasterTCPServer17SessionIdToStringB5cxx11Em@PLT
.LEHE47:
	movq	16(%rsp), %rax
	movl	$56, %edi
	movq	40(%rax), %r12
.LEHB48:
	call	_Znwm@PLT
.LEHE48:
	movq	%rax, %rbp
	leaq	8(%rax), %rax
	movq	%rax, 136(%rsp)
	movq	.LC33(%rip), %rax
	leaq	32(%rbp), %rdi
	movq	%rax, 8(%rbp)
	movq	_ZTVSt23_Sp_counted_ptr_inplaceIN7openpal6Logger8SettingsESaIS2_ELN9__gnu_cxx12_Lock_policyE2EE@GOTPCREL(%rip), %rax
	addq	$16, %rax
	movq	%rax, 0(%rbp)
	movl	32(%r12), %eax
	movq	280(%rsp), %r12
	movq	%rdi, 16(%rbp)
	movl	%eax, 112(%rsp)
	leaq	16(%rbp), %rax
	movq	%rax, 24(%rsp)
	movq	272(%rsp), %rax
	movq	%rax, %rdx
	movq	%rax, 128(%rsp)
	addq	%r12, %rdx
	je	.L1584
	testq	%rax, %rax
	je	.L1912
.L1584:
	movq	%r12, 208(%rsp)
	cmpq	$15, %r12
	ja	.L1913
	cmpq	$1, %r12
	jne	.L1587
	movq	128(%rsp), %rax
	movzbl	(%rax), %eax
	movb	%al, 32(%rbp)
.L1588:
	movl	112(%rsp), %eax
	movq	16(%rsp), %rdx
	movq	%r12, 24(%rbp)
	movb	$0, (%rdi,%r12)
	movl	%eax, 48(%rbp)
	movdqu	24(%rdx), %xmm6
	movq	32(%rdx), %rax
	movaps	%xmm6, 208(%rsp)
	testq	%rax, %rax
	je	.L1590
	testq	%rbx, %rbx
	jne	.L1914
	addl	$1, 8(%rax)
.L1590:
	movq	24(%rsp), %xmm0
	movq	%rbp, %xmm7
	punpcklqdq	%xmm7, %xmm0
	movaps	%xmm0, 224(%rsp)
	testq	%rbx, %rbx
	jne	.L1915
	addl	$1, 8(%rbp)
.L1594:
	movq	%rbp, %rdi
	call	_ZNSt16_Sp_counted_baseILN9__gnu_cxx12_Lock_policyE2EE10_M_releaseEv@PLT
	movl	$624, %edi
.LEHB49:
	call	_Znwm@PLT
.LEHE49:
	movq	%rax, %rbp
	leaq	8(%rax), %rax
	movq	8(%rsp), %r9
	movq	%r14, %rcx
	movq	%rax, 16(%rsp)
	movq	.LC33(%rip), %rax
	leaq	16(%rbp), %r12
	movq	%r15, %rsi
	movq	104(%rsp), %r8
	movq	40(%rsp), %rdx
	movq	%r12, %rdi
	movq	%rax, 8(%rbp)
	movq	_ZTVSt23_Sp_counted_ptr_inplaceIN8asiodnp311LinkSessionESaIS1_ELN9__gnu_cxx12_Lock_policyE2EE@GOTPCREL(%rip), %rax
	addq	$16, %rax
	movq	%rax, 0(%rbp)
.LEHB50:
	call	_ZN8asiodnp311LinkSessionC1ERKN7openpal6LoggerEmRKSt10shared_ptrIN7asiopal16IResourceManagerEERKS5_INS_16IListenCallbacksEERKS5_INS6_13IAsyncChannelEE@PLT
.LEHE50:
	movq	48(%rbp), %rdi
	testq	%rdi, %rdi
	je	.L1600
	movl	8(%rdi), %eax
	testl	%eax, %eax
	je	.L1600
.L1601:
	movq	%r12, %rdi
.LEHB51:
	call	_ZN8asiodnp311LinkSession5StartEv@PLT
.LEHE51:
	movq	232(%rsp), %r12
	testq	%r12, %r12
	je	.L1611
	testq	%rbx, %rbx
	jne	.L1916
	movl	8(%r12), %eax
	leal	-1(%rax), %edx
	movl	%edx, 8(%r12)
.L1613:
	cmpl	$1, %eax
	je	.L1917
.L1611:
	movq	216(%rsp), %rdi
	testq	%rdi, %rdi
	je	.L1617
	call	_ZNSt16_Sp_counted_baseILN9__gnu_cxx12_Lock_policyE2EE10_M_releaseEv@PLT
.L1617:
	movq	272(%rsp), %rdi
	cmpq	32(%rsp), %rdi
	je	.L1618
	movq	288(%rsp), %rax
	leaq	1(%rax), %rsi
	call	_ZdlPvm@PLT
.L1618:
	movq	184(%rsp), %rdi
	testq	%rdi, %rdi
	je	.L1619
	call	_ZNSt16_Sp_counted_baseILN9__gnu_cxx12_Lock_policyE2EE10_M_releaseEv@PLT
.L1619:
	leaq	56(%rbp), %rax
	movq	%rbp, 216(%rsp)
	movq	%rax, 208(%rsp)
	testq	%rbx, %rbx
	jne	.L1918
	addl	$1, 8(%rbp)
.L1626:
	movq	(%rsp), %rdi
	movq	%r15, %rsi
	addq	$56, %rdi
.LEHB52:
	call	_ZNSt8_Rb_treeISt10shared_ptrIN7asiopal9IResourceEES3_St9_IdentityIS3_ESt4lessIS3_ESaIS3_EE16_M_insert_uniqueIS3_EESt4pairISt17_Rb_tree_iteratorIS3_EbEOT_@PLT
.LEHE52:
	movq	216(%rsp), %rdi
	testq	%rdi, %rdi
	je	.L1627
	call	_ZNSt16_Sp_counted_baseILN9__gnu_cxx12_Lock_policyE2EE10_M_releaseEv@PLT
.L1627:
	testq	%rbx, %rbx
	je	.L1628
	movq	%r13, %rdi
	call	_ZL28__gthrw_pthread_mutex_unlockP15pthread_mutex_t@PLT
.L1628:
	movq	%rbp, %rdi
	call	_ZNSt16_Sp_counted_baseILN9__gnu_cxx12_Lock_policyE2EE10_M_releaseEv@PLT
	jmp	.L1633
	.p2align 4,,10
	.p2align 3
.L1600:
	movq	%r12, 40(%rbp)
	testq	%rbx, %rbx
	jne	.L1919
	addl	$1, 12(%rbp)
.L1602:
	testq	%rdi, %rdi
	je	.L1604
	testq	%rbx, %rbx
	jne	.L1920
	movl	12(%rdi), %eax
	leal	-1(%rax), %edx
	movl	%edx, 12(%rdi)
.L1606:
	cmpl	$1, %eax
	jne	.L1604
	movq	(%rdi), %rax
	call	*24(%rax)
	.p2align 4,,10
	.p2align 3
.L1604:
	movq	%rbp, 48(%rbp)
	jmp	.L1601
	.p2align 4,,10
	.p2align 3
.L1895:
	movq	24(%rsp), %rdi
	leaq	176(%rsp), %rsi
	xorl	%edx, %edx
.LEHB53:
	call	_ZNSt7__cxx1112basic_stringIcSt11char_traitsIcESaIcEE9_M_createERmm@PLT
	movq	%rax, 272(%rsp)
	movq	%rax, %rdi
	movq	176(%rsp), %rax
	movq	%rax, 288(%rsp)
.L1537:
	movq	128(%rsp), %rdx
	movq	%r12, %rsi
	call	memcpy@PLT
	movq	176(%rsp), %rax
	movq	272(%rsp), %rdx
	jmp	.L1539
	.p2align 4,,10
	.p2align 3
.L1890:
	movq	_ZGVZN4asio15system_categoryEvE8instance@GOTPCREL(%rip), %rdi
	call	__cxa_guard_acquire@PLT
	testl	%eax, %eax
	je	.L1512
	movq	8(%rsp), %rsi
	movq	_ZN4asio6detail15system_categoryD1Ev@GOTPCREL(%rip), %rdi
	leaq	__dso_handle(%rip), %rdx
	call	__cxa_atexit@PLT
	movq	_ZGVZN4asio15system_categoryEvE8instance@GOTPCREL(%rip), %rdi
	call	__cxa_guard_release@PLT
	jmp	.L1512
	.p2align 4,,10
	.p2align 3
.L1908:
	movq	_ZGVZN4asio15system_categoryEvE8instance@GOTPCREL(%rip), %rax
	movzbl	(%rax), %eax
	testb	%al, %al
	je	.L1921
.L1669:
	movq	8(%rsp), %rax
	cmpq	%rax, 216(%rsp)
	je	.L1922
.L1671:
	movq	_ZGVZN4asio15system_categoryEvE8instance@GOTPCREL(%rip), %rax
	movzbl	(%rax), %eax
	testb	%al, %al
	je	.L1923
.L1674:
	movl	208(%rsp), %eax
	movq	8(%rsp), %rcx
	cmpq	%rcx, 216(%rsp)
	je	.L1924
.L1676:
	movl	$-1, (%rbx)
	movb	$0, 4(%rbx)
	testl	%eax, %eax
	je	.L1663
	leaq	.LC34(%rip), %rsi
	movq	%r15, %rdi
	call	_ZN4asio6detail14do_throw_errorERKSt10error_codePKc@PLT
.LEHE53:
	.p2align 4,,10
	.p2align 3
.L1907:
	movq	_ZGVZN4asio15system_categoryEvE8instance@GOTPCREL(%rip), %rdi
	call	__cxa_guard_acquire@PLT
	testl	%eax, %eax
	je	.L1666
	movq	8(%rsp), %rsi
	movq	_ZN4asio6detail15system_categoryD1Ev@GOTPCREL(%rip), %rdi
	leaq	__dso_handle(%rip), %rdx
	call	__cxa_atexit@PLT
	movq	_ZGVZN4asio15system_categoryEvE8instance@GOTPCREL(%rip), %rdi
	call	__cxa_guard_release@PLT
	jmp	.L1666
	.p2align 4,,10
	.p2align 3
.L1547:
	movq	136(%rsp), %rdi
	subq	%rcx, %r8
	xorl	%edx, %edx
	xorl	%esi, %esi
.LEHB54:
	call	_ZNSt7__cxx1112basic_stringIcSt11char_traitsIcESaIcEE10_M_replaceEmmPKcm@PLT
.LEHE54:
	jmp	.L1548
	.p2align 4,,10
	.p2align 3
.L1891:
	testl	%eax, %eax
	je	.L1925
.L1515:
	leaq	288(%rsp), %rax
	movb	$0, 288(%rsp)
	movq	%rax, 32(%rsp)
	movq	%rax, 272(%rsp)
	movq	$0, 280(%rsp)
.L1516:
	movq	%r15, %rdi
.LEHB55:
	call	_ZN4asio6detail14do_throw_errorERKSt10error_code@PLT
.LEHE55:
	.p2align 4,,10
	.p2align 3
.L1898:
	movq	(%rsp), %rax
	lock addl	$1, (%rax)
	jmp	.L1565
	.p2align 4,,10
	.p2align 3
.L1904:
	movq	_ZGVZN4asio15system_categoryEvE8instance@GOTPCREL(%rip), %rax
	movzbl	(%rax), %eax
	testb	%al, %al
	je	.L1926
.L1534:
	movl	$22, 208(%rsp)
	movq	8(%rsp), %rax
	movq	%rax, 216(%rsp)
	jmp	.L1532
	.p2align 4,,10
	.p2align 3
.L1523:
	testq	%r12, %r12
	jne	.L1927
	movq	32(%rsp), %rdx
	jmp	.L1524
	.p2align 4,,10
	.p2align 3
.L1892:
	movq	24(%rsp), %rdi
	leaq	176(%rsp), %rsi
	xorl	%edx, %edx
.LEHB56:
	call	_ZNSt7__cxx1112basic_stringIcSt11char_traitsIcESaIcEE9_M_createERmm@PLT
.LEHE56:
	movq	%rax, 272(%rsp)
	movq	%rax, %rdi
	movq	176(%rsp), %rax
	movq	%rax, 288(%rsp)
.L1522:
	movq	128(%rsp), %rsi
	movq	%r12, %rdx
	call	memcpy@PLT
	movq	176(%rsp), %rax
	movq	272(%rsp), %rdx
	jmp	.L1524
	.p2align 4,,10
	.p2align 3
.L1587:
	testq	%r12, %r12
	je	.L1588
	jmp	.L1586
	.p2align 4,,10
	.p2align 3
.L1913:
	movq	24(%rsp), %rdi
	xorl	%edx, %edx
	movq	%r15, %rsi
.LEHB57:
	call	_ZNSt7__cxx1112basic_stringIcSt11char_traitsIcESaIcEE9_M_createERmm@PLT
.LEHE57:
	movq	%rax, 16(%rbp)
	movq	%rax, %rdi
	movq	208(%rsp), %rax
	movq	%rax, 32(%rbp)
.L1586:
	movq	128(%rsp), %rsi
	movq	%r12, %rdx
	call	memcpy@PLT
	movq	208(%rsp), %r12
	movq	16(%rbp), %rdi
	jmp	.L1588
	.p2align 4,,10
	.p2align 3
.L1906:
	movzbl	249(%rsp), %eax
	andl	$-64, %eax
	cmpb	$-128, %al
	je	.L1518
.L1884:
	leaq	689(%rsp), %r9
	jmp	.L1520
	.p2align 4,,10
	.p2align 3
.L1926:
	movq	_ZGVZN4asio15system_categoryEvE8instance@GOTPCREL(%rip), %rdi
	call	__cxa_guard_acquire@PLT
	testl	%eax, %eax
	je	.L1534
	movq	8(%rsp), %rsi
	movq	_ZN4asio6detail15system_categoryD1Ev@GOTPCREL(%rip), %rdi
	leaq	__dso_handle(%rip), %rdx
	call	__cxa_atexit@PLT
	movq	_ZGVZN4asio15system_categoryEvE8instance@GOTPCREL(%rip), %rdi
	call	__cxa_guard_release@PLT
	jmp	.L1534
	.p2align 4,,10
	.p2align 3
.L1902:
	lock addl	$1, (%rdx)
	jmp	.L1639
	.p2align 4,,10
	.p2align 3
.L1546:
	movq	136(%rsp), %rdi
	leaq	384(%rsp), %rsi
.LEHB58:
	call	_ZNSt7__cxx1112basic_stringIcSt11char_traitsIcESaIcEE9_M_assignERKS4_@PLT
.LEHE58:
	jmp	.L1548
	.p2align 4,,10
	.p2align 3
.L1518:
	leaq	689(%rsp), %r9
	movl	32(%rsp), %edi
	movq	%r9, %rsi
	movq	%r9, 152(%rsp)
	call	if_indextoname@PLT
	movq	152(%rsp), %r9
	testq	%rax, %rax
	jne	.L1519
	jmp	.L1520
	.p2align 4,,10
	.p2align 3
.L1641:
	movq	%r14, %rdi
	call	_ZdlPv@PLT
.L1640:
	movl	$41, %edi
.LEHB59:
	call	_Znwm@PLT
.LEHE59:
	movb	$40, 40(%rax)
	movq	%rax, %r14
	jmp	.L1642
	.p2align 4,,10
	.p2align 3
.L1921:
	movq	_ZGVZN4asio15system_categoryEvE8instance@GOTPCREL(%rip), %rdi
	call	__cxa_guard_acquire@PLT
	testl	%eax, %eax
	je	.L1669
	movq	8(%rsp), %rsi
	movq	_ZN4asio6detail15system_categoryD1Ev@GOTPCREL(%rip), %rdi
	leaq	__dso_handle(%rip), %rdx
	call	__cxa_atexit@PLT
	movq	_ZGVZN4asio15system_categoryEvE8instance@GOTPCREL(%rip), %rdi
	call	__cxa_guard_release@PLT
	jmp	.L1669
	.p2align 4,,10
	.p2align 3
.L1897:
	movl	$-1, %eax
	lock xaddl	%eax, 12(%rdi)
	jmp	.L1562
	.p2align 4,,10
	.p2align 3
.L1900:
	movl	$-1, %eax
	lock xaddl	%eax, 12(%rdi)
	jmp	.L1576
	.p2align 4,,10
	.p2align 3
.L1925:
	call	_ZN4asio15system_categoryEv@PLT
	movl	$22, 208(%rsp)
	movq	%rax, 216(%rsp)
	jmp	.L1515
	.p2align 4,,10
	.p2align 3
.L1922:
	cmpl	$11, 208(%rsp)
	jne	.L1671
.L1677:
	movl	%r12d, %edi
	leaq	176(%rsp), %rdx
	movl	$21537, %esi
	xorl	%eax, %eax
	movl	$0, 176(%rsp)
	call	ioctl@PLT
	andb	$-4, 4(%rbx)
	movl	%r12d, %edi
	movl	$0, 0(%rbp)
.LEHB60:
	call	close@PLT
	movl	%eax, %r12d
	movq	_ZGVZN4asio15system_categoryEvE8instance@GOTPCREL(%rip), %rax
	movzbl	(%rax), %eax
	testb	%al, %al
	je	.L1928
.L1679:
	movl	0(%rbp), %eax
	movq	8(%rsp), %rcx
	movl	%eax, 208(%rsp)
	movq	%rcx, 216(%rsp)
	testl	%r12d, %r12d
	jne	.L1676
	jmp	.L1664
	.p2align 4,,10
	.p2align 3
.L1923:
	movq	_ZGVZN4asio15system_categoryEvE8instance@GOTPCREL(%rip), %rdi
	call	__cxa_guard_acquire@PLT
	testl	%eax, %eax
	je	.L1674
	movq	8(%rsp), %rsi
	movq	_ZN4asio6detail15system_categoryD1Ev@GOTPCREL(%rip), %rdi
	leaq	__dso_handle(%rip), %rdx
	call	__cxa_atexit@PLT
	movq	_ZGVZN4asio15system_categoryEvE8instance@GOTPCREL(%rip), %rdi
	call	__cxa_guard_release@PLT
	jmp	.L1674
	.p2align 4,,10
	.p2align 3
.L1917:
	movq	(%r12), %rax
	movq	%r12, %rdi
	call	*16(%rax)
	testq	%rbx, %rbx
	jne	.L1929
	movl	12(%r12), %eax
	leal	-1(%rax), %edx
	movl	%edx, 12(%r12)
.L1616:
	cmpl	$1, %eax
	jne	.L1611
	movq	(%r12), %rax
	movq	%r12, %rdi
	call	*24(%rax)
	jmp	.L1611
	.p2align 4,,10
	.p2align 3
.L1924:
	cmpl	$11, %eax
	jne	.L1676
	jmp	.L1677
	.p2align 4,,10
	.p2align 3
.L1916:
	movl	$-1, %eax
	lock xaddl	%eax, 8(%r12)
	jmp	.L1613
	.p2align 4,,10
	.p2align 3
.L1899:
	lock addl	$1, 12(%r12)
	movq	32(%r12), %rdi
	jmp	.L1572
	.p2align 4,,10
	.p2align 3
.L1896:
	lock addl	$1, 12(%rbp)
	movq	32(%rbp), %rdi
	jmp	.L1558
	.p2align 4,,10
	.p2align 3
.L1911:
	lock addl	$1, 8(%rax)
	jmp	.L1582
	.p2align 4,,10
	.p2align 3
.L1915:
	movq	136(%rsp), %rax
	lock addl	$1, (%rax)
	jmp	.L1594
	.p2align 4,,10
	.p2align 3
.L1914:
	lock addl	$1, 8(%rax)
	jmp	.L1590
	.p2align 4,,10
	.p2align 3
.L1643:
	movb	$1, 64(%rdi)
	addq	$24, %rdi
	call	pthread_mutex_unlock@PLT
	movq	48(%rbp), %rbp
	movq	$0, (%r14)
	cmpq	$0, 96(%rbp)
	je	.L1647
	movq	96(%rbp), %rax
	movq	%r14, (%rax)
	movq	%r14, 96(%rbp)
.L1648:
	movq	40(%rbx), %rbx
	cmpb	$0, 40(%rbx)
	jne	.L1930
.L1649:
	lock addq	$1, 184(%rbx)
	leaq	48(%rbx), %r13
	movq	%r13, %rdi
	call	pthread_mutex_lock@PLT
	cmpq	$0, 200(%rbx)
	movq	$0, 0(%rbp)
	je	.L1654
	movq	200(%rbx), %rax
	movq	%rbp, (%rax)
	movq	%rbp, 200(%rbx)
.L1655:
	movq	136(%rbx), %rax
	orq	$1, %rax
	movq	%rax, 136(%rbx)
	cmpq	$1, %rax
	je	.L1656
	movq	%r13, %rdi
	call	pthread_mutex_unlock@PLT
	leaq	88(%rbx), %rdi
	call	pthread_cond_signal@PLT
	jmp	.L1646
.L1930:
	data16	leaq	_ZN4asio6detail15keyword_tss_ptrINS0_10call_stackINS0_15task_io_serviceENS0_27task_io_service_thread_infoEE7contextEE6value_E@tlsgd(%rip), %rdi
	.value	0x6666
	rex64
	call	__tls_get_addr@PLT
	movq	(%rax), %rax
	testq	%rax, %rax
	jne	.L1652
	jmp	.L1649
	.p2align 4,,10
	.p2align 3
.L1650:
	movq	16(%rax), %rax
	testq	%rax, %rax
	je	.L1649
.L1652:
	cmpq	(%rax), %rbx
	jne	.L1650
	movq	8(%rax), %rax
	testq	%rax, %rax
	je	.L1649
	addq	$1, 24(%rax)
	cmpq	$0, 16(%rax)
	movq	$0, 0(%rbp)
	je	.L1653
	movq	16(%rax), %rdx
	movq	%rbp, (%rdx)
	movq	%rbp, 16(%rax)
	jmp	.L1646
	.p2align 4,,10
	.p2align 3
.L1918:
	movq	16(%rsp), %rax
	lock addl	$1, (%rax)
	jmp	.L1626
	.p2align 4,,10
	.p2align 3
.L1644:
	movq	%r14, %xmm0
	punpcklqdq	%xmm0, %xmm0
	movups	%xmm0, 72(%rdi)
	jmp	.L1645
	.p2align 4,,10
	.p2align 3
.L1920:
	movl	$-1, %eax
	lock xaddl	%eax, 12(%rdi)
	jmp	.L1606
.L1929:
	movl	$-1, %eax
	lock xaddl	%eax, 12(%r12)
	jmp	.L1616
	.p2align 4,,10
	.p2align 3
.L1919:
	lock addl	$1, 12(%rbp)
	movq	48(%rbp), %rdi
	jmp	.L1602
.L1656:
	cmpb	$0, 176(%rbx)
	jne	.L1658
	movq	144(%rbx), %rax
	testq	%rax, %rax
	je	.L1658
	movb	$1, 176(%rbx)
	leaq	88(%rax), %rdx
	movq	%r15, %rcx
	movl	$3, %esi
	movq	%rdx, 212(%rsp)
	movl	88(%rax), %edx
	movl	$-2147483639, 208(%rsp)
	movl	96(%rax), %edi
	call	epoll_ctl@PLT
.L1658:
	movq	%r13, %rdi
	call	pthread_mutex_unlock@PLT
	jmp	.L1646
.L1928:
	movq	_ZGVZN4asio15system_categoryEvE8instance@GOTPCREL(%rip), %rdi
	call	__cxa_guard_acquire@PLT
	testl	%eax, %eax
	je	.L1679
	movq	8(%rsp), %rsi
	movq	_ZN4asio6detail15system_categoryD1Ev@GOTPCREL(%rip), %rdi
	leaq	__dso_handle(%rip), %rdx
	call	__cxa_atexit@PLT
	movq	_ZGVZN4asio15system_categoryEvE8instance@GOTPCREL(%rip), %rdi
	call	__cxa_guard_release@PLT
	jmp	.L1679
.L1647:
	movq	%r14, %xmm0
	punpcklqdq	%xmm0, %xmm0
	movups	%xmm0, 88(%rbp)
	jmp	.L1648
.L1887:
	call	_ZN4asio15system_categoryEv@PLT
	movl	$9, 176(%rsp)
	movq	%rax, 184(%rsp)
.L1500:
	leaq	176(%rsp), %rdi
	leaq	.LC30(%rip), %rsi
	call	_ZN4asio6detail14do_throw_errorERKSt10error_codePKc@PLT
	.p2align 4,,10
	.p2align 3
.L1885:
	call	_ZN4asio15system_categoryEv@PLT
	pxor	%xmm0, %xmm0
	movl	$2, %edi
	movl	$9, 176(%rsp)
	movaps	%xmm0, 240(%rsp)
	movq	%rax, 184(%rsp)
	movq	$0, 256(%rsp)
	movl	$0, 264(%rsp)
	movw	%di, 240(%rsp)
.L1491:
	leaq	176(%rsp), %rdi
	leaq	.LC30(%rip), %rsi
	call	_ZN4asio6detail14do_throw_errorERKSt10error_codePKc@PLT
.L1654:
	movq	%rbp, %xmm0
	punpcklqdq	%xmm0, %xmm0
	movups	%xmm0, 192(%rbx)
	jmp	.L1655
.L1653:
	movq	%rbp, %xmm0
	punpcklqdq	%xmm0, %xmm0
	movups	%xmm0, 8(%rax)
	jmp	.L1646
.L1910:
	call	__stack_chk_fail@PLT
.L1889:
	call	_ZN4asio15system_categoryEv@PLT
	movq	%r15, %rdi
	movl	$22, 208(%rsp)
	movq	%rax, 216(%rsp)
	call	_ZN4asio6detail14do_throw_errorERKSt10error_code@PLT
.L1903:
	call	_ZN4asio15system_categoryEv@PLT
	movq	%r15, %rdi
	movl	$22, 208(%rsp)
	movq	%rax, 216(%rsp)
	call	_ZN4asio6detail14do_throw_errorERKSt10error_code@PLT
.LEHE60:
.L1901:
	movl	%eax, %edi
.LEHB61:
	call	_ZSt20__throw_system_errori@PLT
.LEHE61:
.L1912:
	leaq	.LC4(%rip), %rdi
.LEHB62:
	call	_ZSt19__throw_logic_errorPKc@PLT
.LEHE62:
.L1927:
	movq	32(%rsp), %rdi
	jmp	.L1522
.L1905:
	movq	32(%rsp), %rdi
	jmp	.L1537
.L1720:
	movq	%rax, %r12
	jmp	.L1591
.L1716:
	movq	%rax, %r12
	jmp	.L1629
.L1707:
	movq	%rax, %rbx
	jmp	.L1569
.L1718:
	movq	%rax, %r12
	jmp	.L1592
.L1714:
	movq	%rax, %rbx
	jmp	.L1555
.L1706:
	movq	%rax, %rbx
	jmp	.L1556
.L1717:
	movq	%rax, %rbp
	jmp	.L1623
.L1704:
	movq	%rax, %rbp
	jmp	.L1529
.L1722:
	movq	%rax, %r12
	jmp	.L1598
.L1719:
	movq	%rax, %r12
	jmp	.L1599
.L1709:
	movq	%rax, %rbp
	jmp	.L1489
.L1710:
	movq	%rax, %rbp
	jmp	.L1488
.L1864:
	jmp	.L1865
.L1723:
	movq	%rax, %rbp
	jmp	.L1659
.L1715:
	movq	%rax, %rbx
	jmp	.L1567
.L1711:
	movq	%rax, %rbp
	jmp	.L1527
.L1721:
	movq	%rax, %r12
	jmp	.L1609
.L1713:
	movq	%rax, %rbp
	jmp	.L1551
.L1705:
	movq	%rax, %rbp
	jmp	.L1683
.L1712:
	movq	%rax, %rbp
	jmp	.L1541
	.section	.gcc_except_table
.LLSDA8269:
	.byte	0xff
	.byte	0xff
	.byte	0x1
	.uleb128 .LLSDACSE8269-.LLSDACSB8269
.LLSDACSB8269:
	.uleb128 .LEHB33-.LFB8269
	.uleb128 .LEHE33-.LEHB33
	.uleb128 .L1709-.LFB8269
	.uleb128 0
	.uleb128 .LEHB34-.LFB8269
	.uleb128 .LEHE34-.LEHB34
	.uleb128 .L1710-.LFB8269
	.uleb128 0
	.uleb128 .LEHB35-.LFB8269
	.uleb128 .LEHE35-.LEHB35
	.uleb128 .L1704-.LFB8269
	.uleb128 0
	.uleb128 .LEHB36-.LFB8269
	.uleb128 .LEHE36-.LEHB36
	.uleb128 .L1705-.LFB8269
	.uleb128 0
	.uleb128 .LEHB37-.LFB8269
	.uleb128 .LEHE37-.LEHB37
	.uleb128 .L1704-.LFB8269
	.uleb128 0
	.uleb128 .LEHB38-.LFB8269
	.uleb128 .LEHE38-.LEHB38
	.uleb128 .L1713-.LFB8269
	.uleb128 0
	.uleb128 .LEHB39-.LFB8269
	.uleb128 .LEHE39-.LEHB39
	.uleb128 .L1704-.LFB8269
	.uleb128 0
	.uleb128 .LEHB40-.LFB8269
	.uleb128 .LEHE40-.LEHB40
	.uleb128 .L1706-.LFB8269
	.uleb128 0
	.uleb128 .LEHB41-.LFB8269
	.uleb128 .LEHE41-.LEHB41
	.uleb128 .L1714-.LFB8269
	.uleb128 0
	.uleb128 .LEHB42-.LFB8269
	.uleb128 .LEHE42-.LEHB42
	.uleb128 .L1707-.LFB8269
	.uleb128 0
	.uleb128 .LEHB43-.LFB8269
	.uleb128 .LEHE43-.LEHB43
	.uleb128 .L1715-.LFB8269
	.uleb128 0
	.uleb128 .LEHB44-.LFB8269
	.uleb128 .LEHE44-.LEHB44
	.uleb128 .L1864-.LFB8269
	.uleb128 0
	.uleb128 .LEHB45-.LFB8269
	.uleb128 .LEHE45-.LEHB45
	.uleb128 .L1712-.LFB8269
	.uleb128 0
	.uleb128 .LEHB46-.LFB8269
	.uleb128 .LEHE46-.LEHB46
	.uleb128 .L1704-.LFB8269
	.uleb128 0
	.uleb128 .LEHB47-.LFB8269
	.uleb128 .LEHE47-.LEHB47
	.uleb128 .L1717-.LFB8269
	.uleb128 0
	.uleb128 .LEHB48-.LFB8269
	.uleb128 .LEHE48-.LEHB48
	.uleb128 .L1718-.LFB8269
	.uleb128 0
	.uleb128 .LEHB49-.LFB8269
	.uleb128 .LEHE49-.LEHB49
	.uleb128 .L1719-.LFB8269
	.uleb128 0
	.uleb128 .LEHB50-.LFB8269
	.uleb128 .LEHE50-.LEHB50
	.uleb128 .L1722-.LFB8269
	.uleb128 0
	.uleb128 .LEHB51-.LFB8269
	.uleb128 .LEHE51-.LEHB51
	.uleb128 .L1721-.LFB8269
	.uleb128 0
	.uleb128 .LEHB52-.LFB8269
	.uleb128 .LEHE52-.LEHB52
	.uleb128 .L1716-.LFB8269
	.uleb128 0
	.uleb128 .LEHB53-.LFB8269
	.uleb128 .LEHE53-.LEHB53
	.uleb128 .L1704-.LFB8269
	.uleb128 0
	.uleb128 .LEHB54-.LFB8269
	.uleb128 .LEHE54-.LEHB54
	.uleb128 .L1713-.LFB8269
	.uleb128 0
	.uleb128 .LEHB55-.LFB8269
	.uleb128 .LEHE55-.LEHB55
	.uleb128 .L1711-.LFB8269
	.uleb128 0
	.uleb128 .LEHB56-.LFB8269
	.uleb128 .LEHE56-.LEHB56
	.uleb128 .L1704-.LFB8269
	.uleb128 0
	.uleb128 .LEHB57-.LFB8269
	.uleb128 .LEHE57-.LEHB57
	.uleb128 .L1720-.LFB8269
	.uleb128 0
	.uleb128 .LEHB58-.LFB8269
	.uleb128 .LEHE58-.LEHB58
	.uleb128 .L1713-.LFB8269
	.uleb128 0
	.uleb128 .LEHB59-.LFB8269
	.uleb128 .LEHE59-.LEHB59
	.uleb128 .L1723-.LFB8269
	.uleb128 0
	.uleb128 .LEHB60-.LFB8269
	.uleb128 .LEHE60-.LEHB60
	.uleb128 .L1704-.LFB8269
	.uleb128 0
	.uleb128 .LEHB61-.LFB8269
	.uleb128 .LEHE61-.LEHB61
	.uleb128 .L1864-.LFB8269
	.uleb128 0
	.uleb128 .LEHB62-.LFB8269
	.uleb128 .LEHE62-.LEHB62
	.uleb128 .L1720-.LFB8269
	.uleb128 0
.LLSDACSE8269:
	.text
	.cfi_endproc
	.section	.text.unlikely
	.cfi_startproc
	.cfi_personality 0x9b,DW.ref.__gxx_personality_v0
	.cfi_lsda 0x1b,.LLSDAC8269
	.type	_ZN8asiodnp315MasterTCPServer16AcceptConnectionEmRKSt10shared_ptrIN7asiopal8ExecutorEEN4asio19basic_stream_socketINS7_2ip3tcpENS7_21stream_socket_serviceISA_EEEE.cold, @function
_ZN8asiodnp315MasterTCPServer16AcceptConnectionEmRKSt10shared_ptrIN7asiopal8ExecutorEEN4asio19basic_stream_socketINS7_2ip3tcpENS7_21stream_socket_serviceISA_EEEE.cold:
.LFSB8269:
.L1591:
	.cfi_def_cfa_offset 912
	.cfi_offset 3, -56
	.cfi_offset 6, -48
	.cfi_offset 12, -40
	.cfi_offset 13, -32
	.cfi_offset 14, -24
	.cfi_offset 15, -16
	movl	$56, %esi
	movq	%rbp, %rdi
	call	_ZdlPvm@PLT
.L1592:
	movq	272(%rsp), %rdi
	cmpq	32(%rsp), %rdi
	je	.L1622
	movq	288(%rsp), %rax
	leaq	1(%rax), %rsi
	call	_ZdlPvm@PLT
.L1622:
	movq	%r12, %rbp
.L1623:
	movq	184(%rsp), %rdi
	testq	%rdi, %rdi
	je	.L1625
	call	_ZNSt16_Sp_counted_baseILN9__gnu_cxx12_Lock_policyE2EE10_M_releaseEv@PLT
.L1625:
	testq	%rbx, %rbx
	je	.L1632
	movq	%r13, %rdi
	call	_ZL28__gthrw_pthread_mutex_unlockP15pthread_mutex_t@PLT
.L1632:
	movq	168(%rsp), %rdi
	testq	%rdi, %rdi
	je	.L1529
	call	_ZNSt16_Sp_counted_baseILN9__gnu_cxx12_Lock_policyE2EE10_M_releaseEv@PLT
.L1529:
	movq	48(%rsp), %rdi
	call	_ZNSt7__cxx1119basic_ostringstreamIcSt11char_traitsIcESaIcEED1Ev@PLT
	movq	%rbp, %rdi
.LEHB63:
	call	_Unwind_Resume@PLT
.LEHE63:
.L1629:
	movq	216(%rsp), %rdi
	testq	%rdi, %rdi
	je	.L1630
	call	_ZNSt16_Sp_counted_baseILN9__gnu_cxx12_Lock_policyE2EE10_M_releaseEv@PLT
.L1630:
	movq	%rbp, %rdi
	movq	%r12, %rbp
	call	_ZNSt16_Sp_counted_baseILN9__gnu_cxx12_Lock_policyE2EE10_M_releaseEv@PLT
	jmp	.L1625
.L1567:
	movq	232(%rsp), %rax
	movq	%r15, %rsi
	leaq	40(%rax), %rdi
	call	_ZN4asio6detail28reactive_socket_service_base7destroyERNS1_24base_implementation_typeE@PLT
	movq	168(%rsp), %rdi
	testq	%rdi, %rdi
	je	.L1568
	call	_ZNSt16_Sp_counted_baseILN9__gnu_cxx12_Lock_policyE2EE10_M_releaseEv@PLT
.L1568:
	movl	$112, %esi
	movq	%r12, %rdi
	call	_ZdlPvm@PLT
.L1569:
	movq	%rbp, %rdi
	call	_ZNSt16_Sp_counted_baseILN9__gnu_cxx12_Lock_policyE2EE10_M_releaseEv@PLT
.L1556:
	movq	200(%rsp), %rax
	leaq	176(%rsp), %rsi
	movq	%rbx, %rbp
	leaq	40(%rax), %rdi
	call	_ZN4asio6detail28reactive_socket_service_base7destroyERNS1_24base_implementation_typeE@PLT
	jmp	.L1529
.L1555:
	movl	$72, %esi
	movq	%rbp, %rdi
	call	_ZdlPvm@PLT
	jmp	.L1556
.L1598:
	movl	$624, %esi
	movq	%rbp, %rdi
	call	_ZdlPvm@PLT
.L1599:
	movq	%r15, %rdi
	call	_ZN7openpal6LoggerD1Ev@PLT
	jmp	.L1592
.L1488:
	movq	144(%rsp), %rdi
	call	_ZNSt7__cxx1115basic_stringbufIcSt11char_traitsIcESaIcEED1Ev@PLT
	movq	56(%rsp), %rax
	movq	64(%rsp), %rbx
	movq	%rax, 304(%rsp)
	movq	-24(%rax), %rax
	movq	%rbx, 304(%rsp,%rax)
.L1489:
	movq	_ZTVSt9basic_iosIcSt11char_traitsIcEE@GOTPCREL(%rip), %rax
	movq	72(%rsp), %rdi
	addq	$16, %rax
	movq	%rax, 416(%rsp)
	call	_ZNSt8ios_baseD2Ev@PLT
	movq	%rbp, %rdi
.LEHB64:
	call	_Unwind_Resume@PLT
.LEHE64:
.L1635:
.LEHB65:
	call	_ZSt20__throw_bad_weak_ptrv@PLT
.L1708:
.L1865:
	movq	%rax, %rbp
	jmp	.L1632
.L1659:
	movq	%r12, %rdi
	call	_ZNSt16_Sp_counted_baseILN9__gnu_cxx12_Lock_policyE2EE10_M_releaseEv@PLT
	movq	%r12, %rdi
	call	_ZNSt16_Sp_counted_baseILN9__gnu_cxx12_Lock_policyE2EE10_M_releaseEv@PLT
	jmp	.L1632
.L1527:
	movq	272(%rsp), %rdi
	cmpq	32(%rsp), %rdi
	je	.L1529
	movq	288(%rsp), %rax
	leaq	1(%rax), %rsi
	call	_ZdlPvm@PLT
	jmp	.L1529
.L1609:
	movq	%rbp, %rdi
	call	_ZNSt16_Sp_counted_baseILN9__gnu_cxx12_Lock_policyE2EE10_M_releaseEv@PLT
	jmp	.L1599
.L1866:
	call	_ZSt20__throw_bad_weak_ptrv@PLT
.LEHE65:
.L1551:
	movq	240(%rsp), %rdi
	cmpq	%r12, %rdi
	je	.L1529
	movq	256(%rsp), %rax
	leaq	1(%rax), %rsi
	call	_ZdlPvm@PLT
	jmp	.L1529
.L1683:
	movq	272(%rsp), %rdi
	cmpq	32(%rsp), %rdi
	je	.L1529
	movq	288(%rsp), %rax
	leaq	1(%rax), %rsi
	call	_ZdlPvm@PLT
	jmp	.L1529
.L1541:
	movq	272(%rsp), %rdi
	cmpq	32(%rsp), %rdi
	je	.L1529
	movq	288(%rsp), %rax
	leaq	1(%rax), %rsi
	call	_ZdlPvm@PLT
	jmp	.L1529
	.cfi_endproc
.LFE8269:
	.section	.gcc_except_table
.LLSDAC8269:
	.byte	0xff
	.byte	0xff
	.byte	0x1
	.uleb128 .LLSDACSEC8269-.LLSDACSBC8269
.LLSDACSBC8269:
	.uleb128 .LEHB63-.LCOLDB37
	.uleb128 .LEHE63-.LEHB63
	.uleb128 0
	.uleb128 0
	.uleb128 .LEHB64-.LCOLDB37
	.uleb128 .LEHE64-.LEHB64
	.uleb128 0
	.uleb128 0
	.uleb128 .LEHB65-.LCOLDB37
	.uleb128 .LEHE65-.LEHB65
	.uleb128 .L1708-.LCOLDB37
	.uleb128 0
.LLSDACSEC8269:
	.section	.text.unlikely
	.text
	.size	_ZN8asiodnp315MasterTCPServer16AcceptConnectionEmRKSt10shared_ptrIN7asiopal8ExecutorEEN4asio19basic_stream_socketINS7_2ip3tcpENS7_21stream_socket_serviceISA_EEEE, .-_ZN8asiodnp315MasterTCPServer16AcceptConnectionEmRKSt10shared_ptrIN7asiopal8ExecutorEEN4asio19basic_stream_socketINS7_2ip3tcpENS7_21stream_socket_serviceISA_EEEE
	.section	.text.unlikely
	.size	_ZN8asiodnp315MasterTCPServer16AcceptConnectionEmRKSt10shared_ptrIN7asiopal8ExecutorEEN4asio19basic_stream_socketINS7_2ip3tcpENS7_21stream_socket_serviceISA_EEEE.cold, .-_ZN8asiodnp315MasterTCPServer16AcceptConnectionEmRKSt10shared_ptrIN7asiopal8ExecutorEEN4asio19basic_stream_socketINS7_2ip3tcpENS7_21stream_socket_serviceISA_EEEE.cold
.LCOLDE37:
	.text
.LHOTE37:
	.section	.text._ZN4asio6detail18completion_handlerIZN7asiopal13IAsyncChannel8ShutdownEvEUlvE_E3ptr5resetEv,"axG",@progbits,_ZN4asio6detail18completion_handlerIZN7asiopal13IAsyncChannel8ShutdownEvEUlvE_E3ptr5resetEv,comdat
	.align 2
	.p2align 4
	.weak	_ZN4asio6detail18completion_handlerIZN7asiopal13IAsyncChannel8ShutdownEvEUlvE_E3ptr5resetEv
	.type	_ZN4asio6detail18completion_handlerIZN7asiopal13IAsyncChannel8ShutdownEvEUlvE_E3ptr5resetEv, @function
_ZN4asio6detail18completion_handlerIZN7asiopal13IAsyncChannel8ShutdownEvEUlvE_E3ptr5resetEv:
.LFB10236:
	.cfi_startproc
	pushq	%r12
	.cfi_def_cfa_offset 16
	.cfi_offset 12, -16
	pushq	%rbp
	.cfi_def_cfa_offset 24
	.cfi_offset 6, -24
	pushq	%rbx
	.cfi_def_cfa_offset 32
	.cfi_offset 3, -32
	movq	16(%rdi), %rax
	movq	%rdi, %rbx
	testq	%rax, %rax
	je	.L1932
	movq	32(%rax), %rbp
	testq	%rbp, %rbp
	je	.L1934
	movq	_ZL28__gthrw___pthread_key_createPjPFvPvE@GOTPCREL(%rip), %r12
	testq	%r12, %r12
	jne	.L1956
	movl	8(%rbp), %eax
	leal	-1(%rax), %edx
	movl	%edx, 8(%rbp)
.L1936:
	cmpl	$1, %eax
	je	.L1957
.L1934:
	movq	$0, 16(%rbx)
.L1932:
	movq	8(%rbx), %rbp
	testq	%rbp, %rbp
	je	.L1931
	data16	leaq	_ZN4asio6detail15keyword_tss_ptrINS0_10call_stackINS0_15task_io_serviceENS0_27task_io_service_thread_infoEE7contextEE6value_E@tlsgd(%rip), %rdi
	.value	0x6666
	rex64
	call	__tls_get_addr@PLT
	movq	(%rax), %rax
	testq	%rax, %rax
	je	.L1941
	movq	8(%rax), %rax
	testq	%rax, %rax
	je	.L1941
	cmpq	$0, (%rax)
	je	.L1958
.L1941:
	movq	%rbp, %rdi
	call	_ZdlPv@PLT
.L1942:
	movq	$0, 8(%rbx)
.L1931:
	popq	%rbx
	.cfi_remember_state
	.cfi_def_cfa_offset 24
	popq	%rbp
	.cfi_def_cfa_offset 16
	popq	%r12
	.cfi_def_cfa_offset 8
	ret
	.p2align 4,,10
	.p2align 3
.L1957:
	.cfi_restore_state
	movq	0(%rbp), %rax
	movq	%rbp, %rdi
	call	*16(%rax)
	testq	%r12, %r12
	jne	.L1959
	movl	12(%rbp), %eax
	leal	-1(%rax), %edx
	movl	%edx, 12(%rbp)
.L1939:
	cmpl	$1, %eax
	jne	.L1934
	movq	0(%rbp), %rax
	movq	%rbp, %rdi
	call	*24(%rax)
	jmp	.L1934
	.p2align 4,,10
	.p2align 3
.L1958:
	movzbl	40(%rbp), %edx
	movb	%dl, 0(%rbp)
	movq	%rbp, (%rax)
	jmp	.L1942
	.p2align 4,,10
	.p2align 3
.L1956:
	movl	$-1, %eax
	lock xaddl	%eax, 8(%rbp)
	jmp	.L1936
	.p2align 4,,10
	.p2align 3
.L1959:
	movl	$-1, %eax
	lock xaddl	%eax, 12(%rbp)
	jmp	.L1939
	.cfi_endproc
.LFE10236:
	.size	_ZN4asio6detail18completion_handlerIZN7asiopal13IAsyncChannel8ShutdownEvEUlvE_E3ptr5resetEv, .-_ZN4asio6detail18completion_handlerIZN7asiopal13IAsyncChannel8ShutdownEvEUlvE_E3ptr5resetEv
	.section	.text._ZN4asio6detail18completion_handlerIZN7asiopal13IAsyncChannel8ShutdownEvEUlvE_E11do_completeEPNS0_15task_io_serviceEPNS0_25task_io_service_operationERKSt10error_codem,"axG",@progbits,_ZN4asio6detail18completion_handlerIZN7asiopal13IAsyncChannel8ShutdownEvEUlvE_E11do_completeEPNS0_15task_io_serviceEPNS0_25task_io_service_operationERKSt10error_codem,comdat
	.p2align 4
	.weak	_ZN4asio6detail18completion_handlerIZN7asiopal13IAsyncChannel8ShutdownEvEUlvE_E11do_completeEPNS0_15task_io_serviceEPNS0_25task_io_service_operationERKSt10error_codem
	.type	_ZN4asio6detail18completion_handlerIZN7asiopal13IAsyncChannel8ShutdownEvEUlvE_E11do_completeEPNS0_15task_io_serviceEPNS0_25task_io_service_operationERKSt10error_codem, @function
_ZN4asio6detail18completion_handlerIZN7asiopal13IAsyncChannel8ShutdownEvEUlvE_E11do_completeEPNS0_15task_io_serviceEPNS0_25task_io_service_operationERKSt10error_codem:
.LFB10240:
	.cfi_startproc
	.cfi_personality 0x9b,DW.ref.__gxx_personality_v0
	.cfi_lsda 0x1b,.LLSDA10240
	pushq	%r12
	.cfi_def_cfa_offset 16
	.cfi_offset 12, -16
	movq	%rsi, %r12
	pushq	%rbp
	.cfi_def_cfa_offset 24
	.cfi_offset 6, -24
	pushq	%rbx
	.cfi_def_cfa_offset 32
	.cfi_offset 3, -32
	movq	%rdi, %rbx
	subq	$64, %rsp
	.cfi_def_cfa_offset 96
	movdqu	24(%rsi), %xmm0
	movq	32(%rsi), %rbp
	movq	%fs:40, %rax
	movq	%rax, 56(%rsp)
	xorl	%eax, %eax
	movq	%rsp, %rax
	movq	%rsi, 40(%rsp)
	movq	%rax, 32(%rsp)
	movq	$0, 48(%rsp)
	movaps	%xmm0, (%rsp)
	data16	leaq	_ZN4asio6detail15keyword_tss_ptrINS0_10call_stackINS0_15task_io_serviceENS0_27task_io_service_thread_infoEE7contextEE6value_E@tlsgd(%rip), %rdi
	.value	0x6666
	rex64
	call	__tls_get_addr@PLT
	movq	(%rax), %rax
	testq	%rax, %rax
	je	.L1961
	movq	8(%rax), %rax
	testq	%rax, %rax
	je	.L1961
	cmpq	$0, (%rax)
	je	.L2024
.L1961:
	movq	%r12, %rdi
	call	_ZdlPv@PLT
	movq	8(%rsp), %rbp
.L1962:
	movq	$0, 40(%rsp)
	testq	%rbx, %rbx
	je	.L1963
	movq	(%rsp), %rax
	movq	%rbp, 24(%rsp)
	movq	%rax, 16(%rsp)
	testq	%rbp, %rbp
	je	.L1964
	cmpq	$0, _ZL28__gthrw___pthread_key_createPjPFvPvE@GOTPCREL(%rip)
	jne	.L2025
	addl	$1, 8(%rbp)
.L1964:
	leaq	16(%rsp), %rdi
.LEHB66:
	call	_ZN7asiopal13IAsyncChannel16CheckForShutdownESt10shared_ptrIS0_E.isra.0
.LEHE66:
	movq	24(%rsp), %rbp
	testq	%rbp, %rbp
	je	.L1967
	movq	_ZL28__gthrw___pthread_key_createPjPFvPvE@GOTPCREL(%rip), %rbx
	testq	%rbx, %rbx
	jne	.L2026
	movl	8(%rbp), %eax
	leal	-1(%rax), %edx
	movl	%edx, 8(%rbp)
.L1969:
	cmpl	$1, %eax
	jne	.L1967
	movq	0(%rbp), %rax
	movq	%rbp, %rdi
	call	*16(%rax)
	testq	%rbx, %rbx
	jne	.L2027
	movl	12(%rbp), %eax
	leal	-1(%rax), %edx
	movl	%edx, 12(%rbp)
.L1972:
	cmpl	$1, %eax
	je	.L2028
	.p2align 4,,10
	.p2align 3
.L1967:
	sfence
	movq	8(%rsp), %rbp
.L1963:
	testq	%rbp, %rbp
	je	.L1978
	movq	_ZL28__gthrw___pthread_key_createPjPFvPvE@GOTPCREL(%rip), %rbx
	testq	%rbx, %rbx
	jne	.L2029
	movl	8(%rbp), %eax
	leal	-1(%rax), %edx
	movl	%edx, 8(%rbp)
.L1980:
	cmpl	$1, %eax
	je	.L2030
.L1978:
	movq	48(%rsp), %rax
	testq	%rax, %rax
	je	.L1984
	movq	32(%rax), %rbp
	testq	%rbp, %rbp
	je	.L1986
	movq	_ZL28__gthrw___pthread_key_createPjPFvPvE@GOTPCREL(%rip), %rbx
	testq	%rbx, %rbx
	jne	.L2031
	movl	8(%rbp), %eax
	leal	-1(%rax), %edx
	movl	%edx, 8(%rbp)
.L1988:
	cmpl	$1, %eax
	je	.L2032
.L1986:
	movq	$0, 48(%rsp)
.L1984:
	movq	40(%rsp), %rbp
	testq	%rbp, %rbp
	je	.L1960
	data16	leaq	_ZN4asio6detail15keyword_tss_ptrINS0_10call_stackINS0_15task_io_serviceENS0_27task_io_service_thread_infoEE7contextEE6value_E@tlsgd(%rip), %rdi
	.value	0x6666
	rex64
	call	__tls_get_addr@PLT
	movq	(%rax), %rax
	testq	%rax, %rax
	je	.L1993
	movq	8(%rax), %rax
	testq	%rax, %rax
	je	.L1993
	cmpq	$0, (%rax)
	je	.L2033
.L1993:
	movq	%rbp, %rdi
	call	_ZdlPv@PLT
.L1960:
	movq	56(%rsp), %rax
	subq	%fs:40, %rax
	jne	.L2034
	addq	$64, %rsp
	.cfi_remember_state
	.cfi_def_cfa_offset 32
	popq	%rbx
	.cfi_def_cfa_offset 24
	popq	%rbp
	.cfi_def_cfa_offset 16
	popq	%r12
	.cfi_def_cfa_offset 8
	ret
	.p2align 4,,10
	.p2align 3
.L2030:
	.cfi_restore_state
	movq	0(%rbp), %rax
	movq	%rbp, %rdi
	call	*16(%rax)
	testq	%rbx, %rbx
	jne	.L2035
	movl	12(%rbp), %eax
	leal	-1(%rax), %edx
	movl	%edx, 12(%rbp)
.L1983:
	cmpl	$1, %eax
	jne	.L1978
	movq	0(%rbp), %rax
	movq	%rbp, %rdi
	call	*24(%rax)
	jmp	.L1978
	.p2align 4,,10
	.p2align 3
.L2029:
	movl	$-1, %eax
	lock xaddl	%eax, 8(%rbp)
	jmp	.L1980
	.p2align 4,,10
	.p2align 3
.L2032:
	movq	0(%rbp), %rax
	movq	%rbp, %rdi
	call	*16(%rax)
	testq	%rbx, %rbx
	jne	.L2036
	movl	12(%rbp), %eax
	leal	-1(%rax), %edx
	movl	%edx, 12(%rbp)
.L1991:
	cmpl	$1, %eax
	jne	.L1986
	movq	0(%rbp), %rax
	movq	%rbp, %rdi
	call	*24(%rax)
	jmp	.L1986
	.p2align 4,,10
	.p2align 3
.L2026:
	movl	$-1, %eax
	lock xaddl	%eax, 8(%rbp)
	jmp	.L1969
	.p2align 4,,10
	.p2align 3
.L2033:
	movzbl	40(%rbp), %edx
	movb	%dl, 0(%rbp)
	movq	%rbp, (%rax)
	jmp	.L1960
	.p2align 4,,10
	.p2align 3
.L2024:
	movzbl	40(%r12), %edx
	movb	%dl, (%r12)
	movq	%r12, (%rax)
	jmp	.L1962
	.p2align 4,,10
	.p2align 3
.L2031:
	movl	$-1, %eax
	lock xaddl	%eax, 8(%rbp)
	jmp	.L1988
	.p2align 4,,10
	.p2align 3
.L2025:
	lock addl	$1, 8(%rbp)
	jmp	.L1964
	.p2align 4,,10
	.p2align 3
.L2035:
	movl	$-1, %eax
	lock xaddl	%eax, 12(%rbp)
	jmp	.L1983
	.p2align 4,,10
	.p2align 3
.L2028:
	movq	0(%rbp), %rax
	movq	%rbp, %rdi
	call	*24(%rax)
	jmp	.L1967
	.p2align 4,,10
	.p2align 3
.L2036:
	movl	$-1, %eax
	lock xaddl	%eax, 12(%rbp)
	jmp	.L1991
	.p2align 4,,10
	.p2align 3
.L2027:
	movl	$-1, %eax
	lock xaddl	%eax, 12(%rbp)
	jmp	.L1972
.L2034:
	call	__stack_chk_fail@PLT
.L1995:
	movq	%rax, %rbp
.L1973:
	movq	24(%rsp), %rdi
	testq	%rdi, %rdi
	je	.L1974
	call	_ZNSt16_Sp_counted_baseILN9__gnu_cxx12_Lock_policyE2EE10_M_releaseEv@PLT
.L1974:
	sfence
	movq	8(%rsp), %rdi
	testq	%rdi, %rdi
	je	.L1976
	call	_ZNSt16_Sp_counted_baseILN9__gnu_cxx12_Lock_policyE2EE10_M_releaseEv@PLT
.L1976:
	leaq	32(%rsp), %rdi
	call	_ZN4asio6detail18completion_handlerIZN7asiopal13IAsyncChannel8ShutdownEvEUlvE_E3ptr5resetEv@PLT
	movq	%rbp, %rdi
.LEHB67:
	call	_Unwind_Resume@PLT
.LEHE67:
	.cfi_endproc
.LFE10240:
	.section	.gcc_except_table
.LLSDA10240:
	.byte	0xff
	.byte	0xff
	.byte	0x1
	.uleb128 .LLSDACSE10240-.LLSDACSB10240
.LLSDACSB10240:
	.uleb128 .LEHB66-.LFB10240
	.uleb128 .LEHE66-.LEHB66
	.uleb128 .L1995-.LFB10240
	.uleb128 0
	.uleb128 .LEHB67-.LFB10240
	.uleb128 .LEHE67-.LEHB67
	.uleb128 0
	.uleb128 0
.LLSDACSE10240:
	.section	.text._ZN4asio6detail18completion_handlerIZN7asiopal13IAsyncChannel8ShutdownEvEUlvE_E11do_completeEPNS0_15task_io_serviceEPNS0_25task_io_service_operationERKSt10error_codem,"axG",@progbits,_ZN4asio6detail18completion_handlerIZN7asiopal13IAsyncChannel8ShutdownEvEUlvE_E11do_completeEPNS0_15task_io_serviceEPNS0_25task_io_service_operationERKSt10error_codem,comdat
	.size	_ZN4asio6detail18completion_handlerIZN7asiopal13IAsyncChannel8ShutdownEvEUlvE_E11do_completeEPNS0_15task_io_serviceEPNS0_25task_io_service_operationERKSt10error_codem, .-_ZN4asio6detail18completion_handlerIZN7asiopal13IAsyncChannel8ShutdownEvEUlvE_E11do_completeEPNS0_15task_io_serviceEPNS0_25task_io_service_operationERKSt10error_codem
	.section	.text._ZN4asio6detail18completion_handlerIZN7asiopal13IAsyncChannel16CheckForShutdownESt10shared_ptrIS3_EEUlvE_E3ptr5resetEv,"axG",@progbits,_ZN4asio6detail18completion_handlerIZN7asiopal13IAsyncChannel16CheckForShutdownESt10shared_ptrIS3_EEUlvE_E3ptr5resetEv,comdat
	.align 2
	.p2align 4
	.weak	_ZN4asio6detail18completion_handlerIZN7asiopal13IAsyncChannel16CheckForShutdownESt10shared_ptrIS3_EEUlvE_E3ptr5resetEv
	.type	_ZN4asio6detail18completion_handlerIZN7asiopal13IAsyncChannel16CheckForShutdownESt10shared_ptrIS3_EEUlvE_E3ptr5resetEv, @function
_ZN4asio6detail18completion_handlerIZN7asiopal13IAsyncChannel16CheckForShutdownESt10shared_ptrIS3_EEUlvE_E3ptr5resetEv:
.LFB10241:
	.cfi_startproc
	pushq	%r12
	.cfi_def_cfa_offset 16
	.cfi_offset 12, -16
	pushq	%rbp
	.cfi_def_cfa_offset 24
	.cfi_offset 6, -24
	pushq	%rbx
	.cfi_def_cfa_offset 32
	.cfi_offset 3, -32
	movq	16(%rdi), %rax
	movq	%rdi, %rbx
	testq	%rax, %rax
	je	.L2038
	movq	32(%rax), %rbp
	testq	%rbp, %rbp
	je	.L2040
	movq	_ZL28__gthrw___pthread_key_createPjPFvPvE@GOTPCREL(%rip), %r12
	testq	%r12, %r12
	jne	.L2062
	movl	8(%rbp), %eax
	leal	-1(%rax), %edx
	movl	%edx, 8(%rbp)
.L2042:
	cmpl	$1, %eax
	je	.L2063
.L2040:
	movq	$0, 16(%rbx)
.L2038:
	movq	8(%rbx), %rbp
	testq	%rbp, %rbp
	je	.L2037
	data16	leaq	_ZN4asio6detail15keyword_tss_ptrINS0_10call_stackINS0_15task_io_serviceENS0_27task_io_service_thread_infoEE7contextEE6value_E@tlsgd(%rip), %rdi
	.value	0x6666
	rex64
	call	__tls_get_addr@PLT
	movq	(%rax), %rax
	testq	%rax, %rax
	je	.L2047
	movq	8(%rax), %rax
	testq	%rax, %rax
	je	.L2047
	cmpq	$0, (%rax)
	je	.L2064
.L2047:
	movq	%rbp, %rdi
	call	_ZdlPv@PLT
.L2048:
	movq	$0, 8(%rbx)
.L2037:
	popq	%rbx
	.cfi_remember_state
	.cfi_def_cfa_offset 24
	popq	%rbp
	.cfi_def_cfa_offset 16
	popq	%r12
	.cfi_def_cfa_offset 8
	ret
	.p2align 4,,10
	.p2align 3
.L2063:
	.cfi_restore_state
	movq	0(%rbp), %rax
	movq	%rbp, %rdi
	call	*16(%rax)
	testq	%r12, %r12
	jne	.L2065
	movl	12(%rbp), %eax
	leal	-1(%rax), %edx
	movl	%edx, 12(%rbp)
.L2045:
	cmpl	$1, %eax
	jne	.L2040
	movq	0(%rbp), %rax
	movq	%rbp, %rdi
	call	*24(%rax)
	jmp	.L2040
	.p2align 4,,10
	.p2align 3
.L2064:
	movzbl	40(%rbp), %edx
	movb	%dl, 0(%rbp)
	movq	%rbp, (%rax)
	jmp	.L2048
	.p2align 4,,10
	.p2align 3
.L2062:
	movl	$-1, %eax
	lock xaddl	%eax, 8(%rbp)
	jmp	.L2042
	.p2align 4,,10
	.p2align 3
.L2065:
	movl	$-1, %eax
	lock xaddl	%eax, 12(%rbp)
	jmp	.L2045
	.cfi_endproc
.LFE10241:
	.size	_ZN4asio6detail18completion_handlerIZN7asiopal13IAsyncChannel16CheckForShutdownESt10shared_ptrIS3_EEUlvE_E3ptr5resetEv, .-_ZN4asio6detail18completion_handlerIZN7asiopal13IAsyncChannel16CheckForShutdownESt10shared_ptrIS3_EEUlvE_E3ptr5resetEv
	.section	.text._ZN4asio6detail18completion_handlerIZN7asiopal13IAsyncChannel16CheckForShutdownESt10shared_ptrIS3_EEUlvE_E11do_completeEPNS0_15task_io_serviceEPNS0_25task_io_service_operationERKSt10error_codem,"axG",@progbits,_ZN4asio6detail18completion_handlerIZN7asiopal13IAsyncChannel16CheckForShutdownESt10shared_ptrIS3_EEUlvE_E11do_completeEPNS0_15task_io_serviceEPNS0_25task_io_service_operationERKSt10error_codem,comdat
	.p2align 4
	.weak	_ZN4asio6detail18completion_handlerIZN7asiopal13IAsyncChannel16CheckForShutdownESt10shared_ptrIS3_EEUlvE_E11do_completeEPNS0_15task_io_serviceEPNS0_25task_io_service_operationERKSt10error_codem
	.type	_ZN4asio6detail18completion_handlerIZN7asiopal13IAsyncChannel16CheckForShutdownESt10shared_ptrIS3_EEUlvE_E11do_completeEPNS0_15task_io_serviceEPNS0_25task_io_service_operationERKSt10error_codem, @function
_ZN4asio6detail18completion_handlerIZN7asiopal13IAsyncChannel16CheckForShutdownESt10shared_ptrIS3_EEUlvE_E11do_completeEPNS0_15task_io_serviceEPNS0_25task_io_service_operationERKSt10error_codem:
.LFB10245:
	.cfi_startproc
	.cfi_personality 0x9b,DW.ref.__gxx_personality_v0
	.cfi_lsda 0x1b,.LLSDA10245
	pushq	%r12
	.cfi_def_cfa_offset 16
	.cfi_offset 12, -16
	movq	%rsi, %r12
	pushq	%rbp
	.cfi_def_cfa_offset 24
	.cfi_offset 6, -24
	pushq	%rbx
	.cfi_def_cfa_offset 32
	.cfi_offset 3, -32
	movq	%rdi, %rbx
	subq	$64, %rsp
	.cfi_def_cfa_offset 96
	movdqu	24(%rsi), %xmm0
	movq	32(%rsi), %rbp
	movq	%fs:40, %rax
	movq	%rax, 56(%rsp)
	xorl	%eax, %eax
	movq	%rsp, %rax
	movq	%rsi, 40(%rsp)
	movq	%rax, 32(%rsp)
	movq	$0, 48(%rsp)
	movaps	%xmm0, (%rsp)
	data16	leaq	_ZN4asio6detail15keyword_tss_ptrINS0_10call_stackINS0_15task_io_serviceENS0_27task_io_service_thread_infoEE7contextEE6value_E@tlsgd(%rip), %rdi
	.value	0x6666
	rex64
	call	__tls_get_addr@PLT
	movq	(%rax), %rax
	testq	%rax, %rax
	je	.L2067
	movq	8(%rax), %rax
	testq	%rax, %rax
	je	.L2067
	cmpq	$0, (%rax)
	je	.L2130
.L2067:
	movq	%r12, %rdi
	call	_ZdlPv@PLT
	movq	8(%rsp), %rbp
.L2068:
	movq	$0, 40(%rsp)
	testq	%rbx, %rbx
	je	.L2069
	movq	(%rsp), %rax
	movq	%rbp, 24(%rsp)
	movq	%rax, 16(%rsp)
	testq	%rbp, %rbp
	je	.L2070
	cmpq	$0, _ZL28__gthrw___pthread_key_createPjPFvPvE@GOTPCREL(%rip)
	jne	.L2131
	addl	$1, 8(%rbp)
.L2070:
	leaq	16(%rsp), %rdi
.LEHB68:
	call	_ZN7asiopal13IAsyncChannel16CheckForShutdownESt10shared_ptrIS0_E.isra.0
.LEHE68:
	movq	24(%rsp), %rbp
	testq	%rbp, %rbp
	je	.L2073
	movq	_ZL28__gthrw___pthread_key_createPjPFvPvE@GOTPCREL(%rip), %rbx
	testq	%rbx, %rbx
	jne	.L2132
	movl	8(%rbp), %eax
	leal	-1(%rax), %edx
	movl	%edx, 8(%rbp)
.L2075:
	cmpl	$1, %eax
	jne	.L2073
	movq	0(%rbp), %rax
	movq	%rbp, %rdi
	call	*16(%rax)
	testq	%rbx, %rbx
	jne	.L2133
	movl	12(%rbp), %eax
	leal	-1(%rax), %edx
	movl	%edx, 12(%rbp)
.L2078:
	cmpl	$1, %eax
	je	.L2134
	.p2align 4,,10
	.p2align 3
.L2073:
	sfence
	movq	8(%rsp), %rbp
.L2069:
	testq	%rbp, %rbp
	je	.L2084
	movq	_ZL28__gthrw___pthread_key_createPjPFvPvE@GOTPCREL(%rip), %rbx
	testq	%rbx, %rbx
	jne	.L2135
	movl	8(%rbp), %eax
	leal	-1(%rax), %edx
	movl	%edx, 8(%rbp)
.L2086:
	cmpl	$1, %eax
	je	.L2136
.L2084:
	movq	48(%rsp), %rax
	testq	%rax, %rax
	je	.L2090
	movq	32(%rax), %rbp
	testq	%rbp, %rbp
	je	.L2092
	movq	_ZL28__gthrw___pthread_key_createPjPFvPvE@GOTPCREL(%rip), %rbx
	testq	%rbx, %rbx
	jne	.L2137
	movl	8(%rbp), %eax
	leal	-1(%rax), %edx
	movl	%edx, 8(%rbp)
.L2094:
	cmpl	$1, %eax
	je	.L2138
.L2092:
	movq	$0, 48(%rsp)
.L2090:
	movq	40(%rsp), %rbp
	testq	%rbp, %rbp
	je	.L2066
	data16	leaq	_ZN4asio6detail15keyword_tss_ptrINS0_10call_stackINS0_15task_io_serviceENS0_27task_io_service_thread_infoEE7contextEE6value_E@tlsgd(%rip), %rdi
	.value	0x6666
	rex64
	call	__tls_get_addr@PLT
	movq	(%rax), %rax
	testq	%rax, %rax
	je	.L2099
	movq	8(%rax), %rax
	testq	%rax, %rax
	je	.L2099
	cmpq	$0, (%rax)
	je	.L2139
.L2099:
	movq	%rbp, %rdi
	call	_ZdlPv@PLT
.L2066:
	movq	56(%rsp), %rax
	subq	%fs:40, %rax
	jne	.L2140
	addq	$64, %rsp
	.cfi_remember_state
	.cfi_def_cfa_offset 32
	popq	%rbx
	.cfi_def_cfa_offset 24
	popq	%rbp
	.cfi_def_cfa_offset 16
	popq	%r12
	.cfi_def_cfa_offset 8
	ret
	.p2align 4,,10
	.p2align 3
.L2136:
	.cfi_restore_state
	movq	0(%rbp), %rax
	movq	%rbp, %rdi
	call	*16(%rax)
	testq	%rbx, %rbx
	jne	.L2141
	movl	12(%rbp), %eax
	leal	-1(%rax), %edx
	movl	%edx, 12(%rbp)
.L2089:
	cmpl	$1, %eax
	jne	.L2084
	movq	0(%rbp), %rax
	movq	%rbp, %rdi
	call	*24(%rax)
	jmp	.L2084
	.p2align 4,,10
	.p2align 3
.L2135:
	movl	$-1, %eax
	lock xaddl	%eax, 8(%rbp)
	jmp	.L2086
	.p2align 4,,10
	.p2align 3
.L2138:
	movq	0(%rbp), %rax
	movq	%rbp, %rdi
	call	*16(%rax)
	testq	%rbx, %rbx
	jne	.L2142
	movl	12(%rbp), %eax
	leal	-1(%rax), %edx
	movl	%edx, 12(%rbp)
.L2097:
	cmpl	$1, %eax
	jne	.L2092
	movq	0(%rbp), %rax
	movq	%rbp, %rdi
	call	*24(%rax)
	jmp	.L2092
	.p2align 4,,10
	.p2align 3
.L2132:
	movl	$-1, %eax
	lock xaddl	%eax, 8(%rbp)
	jmp	.L2075
	.p2align 4,,10
	.p2align 3
.L2139:
	movzbl	40(%rbp), %edx
	movb	%dl, 0(%rbp)
	movq	%rbp, (%rax)
	jmp	.L2066
	.p2align 4,,10
	.p2align 3
.L2130:
	movzbl	40(%r12), %edx
	movb	%dl, (%r12)
	movq	%r12, (%rax)
	jmp	.L2068
	.p2align 4,,10
	.p2align 3
.L2137:
	movl	$-1, %eax
	lock xaddl	%eax, 8(%rbp)
	jmp	.L2094
	.p2align 4,,10
	.p2align 3
.L2131:
	lock addl	$1, 8(%rbp)
	jmp	.L2070
	.p2align 4,,10
	.p2align 3
.L2141:
	movl	$-1, %eax
	lock xaddl	%eax, 12(%rbp)
	jmp	.L2089
	.p2align 4,,10
	.p2align 3
.L2134:
	movq	0(%rbp), %rax
	movq	%rbp, %rdi
	call	*24(%rax)
	jmp	.L2073
	.p2align 4,,10
	.p2align 3
.L2142:
	movl	$-1, %eax
	lock xaddl	%eax, 12(%rbp)
	jmp	.L2097
	.p2align 4,,10
	.p2align 3
.L2133:
	movl	$-1, %eax
	lock xaddl	%eax, 12(%rbp)
	jmp	.L2078
.L2140:
	call	__stack_chk_fail@PLT
.L2101:
	movq	%rax, %rbp
.L2079:
	movq	24(%rsp), %rdi
	testq	%rdi, %rdi
	je	.L2080
	call	_ZNSt16_Sp_counted_baseILN9__gnu_cxx12_Lock_policyE2EE10_M_releaseEv@PLT
.L2080:
	sfence
	movq	8(%rsp), %rdi
	testq	%rdi, %rdi
	je	.L2082
	call	_ZNSt16_Sp_counted_baseILN9__gnu_cxx12_Lock_policyE2EE10_M_releaseEv@PLT
.L2082:
	leaq	32(%rsp), %rdi
	call	_ZN4asio6detail18completion_handlerIZN7asiopal13IAsyncChannel16CheckForShutdownESt10shared_ptrIS3_EEUlvE_E3ptr5resetEv@PLT
	movq	%rbp, %rdi
.LEHB69:
	call	_Unwind_Resume@PLT
.LEHE69:
	.cfi_endproc
.LFE10245:
	.section	.gcc_except_table
.LLSDA10245:
	.byte	0xff
	.byte	0xff
	.byte	0x1
	.uleb128 .LLSDACSE10245-.LLSDACSB10245
.LLSDACSB10245:
	.uleb128 .LEHB68-.LFB10245
	.uleb128 .LEHE68-.LEHB68
	.uleb128 .L2101-.LFB10245
	.uleb128 0
	.uleb128 .LEHB69-.LFB10245
	.uleb128 .LEHE69-.LEHB69
	.uleb128 0
	.uleb128 0
.LLSDACSE10245:
	.section	.text._ZN4asio6detail18completion_handlerIZN7asiopal13IAsyncChannel16CheckForShutdownESt10shared_ptrIS3_EEUlvE_E11do_completeEPNS0_15task_io_serviceEPNS0_25task_io_service_operationERKSt10error_codem,"axG",@progbits,_ZN4asio6detail18completion_handlerIZN7asiopal13IAsyncChannel16CheckForShutdownESt10shared_ptrIS3_EEUlvE_E11do_completeEPNS0_15task_io_serviceEPNS0_25task_io_service_operationERKSt10error_codem,comdat
