	.file	"SocketChannel.cpp"
	.text
	.section	.rodata._ZNK4asio6detail15system_category4nameEv.str1.1,"aMS",@progbits,1
.LC0:
	.string	"asio.system"
	.section	.text._ZNK4asio6detail15system_category4nameEv,"axG",@progbits,_ZNK4asio6detail15system_category4nameEv,comdat
	.align 2
	.p2align 4
	.weak	_ZNK4asio6detail15system_category4nameEv
	.type	_ZNK4asio6detail15system_category4nameEv, @function
_ZNK4asio6detail15system_category4nameEv:
.LFB2380:
	.cfi_startproc
	leaq	.LC0(%rip), %rax
	ret
	.cfi_endproc
.LFE2380:
	.size	_ZNK4asio6detail15system_category4nameEv, .-_ZNK4asio6detail15system_category4nameEv
	.section	.rodata._ZNK4asio5error6detail14netdb_category4nameEv.str1.1,"aMS",@progbits,1
.LC1:
	.string	"asio.netdb"
	.section	.text._ZNK4asio5error6detail14netdb_category4nameEv,"axG",@progbits,_ZNK4asio5error6detail14netdb_category4nameEv,comdat
	.align 2
	.p2align 4
	.weak	_ZNK4asio5error6detail14netdb_category4nameEv
	.type	_ZNK4asio5error6detail14netdb_category4nameEv, @function
_ZNK4asio5error6detail14netdb_category4nameEv:
.LFB2420:
	.cfi_startproc
	leaq	.LC1(%rip), %rax
	ret
	.cfi_endproc
.LFE2420:
	.size	_ZNK4asio5error6detail14netdb_category4nameEv, .-_ZNK4asio5error6detail14netdb_category4nameEv
	.section	.rodata._ZNK4asio5error6detail17addrinfo_category4nameEv.str1.1,"aMS",@progbits,1
.LC2:
	.string	"asio.addrinfo"
	.section	.text._ZNK4asio5error6detail17addrinfo_category4nameEv,"axG",@progbits,_ZNK4asio5error6detail17addrinfo_category4nameEv,comdat
	.align 2
	.p2align 4
	.weak	_ZNK4asio5error6detail17addrinfo_category4nameEv
	.type	_ZNK4asio5error6detail17addrinfo_category4nameEv, @function
_ZNK4asio5error6detail17addrinfo_category4nameEv:
.LFB2426:
	.cfi_startproc
	leaq	.LC2(%rip), %rax
	ret
	.cfi_endproc
.LFE2426:
	.size	_ZNK4asio5error6detail17addrinfo_category4nameEv, .-_ZNK4asio5error6detail17addrinfo_category4nameEv
	.section	.rodata._ZNK4asio5error6detail13misc_category4nameEv.str1.1,"aMS",@progbits,1
.LC3:
	.string	"asio.misc"
	.section	.text._ZNK4asio5error6detail13misc_category4nameEv,"axG",@progbits,_ZNK4asio5error6detail13misc_category4nameEv,comdat
	.align 2
	.p2align 4
	.weak	_ZNK4asio5error6detail13misc_category4nameEv
	.type	_ZNK4asio5error6detail13misc_category4nameEv, @function
_ZNK4asio5error6detail13misc_category4nameEv:
.LFB2432:
	.cfi_startproc
	leaq	.LC3(%rip), %rax
	ret
	.cfi_endproc
.LFE2432:
	.size	_ZNK4asio5error6detail13misc_category4nameEv, .-_ZNK4asio5error6detail13misc_category4nameEv
	.section	.text._ZN4asio6detail7tss_ptrINS0_10call_stackINS0_15task_io_serviceENS0_27task_io_service_thread_infoEE7contextEED2Ev,"axG",@progbits,_ZN4asio6detail7tss_ptrINS0_10call_stackINS0_15task_io_serviceENS0_27task_io_service_thread_infoEE7contextEED5Ev,comdat
	.align 2
	.p2align 4
	.weak	_ZN4asio6detail7tss_ptrINS0_10call_stackINS0_15task_io_serviceENS0_27task_io_service_thread_infoEE7contextEED2Ev
	.type	_ZN4asio6detail7tss_ptrINS0_10call_stackINS0_15task_io_serviceENS0_27task_io_service_thread_infoEE7contextEED2Ev, @function
_ZN4asio6detail7tss_ptrINS0_10call_stackINS0_15task_io_serviceENS0_27task_io_service_thread_infoEE7contextEED2Ev:
.LFB9517:
	.cfi_startproc
	ret
	.cfi_endproc
.LFE9517:
	.size	_ZN4asio6detail7tss_ptrINS0_10call_stackINS0_15task_io_serviceENS0_27task_io_service_thread_infoEE7contextEED2Ev, .-_ZN4asio6detail7tss_ptrINS0_10call_stackINS0_15task_io_serviceENS0_27task_io_service_thread_infoEE7contextEED2Ev
	.weak	_ZN4asio6detail7tss_ptrINS0_10call_stackINS0_15task_io_serviceENS0_27task_io_service_thread_infoEE7contextEED1Ev
	.set	_ZN4asio6detail7tss_ptrINS0_10call_stackINS0_15task_io_serviceENS0_27task_io_service_thread_infoEE7contextEED1Ev,_ZN4asio6detail7tss_ptrINS0_10call_stackINS0_15task_io_serviceENS0_27task_io_service_thread_infoEE7contextEED2Ev
	.section	.text._ZN4asio6detail10service_idINS0_13epoll_reactorEED2Ev,"axG",@progbits,_ZN4asio6detail10service_idINS0_13epoll_reactorEED5Ev,comdat
	.align 2
	.p2align 4
	.weak	_ZN4asio6detail10service_idINS0_13epoll_reactorEED2Ev
	.type	_ZN4asio6detail10service_idINS0_13epoll_reactorEED2Ev, @function
_ZN4asio6detail10service_idINS0_13epoll_reactorEED2Ev:
.LFB9520:
	.cfi_startproc
	ret
	.cfi_endproc
.LFE9520:
	.size	_ZN4asio6detail10service_idINS0_13epoll_reactorEED2Ev, .-_ZN4asio6detail10service_idINS0_13epoll_reactorEED2Ev
	.weak	_ZN4asio6detail10service_idINS0_13epoll_reactorEED1Ev
	.set	_ZN4asio6detail10service_idINS0_13epoll_reactorEED1Ev,_ZN4asio6detail10service_idINS0_13epoll_reactorEED2Ev
	.section	.text._ZN4asio6detail10service_idINS0_15task_io_serviceEED2Ev,"axG",@progbits,_ZN4asio6detail10service_idINS0_15task_io_serviceEED5Ev,comdat
	.align 2
	.p2align 4
	.weak	_ZN4asio6detail10service_idINS0_15task_io_serviceEED2Ev
	.type	_ZN4asio6detail10service_idINS0_15task_io_serviceEED2Ev, @function
_ZN4asio6detail10service_idINS0_15task_io_serviceEED2Ev:
.LFB9523:
	.cfi_startproc
	ret
	.cfi_endproc
.LFE9523:
	.size	_ZN4asio6detail10service_idINS0_15task_io_serviceEED2Ev, .-_ZN4asio6detail10service_idINS0_15task_io_serviceEED2Ev
	.weak	_ZN4asio6detail10service_idINS0_15task_io_serviceEED1Ev
	.set	_ZN4asio6detail10service_idINS0_15task_io_serviceEED1Ev,_ZN4asio6detail10service_idINS0_15task_io_serviceEED2Ev
	.section	.text._ZN4asio6detail7tss_ptrINS0_10call_stackINS0_14strand_service11strand_implEhE7contextEED2Ev,"axG",@progbits,_ZN4asio6detail7tss_ptrINS0_10call_stackINS0_14strand_service11strand_implEhE7contextEED5Ev,comdat
	.align 2
	.p2align 4
	.weak	_ZN4asio6detail7tss_ptrINS0_10call_stackINS0_14strand_service11strand_implEhE7contextEED2Ev
	.type	_ZN4asio6detail7tss_ptrINS0_10call_stackINS0_14strand_service11strand_implEhE7contextEED2Ev, @function
_ZN4asio6detail7tss_ptrINS0_10call_stackINS0_14strand_service11strand_implEhE7contextEED2Ev:
.LFB9526:
	.cfi_startproc
	ret
	.cfi_endproc
.LFE9526:
	.size	_ZN4asio6detail7tss_ptrINS0_10call_stackINS0_14strand_service11strand_implEhE7contextEED2Ev, .-_ZN4asio6detail7tss_ptrINS0_10call_stackINS0_14strand_service11strand_implEhE7contextEED2Ev
	.weak	_ZN4asio6detail7tss_ptrINS0_10call_stackINS0_14strand_service11strand_implEhE7contextEED1Ev
	.set	_ZN4asio6detail7tss_ptrINS0_10call_stackINS0_14strand_service11strand_implEhE7contextEED1Ev,_ZN4asio6detail7tss_ptrINS0_10call_stackINS0_14strand_service11strand_implEhE7contextEED2Ev
	.section	.text._ZN4asio6detail10service_idINS0_14strand_serviceEED2Ev,"axG",@progbits,_ZN4asio6detail10service_idINS0_14strand_serviceEED5Ev,comdat
	.align 2
	.p2align 4
	.weak	_ZN4asio6detail10service_idINS0_14strand_serviceEED2Ev
	.type	_ZN4asio6detail10service_idINS0_14strand_serviceEED2Ev, @function
_ZN4asio6detail10service_idINS0_14strand_serviceEED2Ev:
.LFB9529:
	.cfi_startproc
	ret
	.cfi_endproc
.LFE9529:
	.size	_ZN4asio6detail10service_idINS0_14strand_serviceEED2Ev, .-_ZN4asio6detail10service_idINS0_14strand_serviceEED2Ev
	.weak	_ZN4asio6detail10service_idINS0_14strand_serviceEED1Ev
	.set	_ZN4asio6detail10service_idINS0_14strand_serviceEED1Ev,_ZN4asio6detail10service_idINS0_14strand_serviceEED2Ev
	.section	.text._ZN4asio6detail15system_categoryD2Ev,"axG",@progbits,_ZN4asio6detail15system_categoryD5Ev,comdat
	.align 2
	.p2align 4
	.weak	_ZN4asio6detail15system_categoryD2Ev
	.type	_ZN4asio6detail15system_categoryD2Ev, @function
_ZN4asio6detail15system_categoryD2Ev:
.LFB9496:
	.cfi_startproc
	movq	_ZTVN4asio6detail15system_categoryE@GOTPCREL(%rip), %rax
	addq	$16, %rax
	movq	%rax, (%rdi)
	jmp	_ZNSt3_V214error_categoryD2Ev@PLT
	.cfi_endproc
.LFE9496:
	.size	_ZN4asio6detail15system_categoryD2Ev, .-_ZN4asio6detail15system_categoryD2Ev
	.weak	_ZN4asio6detail15system_categoryD1Ev
	.set	_ZN4asio6detail15system_categoryD1Ev,_ZN4asio6detail15system_categoryD2Ev
	.section	.text._ZN4asio6detail15system_categoryD0Ev,"axG",@progbits,_ZN4asio6detail15system_categoryD5Ev,comdat
	.align 2
	.p2align 4
	.weak	_ZN4asio6detail15system_categoryD0Ev
	.type	_ZN4asio6detail15system_categoryD0Ev, @function
_ZN4asio6detail15system_categoryD0Ev:
.LFB9498:
	.cfi_startproc
	movq	_ZTVN4asio6detail15system_categoryE@GOTPCREL(%rip), %rax
	pushq	%rbp
	.cfi_def_cfa_offset 16
	.cfi_offset 6, -16
	movq	%rdi, %rbp
	addq	$16, %rax
	movq	%rax, (%rdi)
	call	_ZNSt3_V214error_categoryD2Ev@PLT
	movq	%rbp, %rdi
	movl	$8, %esi
	popq	%rbp
	.cfi_def_cfa_offset 8
	jmp	_ZdlPvm@PLT
	.cfi_endproc
.LFE9498:
	.size	_ZN4asio6detail15system_categoryD0Ev, .-_ZN4asio6detail15system_categoryD0Ev
	.section	.text._ZN4asio5error6detail13misc_categoryD2Ev,"axG",@progbits,_ZN4asio5error6detail13misc_categoryD5Ev,comdat
	.align 2
	.p2align 4
	.weak	_ZN4asio5error6detail13misc_categoryD2Ev
	.type	_ZN4asio5error6detail13misc_categoryD2Ev, @function
_ZN4asio5error6detail13misc_categoryD2Ev:
.LFB9476:
	.cfi_startproc
	movq	_ZTVN4asio5error6detail13misc_categoryE@GOTPCREL(%rip), %rax
	addq	$16, %rax
	movq	%rax, (%rdi)
	jmp	_ZNSt3_V214error_categoryD2Ev@PLT
	.cfi_endproc
.LFE9476:
	.size	_ZN4asio5error6detail13misc_categoryD2Ev, .-_ZN4asio5error6detail13misc_categoryD2Ev
	.weak	_ZN4asio5error6detail13misc_categoryD1Ev
	.set	_ZN4asio5error6detail13misc_categoryD1Ev,_ZN4asio5error6detail13misc_categoryD2Ev
	.section	.text._ZN4asio5error6detail13misc_categoryD0Ev,"axG",@progbits,_ZN4asio5error6detail13misc_categoryD5Ev,comdat
	.align 2
	.p2align 4
	.weak	_ZN4asio5error6detail13misc_categoryD0Ev
	.type	_ZN4asio5error6detail13misc_categoryD0Ev, @function
_ZN4asio5error6detail13misc_categoryD0Ev:
.LFB9478:
	.cfi_startproc
	movq	_ZTVN4asio5error6detail13misc_categoryE@GOTPCREL(%rip), %rax
	pushq	%rbp
	.cfi_def_cfa_offset 16
	.cfi_offset 6, -16
	movq	%rdi, %rbp
	addq	$16, %rax
	movq	%rax, (%rdi)
	call	_ZNSt3_V214error_categoryD2Ev@PLT
	movq	%rbp, %rdi
	movl	$8, %esi
	popq	%rbp
	.cfi_def_cfa_offset 8
	jmp	_ZdlPvm@PLT
	.cfi_endproc
.LFE9478:
	.size	_ZN4asio5error6detail13misc_categoryD0Ev, .-_ZN4asio5error6detail13misc_categoryD0Ev
	.section	.text._ZN4asio5error6detail14netdb_categoryD2Ev,"axG",@progbits,_ZN4asio5error6detail14netdb_categoryD5Ev,comdat
	.align 2
	.p2align 4
	.weak	_ZN4asio5error6detail14netdb_categoryD2Ev
	.type	_ZN4asio5error6detail14netdb_categoryD2Ev, @function
_ZN4asio5error6detail14netdb_categoryD2Ev:
.LFB9484:
	.cfi_startproc
	movq	_ZTVN4asio5error6detail14netdb_categoryE@GOTPCREL(%rip), %rax
	addq	$16, %rax
	movq	%rax, (%rdi)
	jmp	_ZNSt3_V214error_categoryD2Ev@PLT
	.cfi_endproc
.LFE9484:
	.size	_ZN4asio5error6detail14netdb_categoryD2Ev, .-_ZN4asio5error6detail14netdb_categoryD2Ev
	.weak	_ZN4asio5error6detail14netdb_categoryD1Ev
	.set	_ZN4asio5error6detail14netdb_categoryD1Ev,_ZN4asio5error6detail14netdb_categoryD2Ev
	.section	.text._ZN4asio5error6detail14netdb_categoryD0Ev,"axG",@progbits,_ZN4asio5error6detail14netdb_categoryD5Ev,comdat
	.align 2
	.p2align 4
	.weak	_ZN4asio5error6detail14netdb_categoryD0Ev
	.type	_ZN4asio5error6detail14netdb_categoryD0Ev, @function
_ZN4asio5error6detail14netdb_categoryD0Ev:
.LFB9486:
	.cfi_startproc
	movq	_ZTVN4asio5error6detail14netdb_categoryE@GOTPCREL(%rip), %rax
	pushq	%rbp
	.cfi_def_cfa_offset 16
	.cfi_offset 6, -16
	movq	%rdi, %rbp
	addq	$16, %rax
	movq	%rax, (%rdi)
	call	_ZNSt3_V214error_categoryD2Ev@PLT
	movq	%rbp, %rdi
	movl	$8, %esi
	popq	%rbp
	.cfi_def_cfa_offset 8
	jmp	_ZdlPvm@PLT
	.cfi_endproc
.LFE9486:
	.size	_ZN4asio5error6detail14netdb_categoryD0Ev, .-_ZN4asio5error6detail14netdb_categoryD0Ev
	.section	.text._ZN4asio5error6detail17addrinfo_categoryD2Ev,"axG",@progbits,_ZN4asio5error6detail17addrinfo_categoryD5Ev,comdat
	.align 2
	.p2align 4
	.weak	_ZN4asio5error6detail17addrinfo_categoryD2Ev
	.type	_ZN4asio5error6detail17addrinfo_categoryD2Ev, @function
_ZN4asio5error6detail17addrinfo_categoryD2Ev:
.LFB9480:
	.cfi_startproc
	movq	_ZTVN4asio5error6detail17addrinfo_categoryE@GOTPCREL(%rip), %rax
	addq	$16, %rax
	movq	%rax, (%rdi)
	jmp	_ZNSt3_V214error_categoryD2Ev@PLT
	.cfi_endproc
.LFE9480:
	.size	_ZN4asio5error6detail17addrinfo_categoryD2Ev, .-_ZN4asio5error6detail17addrinfo_categoryD2Ev
	.weak	_ZN4asio5error6detail17addrinfo_categoryD1Ev
	.set	_ZN4asio5error6detail17addrinfo_categoryD1Ev,_ZN4asio5error6detail17addrinfo_categoryD2Ev
	.section	.text._ZN4asio5error6detail17addrinfo_categoryD0Ev,"axG",@progbits,_ZN4asio5error6detail17addrinfo_categoryD5Ev,comdat
	.align 2
	.p2align 4
	.weak	_ZN4asio5error6detail17addrinfo_categoryD0Ev
	.type	_ZN4asio5error6detail17addrinfo_categoryD0Ev, @function
_ZN4asio5error6detail17addrinfo_categoryD0Ev:
.LFB9482:
	.cfi_startproc
	movq	_ZTVN4asio5error6detail17addrinfo_categoryE@GOTPCREL(%rip), %rax
	pushq	%rbp
	.cfi_def_cfa_offset 16
	.cfi_offset 6, -16
	movq	%rdi, %rbp
	addq	$16, %rax
	movq	%rax, (%rdi)
	call	_ZNSt3_V214error_categoryD2Ev@PLT
	movq	%rbp, %rdi
	movl	$8, %esi
	popq	%rbp
	.cfi_def_cfa_offset 8
	jmp	_ZdlPvm@PLT
	.cfi_endproc
.LFE9482:
	.size	_ZN4asio5error6detail17addrinfo_categoryD0Ev, .-_ZN4asio5error6detail17addrinfo_categoryD0Ev
	.section	.text.unlikely,"ax",@progbits
	.align 2
	.type	_ZN4asio6detail18completion_handlerINS0_17rewrapped_handlerINS0_7binder2INS0_15wrapped_handlerINS_10io_service6strandEZN7asiopal13SocketChannel13BeginReadImplEN7openpal6WSliceEEUlRKSt10error_codemE_NS0_26is_continuation_if_runningEEESB_mEESE_EEE3ptr5resetEv, @function
_ZN4asio6detail18completion_handlerINS0_17rewrapped_handlerINS0_7binder2INS0_15wrapped_handlerINS_10io_service6strandEZN7asiopal13SocketChannel13BeginReadImplEN7openpal6WSliceEEUlRKSt10error_codemE_NS0_26is_continuation_if_runningEEESB_mEESE_EEE3ptr5resetEv:
.LFB9344:
	.cfi_startproc
	pushq	%rbp
	.cfi_def_cfa_offset 16
	.cfi_offset 6, -16
	pushq	%rbx
	.cfi_def_cfa_offset 24
	.cfi_offset 3, -24
	movq	%rdi, %rbx
	pushq	%rdx
	.cfi_def_cfa_offset 32
	cmpq	$0, 16(%rdi)
	je	.L24
	movq	$0, 16(%rdi)
.L24:
	movq	8(%rbx), %rbp
	testq	%rbp, %rbp
	je	.L23
	data16	leaq	_ZN4asio6detail15keyword_tss_ptrINS0_10call_stackINS0_15task_io_serviceENS0_27task_io_service_thread_infoEE7contextEE6value_E@tlsgd(%rip), %rdi
	.value	0x6666
	rex64
	call	__tls_get_addr@PLT
	movq	(%rax), %rax
	testq	%rax, %rax
	je	.L26
	movq	8(%rax), %rax
	testq	%rax, %rax
	je	.L26
	cmpq	$0, (%rax)
	jne	.L26
	movb	80(%rbp), %dl
	movb	%dl, 0(%rbp)
	movq	%rbp, (%rax)
	jmp	.L27
.L26:
	movq	%rbp, %rdi
	call	_ZdlPv@PLT
.L27:
	movq	$0, 8(%rbx)
.L23:
	popq	%rax
	.cfi_def_cfa_offset 24
	popq	%rbx
	.cfi_def_cfa_offset 16
	popq	%rbp
	.cfi_def_cfa_offset 8
	ret
	.cfi_endproc
.LFE9344:
	.size	_ZN4asio6detail18completion_handlerINS0_17rewrapped_handlerINS0_7binder2INS0_15wrapped_handlerINS_10io_service6strandEZN7asiopal13SocketChannel13BeginReadImplEN7openpal6WSliceEEUlRKSt10error_codemE_NS0_26is_continuation_if_runningEEESB_mEESE_EEE3ptr5resetEv, .-_ZN4asio6detail18completion_handlerINS0_17rewrapped_handlerINS0_7binder2INS0_15wrapped_handlerINS_10io_service6strandEZN7asiopal13SocketChannel13BeginReadImplEN7openpal6WSliceEEUlRKSt10error_codemE_NS0_26is_continuation_if_runningEEESB_mEESE_EEE3ptr5resetEv
	.align 2
	.type	_ZN4asio6detail23reactive_socket_recv_opINS_17mutable_buffers_1ENS0_15wrapped_handlerINS_10io_service6strandEZN7asiopal13SocketChannel13BeginReadImplEN7openpal6WSliceEEUlRKSt10error_codemE_NS0_26is_continuation_if_runningEEEE3ptr5resetEv, @function
_ZN4asio6detail23reactive_socket_recv_opINS_17mutable_buffers_1ENS0_15wrapped_handlerINS_10io_service6strandEZN7asiopal13SocketChannel13BeginReadImplEN7openpal6WSliceEEUlRKSt10error_codemE_NS0_26is_continuation_if_runningEEEE3ptr5resetEv:
.LFB8844:
	.cfi_startproc
	pushq	%rbp
	.cfi_def_cfa_offset 16
	.cfi_offset 6, -16
	pushq	%rbx
	.cfi_def_cfa_offset 24
	.cfi_offset 3, -24
	movq	%rdi, %rbx
	pushq	%rdx
	.cfi_def_cfa_offset 32
	cmpq	$0, 16(%rdi)
	je	.L39
	movq	$0, 16(%rdi)
.L39:
	movq	8(%rbx), %rbp
	testq	%rbp, %rbp
	je	.L38
	data16	leaq	_ZN4asio6detail15keyword_tss_ptrINS0_10call_stackINS0_15task_io_serviceENS0_27task_io_service_thread_infoEE7contextEE6value_E@tlsgd(%rip), %rdi
	.value	0x6666
	rex64
	call	__tls_get_addr@PLT
	movq	(%rax), %rax
	testq	%rax, %rax
	je	.L41
	movq	8(%rax), %rax
	testq	%rax, %rax
	je	.L41
	cmpq	$0, (%rax)
	jne	.L41
	movb	112(%rbp), %dl
	movb	%dl, 0(%rbp)
	movq	%rbp, (%rax)
	jmp	.L42
.L41:
	movq	%rbp, %rdi
	call	_ZdlPv@PLT
.L42:
	movq	$0, 8(%rbx)
.L38:
	popq	%rax
	.cfi_def_cfa_offset 24
	popq	%rbx
	.cfi_def_cfa_offset 16
	popq	%rbp
	.cfi_def_cfa_offset 8
	ret
	.cfi_endproc
.LFE8844:
	.size	_ZN4asio6detail23reactive_socket_recv_opINS_17mutable_buffers_1ENS0_15wrapped_handlerINS_10io_service6strandEZN7asiopal13SocketChannel13BeginReadImplEN7openpal6WSliceEEUlRKSt10error_codemE_NS0_26is_continuation_if_runningEEEE3ptr5resetEv, .-_ZN4asio6detail23reactive_socket_recv_opINS_17mutable_buffers_1ENS0_15wrapped_handlerINS_10io_service6strandEZN7asiopal13SocketChannel13BeginReadImplEN7openpal6WSliceEEUlRKSt10error_codemE_NS0_26is_continuation_if_runningEEEE3ptr5resetEv
	.align 2
	.type	_ZN4asio6detail18completion_handlerINS0_7binder2IZN7asiopal13SocketChannel13BeginReadImplEN7openpal6WSliceEEUlRKSt10error_codemE_S7_mEEE3ptr5resetEv, @function
_ZN4asio6detail18completion_handlerINS0_7binder2IZN7asiopal13SocketChannel13BeginReadImplEN7openpal6WSliceEEUlRKSt10error_codemE_S7_mEEE3ptr5resetEv:
.LFB9430:
	.cfi_startproc
	pushq	%rbp
	.cfi_def_cfa_offset 16
	.cfi_offset 6, -16
	pushq	%rbx
	.cfi_def_cfa_offset 24
	.cfi_offset 3, -24
	movq	%rdi, %rbx
	pushq	%rdx
	.cfi_def_cfa_offset 32
	cmpq	$0, 16(%rdi)
	je	.L54
	movq	$0, 16(%rdi)
.L54:
	movq	8(%rbx), %rbp
	testq	%rbp, %rbp
	je	.L53
	data16	leaq	_ZN4asio6detail15keyword_tss_ptrINS0_10call_stackINS0_15task_io_serviceENS0_27task_io_service_thread_infoEE7contextEE6value_E@tlsgd(%rip), %rdi
	.value	0x6666
	rex64
	call	__tls_get_addr@PLT
	movq	(%rax), %rax
	testq	%rax, %rax
	je	.L56
	movq	8(%rax), %rax
	testq	%rax, %rax
	je	.L56
	cmpq	$0, (%rax)
	jne	.L56
	movb	56(%rbp), %dl
	movb	%dl, 0(%rbp)
	movq	%rbp, (%rax)
	jmp	.L57
.L56:
	movq	%rbp, %rdi
	call	_ZdlPv@PLT
.L57:
	movq	$0, 8(%rbx)
.L53:
	popq	%rax
	.cfi_def_cfa_offset 24
	popq	%rbx
	.cfi_def_cfa_offset 16
	popq	%rbp
	.cfi_def_cfa_offset 8
	ret
	.cfi_endproc
.LFE9430:
	.size	_ZN4asio6detail18completion_handlerINS0_7binder2IZN7asiopal13SocketChannel13BeginReadImplEN7openpal6WSliceEEUlRKSt10error_codemE_S7_mEEE3ptr5resetEv, .-_ZN4asio6detail18completion_handlerINS0_7binder2IZN7asiopal13SocketChannel13BeginReadImplEN7openpal6WSliceEEUlRKSt10error_codemE_S7_mEEE3ptr5resetEv
	.align 2
	.type	_ZN4asio6detail18completion_handlerINS0_17rewrapped_handlerINS0_7binder2INS0_8write_opINS_19basic_stream_socketINS_2ip3tcpENS_21stream_socket_serviceIS7_EEEENS_15const_buffers_1ENS0_14transfer_all_tENS0_15wrapped_handlerINS_10io_service6strandEZN7asiopal13SocketChannel14BeginWriteImplERKN7openpal6RSliceEEUlRKSt10error_codemE_NS0_26is_continuation_if_runningEEEEESM_mEESP_EEE3ptr5resetEv, @function
_ZN4asio6detail18completion_handlerINS0_17rewrapped_handlerINS0_7binder2INS0_8write_opINS_19basic_stream_socketINS_2ip3tcpENS_21stream_socket_serviceIS7_EEEENS_15const_buffers_1ENS0_14transfer_all_tENS0_15wrapped_handlerINS_10io_service6strandEZN7asiopal13SocketChannel14BeginWriteImplERKN7openpal6RSliceEEUlRKSt10error_codemE_NS0_26is_continuation_if_runningEEEEESM_mEESP_EEE3ptr5resetEv:
.LFB9393:
	.cfi_startproc
	pushq	%rbp
	.cfi_def_cfa_offset 16
	.cfi_offset 6, -16
	pushq	%rbx
	.cfi_def_cfa_offset 24
	.cfi_offset 3, -24
	movq	%rdi, %rbx
	pushq	%rdx
	.cfi_def_cfa_offset 32
	cmpq	$0, 16(%rdi)
	je	.L69
	movq	$0, 16(%rdi)
.L69:
	movq	8(%rbx), %rbp
	testq	%rbp, %rbp
	je	.L68
	data16	leaq	_ZN4asio6detail15keyword_tss_ptrINS0_10call_stackINS0_15task_io_serviceENS0_27task_io_service_thread_infoEE7contextEE6value_E@tlsgd(%rip), %rdi
	.value	0x6666
	rex64
	call	__tls_get_addr@PLT
	movq	(%rax), %rax
	testq	%rax, %rax
	je	.L71
	movq	8(%rax), %rax
	testq	%rax, %rax
	je	.L71
	cmpq	$0, (%rax)
	jne	.L71
	movb	120(%rbp), %dl
	movb	%dl, 0(%rbp)
	movq	%rbp, (%rax)
	jmp	.L72
.L71:
	movq	%rbp, %rdi
	call	_ZdlPv@PLT
.L72:
	movq	$0, 8(%rbx)
.L68:
	popq	%rax
	.cfi_def_cfa_offset 24
	popq	%rbx
	.cfi_def_cfa_offset 16
	popq	%rbp
	.cfi_def_cfa_offset 8
	ret
	.cfi_endproc
.LFE9393:
	.size	_ZN4asio6detail18completion_handlerINS0_17rewrapped_handlerINS0_7binder2INS0_8write_opINS_19basic_stream_socketINS_2ip3tcpENS_21stream_socket_serviceIS7_EEEENS_15const_buffers_1ENS0_14transfer_all_tENS0_15wrapped_handlerINS_10io_service6strandEZN7asiopal13SocketChannel14BeginWriteImplERKN7openpal6RSliceEEUlRKSt10error_codemE_NS0_26is_continuation_if_runningEEEEESM_mEESP_EEE3ptr5resetEv, .-_ZN4asio6detail18completion_handlerINS0_17rewrapped_handlerINS0_7binder2INS0_8write_opINS_19basic_stream_socketINS_2ip3tcpENS_21stream_socket_serviceIS7_EEEENS_15const_buffers_1ENS0_14transfer_all_tENS0_15wrapped_handlerINS_10io_service6strandEZN7asiopal13SocketChannel14BeginWriteImplERKN7openpal6RSliceEEUlRKSt10error_codemE_NS0_26is_continuation_if_runningEEEEESM_mEESP_EEE3ptr5resetEv
	.align 2
	.type	_ZN4asio6detail18completion_handlerINS0_7binder2IZN7asiopal13SocketChannel14BeginWriteImplERKN7openpal6RSliceEEUlRKSt10error_codemE_S9_mEEE3ptr5resetEv, @function
_ZN4asio6detail18completion_handlerINS0_7binder2IZN7asiopal13SocketChannel14BeginWriteImplERKN7openpal6RSliceEEUlRKSt10error_codemE_S9_mEEE3ptr5resetEv:
.LFB9216:
	.cfi_startproc
	pushq	%rbp
	.cfi_def_cfa_offset 16
	.cfi_offset 6, -16
	pushq	%rbx
	.cfi_def_cfa_offset 24
	.cfi_offset 3, -24
	movq	%rdi, %rbx
	pushq	%rdx
	.cfi_def_cfa_offset 32
	cmpq	$0, 16(%rdi)
	je	.L84
	movq	$0, 16(%rdi)
.L84:
	movq	8(%rbx), %rbp
	testq	%rbp, %rbp
	je	.L83
	data16	leaq	_ZN4asio6detail15keyword_tss_ptrINS0_10call_stackINS0_15task_io_serviceENS0_27task_io_service_thread_infoEE7contextEE6value_E@tlsgd(%rip), %rdi
	.value	0x6666
	rex64
	call	__tls_get_addr@PLT
	movq	(%rax), %rax
	testq	%rax, %rax
	je	.L86
	movq	8(%rax), %rax
	testq	%rax, %rax
	je	.L86
	cmpq	$0, (%rax)
	jne	.L86
	movb	56(%rbp), %dl
	movb	%dl, 0(%rbp)
	movq	%rbp, (%rax)
	jmp	.L87
.L86:
	movq	%rbp, %rdi
	call	_ZdlPv@PLT
.L87:
	movq	$0, 8(%rbx)
.L83:
	popq	%rax
	.cfi_def_cfa_offset 24
	popq	%rbx
	.cfi_def_cfa_offset 16
	popq	%rbp
	.cfi_def_cfa_offset 8
	ret
	.cfi_endproc
.LFE9216:
	.size	_ZN4asio6detail18completion_handlerINS0_7binder2IZN7asiopal13SocketChannel14BeginWriteImplERKN7openpal6RSliceEEUlRKSt10error_codemE_S9_mEEE3ptr5resetEv, .-_ZN4asio6detail18completion_handlerINS0_7binder2IZN7asiopal13SocketChannel14BeginWriteImplERKN7openpal6RSliceEEUlRKSt10error_codemE_S9_mEEE3ptr5resetEv
	.align 2
	.type	_ZN4asio6detail23reactive_socket_send_opINS_15const_buffers_1ENS0_8write_opINS_19basic_stream_socketINS_2ip3tcpENS_21stream_socket_serviceIS6_EEEES2_NS0_14transfer_all_tENS0_15wrapped_handlerINS_10io_service6strandEZN7asiopal13SocketChannel14BeginWriteImplERKN7openpal6RSliceEEUlRKSt10error_codemE_NS0_26is_continuation_if_runningEEEEEE3ptr5resetEv, @function
_ZN4asio6detail23reactive_socket_send_opINS_15const_buffers_1ENS0_8write_opINS_19basic_stream_socketINS_2ip3tcpENS_21stream_socket_serviceIS6_EEEES2_NS0_14transfer_all_tENS0_15wrapped_handlerINS_10io_service6strandEZN7asiopal13SocketChannel14BeginWriteImplERKN7openpal6RSliceEEUlRKSt10error_codemE_NS0_26is_continuation_if_runningEEEEEE3ptr5resetEv:
.LFB9203:
	.cfi_startproc
	pushq	%rbp
	.cfi_def_cfa_offset 16
	.cfi_offset 6, -16
	pushq	%rbx
	.cfi_def_cfa_offset 24
	.cfi_offset 3, -24
	movq	%rdi, %rbx
	pushq	%rdx
	.cfi_def_cfa_offset 32
	cmpq	$0, 16(%rdi)
	je	.L99
	movq	$0, 16(%rdi)
.L99:
	movq	8(%rbx), %rbp
	testq	%rbp, %rbp
	je	.L98
	data16	leaq	_ZN4asio6detail15keyword_tss_ptrINS0_10call_stackINS0_15task_io_serviceENS0_27task_io_service_thread_infoEE7contextEE6value_E@tlsgd(%rip), %rdi
	.value	0x6666
	rex64
	call	__tls_get_addr@PLT
	movq	(%rax), %rax
	testq	%rax, %rax
	je	.L101
	movq	8(%rax), %rax
	testq	%rax, %rax
	je	.L101
	cmpq	$0, (%rax)
	jne	.L101
	movb	152(%rbp), %dl
	movb	%dl, 0(%rbp)
	movq	%rbp, (%rax)
	jmp	.L102
.L101:
	movq	%rbp, %rdi
	call	_ZdlPv@PLT
.L102:
	movq	$0, 8(%rbx)
.L98:
	popq	%rax
	.cfi_def_cfa_offset 24
	popq	%rbx
	.cfi_def_cfa_offset 16
	popq	%rbp
	.cfi_def_cfa_offset 8
	ret
	.cfi_endproc
.LFE9203:
	.size	_ZN4asio6detail23reactive_socket_send_opINS_15const_buffers_1ENS0_8write_opINS_19basic_stream_socketINS_2ip3tcpENS_21stream_socket_serviceIS6_EEEES2_NS0_14transfer_all_tENS0_15wrapped_handlerINS_10io_service6strandEZN7asiopal13SocketChannel14BeginWriteImplERKN7openpal6RSliceEEUlRKSt10error_codemE_NS0_26is_continuation_if_runningEEEEEE3ptr5resetEv, .-_ZN4asio6detail23reactive_socket_send_opINS_15const_buffers_1ENS0_8write_opINS_19basic_stream_socketINS_2ip3tcpENS_21stream_socket_serviceIS6_EEEES2_NS0_14transfer_all_tENS0_15wrapped_handlerINS_10io_service6strandEZN7asiopal13SocketChannel14BeginWriteImplERKN7openpal6RSliceEEUlRKSt10error_codemE_NS0_26is_continuation_if_runningEEEEEE3ptr5resetEv
.LCOLDB4:
	.text
.LHOTB4:
	.p2align 4
	.type	_ZN4asio6detail18completion_handlerINS0_7binder2IZN7asiopal13SocketChannel13BeginReadImplEN7openpal6WSliceEEUlRKSt10error_codemE_S7_mEEE11do_completeEPNS0_15task_io_serviceEPNS0_25task_io_service_operationES9_m, @function
_ZN4asio6detail18completion_handlerINS0_7binder2IZN7asiopal13SocketChannel13BeginReadImplEN7openpal6WSliceEEUlRKSt10error_codemE_S7_mEEE11do_completeEPNS0_15task_io_serviceEPNS0_25task_io_service_operationES9_m:
.LFB9426:
	.cfi_startproc
	.cfi_personality 0x9b,DW.ref.__gxx_personality_v0
	.cfi_lsda 0x1b,.LLSDA9426
	pushq	%rbp
	.cfi_def_cfa_offset 16
	.cfi_offset 6, -16
	movq	%rsi, %rbp
	pushq	%rbx
	.cfi_def_cfa_offset 24
	.cfi_offset 3, -24
	movq	%rdi, %rbx
	subq	$88, %rsp
	.cfi_def_cfa_offset 112
	movdqu	24(%rsi), %xmm0
	movdqu	40(%rsi), %xmm1
	movq	%fs:40, %rax
	movq	%rax, 72(%rsp)
	xorl	%eax, %eax
	leaq	32(%rsp), %rax
	movq	%rsi, 8(%rsp)
	movq	%rax, (%rsp)
	movq	$0, 16(%rsp)
	movups	%xmm0, 32(%rsp)
	movups	%xmm1, 48(%rsp)
	data16	leaq	_ZN4asio6detail15keyword_tss_ptrINS0_10call_stackINS0_15task_io_serviceENS0_27task_io_service_thread_infoEE7contextEE6value_E@tlsgd(%rip), %rdi
	.value	0x6666
	rex64
	call	__tls_get_addr@PLT
	movq	(%rax), %rax
	testq	%rax, %rax
	je	.L114
	movq	8(%rax), %rax
	testq	%rax, %rax
	je	.L114
	cmpq	$0, (%rax)
	je	.L145
.L114:
	movq	%rbp, %rdi
	call	_ZdlPv@PLT
.L115:
	movq	$0, 8(%rsp)
	testq	%rbx, %rbx
	je	.L113
	movq	32(%rsp), %rax
	movq	56(%rsp), %rdx
	movq	40(%rax), %rdi
	movb	$0, 57(%rax)
	testq	%rdi, %rdi
	je	.L120
	cmpb	$0, 56(%rax)
	je	.L146
.L120:
	sfence
	cmpq	$0, 16(%rsp)
	je	.L147
.L118:
	movq	$0, 16(%rsp)
	movq	8(%rsp), %rbp
.L121:
	testq	%rbp, %rbp
	je	.L113
	data16	leaq	_ZN4asio6detail15keyword_tss_ptrINS0_10call_stackINS0_15task_io_serviceENS0_27task_io_service_thread_infoEE7contextEE6value_E@tlsgd(%rip), %rdi
	.value	0x6666
	rex64
	call	__tls_get_addr@PLT
	movq	(%rax), %rax
	testq	%rax, %rax
	je	.L124
	movq	8(%rax), %rax
	testq	%rax, %rax
	je	.L124
	cmpq	$0, (%rax)
	je	.L148
.L124:
	movq	%rbp, %rdi
	call	_ZdlPv@PLT
.L113:
	movq	72(%rsp), %rax
	subq	%fs:40, %rax
	jne	.L149
	addq	$88, %rsp
	.cfi_remember_state
	.cfi_def_cfa_offset 24
	popq	%rbx
	.cfi_def_cfa_offset 16
	popq	%rbp
	.cfi_def_cfa_offset 8
	ret
	.p2align 4,,10
	.p2align 3
.L146:
	.cfi_restore_state
	movq	(%rdi), %rax
	leaq	40(%rsp), %rsi
.LEHB0:
	call	*16(%rax)
.LEHE0:
	sfence
	cmpq	$0, 16(%rsp)
	jne	.L118
.L147:
	movq	8(%rsp), %rbp
	jmp	.L121
	.p2align 4,,10
	.p2align 3
.L145:
	movzbl	56(%rbp), %edx
	movb	%dl, 0(%rbp)
	movq	%rbp, (%rax)
	jmp	.L115
	.p2align 4,,10
	.p2align 3
.L148:
	movzbl	56(%rbp), %edx
	movb	%dl, 0(%rbp)
	movq	%rbp, (%rax)
	jmp	.L113
.L149:
	call	__stack_chk_fail@PLT
.L127:
	movq	%rax, %rbp
	jmp	.L125
	.globl	__gxx_personality_v0
	.section	.gcc_except_table,"a",@progbits
.LLSDA9426:
	.byte	0xff
	.byte	0xff
	.byte	0x1
	.uleb128 .LLSDACSE9426-.LLSDACSB9426
.LLSDACSB9426:
	.uleb128 .LEHB0-.LFB9426
	.uleb128 .LEHE0-.LEHB0
	.uleb128 .L127-.LFB9426
	.uleb128 0
.LLSDACSE9426:
	.text
	.cfi_endproc
	.section	.text.unlikely
	.cfi_startproc
	.cfi_personality 0x9b,DW.ref.__gxx_personality_v0
	.cfi_lsda 0x1b,.LLSDAC9426
	.type	_ZN4asio6detail18completion_handlerINS0_7binder2IZN7asiopal13SocketChannel13BeginReadImplEN7openpal6WSliceEEUlRKSt10error_codemE_S7_mEEE11do_completeEPNS0_15task_io_serviceEPNS0_25task_io_service_operationES9_m.cold, @function
_ZN4asio6detail18completion_handlerINS0_7binder2IZN7asiopal13SocketChannel13BeginReadImplEN7openpal6WSliceEEUlRKSt10error_codemE_S7_mEEE11do_completeEPNS0_15task_io_serviceEPNS0_25task_io_service_operationES9_m.cold:
.LFSB9426:
.L125:
	.cfi_def_cfa_offset 112
	.cfi_offset 3, -24
	.cfi_offset 6, -16
	sfence
	movq	%rsp, %rdi
	call	_ZN4asio6detail18completion_handlerINS0_7binder2IZN7asiopal13SocketChannel13BeginReadImplEN7openpal6WSliceEEUlRKSt10error_codemE_S7_mEEE3ptr5resetEv
	movq	%rbp, %rdi
.LEHB1:
	call	_Unwind_Resume@PLT
.LEHE1:
	.cfi_endproc
.LFE9426:
	.section	.gcc_except_table
.LLSDAC9426:
	.byte	0xff
	.byte	0xff
	.byte	0x1
	.uleb128 .LLSDACSEC9426-.LLSDACSBC9426
.LLSDACSBC9426:
	.uleb128 .LEHB1-.LCOLDB4
	.uleb128 .LEHE1-.LEHB1
	.uleb128 0
	.uleb128 0
.LLSDACSEC9426:
	.section	.text.unlikely
	.text
	.size	_ZN4asio6detail18completion_handlerINS0_7binder2IZN7asiopal13SocketChannel13BeginReadImplEN7openpal6WSliceEEUlRKSt10error_codemE_S7_mEEE11do_completeEPNS0_15task_io_serviceEPNS0_25task_io_service_operationES9_m, .-_ZN4asio6detail18completion_handlerINS0_7binder2IZN7asiopal13SocketChannel13BeginReadImplEN7openpal6WSliceEEUlRKSt10error_codemE_S7_mEEE11do_completeEPNS0_15task_io_serviceEPNS0_25task_io_service_operationES9_m
	.section	.text.unlikely
	.size	_ZN4asio6detail18completion_handlerINS0_7binder2IZN7asiopal13SocketChannel13BeginReadImplEN7openpal6WSliceEEUlRKSt10error_codemE_S7_mEEE11do_completeEPNS0_15task_io_serviceEPNS0_25task_io_service_operationES9_m.cold, .-_ZN4asio6detail18completion_handlerINS0_7binder2IZN7asiopal13SocketChannel13BeginReadImplEN7openpal6WSliceEEUlRKSt10error_codemE_S7_mEEE11do_completeEPNS0_15task_io_serviceEPNS0_25task_io_service_operationES9_m.cold
.LCOLDE4:
	.text
.LHOTE4:
	.section	.text.unlikely
.LCOLDB5:
	.text
.LHOTB5:
	.p2align 4
	.type	_ZN4asio6detail18completion_handlerINS0_7binder2IZN7asiopal13SocketChannel14BeginWriteImplERKN7openpal6RSliceEEUlRKSt10error_codemE_S9_mEEE11do_completeEPNS0_15task_io_serviceEPNS0_25task_io_service_operationESB_m, @function
_ZN4asio6detail18completion_handlerINS0_7binder2IZN7asiopal13SocketChannel14BeginWriteImplERKN7openpal6RSliceEEUlRKSt10error_codemE_S9_mEEE11do_completeEPNS0_15task_io_serviceEPNS0_25task_io_service_operationESB_m:
.LFB9081:
	.cfi_startproc
	.cfi_personality 0x9b,DW.ref.__gxx_personality_v0
	.cfi_lsda 0x1b,.LLSDA9081
	pushq	%rbp
	.cfi_def_cfa_offset 16
	.cfi_offset 6, -16
	movq	%rsi, %rbp
	pushq	%rbx
	.cfi_def_cfa_offset 24
	.cfi_offset 3, -24
	movq	%rdi, %rbx
	subq	$88, %rsp
	.cfi_def_cfa_offset 112
	movdqu	24(%rsi), %xmm0
	movdqu	40(%rsi), %xmm1
	movq	%fs:40, %rax
	movq	%rax, 72(%rsp)
	xorl	%eax, %eax
	leaq	32(%rsp), %rax
	movq	%rsi, 8(%rsp)
	movq	%rax, (%rsp)
	movq	$0, 16(%rsp)
	movups	%xmm0, 32(%rsp)
	movups	%xmm1, 48(%rsp)
	data16	leaq	_ZN4asio6detail15keyword_tss_ptrINS0_10call_stackINS0_15task_io_serviceENS0_27task_io_service_thread_infoEE7contextEE6value_E@tlsgd(%rip), %rdi
	.value	0x6666
	rex64
	call	__tls_get_addr@PLT
	movq	(%rax), %rax
	testq	%rax, %rax
	je	.L151
	movq	8(%rax), %rax
	testq	%rax, %rax
	je	.L151
	cmpq	$0, (%rax)
	je	.L182
.L151:
	movq	%rbp, %rdi
	call	_ZdlPv@PLT
.L152:
	movq	$0, 8(%rsp)
	testq	%rbx, %rbx
	je	.L150
	movq	32(%rsp), %rax
	movq	56(%rsp), %rdx
	movq	40(%rax), %rdi
	movb	$0, 58(%rax)
	testq	%rdi, %rdi
	je	.L157
	cmpb	$0, 56(%rax)
	je	.L183
.L157:
	sfence
	cmpq	$0, 16(%rsp)
	je	.L184
.L155:
	movq	$0, 16(%rsp)
	movq	8(%rsp), %rbp
.L158:
	testq	%rbp, %rbp
	je	.L150
	data16	leaq	_ZN4asio6detail15keyword_tss_ptrINS0_10call_stackINS0_15task_io_serviceENS0_27task_io_service_thread_infoEE7contextEE6value_E@tlsgd(%rip), %rdi
	.value	0x6666
	rex64
	call	__tls_get_addr@PLT
	movq	(%rax), %rax
	testq	%rax, %rax
	je	.L161
	movq	8(%rax), %rax
	testq	%rax, %rax
	je	.L161
	cmpq	$0, (%rax)
	je	.L185
.L161:
	movq	%rbp, %rdi
	call	_ZdlPv@PLT
.L150:
	movq	72(%rsp), %rax
	subq	%fs:40, %rax
	jne	.L186
	addq	$88, %rsp
	.cfi_remember_state
	.cfi_def_cfa_offset 24
	popq	%rbx
	.cfi_def_cfa_offset 16
	popq	%rbp
	.cfi_def_cfa_offset 8
	ret
	.p2align 4,,10
	.p2align 3
.L183:
	.cfi_restore_state
	movq	(%rdi), %rax
	leaq	40(%rsp), %rsi
.LEHB2:
	call	*24(%rax)
.LEHE2:
	sfence
	cmpq	$0, 16(%rsp)
	jne	.L155
.L184:
	movq	8(%rsp), %rbp
	jmp	.L158
	.p2align 4,,10
	.p2align 3
.L182:
	movzbl	56(%rbp), %edx
	movb	%dl, 0(%rbp)
	movq	%rbp, (%rax)
	jmp	.L152
	.p2align 4,,10
	.p2align 3
.L185:
	movzbl	56(%rbp), %edx
	movb	%dl, 0(%rbp)
	movq	%rbp, (%rax)
	jmp	.L150
.L186:
	call	__stack_chk_fail@PLT
.L164:
	movq	%rax, %rbp
	jmp	.L162
	.section	.gcc_except_table
.LLSDA9081:
	.byte	0xff
	.byte	0xff
	.byte	0x1
	.uleb128 .LLSDACSE9081-.LLSDACSB9081
.LLSDACSB9081:
	.uleb128 .LEHB2-.LFB9081
	.uleb128 .LEHE2-.LEHB2
	.uleb128 .L164-.LFB9081
	.uleb128 0
.LLSDACSE9081:
	.text
	.cfi_endproc
	.section	.text.unlikely
	.cfi_startproc
	.cfi_personality 0x9b,DW.ref.__gxx_personality_v0
	.cfi_lsda 0x1b,.LLSDAC9081
	.type	_ZN4asio6detail18completion_handlerINS0_7binder2IZN7asiopal13SocketChannel14BeginWriteImplERKN7openpal6RSliceEEUlRKSt10error_codemE_S9_mEEE11do_completeEPNS0_15task_io_serviceEPNS0_25task_io_service_operationESB_m.cold, @function
_ZN4asio6detail18completion_handlerINS0_7binder2IZN7asiopal13SocketChannel14BeginWriteImplERKN7openpal6RSliceEEUlRKSt10error_codemE_S9_mEEE11do_completeEPNS0_15task_io_serviceEPNS0_25task_io_service_operationESB_m.cold:
.LFSB9081:
.L162:
	.cfi_def_cfa_offset 112
	.cfi_offset 3, -24
	.cfi_offset 6, -16
	sfence
	movq	%rsp, %rdi
	call	_ZN4asio6detail18completion_handlerINS0_7binder2IZN7asiopal13SocketChannel14BeginWriteImplERKN7openpal6RSliceEEUlRKSt10error_codemE_S9_mEEE3ptr5resetEv
	movq	%rbp, %rdi
.LEHB3:
	call	_Unwind_Resume@PLT
.LEHE3:
	.cfi_endproc
.LFE9081:
	.section	.gcc_except_table
.LLSDAC9081:
	.byte	0xff
	.byte	0xff
	.byte	0x1
	.uleb128 .LLSDACSEC9081-.LLSDACSBC9081
.LLSDACSBC9081:
	.uleb128 .LEHB3-.LCOLDB5
	.uleb128 .LEHE3-.LEHB3
	.uleb128 0
	.uleb128 0
.LLSDACSEC9081:
	.section	.text.unlikely
	.text
	.size	_ZN4asio6detail18completion_handlerINS0_7binder2IZN7asiopal13SocketChannel14BeginWriteImplERKN7openpal6RSliceEEUlRKSt10error_codemE_S9_mEEE11do_completeEPNS0_15task_io_serviceEPNS0_25task_io_service_operationESB_m, .-_ZN4asio6detail18completion_handlerINS0_7binder2IZN7asiopal13SocketChannel14BeginWriteImplERKN7openpal6RSliceEEUlRKSt10error_codemE_S9_mEEE11do_completeEPNS0_15task_io_serviceEPNS0_25task_io_service_operationESB_m
	.section	.text.unlikely
	.size	_ZN4asio6detail18completion_handlerINS0_7binder2IZN7asiopal13SocketChannel14BeginWriteImplERKN7openpal6RSliceEEUlRKSt10error_codemE_S9_mEEE11do_completeEPNS0_15task_io_serviceEPNS0_25task_io_service_operationESB_m.cold, .-_ZN4asio6detail18completion_handlerINS0_7binder2IZN7asiopal13SocketChannel14BeginWriteImplERKN7openpal6RSliceEEUlRKSt10error_codemE_S9_mEEE11do_completeEPNS0_15task_io_serviceEPNS0_25task_io_service_operationESB_m.cold
.LCOLDE5:
	.text
.LHOTE5:
	.section	.rodata._ZNK4asio6detail15system_category7messageB5cxx11Ei.str1.8,"aMS",@progbits,1
	.align 8
.LC6:
	.string	"basic_string::_M_construct null not valid"
	.section	.text._ZNK4asio6detail15system_category7messageB5cxx11Ei,"axG",@progbits,_ZNK4asio6detail15system_category7messageB5cxx11Ei,comdat
	.align 2
	.p2align 4
	.weak	_ZNK4asio6detail15system_category7messageB5cxx11Ei
	.type	_ZNK4asio6detail15system_category7messageB5cxx11Ei, @function
_ZNK4asio6detail15system_category7messageB5cxx11Ei:
.LFB2381:
	.cfi_startproc
	pushq	%r14
	.cfi_def_cfa_offset 16
	.cfi_offset 14, -16
	pushq	%r13
	.cfi_def_cfa_offset 24
	.cfi_offset 13, -24
	pushq	%r12
	.cfi_def_cfa_offset 32
	.cfi_offset 12, -32
	movq	%rdi, %r12
	pushq	%rbp
	.cfi_def_cfa_offset 40
	.cfi_offset 6, -40
	leaq	16(%rdi), %rbp
	subq	$296, %rsp
	.cfi_def_cfa_offset 336
	movq	%fs:40, %rax
	movq	%rax, 280(%rsp)
	xorl	%eax, %eax
	cmpl	$125, %edx
	je	.L202
	pxor	%xmm0, %xmm0
	movl	%edx, %edi
	leaq	16(%rsp), %rsi
	movl	$256, %edx
	movups	%xmm0, 16(%rsp)
	movups	%xmm0, 32(%rsp)
	movups	%xmm0, 48(%rsp)
	movups	%xmm0, 64(%rsp)
	movups	%xmm0, 80(%rsp)
	movups	%xmm0, 96(%rsp)
	movups	%xmm0, 112(%rsp)
	movups	%xmm0, 128(%rsp)
	movups	%xmm0, 144(%rsp)
	movups	%xmm0, 160(%rsp)
	movups	%xmm0, 176(%rsp)
	movups	%xmm0, 192(%rsp)
	movups	%xmm0, 208(%rsp)
	movups	%xmm0, 224(%rsp)
	movups	%xmm0, 240(%rsp)
	movups	%xmm0, 256(%rsp)
	call	strerror_r@PLT
	movq	%rbp, (%r12)
	movq	%rax, %r13
	testq	%rax, %rax
	je	.L190
	movq	%rax, %rdi
	call	strlen@PLT
	movq	%rax, 8(%rsp)
	movq	%rax, %r14
	cmpq	$15, %rax
	ja	.L203
	cmpq	$1, %rax
	jne	.L194
	movzbl	0(%r13), %edx
	movb	%dl, 16(%r12)
.L195:
	movq	%rax, 8(%r12)
	movb	$0, 0(%rbp,%rax)
.L187:
	movq	280(%rsp), %rax
	subq	%fs:40, %rax
	jne	.L204
	addq	$296, %rsp
	.cfi_remember_state
	.cfi_def_cfa_offset 40
	movq	%r12, %rax
	popq	%rbp
	.cfi_def_cfa_offset 32
	popq	%r12
	.cfi_def_cfa_offset 24
	popq	%r13
	.cfi_def_cfa_offset 16
	popq	%r14
	.cfi_def_cfa_offset 8
	ret
	.p2align 4,,10
	.p2align 3
.L203:
	.cfi_restore_state
	leaq	8(%rsp), %rsi
	xorl	%edx, %edx
	movq	%r12, %rdi
	call	_ZNSt7__cxx1112basic_stringIcSt11char_traitsIcESaIcEE9_M_createERmm@PLT
	movq	%rax, (%r12)
	movq	%rax, %rbp
	movq	8(%rsp), %rax
	movq	%rax, 16(%r12)
.L193:
	movq	%rbp, %rdi
	movq	%r14, %rdx
	movq	%r13, %rsi
	call	memcpy@PLT
	movq	8(%rsp), %rax
	movq	(%r12), %rbp
	jmp	.L195
	.p2align 4,,10
	.p2align 3
.L202:
	movq	%rbp, (%rdi)
	xorl	%edx, %edx
	leaq	8(%rsp), %rsi
	movq	$18, 8(%rsp)
	call	_ZNSt7__cxx1112basic_stringIcSt11char_traitsIcESaIcEE9_M_createERmm@PLT
	movq	8(%rsp), %rdx
	movdqa	.LC7(%rip), %xmm0
	movq	%rax, (%r12)
	movq	%rdx, 16(%r12)
	movl	$11876, %edx
	movw	%dx, 16(%rax)
	movups	%xmm0, (%rax)
	movq	8(%rsp), %rax
	movq	(%r12), %rdx
	movq	%rax, 8(%r12)
	movb	$0, (%rdx,%rax)
	jmp	.L187
	.p2align 4,,10
	.p2align 3
.L194:
	testq	%rax, %rax
	je	.L195
	jmp	.L193
.L190:
	leaq	.LC6(%rip), %rdi
	call	_ZSt19__throw_logic_errorPKc@PLT
.L204:
	call	__stack_chk_fail@PLT
	.cfi_endproc
.LFE2381:
	.size	_ZNK4asio6detail15system_category7messageB5cxx11Ei, .-_ZNK4asio6detail15system_category7messageB5cxx11Ei
	.section	.text._ZN4asio6detail28reactive_socket_send_op_baseINS_15const_buffers_1EE10do_performEPNS0_10reactor_opE,"axG",@progbits,_ZN4asio6detail28reactive_socket_send_op_baseINS_15const_buffers_1EE10do_performEPNS0_10reactor_opE,comdat
	.p2align 4
	.weak	_ZN4asio6detail28reactive_socket_send_op_baseINS_15const_buffers_1EE10do_performEPNS0_10reactor_opE
	.type	_ZN4asio6detail28reactive_socket_send_op_baseINS_15const_buffers_1EE10do_performEPNS0_10reactor_opE, @function
_ZN4asio6detail28reactive_socket_send_op_baseINS_15const_buffers_1EE10do_performEPNS0_10reactor_opE:
.LFB9285:
	.cfi_startproc
	pushq	%r15
	.cfi_def_cfa_offset 16
	.cfi_offset 15, -16
	pushq	%r14
	.cfi_def_cfa_offset 24
	.cfi_offset 14, -24
	movq	%rdi, %r14
	pushq	%r13
	.cfi_def_cfa_offset 32
	.cfi_offset 13, -32
	pushq	%r12
	.cfi_def_cfa_offset 40
	.cfi_offset 12, -40
	pushq	%rbp
	.cfi_def_cfa_offset 48
	.cfi_offset 6, -48
	pushq	%rbx
	.cfi_def_cfa_offset 56
	.cfi_offset 3, -56
	subq	$136, %rsp
	.cfi_def_cfa_offset 192
	movq	72(%rdi), %xmm0
	movl	56(%rdi), %r15d
	movq	%fs:40, %rax
	movq	%rax, 120(%rsp)
	movq	64(%rdi), %rax
	punpcklqdq	%xmm0, %xmm0
	movups	%xmm0, 40(%rsp)
	movq	%rax, 32(%rsp)
	call	__errno_location@PLT
	movq	_ZGVZN4asio15system_categoryEvE8instance@GOTPCREL(%rip), %rbp
	movq	_ZZN4asio15system_categoryEvE8instance@GOTPCREL(%rip), %r12
	movq	%rax, %r13
	movl	80(%r14), %eax
	orb	$64, %ah
	movl	%eax, 12(%rsp)
	leaq	32(%rsp), %rax
	movq	%rax, 24(%rsp)
	leaq	64(%rsp), %rax
	movq	%rax, 16(%rsp)
.L214:
	movq	24(%rsp), %rax
	movl	12(%rsp), %edx
	pxor	%xmm0, %xmm0
	movl	%r15d, %edi
	movl	$0, 0(%r13)
	movq	16(%rsp), %rsi
	movq	$0, 112(%rsp)
	movq	%rax, 80(%rsp)
	movq	$1, 88(%rsp)
	movaps	%xmm0, 64(%rsp)
	movaps	%xmm0, 96(%rsp)
	call	sendmsg@PLT
	movq	%rax, %rbx
	movzbl	0(%rbp), %eax
	testb	%al, %al
	je	.L242
.L207:
	movl	0(%r13), %eax
	movq	%r12, 32(%r14)
	movl	%eax, 24(%r14)
	testq	%rbx, %rbx
	js	.L209
	call	_ZNSt3_V215system_categoryEv@PLT
	movl	$0, 24(%r14)
	movq	%rax, 32(%r14)
.L209:
	movzbl	0(%rbp), %eax
	testb	%al, %al
	je	.L243
.L211:
	cmpq	%r12, 32(%r14)
	je	.L244
.L213:
	movzbl	0(%rbp), %eax
	testb	%al, %al
	je	.L245
.L216:
	cmpq	%r12, 32(%r14)
	je	.L246
.L218:
	movzbl	0(%rbp), %eax
	testb	%al, %al
	je	.L247
.L221:
	cmpq	%r12, 32(%r14)
	je	.L248
.L223:
	testq	%rbx, %rbx
	js	.L225
	call	_ZNSt3_V215system_categoryEv@PLT
	movl	$0, 24(%r14)
	movq	%rbx, 40(%r14)
	movq	%rax, 32(%r14)
	movl	$1, %eax
.L205:
	movq	120(%rsp), %rcx
	subq	%fs:40, %rcx
	jne	.L249
	addq	$136, %rsp
	.cfi_remember_state
	.cfi_def_cfa_offset 56
	popq	%rbx
	.cfi_def_cfa_offset 48
	popq	%rbp
	.cfi_def_cfa_offset 40
	popq	%r12
	.cfi_def_cfa_offset 32
	popq	%r13
	.cfi_def_cfa_offset 24
	popq	%r14
	.cfi_def_cfa_offset 16
	popq	%r15
	.cfi_def_cfa_offset 8
	ret
	.p2align 4,,10
	.p2align 3
.L225:
	.cfi_restore_state
	movq	$0, 40(%r14)
	movl	$1, %eax
	jmp	.L205
	.p2align 4,,10
	.p2align 3
.L242:
	movq	%rbp, %rdi
	call	__cxa_guard_acquire@PLT
	testl	%eax, %eax
	je	.L207
	movq	_ZN4asio6detail15system_categoryD1Ev@GOTPCREL(%rip), %rdi
	leaq	__dso_handle(%rip), %rdx
	movq	%r12, %rsi
	call	__cxa_atexit@PLT
	movq	%rbp, %rdi
	call	__cxa_guard_release@PLT
	jmp	.L207
	.p2align 4,,10
	.p2align 3
.L243:
	movq	%rbp, %rdi
	call	__cxa_guard_acquire@PLT
	testl	%eax, %eax
	je	.L211
	movq	_ZN4asio6detail15system_categoryD1Ev@GOTPCREL(%rip), %rdi
	leaq	__dso_handle(%rip), %rdx
	movq	%r12, %rsi
	call	__cxa_atexit@PLT
	movq	%rbp, %rdi
	call	__cxa_guard_release@PLT
	cmpq	%r12, 32(%r14)
	jne	.L213
	.p2align 4,,10
	.p2align 3
.L244:
	cmpl	$4, 24(%r14)
	je	.L214
	movzbl	0(%rbp), %eax
	testb	%al, %al
	jne	.L216
.L245:
	movq	%rbp, %rdi
	call	__cxa_guard_acquire@PLT
	testl	%eax, %eax
	je	.L216
	movq	_ZN4asio6detail15system_categoryD1Ev@GOTPCREL(%rip), %rdi
	leaq	__dso_handle(%rip), %rdx
	movq	%r12, %rsi
	call	__cxa_atexit@PLT
	movq	%rbp, %rdi
	call	__cxa_guard_release@PLT
	cmpq	%r12, 32(%r14)
	jne	.L218
	.p2align 4,,10
	.p2align 3
.L246:
	cmpl	$11, 24(%r14)
	jne	.L218
	xorl	%eax, %eax
	jmp	.L205
	.p2align 4,,10
	.p2align 3
.L247:
	movq	%rbp, %rdi
	call	__cxa_guard_acquire@PLT
	testl	%eax, %eax
	je	.L221
	movq	_ZN4asio6detail15system_categoryD1Ev@GOTPCREL(%rip), %rdi
	leaq	__dso_handle(%rip), %rdx
	movq	%r12, %rsi
	call	__cxa_atexit@PLT
	movq	%rbp, %rdi
	call	__cxa_guard_release@PLT
	jmp	.L221
	.p2align 4,,10
	.p2align 3
.L248:
	cmpl	$11, 24(%r14)
	jne	.L223
	xorl	%eax, %eax
	jmp	.L205
.L249:
	call	__stack_chk_fail@PLT
	.cfi_endproc
.LFE9285:
	.size	_ZN4asio6detail28reactive_socket_send_op_baseINS_15const_buffers_1EE10do_performEPNS0_10reactor_opE, .-_ZN4asio6detail28reactive_socket_send_op_baseINS_15const_buffers_1EE10do_performEPNS0_10reactor_opE
	.section	.text._ZN4asio6detail28reactive_socket_recv_op_baseINS_17mutable_buffers_1EE10do_performEPNS0_10reactor_opE,"axG",@progbits,_ZN4asio6detail28reactive_socket_recv_op_baseINS_17mutable_buffers_1EE10do_performEPNS0_10reactor_opE,comdat
	.p2align 4
	.weak	_ZN4asio6detail28reactive_socket_recv_op_baseINS_17mutable_buffers_1EE10do_performEPNS0_10reactor_opE
	.type	_ZN4asio6detail28reactive_socket_recv_op_baseINS_17mutable_buffers_1EE10do_performEPNS0_10reactor_opE, @function
_ZN4asio6detail28reactive_socket_recv_op_baseINS_17mutable_buffers_1EE10do_performEPNS0_10reactor_opE:
.LFB9047:
	.cfi_startproc
	pushq	%r15
	.cfi_def_cfa_offset 16
	.cfi_offset 15, -16
	pushq	%r14
	.cfi_def_cfa_offset 24
	.cfi_offset 14, -24
	movq	%rdi, %r14
	pushq	%r13
	.cfi_def_cfa_offset 32
	.cfi_offset 13, -32
	pushq	%r12
	.cfi_def_cfa_offset 40
	.cfi_offset 12, -40
	pushq	%rbp
	.cfi_def_cfa_offset 48
	.cfi_offset 6, -48
	pushq	%rbx
	.cfi_def_cfa_offset 56
	.cfi_offset 3, -56
	subq	$136, %rsp
	.cfi_def_cfa_offset 192
	movq	72(%rdi), %xmm0
	movl	80(%rdi), %r15d
	movq	%fs:40, %rax
	movq	%rax, 120(%rsp)
	movq	64(%rdi), %rax
	punpcklqdq	%xmm0, %xmm0
	movups	%xmm0, 40(%rsp)
	movq	%rax, 32(%rsp)
	movzbl	60(%rdi), %eax
	shrb	$4, %al
	andl	$1, %eax
	movb	%al, 31(%rsp)
	movl	56(%rdi), %eax
	movl	%eax, 24(%rsp)
	call	__errno_location@PLT
	movq	_ZGVZN4asio15system_categoryEvE8instance@GOTPCREL(%rip), %rbp
	movq	_ZZN4asio15system_categoryEvE8instance@GOTPCREL(%rip), %r12
	movq	%rax, %r13
	leaq	32(%rsp), %rax
	movq	%rax, 8(%rsp)
	leaq	64(%rsp), %rax
	movq	%rax, 16(%rsp)
.L264:
	movq	8(%rsp), %rax
	movl	24(%rsp), %edi
	pxor	%xmm0, %xmm0
	movl	%r15d, %edx
	movl	$0, 0(%r13)
	movq	16(%rsp), %rsi
	movq	$0, 112(%rsp)
	movq	%rax, 80(%rsp)
	movq	$1, 88(%rsp)
	movaps	%xmm0, 64(%rsp)
	movaps	%xmm0, 96(%rsp)
	call	recvmsg@PLT
	movq	%rax, %rbx
	movzbl	0(%rbp), %eax
	testb	%al, %al
	je	.L297
.L252:
	movl	0(%r13), %eax
	movq	%r12, 32(%r14)
	movl	%eax, 24(%r14)
	testq	%rbx, %rbx
	js	.L255
	call	_ZNSt3_V215system_categoryEv@PLT
	testq	%rbx, %rbx
	movl	$0, 24(%r14)
	movq	%rax, 32(%r14)
	sete	%r8b
	andb	31(%rsp), %r8b
	jne	.L298
.L255:
	movzbl	0(%rbp), %eax
	testb	%al, %al
	je	.L299
.L261:
	cmpq	%r12, 32(%r14)
	je	.L300
.L263:
	movzbl	0(%rbp), %eax
	testb	%al, %al
	je	.L301
.L266:
	cmpq	%r12, 32(%r14)
	je	.L302
.L268:
	movzbl	0(%rbp), %eax
	testb	%al, %al
	je	.L303
.L270:
	cmpq	%r12, 32(%r14)
	je	.L304
.L272:
	testq	%rbx, %rbx
	js	.L274
	call	_ZNSt3_V215system_categoryEv@PLT
	movq	%rbx, 40(%r14)
	movl	$1, %r8d
	movl	$0, 24(%r14)
	movq	%rax, 32(%r14)
.L250:
	movq	120(%rsp), %rax
	subq	%fs:40, %rax
	jne	.L305
	addq	$136, %rsp
	.cfi_remember_state
	.cfi_def_cfa_offset 56
	movl	%r8d, %eax
	popq	%rbx
	.cfi_def_cfa_offset 48
	popq	%rbp
	.cfi_def_cfa_offset 40
	popq	%r12
	.cfi_def_cfa_offset 32
	popq	%r13
	.cfi_def_cfa_offset 24
	popq	%r14
	.cfi_def_cfa_offset 16
	popq	%r15
	.cfi_def_cfa_offset 8
	ret
	.p2align 4,,10
	.p2align 3
.L274:
	.cfi_restore_state
	movq	$0, 40(%r14)
	movl	$1, %r8d
	jmp	.L250
	.p2align 4,,10
	.p2align 3
.L297:
	movq	%rbp, %rdi
	call	__cxa_guard_acquire@PLT
	testl	%eax, %eax
	je	.L252
	movq	_ZN4asio6detail15system_categoryD1Ev@GOTPCREL(%rip), %rdi
	leaq	__dso_handle(%rip), %rdx
	movq	%r12, %rsi
	call	__cxa_atexit@PLT
	movq	%rbp, %rdi
	call	__cxa_guard_release@PLT
	jmp	.L252
	.p2align 4,,10
	.p2align 3
.L299:
	movq	%rbp, %rdi
	call	__cxa_guard_acquire@PLT
	testl	%eax, %eax
	je	.L261
	movq	_ZN4asio6detail15system_categoryD1Ev@GOTPCREL(%rip), %rdi
	leaq	__dso_handle(%rip), %rdx
	movq	%r12, %rsi
	call	__cxa_atexit@PLT
	movq	%rbp, %rdi
	call	__cxa_guard_release@PLT
	cmpq	%r12, 32(%r14)
	jne	.L263
	.p2align 4,,10
	.p2align 3
.L300:
	cmpl	$4, 24(%r14)
	je	.L264
	movzbl	0(%rbp), %eax
	testb	%al, %al
	jne	.L266
.L301:
	movq	%rbp, %rdi
	call	__cxa_guard_acquire@PLT
	testl	%eax, %eax
	je	.L266
	movq	_ZN4asio6detail15system_categoryD1Ev@GOTPCREL(%rip), %rdi
	leaq	__dso_handle(%rip), %rdx
	movq	%r12, %rsi
	call	__cxa_atexit@PLT
	movq	%rbp, %rdi
	call	__cxa_guard_release@PLT
	cmpq	%r12, 32(%r14)
	jne	.L268
	.p2align 4,,10
	.p2align 3
.L302:
	cmpl	$11, 24(%r14)
	jne	.L268
.L273:
	xorl	%r8d, %r8d
	jmp	.L250
	.p2align 4,,10
	.p2align 3
.L303:
	movq	%rbp, %rdi
	call	__cxa_guard_acquire@PLT
	testl	%eax, %eax
	je	.L270
	movq	_ZN4asio6detail15system_categoryD1Ev@GOTPCREL(%rip), %rdi
	leaq	__dso_handle(%rip), %rdx
	movq	%r12, %rsi
	call	__cxa_atexit@PLT
	movq	%rbp, %rdi
	call	__cxa_guard_release@PLT
	jmp	.L270
	.p2align 4,,10
	.p2align 3
.L304:
	cmpl	$11, 24(%r14)
	jne	.L272
	jmp	.L273
	.p2align 4,,10
	.p2align 3
.L298:
	movq	_ZGVZN4asio5error17get_misc_categoryEvE8instance@GOTPCREL(%rip), %rbp
	movzbl	0(%rbp), %eax
	testb	%al, %al
	je	.L256
.L296:
	movq	_ZZN4asio5error17get_misc_categoryEvE8instance@GOTPCREL(%rip), %rbx
.L257:
	movl	$2, 24(%r14)
	movq	%rbx, 32(%r14)
	jmp	.L250
	.p2align 4,,10
	.p2align 3
.L256:
	movq	%rbp, %rdi
	movb	%r8b, 24(%rsp)
	call	__cxa_guard_acquire@PLT
	movzbl	24(%rsp), %r8d
	testl	%eax, %eax
	je	.L296
	movq	_ZZN4asio5error17get_misc_categoryEvE8instance@GOTPCREL(%rip), %rbx
	movq	_ZN4asio5error6detail13misc_categoryD1Ev@GOTPCREL(%rip), %rdi
	movb	%r8b, 24(%rsp)
	leaq	__dso_handle(%rip), %rdx
	movq	%rbx, %rsi
	call	__cxa_atexit@PLT
	movq	%rbp, %rdi
	call	__cxa_guard_release@PLT
	movzbl	24(%rsp), %r8d
	jmp	.L257
.L305:
	call	__stack_chk_fail@PLT
	.cfi_endproc
.LFE9047:
	.size	_ZN4asio6detail28reactive_socket_recv_op_baseINS_17mutable_buffers_1EE10do_performEPNS0_10reactor_opE, .-_ZN4asio6detail28reactive_socket_recv_op_baseINS_17mutable_buffers_1EE10do_performEPNS0_10reactor_opE
	.section	.text._ZNK4asio5error6detail17addrinfo_category7messageB5cxx11Ei,"axG",@progbits,_ZNK4asio5error6detail17addrinfo_category7messageB5cxx11Ei,comdat
	.align 2
	.p2align 4
	.weak	_ZNK4asio5error6detail17addrinfo_category7messageB5cxx11Ei
	.type	_ZNK4asio5error6detail17addrinfo_category7messageB5cxx11Ei, @function
_ZNK4asio5error6detail17addrinfo_category7messageB5cxx11Ei:
.LFB2427:
	.cfi_startproc
	pushq	%r12
	.cfi_def_cfa_offset 16
	.cfi_offset 12, -16
	movq	%rdi, %r12
	subq	$16, %rsp
	.cfi_def_cfa_offset 32
	movq	%fs:40, %rax
	movq	%rax, 8(%rsp)
	xorl	%eax, %eax
	leaq	16(%rdi), %rax
	movq	%rax, (%rdi)
	cmpl	$-8, %edx
	je	.L312
	cmpl	$-7, %edx
	je	.L313
	xorl	%edx, %edx
	movq	%rsp, %rsi
	movq	$19, (%rsp)
	call	_ZNSt7__cxx1112basic_stringIcSt11char_traitsIcESaIcEE9_M_createERmm@PLT
	movq	(%rsp), %rdx
	movdqa	.LC10(%rip), %xmm0
	movq	%rax, (%r12)
	movq	%rdx, 16(%r12)
	movl	$28530, %edx
	movw	%dx, 16(%rax)
	movb	$114, 18(%rax)
	movups	%xmm0, (%rax)
	movq	(%rsp), %rax
	movq	(%r12), %rdx
	movq	%rax, 8(%r12)
	movb	$0, (%rdx,%rax)
.L306:
	movq	8(%rsp), %rax
	subq	%fs:40, %rax
	jne	.L314
	addq	$16, %rsp
	.cfi_remember_state
	.cfi_def_cfa_offset 16
	movq	%r12, %rax
	popq	%r12
	.cfi_def_cfa_offset 8
	ret
	.p2align 4,,10
	.p2align 3
.L313:
	.cfi_restore_state
	xorl	%edx, %edx
	movq	%rsp, %rsi
	movq	$25, (%rsp)
	call	_ZNSt7__cxx1112basic_stringIcSt11char_traitsIcESaIcEE9_M_createERmm@PLT
	movq	(%rsp), %rdx
	movdqa	.LC9(%rip), %xmm0
	movabsq	$7310593918082512243, %rcx
	movq	%rax, (%r12)
	movq	%rdx, 16(%r12)
	movq	%rcx, 16(%rax)
	movb	$100, 24(%rax)
	movups	%xmm0, (%rax)
	movq	(%rsp), %rax
	movq	(%r12), %rdx
	movq	%rax, 8(%r12)
	movb	$0, (%rdx,%rax)
	jmp	.L306
	.p2align 4,,10
	.p2align 3
.L312:
	xorl	%edx, %edx
	movq	%rsp, %rsi
	movq	$17, (%rsp)
	call	_ZNSt7__cxx1112basic_stringIcSt11char_traitsIcESaIcEE9_M_createERmm@PLT
	movq	(%rsp), %rdx
	movdqa	.LC8(%rip), %xmm0
	movq	%rax, (%r12)
	movq	%rdx, 16(%r12)
	movb	$100, 16(%rax)
	movups	%xmm0, (%rax)
	movq	(%rsp), %rax
	movq	(%r12), %rdx
	movq	%rax, 8(%r12)
	movb	$0, (%rdx,%rax)
	jmp	.L306
.L314:
	call	__stack_chk_fail@PLT
	.cfi_endproc
.LFE2427:
	.size	_ZNK4asio5error6detail17addrinfo_category7messageB5cxx11Ei, .-_ZNK4asio5error6detail17addrinfo_category7messageB5cxx11Ei
	.section	.text._ZNK4asio5error6detail14netdb_category7messageB5cxx11Ei,"axG",@progbits,_ZNK4asio5error6detail14netdb_category7messageB5cxx11Ei,comdat
	.align 2
	.p2align 4
	.weak	_ZNK4asio5error6detail14netdb_category7messageB5cxx11Ei
	.type	_ZNK4asio5error6detail14netdb_category7messageB5cxx11Ei, @function
_ZNK4asio5error6detail14netdb_category7messageB5cxx11Ei:
.LFB2421:
	.cfi_startproc
	pushq	%r12
	.cfi_def_cfa_offset 16
	.cfi_offset 12, -16
	movq	%rdi, %r12
	subq	$16, %rsp
	.cfi_def_cfa_offset 32
	movq	%fs:40, %rax
	movq	%rax, 8(%rsp)
	xorl	%eax, %eax
	leaq	16(%rdi), %rax
	movq	%rax, (%rdi)
	cmpl	$1, %edx
	je	.L323
	cmpl	$2, %edx
	je	.L324
	cmpl	$4, %edx
	je	.L325
	cmpl	$3, %edx
	je	.L326
	xorl	%edx, %edx
	movq	%rsp, %rsi
	movq	$16, (%rsp)
	call	_ZNSt7__cxx1112basic_stringIcSt11char_traitsIcESaIcEE9_M_createERmm@PLT
	movq	(%rsp), %rdx
	movdqa	.LC20(%rip), %xmm0
	movq	%rax, (%r12)
	movq	%rdx, 16(%r12)
	movups	%xmm0, (%rax)
	movq	(%rsp), %rax
	movq	(%r12), %rdx
	movq	%rax, 8(%r12)
	movb	$0, (%rdx,%rax)
.L315:
	movq	8(%rsp), %rax
	subq	%fs:40, %rax
	jne	.L327
	addq	$16, %rsp
	.cfi_remember_state
	.cfi_def_cfa_offset 16
	movq	%r12, %rax
	popq	%r12
	.cfi_def_cfa_offset 8
	ret
	.p2align 4,,10
	.p2align 3
.L323:
	.cfi_restore_state
	movq	%rsp, %rsi
	xorl	%edx, %edx
	movq	$30, (%rsp)
	call	_ZNSt7__cxx1112basic_stringIcSt11char_traitsIcESaIcEE9_M_createERmm@PLT
	movq	(%rsp), %rdx
	movl	$10597, %esi
	movdqa	.LC11(%rip), %xmm0
	movabsq	$8388361603773658465, %rcx
	movq	%rax, (%r12)
	movq	%rdx, 16(%r12)
	movq	%rcx, 16(%rax)
	movl	$1986622561, 24(%rax)
	movw	%si, 28(%rax)
	movups	%xmm0, (%rax)
	movq	(%rsp), %rax
	movq	(%r12), %rdx
	movq	%rax, 8(%r12)
	movb	$0, (%rdx,%rax)
	jmp	.L315
	.p2align 4,,10
	.p2align 3
.L326:
	xorl	%edx, %edx
	movq	%rsp, %rsi
	movq	$55, (%rsp)
	call	_ZNSt7__cxx1112basic_stringIcSt11char_traitsIcESaIcEE9_M_createERmm@PLT
	movq	(%rsp), %rdx
	movdqa	.LC17(%rip), %xmm0
	movq	%rax, (%r12)
	movq	%rdx, 16(%r12)
	movl	$30059, %edx
	movups	%xmm0, (%rax)
	movdqa	.LC18(%rip), %xmm0
	movl	$1869573152, 48(%rax)
	movups	%xmm0, 16(%rax)
	movdqa	.LC19(%rip), %xmm0
	movw	%dx, 52(%rax)
	movb	$112, 54(%rax)
	movups	%xmm0, 32(%rax)
	movq	(%rsp), %rax
	movq	(%r12), %rdx
	movq	%rax, 8(%r12)
	movb	$0, (%rdx,%rax)
	jmp	.L315
	.p2align 4,,10
	.p2align 3
.L324:
	xorl	%edx, %edx
	movq	%rsp, %rsi
	movq	$51, (%rsp)
	call	_ZNSt7__cxx1112basic_stringIcSt11char_traitsIcESaIcEE9_M_createERmm@PLT
	movq	(%rsp), %rdx
	movl	$25972, %ecx
	movdqa	.LC11(%rip), %xmm0
	movq	%rax, (%r12)
	movq	%rdx, 16(%r12)
	movups	%xmm0, (%rax)
	movdqa	.LC12(%rip), %xmm0
	movw	%cx, 48(%rax)
	movups	%xmm0, 16(%rax)
	movdqa	.LC13(%rip), %xmm0
	movb	$114, 50(%rax)
	movups	%xmm0, 32(%rax)
	movq	(%rsp), %rax
	movq	(%r12), %rdx
	movq	%rax, 8(%r12)
	movb	$0, (%rdx,%rax)
	jmp	.L315
	.p2align 4,,10
	.p2align 3
.L325:
	xorl	%edx, %edx
	movq	%rsp, %rsi
	movq	$56, (%rsp)
	call	_ZNSt7__cxx1112basic_stringIcSt11char_traitsIcESaIcEE9_M_createERmm@PLT
	movq	(%rsp), %rdx
	movdqa	.LC14(%rip), %xmm0
	movabsq	$7022344801645520244, %rcx
	movq	%rax, (%r12)
	movq	%rdx, 16(%r12)
	movups	%xmm0, (%rax)
	movdqa	.LC15(%rip), %xmm0
	movq	%rcx, 48(%rax)
	movups	%xmm0, 16(%rax)
	movdqa	.LC16(%rip), %xmm0
	movups	%xmm0, 32(%rax)
	movq	(%rsp), %rax
	movq	(%r12), %rdx
	movq	%rax, 8(%r12)
	movb	$0, (%rdx,%rax)
	jmp	.L315
.L327:
	call	__stack_chk_fail@PLT
	.cfi_endproc
.LFE2421:
	.size	_ZNK4asio5error6detail14netdb_category7messageB5cxx11Ei, .-_ZNK4asio5error6detail14netdb_category7messageB5cxx11Ei
	.section	.text._ZNK4asio5error6detail13misc_category7messageB5cxx11Ei,"axG",@progbits,_ZNK4asio5error6detail13misc_category7messageB5cxx11Ei,comdat
	.align 2
	.p2align 4
	.weak	_ZNK4asio5error6detail13misc_category7messageB5cxx11Ei
	.type	_ZNK4asio5error6detail13misc_category7messageB5cxx11Ei, @function
_ZNK4asio5error6detail13misc_category7messageB5cxx11Ei:
.LFB2433:
	.cfi_startproc
	pushq	%r12
	.cfi_def_cfa_offset 16
	.cfi_offset 12, -16
	movq	%rdi, %r12
	subq	$16, %rsp
	.cfi_def_cfa_offset 32
	movq	%fs:40, %rax
	movq	%rax, 8(%rsp)
	xorl	%eax, %eax
	leaq	16(%rdi), %rax
	movq	%rax, (%rdi)
	cmpl	$1, %edx
	je	.L336
	cmpl	$2, %edx
	je	.L337
	cmpl	$3, %edx
	je	.L338
	cmpl	$4, %edx
	je	.L339
	movabsq	$8316298233121436513, %rcx
	movl	$28530, %edx
	movq	%rcx, 16(%rdi)
	movl	$1919230051, 8(%rax)
	movw	%dx, 12(%rax)
	movb	$114, 14(%rax)
	movq	$15, 8(%rdi)
	movb	$0, 31(%rdi)
.L328:
	movq	8(%rsp), %rax
	subq	%fs:40, %rax
	jne	.L340
	addq	$16, %rsp
	.cfi_remember_state
	.cfi_def_cfa_offset 16
	movq	%r12, %rax
	popq	%r12
	.cfi_def_cfa_offset 8
	ret
	.p2align 4,,10
	.p2align 3
.L336:
	.cfi_restore_state
	movabsq	$2340011850872286273, %rcx
	movq	%rcx, 16(%rdi)
	movl	$1852141679, 8(%rax)
	movq	$12, 8(%rdi)
	movb	$0, 28(%rdi)
	jmp	.L328
	.p2align 4,,10
	.p2align 3
.L339:
	movq	%rsp, %rsi
	xorl	%edx, %edx
	movq	$57, (%rsp)
	call	_ZNSt7__cxx1112basic_stringIcSt11char_traitsIcESaIcEE9_M_createERmm@PLT
	movq	(%rsp), %rdx
	movdqa	.LC22(%rip), %xmm0
	movabsq	$7310291504967217959, %rsi
	movq	%rax, (%r12)
	movq	%rdx, 16(%r12)
	movups	%xmm0, (%rax)
	movdqa	.LC23(%rip), %xmm0
	movq	%rsi, 48(%rax)
	movups	%xmm0, 16(%rax)
	movdqa	.LC24(%rip), %xmm0
	movb	$116, 56(%rax)
	movups	%xmm0, 32(%rax)
	movq	(%rsp), %rax
	movq	(%r12), %rdx
	movq	%rax, 8(%r12)
	movb	$0, (%rdx,%rax)
	jmp	.L328
	.p2align 4,,10
	.p2align 3
.L337:
	movabsq	$7358994418594246213, %rcx
	movq	%rcx, 16(%rdi)
	movl	$27753, %ecx
	movw	%cx, 8(%rax)
	movb	$101, 10(%rax)
	movq	$11, 8(%rdi)
	movb	$0, 27(%rdi)
	jmp	.L328
	.p2align 4,,10
	.p2align 3
.L338:
	xorl	%edx, %edx
	movq	%rsp, %rsi
	movq	$17, (%rsp)
	call	_ZNSt7__cxx1112basic_stringIcSt11char_traitsIcESaIcEE9_M_createERmm@PLT
	movq	(%rsp), %rdx
	movdqa	.LC21(%rip), %xmm0
	movq	%rax, (%r12)
	movq	%rdx, 16(%r12)
	movb	$100, 16(%rax)
	movups	%xmm0, (%rax)
	movq	(%rsp), %rax
	movq	(%r12), %rdx
	movq	%rax, 8(%r12)
	movb	$0, (%rdx,%rax)
	jmp	.L328
.L340:
	call	__stack_chk_fail@PLT
	.cfi_endproc
.LFE2433:
	.size	_ZNK4asio5error6detail13misc_category7messageB5cxx11Ei, .-_ZNK4asio5error6detail13misc_category7messageB5cxx11Ei
	.section	.text._ZN4asio15system_categoryEv,"axG",@progbits,_ZN4asio15system_categoryEv,comdat
	.p2align 4
	.weak	_ZN4asio15system_categoryEv
	.type	_ZN4asio15system_categoryEv, @function
_ZN4asio15system_categoryEv:
.LFB2384:
	.cfi_startproc
	pushq	%r12
	.cfi_def_cfa_offset 16
	.cfi_offset 12, -16
	pushq	%rbp
	.cfi_def_cfa_offset 24
	.cfi_offset 6, -24
	subq	$8, %rsp
	.cfi_def_cfa_offset 32
	movq	_ZGVZN4asio15system_categoryEvE8instance@GOTPCREL(%rip), %rbp
	movzbl	0(%rbp), %eax
	testb	%al, %al
	je	.L342
.L349:
	movq	_ZZN4asio15system_categoryEvE8instance@GOTPCREL(%rip), %r12
	addq	$8, %rsp
	.cfi_remember_state
	.cfi_def_cfa_offset 24
	popq	%rbp
	.cfi_def_cfa_offset 16
	movq	%r12, %rax
	popq	%r12
	.cfi_def_cfa_offset 8
	ret
	.p2align 4,,10
	.p2align 3
.L342:
	.cfi_restore_state
	movq	%rbp, %rdi
	call	__cxa_guard_acquire@PLT
	testl	%eax, %eax
	je	.L349
	movq	_ZZN4asio15system_categoryEvE8instance@GOTPCREL(%rip), %r12
	movq	_ZN4asio6detail15system_categoryD1Ev@GOTPCREL(%rip), %rdi
	leaq	__dso_handle(%rip), %rdx
	movq	%r12, %rsi
	call	__cxa_atexit@PLT
	movq	%rbp, %rdi
	call	__cxa_guard_release@PLT
	addq	$8, %rsp
	.cfi_def_cfa_offset 24
	movq	%r12, %rax
	popq	%rbp
	.cfi_def_cfa_offset 16
	popq	%r12
	.cfi_def_cfa_offset 8
	ret
	.cfi_endproc
.LFE2384:
	.size	_ZN4asio15system_categoryEv, .-_ZN4asio15system_categoryEv
	.section	.text._ZN7asiopal13SocketChannelD0Ev,"axG",@progbits,_ZN7asiopal13SocketChannelD5Ev,comdat
	.align 2
	.p2align 4
	.weak	_ZN7asiopal13SocketChannelD0Ev
	.type	_ZN7asiopal13SocketChannelD0Ev, @function
_ZN7asiopal13SocketChannelD0Ev:
.LFB9446:
	.cfi_startproc
	.cfi_personality 0x9b,DW.ref.__gxx_personality_v0
	.cfi_lsda 0x1b,.LLSDA9446
	pushq	%r15
	.cfi_def_cfa_offset 16
	.cfi_offset 15, -16
	movq	%rdi, %r15
	pushq	%r14
	.cfi_def_cfa_offset 24
	.cfi_offset 14, -24
	pushq	%r13
	.cfi_def_cfa_offset 32
	.cfi_offset 13, -32
	pushq	%r12
	.cfi_def_cfa_offset 40
	.cfi_offset 12, -40
	pushq	%rbp
	.cfi_def_cfa_offset 48
	.cfi_offset 6, -48
	pushq	%rbx
	.cfi_def_cfa_offset 56
	.cfi_offset 3, -56
	subq	$72, %rsp
	.cfi_def_cfa_offset 128
	movl	64(%rdi), %r12d
	movq	%fs:40, %rax
	movq	%rax, 56(%rsp)
	movq	_ZTVN7asiopal13SocketChannelE@GOTPCREL(%rip), %rax
	addq	$16, %rax
	movq	%rax, (%rdi)
	cmpl	$-1, %r12d
	jne	.L481
.L351:
	movq	_ZTVN7asiopal13IAsyncChannelE@GOTPCREL(%rip), %rax
	movq	48(%r15), %rbp
	addq	$16, %rax
	movq	%rax, (%r15)
	testq	%rbp, %rbp
	je	.L398
	movq	_ZL28__gthrw___pthread_key_createPjPFvPvE@GOTPCREL(%rip), %rbx
	testq	%rbx, %rbx
	jne	.L482
	movl	8(%rbp), %eax
	leal	-1(%rax), %edx
	movl	%edx, 8(%rbp)
.L400:
	cmpl	$1, %eax
	je	.L483
.L398:
	movq	32(%r15), %rbp
	testq	%rbp, %rbp
	je	.L405
	movq	_ZL28__gthrw___pthread_key_createPjPFvPvE@GOTPCREL(%rip), %rbx
	testq	%rbx, %rbx
	jne	.L484
	movl	8(%rbp), %eax
	leal	-1(%rax), %edx
	movl	%edx, 8(%rbp)
.L407:
	cmpl	$1, %eax
	je	.L485
.L405:
	movq	16(%r15), %rdi
	testq	%rdi, %rdi
	je	.L412
	cmpq	$0, _ZL28__gthrw___pthread_key_createPjPFvPvE@GOTPCREL(%rip)
	jne	.L486
	movl	12(%rdi), %eax
	leal	-1(%rax), %edx
	movl	%edx, 12(%rdi)
.L414:
	cmpl	$1, %eax
	je	.L487
.L412:
	movq	56(%rsp), %rax
	subq	%fs:40, %rax
	jne	.L488
	addq	$72, %rsp
	.cfi_remember_state
	.cfi_def_cfa_offset 56
	movq	%r15, %rdi
	movl	$96, %esi
	popq	%rbx
	.cfi_def_cfa_offset 48
	popq	%rbp
	.cfi_def_cfa_offset 40
	popq	%r12
	.cfi_def_cfa_offset 32
	popq	%r13
	.cfi_def_cfa_offset 24
	popq	%r14
	.cfi_def_cfa_offset 16
	popq	%r15
	.cfi_def_cfa_offset 8
	jmp	_ZdlPvm@PLT
	.p2align 4,,10
	.p2align 3
.L481:
	.cfi_restore_state
	movq	72(%rdi), %rbp
	testq	%rbp, %rbp
	je	.L380
	movq	88(%rdi), %rax
	movzbl	68(%rdi), %ebx
	movq	40(%rax), %rax
	movq	%rax, 16(%rsp)
	leaq	40(%rbp), %rax
	movq	%rax, %rdi
	movq	%rax, 24(%rsp)
	call	pthread_mutex_lock@PLT
	movq	72(%r15), %r11
	cmpb	$0, 144(%r11)
	jne	.L353
	andl	$64, %ebx
	jne	.L489
.L354:
	movq	$0, 8(%rsp)
	xorl	%ebp, %ebp
	movl	$0, 4(%rsp)
.L363:
	movslq	4(%rsp), %r10
	movq	%r10, %rax
	salq	$4, %rax
	movq	96(%rax,%r11), %rbx
	testq	%rbx, %rbx
	je	.L419
	movq	_ZGVZN4asio15system_categoryEvE8instance@GOTPCREL(%rip), %r14
	movq	_ZZN4asio15system_categoryEvE8instance@GOTPCREL(%rip), %r12
	movq	%rax, %r13
	movzbl	(%r14), %eax
	testb	%al, %al
	je	.L490
	.p2align 4,,10
	.p2align 3
.L358:
	movq	72(%r15), %r11
	movl	$125, 24(%rbx)
	movq	%r12, 32(%rbx)
	leaq	(%r11,%r13), %rdi
	movq	96(%rdi), %rax
	testq	%rax, %rax
	je	.L360
	movq	(%rax), %rdx
	movq	%rdx, 96(%rdi)
	testq	%rdx, %rdx
	je	.L491
	movq	$0, (%rax)
	movq	$0, (%rbx)
	testq	%rbp, %rbp
	je	.L492
.L417:
	movq	%rbx, 0(%rbp)
	testq	%rdx, %rdx
	je	.L355
.L362:
	movzbl	(%r14), %eax
	movq	%rbx, %rbp
	movq	%rdx, %rbx
	testb	%al, %al
	jne	.L358
.L490:
	movq	%r14, %rdi
	call	__cxa_guard_acquire@PLT
	testl	%eax, %eax
	je	.L358
	movq	_ZN4asio6detail15system_categoryD1Ev@GOTPCREL(%rip), %rdi
	leaq	__dso_handle(%rip), %rdx
	movq	%r12, %rsi
	call	__cxa_atexit@PLT
	movq	%r14, %rdi
	call	__cxa_guard_release@PLT
	jmp	.L358
	.p2align 4,,10
	.p2align 3
.L353:
	movq	24(%rsp), %rdi
	call	pthread_mutex_unlock@PLT
.L475:
	movl	64(%r15), %r12d
	cmpl	$-1, %r12d
	je	.L351
.L380:
	call	__errno_location@PLT
	movzbl	68(%r15), %ebp
	movq	%rax, %rbx
	testb	$8, %bpl
	jne	.L473
	movq	_ZGVZN4asio15system_categoryEvE8instance@GOTPCREL(%rip), %r14
.L382:
	movl	$0, (%rbx)
	movl	%r12d, %edi
	call	close@PLT
	movl	%eax, %ebp
	movzbl	(%r14), %eax
	testb	%al, %al
	je	.L493
.L387:
	testl	%ebp, %ebp
	je	.L351
	movl	(%rbx), %ebp
	movzbl	(%r14), %eax
	testb	%al, %al
	je	.L494
.L391:
	cmpl	$11, %ebp
	je	.L393
.L480:
	movzbl	(%r14), %eax
	testb	%al, %al
	jne	.L351
	movq	%r14, %rdi
	call	__cxa_guard_acquire@PLT
	testl	%eax, %eax
	je	.L351
	movq	_ZZN4asio15system_categoryEvE8instance@GOTPCREL(%rip), %rsi
	movq	_ZN4asio6detail15system_categoryD1Ev@GOTPCREL(%rip), %rdi
	leaq	__dso_handle(%rip), %rdx
	call	__cxa_atexit@PLT
	movq	%r14, %rdi
	call	__cxa_guard_release@PLT
	jmp	.L351
	.p2align 4,,10
	.p2align 3
.L483:
	movq	0(%rbp), %rax
	movq	%rbp, %rdi
	call	*16(%rax)
	testq	%rbx, %rbx
	jne	.L495
	movl	12(%rbp), %eax
	leal	-1(%rax), %edx
	movl	%edx, 12(%rbp)
.L403:
	cmpl	$1, %eax
	jne	.L398
	movq	0(%rbp), %rax
	movq	%rbp, %rdi
	call	*24(%rax)
	jmp	.L398
	.p2align 4,,10
	.p2align 3
.L485:
	movq	0(%rbp), %rax
	movq	%rbp, %rdi
	call	*16(%rax)
	testq	%rbx, %rbx
	jne	.L496
	movl	12(%rbp), %eax
	leal	-1(%rax), %edx
	movl	%edx, 12(%rbp)
.L410:
	cmpl	$1, %eax
	jne	.L405
	movq	0(%rbp), %rax
	movq	%rbp, %rdi
	call	*24(%rax)
	jmp	.L405
	.p2align 4,,10
	.p2align 3
.L487:
	movq	(%rdi), %rax
	call	*24(%rax)
	jmp	.L412
	.p2align 4,,10
	.p2align 3
.L484:
	movl	$-1, %eax
	lock xaddl	%eax, 8(%rbp)
	jmp	.L407
	.p2align 4,,10
	.p2align 3
.L486:
	movl	$-1, %eax
	lock xaddl	%eax, 12(%rdi)
	jmp	.L414
	.p2align 4,,10
	.p2align 3
.L482:
	movl	$-1, %eax
	lock xaddl	%eax, 8(%rbp)
	jmp	.L400
	.p2align 4,,10
	.p2align 3
.L360:
	movq	$0, (%rbx)
	testq	%rbp, %rbp
	je	.L422
	movq	%rbx, 0(%rbp)
.L355:
	addl	$1, 4(%rsp)
	movl	4(%rsp), %eax
	cmpl	$3, %eax
	je	.L497
.L421:
	movq	%rbx, %rbp
	jmp	.L363
	.p2align 4,,10
	.p2align 3
.L491:
	movq	$0, 104(%rdi)
	movq	$0, (%rax)
	movq	$0, (%rbx)
	testq	%rbp, %rbp
	jne	.L417
	.p2align 4,,10
	.p2align 3
.L422:
	addl	$1, 4(%rsp)
	movl	4(%rsp), %eax
	movq	%rbx, 8(%rsp)
	cmpl	$3, %eax
	jne	.L421
.L497:
	movl	$-1, 88(%r11)
	movq	24(%rsp), %rdi
	movb	$1, 144(%r11)
	call	pthread_mutex_unlock@PLT
	movq	16(%rsp), %r14
	movq	72(%r15), %rbp
	leaq	120(%r14), %r12
	movq	%r12, %rdi
	call	pthread_mutex_lock@PLT
	cmpq	160(%r14), %rbp
	je	.L498
.L364:
	movq	32(%rbp), %rax
	testq	%rax, %rax
	je	.L365
	movq	24(%rbp), %rdx
	movq	%rdx, 24(%rax)
.L365:
	movq	24(%rbp), %rax
	testq	%rax, %rax
	je	.L366
	movq	32(%rbp), %rdx
	movq	%rdx, 32(%rax)
.L366:
	movq	16(%rsp), %r14
	movq	%r12, %rdi
	movq	168(%r14), %rax
	movq	$0, 32(%rbp)
	movq	%rax, 24(%rbp)
	movq	%rbp, 168(%r14)
	call	pthread_mutex_unlock@PLT
	cmpq	$0, 8(%rsp)
	movq	$0, 72(%r15)
	je	.L475
	movq	40(%r14), %rbp
	cmpb	$0, 40(%rbp)
	je	.L368
	data16	leaq	_ZN4asio6detail15keyword_tss_ptrINS0_10call_stackINS0_15task_io_serviceENS0_27task_io_service_thread_infoEE7contextEE6value_E@tlsgd(%rip), %rdi
	.value	0x6666
	rex64
	call	__tls_get_addr@PLT
	movq	(%rax), %rax
	testq	%rax, %rax
	jne	.L371
	jmp	.L368
	.p2align 4,,10
	.p2align 3
.L369:
	movq	16(%rax), %rax
	testq	%rax, %rax
	je	.L368
.L371:
	cmpq	(%rax), %rbp
	jne	.L369
	movq	8(%rax), %rax
	testq	%rax, %rax
	je	.L368
	movq	16(%rax), %rdx
	movq	8(%rsp), %rcx
	testq	%rdx, %rdx
	je	.L372
	movq	%rcx, (%rdx)
.L373:
	movq	%rbx, 16(%rax)
	jmp	.L475
	.p2align 4,,10
	.p2align 3
.L492:
	movq	%rbx, 8(%rsp)
	jmp	.L362
	.p2align 4,,10
	.p2align 3
.L493:
	movq	%r14, %rdi
	call	__cxa_guard_acquire@PLT
	testl	%eax, %eax
	je	.L387
	movq	_ZZN4asio15system_categoryEvE8instance@GOTPCREL(%rip), %rsi
	movq	_ZN4asio6detail15system_categoryD1Ev@GOTPCREL(%rip), %rdi
	leaq	__dso_handle(%rip), %rdx
	call	__cxa_atexit@PLT
	movq	%r14, %rdi
	call	__cxa_guard_release@PLT
	jmp	.L387
	.p2align 4,,10
	.p2align 3
.L473:
	orl	$8, %ebp
	leaq	40(%rsp), %rcx
	movl	$13, %edx
	movl	%r12d, %edi
	movb	%bpl, 68(%r15)
	movl	$8, %r8d
	movl	$1, %esi
	movl	$0, (%rax)
	movq	$0, 40(%rsp)
	call	setsockopt@PLT
	movq	_ZGVZN4asio15system_categoryEvE8instance@GOTPCREL(%rip), %r14
	movzbl	(%r14), %eax
	testb	%al, %al
	jne	.L382
	movq	%r14, %rdi
	call	__cxa_guard_acquire@PLT
	testl	%eax, %eax
	je	.L382
	movq	_ZZN4asio15system_categoryEvE8instance@GOTPCREL(%rip), %rsi
	movq	_ZN4asio6detail15system_categoryD1Ev@GOTPCREL(%rip), %rdi
	leaq	__dso_handle(%rip), %rdx
	call	__cxa_atexit@PLT
	movq	%r14, %rdi
	call	__cxa_guard_release@PLT
	jmp	.L382
	.p2align 4,,10
	.p2align 3
.L368:
	leaq	48(%rbp), %r12
	movq	%r12, %rdi
	call	pthread_mutex_lock@PLT
	movq	200(%rbp), %rax
	testq	%rax, %rax
	je	.L375
	movq	8(%rsp), %rcx
	movq	%rcx, (%rax)
.L376:
	movq	136(%rbp), %rax
	movq	%rbx, 200(%rbp)
	orq	$1, %rax
	movq	%rax, 136(%rbp)
	cmpq	$1, %rax
	je	.L377
	movq	%r12, %rdi
	call	pthread_mutex_unlock@PLT
	leaq	88(%rbp), %rdi
	call	pthread_cond_signal@PLT
	jmp	.L475
.L377:
	cmpb	$0, 176(%rbp)
	jne	.L379
	movq	144(%rbp), %rax
	testq	%rax, %rax
	je	.L379
	movb	$1, 176(%rbp)
	leaq	88(%rax), %rdx
	leaq	40(%rsp), %rcx
	movl	$3, %esi
	movq	%rdx, 44(%rsp)
	movl	88(%rax), %edx
	movl	$-2147483639, 40(%rsp)
	movl	96(%rax), %edi
	call	epoll_ctl@PLT
.L379:
	movq	%r12, %rdi
	call	pthread_mutex_unlock@PLT
	jmp	.L475
	.p2align 4,,10
	.p2align 3
.L495:
	movl	$-1, %eax
	lock xaddl	%eax, 12(%rbp)
	jmp	.L403
	.p2align 4,,10
	.p2align 3
.L496:
	movl	$-1, %eax
	lock xaddl	%eax, 12(%rbp)
	jmp	.L410
	.p2align 4,,10
	.p2align 3
.L489:
	movq	16(%rsp), %rax
	movl	$0, 40(%rsp)
	leaq	40(%rsp), %rcx
	movl	%r12d, %edx
	movq	$0, 44(%rsp)
	movl	$2, %esi
	movl	96(%rax), %edi
	call	epoll_ctl@PLT
	movq	72(%r15), %r11
	jmp	.L354
	.p2align 4,,10
	.p2align 3
.L419:
	movq	%rbp, %rbx
	jmp	.L355
	.p2align 4,,10
	.p2align 3
.L498:
	movq	24(%rbp), %rax
	movq	16(%rsp), %rcx
	movq	%rax, 160(%rcx)
	jmp	.L364
.L494:
	movq	%r14, %rdi
	call	__cxa_guard_acquire@PLT
	testl	%eax, %eax
	je	.L391
	movq	_ZZN4asio15system_categoryEvE8instance@GOTPCREL(%rip), %rsi
	movq	_ZN4asio6detail15system_categoryD1Ev@GOTPCREL(%rip), %rdi
	leaq	__dso_handle(%rip), %rdx
	call	__cxa_atexit@PLT
	movq	%r14, %rdi
	call	__cxa_guard_release@PLT
	jmp	.L391
.L393:
	movl	%r12d, %edi
	leaq	40(%rsp), %rdx
	movl	$21537, %esi
	xorl	%eax, %eax
	movl	$0, 40(%rsp)
	call	ioctl@PLT
	andb	$-4, 68(%r15)
	movl	%r12d, %edi
	movl	$0, (%rbx)
	call	close@PLT
	jmp	.L480
.L375:
	movq	8(%rsp), %rax
	movq	%rax, 192(%rbp)
	jmp	.L376
.L372:
	movq	%rcx, 8(%rax)
	jmp	.L373
.L488:
	call	__stack_chk_fail@PLT
	.cfi_endproc
.LFE9446:
	.section	.gcc_except_table
.LLSDA9446:
	.byte	0xff
	.byte	0xff
	.byte	0x1
	.uleb128 .LLSDACSE9446-.LLSDACSB9446
.LLSDACSB9446:
.LLSDACSE9446:
	.section	.text._ZN7asiopal13SocketChannelD0Ev,"axG",@progbits,_ZN7asiopal13SocketChannelD5Ev,comdat
	.size	_ZN7asiopal13SocketChannelD0Ev, .-_ZN7asiopal13SocketChannelD0Ev
	.text
	.align 2
	.p2align 4
	.globl	_ZN7asiopal13SocketChannel12ShutdownImplEv
	.type	_ZN7asiopal13SocketChannel12ShutdownImplEv, @function
_ZN7asiopal13SocketChannel12ShutdownImplEv:
.LFB7050:
	.cfi_startproc
	pushq	%r15
	.cfi_def_cfa_offset 16
	.cfi_offset 15, -16
	movq	%rdi, %r15
	pushq	%r14
	.cfi_def_cfa_offset 24
	.cfi_offset 14, -24
	pushq	%r13
	.cfi_def_cfa_offset 32
	.cfi_offset 13, -32
	pushq	%r12
	.cfi_def_cfa_offset 40
	.cfi_offset 12, -40
	pushq	%rbp
	.cfi_def_cfa_offset 48
	.cfi_offset 6, -48
	pushq	%rbx
	.cfi_def_cfa_offset 56
	.cfi_offset 3, -56
	subq	$72, %rsp
	.cfi_def_cfa_offset 128
	movl	64(%rdi), %ebp
	movq	%fs:40, %rax
	movq	%rax, 56(%rsp)
	xorl	%eax, %eax
	cmpl	$-1, %ebp
	je	.L605
	call	__errno_location@PLT
	movl	$2, %esi
	movl	%ebp, %edi
	movl	$0, (%rax)
	call	shutdown@PLT
.L605:
	movq	_ZGVZN4asio15system_categoryEvE8instance@GOTPCREL(%rip), %r14
	movzbl	(%r14), %eax
	testb	%al, %al
	je	.L610
.L502:
	movl	64(%r15), %r12d
	cmpl	$-1, %r12d
	jne	.L611
.L506:
	movl	$-1, 64(%r15)
	movb	$0, 68(%r15)
	movq	56(%rsp), %rax
	subq	%fs:40, %rax
	jne	.L612
	addq	$72, %rsp
	.cfi_remember_state
	.cfi_def_cfa_offset 56
	popq	%rbx
	.cfi_def_cfa_offset 48
	popq	%rbp
	.cfi_def_cfa_offset 40
	popq	%r12
	.cfi_def_cfa_offset 32
	popq	%r13
	.cfi_def_cfa_offset 24
	popq	%r14
	.cfi_def_cfa_offset 16
	popq	%r15
	.cfi_def_cfa_offset 8
	ret
	.p2align 4,,10
	.p2align 3
.L611:
	.cfi_restore_state
	movq	72(%r15), %rbp
	testq	%rbp, %rbp
	je	.L507
	movq	88(%r15), %rax
	movzbl	68(%r15), %ebx
	movq	40(%rax), %rax
	movq	%rax, 16(%rsp)
	leaq	40(%rbp), %rax
	movq	%rax, %rdi
	movq	%rax, 24(%rsp)
	call	pthread_mutex_lock@PLT
	movq	72(%r15), %rdi
	cmpb	$0, 144(%rdi)
	jne	.L508
	andl	$64, %ebx
	jne	.L613
.L509:
	movq	$0, 8(%rsp)
	xorl	%ebp, %ebp
	movl	$0, 4(%rsp)
.L518:
	movslq	4(%rsp), %r10
	movq	%r10, %rax
	salq	$4, %rax
	movq	96(%rax,%rdi), %rbx
	testq	%rbx, %rbx
	je	.L548
	movq	_ZZN4asio15system_categoryEvE8instance@GOTPCREL(%rip), %r13
	movq	%rax, %r12
	movzbl	(%r14), %eax
	testb	%al, %al
	je	.L614
	.p2align 4,,10
	.p2align 3
.L513:
	movq	72(%r15), %rdi
	movl	$125, 24(%rbx)
	movq	%r13, 32(%rbx)
	leaq	(%rdi,%r12), %r11
	movq	96(%r11), %rax
	testq	%rax, %rax
	je	.L515
	movq	(%rax), %rdx
	movq	%rdx, 96(%r11)
	testq	%rdx, %rdx
	je	.L615
	movq	$0, (%rax)
	movq	$0, (%rbx)
	testq	%rbp, %rbp
	je	.L616
.L546:
	movq	%rbx, 0(%rbp)
	testq	%rdx, %rdx
	je	.L510
.L517:
	movzbl	(%r14), %eax
	movq	%rbx, %rbp
	movq	%rdx, %rbx
	testb	%al, %al
	jne	.L513
.L614:
	movq	%r14, %rdi
	call	__cxa_guard_acquire@PLT
	testl	%eax, %eax
	je	.L513
	movq	_ZN4asio6detail15system_categoryD1Ev@GOTPCREL(%rip), %rdi
	leaq	__dso_handle(%rip), %rdx
	movq	%r13, %rsi
	call	__cxa_atexit@PLT
	movq	%r14, %rdi
	call	__cxa_guard_release@PLT
	jmp	.L513
	.p2align 4,,10
	.p2align 3
.L508:
	movq	24(%rsp), %rdi
	call	pthread_mutex_unlock@PLT
.L529:
	movl	64(%r15), %r12d
	cmpl	$-1, %r12d
	je	.L506
.L507:
	call	__errno_location@PLT
	movl	%r12d, %edi
	movl	$0, (%rax)
	movq	%rax, %rbx
	call	close@PLT
	movl	%eax, %ebp
	movzbl	(%r14), %eax
	testb	%al, %al
	je	.L617
.L537:
	testl	%ebp, %ebp
	je	.L506
	movl	(%rbx), %ebp
	movzbl	(%r14), %eax
	testb	%al, %al
	je	.L618
.L540:
	cmpl	$11, %ebp
	je	.L542
.L609:
	movzbl	(%r14), %eax
	testb	%al, %al
	jne	.L506
	movq	%r14, %rdi
	call	__cxa_guard_acquire@PLT
	testl	%eax, %eax
	je	.L506
	movq	_ZZN4asio15system_categoryEvE8instance@GOTPCREL(%rip), %rsi
	movq	_ZN4asio6detail15system_categoryD1Ev@GOTPCREL(%rip), %rdi
	leaq	__dso_handle(%rip), %rdx
	call	__cxa_atexit@PLT
	movq	%r14, %rdi
	call	__cxa_guard_release@PLT
	jmp	.L506
	.p2align 4,,10
	.p2align 3
.L610:
	movq	%r14, %rdi
	call	__cxa_guard_acquire@PLT
	testl	%eax, %eax
	je	.L502
	movq	_ZZN4asio15system_categoryEvE8instance@GOTPCREL(%rip), %r13
	movq	_ZN4asio6detail15system_categoryD1Ev@GOTPCREL(%rip), %rdi
	leaq	__dso_handle(%rip), %rdx
	movq	%r13, %rsi
	call	__cxa_atexit@PLT
	movq	%r14, %rdi
	call	__cxa_guard_release@PLT
	jmp	.L502
	.p2align 4,,10
	.p2align 3
.L617:
	movq	%r14, %rdi
	call	__cxa_guard_acquire@PLT
	testl	%eax, %eax
	je	.L537
	movq	_ZZN4asio15system_categoryEvE8instance@GOTPCREL(%rip), %rsi
	movq	_ZN4asio6detail15system_categoryD1Ev@GOTPCREL(%rip), %rdi
	leaq	__dso_handle(%rip), %rdx
	call	__cxa_atexit@PLT
	movq	%r14, %rdi
	call	__cxa_guard_release@PLT
	jmp	.L537
	.p2align 4,,10
	.p2align 3
.L618:
	movq	%r14, %rdi
	call	__cxa_guard_acquire@PLT
	testl	%eax, %eax
	je	.L540
	movq	_ZZN4asio15system_categoryEvE8instance@GOTPCREL(%rip), %rsi
	movq	_ZN4asio6detail15system_categoryD1Ev@GOTPCREL(%rip), %rdi
	leaq	__dso_handle(%rip), %rdx
	call	__cxa_atexit@PLT
	movq	%r14, %rdi
	call	__cxa_guard_release@PLT
	jmp	.L540
	.p2align 4,,10
	.p2align 3
.L515:
	movq	$0, (%rbx)
	testq	%rbp, %rbp
	je	.L551
	movq	%rbx, 0(%rbp)
.L510:
	addl	$1, 4(%rsp)
	movl	4(%rsp), %eax
	cmpl	$3, %eax
	je	.L619
.L550:
	movq	%rbx, %rbp
	jmp	.L518
	.p2align 4,,10
	.p2align 3
.L615:
	movq	$0, 104(%r11)
	movq	$0, (%rax)
	movq	$0, (%rbx)
	testq	%rbp, %rbp
	jne	.L546
	.p2align 4,,10
	.p2align 3
.L551:
	addl	$1, 4(%rsp)
	movl	4(%rsp), %eax
	movq	%rbx, 8(%rsp)
	cmpl	$3, %eax
	jne	.L550
.L619:
	movl	$-1, 88(%rdi)
	movb	$1, 144(%rdi)
	movq	24(%rsp), %rdi
	call	pthread_mutex_unlock@PLT
	movq	16(%rsp), %r13
	movq	72(%r15), %rbp
	leaq	120(%r13), %r12
	movq	%r12, %rdi
	call	pthread_mutex_lock@PLT
	cmpq	160(%r13), %rbp
	je	.L620
.L519:
	movq	32(%rbp), %rax
	testq	%rax, %rax
	je	.L520
	movq	24(%rbp), %rdx
	movq	%rdx, 24(%rax)
.L520:
	movq	24(%rbp), %rax
	testq	%rax, %rax
	je	.L521
	movq	32(%rbp), %rdx
	movq	%rdx, 32(%rax)
.L521:
	movq	16(%rsp), %r13
	movq	%r12, %rdi
	movq	168(%r13), %rax
	movq	$0, 32(%rbp)
	movq	%rax, 24(%rbp)
	movq	%rbp, 168(%r13)
	call	pthread_mutex_unlock@PLT
	cmpq	$0, 8(%rsp)
	movq	$0, 72(%r15)
	je	.L529
	movq	40(%r13), %rbp
	cmpb	$0, 40(%rbp)
	je	.L523
	data16	leaq	_ZN4asio6detail15keyword_tss_ptrINS0_10call_stackINS0_15task_io_serviceENS0_27task_io_service_thread_infoEE7contextEE6value_E@tlsgd(%rip), %rdi
	.value	0x6666
	rex64
	call	__tls_get_addr@PLT
	movq	(%rax), %rax
	testq	%rax, %rax
	jne	.L526
	jmp	.L523
	.p2align 4,,10
	.p2align 3
.L524:
	movq	16(%rax), %rax
	testq	%rax, %rax
	je	.L523
.L526:
	cmpq	(%rax), %rbp
	jne	.L524
	movq	8(%rax), %rax
	testq	%rax, %rax
	je	.L523
	movq	16(%rax), %rdx
	movq	8(%rsp), %rcx
	testq	%rdx, %rdx
	je	.L527
	movq	%rcx, (%rdx)
.L528:
	movq	%rbx, 16(%rax)
	jmp	.L529
	.p2align 4,,10
	.p2align 3
.L616:
	movq	%rbx, 8(%rsp)
	jmp	.L517
	.p2align 4,,10
	.p2align 3
.L523:
	leaq	48(%rbp), %r12
	movq	%r12, %rdi
	call	pthread_mutex_lock@PLT
	movq	200(%rbp), %rax
	testq	%rax, %rax
	je	.L530
	movq	8(%rsp), %rcx
	movq	%rcx, (%rax)
.L531:
	movq	136(%rbp), %rax
	movq	%rbx, 200(%rbp)
	orq	$1, %rax
	movq	%rax, 136(%rbp)
	cmpq	$1, %rax
	je	.L532
	movq	%r12, %rdi
	call	pthread_mutex_unlock@PLT
	leaq	88(%rbp), %rdi
	call	pthread_cond_signal@PLT
	jmp	.L529
.L532:
	cmpb	$0, 176(%rbp)
	jne	.L534
	movq	144(%rbp), %rax
	testq	%rax, %rax
	je	.L534
	movb	$1, 176(%rbp)
	leaq	88(%rax), %rdx
	leaq	44(%rsp), %rcx
	movl	$3, %esi
	movq	%rdx, 48(%rsp)
	movl	88(%rax), %edx
	movl	$-2147483639, 44(%rsp)
	movl	96(%rax), %edi
	call	epoll_ctl@PLT
.L534:
	movq	%r12, %rdi
	call	pthread_mutex_unlock@PLT
	jmp	.L529
	.p2align 4,,10
	.p2align 3
.L548:
	movq	%rbp, %rbx
	jmp	.L510
	.p2align 4,,10
	.p2align 3
.L613:
	movq	16(%rsp), %rax
	movl	$0, 44(%rsp)
	leaq	44(%rsp), %rcx
	movl	%r12d, %edx
	movq	$0, 48(%rsp)
	movl	$2, %esi
	movl	96(%rax), %edi
	call	epoll_ctl@PLT
	movq	72(%r15), %rdi
	jmp	.L509
	.p2align 4,,10
	.p2align 3
.L620:
	movq	24(%rbp), %rax
	movq	16(%rsp), %rcx
	movq	%rax, 160(%rcx)
	jmp	.L519
	.p2align 4,,10
	.p2align 3
.L542:
	movl	%r12d, %edi
	leaq	44(%rsp), %rdx
	movl	$21537, %esi
	xorl	%eax, %eax
	movl	$0, 44(%rsp)
	call	ioctl@PLT
	andb	$-4, 68(%r15)
	movl	%r12d, %edi
	movl	$0, (%rbx)
	call	close@PLT
	jmp	.L609
.L530:
	movq	8(%rsp), %rax
	movq	%rax, 192(%rbp)
	jmp	.L531
.L527:
	movq	%rcx, 8(%rax)
	jmp	.L528
.L612:
	call	__stack_chk_fail@PLT
	.cfi_endproc
.LFE7050:
	.size	_ZN7asiopal13SocketChannel12ShutdownImplEv, .-_ZN7asiopal13SocketChannel12ShutdownImplEv
	.section	.text._ZN7asiopal13SocketChannelD2Ev,"axG",@progbits,_ZN7asiopal13SocketChannelD5Ev,comdat
	.align 2
	.p2align 4
	.weak	_ZN7asiopal13SocketChannelD2Ev
	.type	_ZN7asiopal13SocketChannelD2Ev, @function
_ZN7asiopal13SocketChannelD2Ev:
.LFB9444:
	.cfi_startproc
	.cfi_personality 0x9b,DW.ref.__gxx_personality_v0
	.cfi_lsda 0x1b,.LLSDA9444
	pushq	%r15
	.cfi_def_cfa_offset 16
	.cfi_offset 15, -16
	movq	%rdi, %r15
	pushq	%r14
	.cfi_def_cfa_offset 24
	.cfi_offset 14, -24
	pushq	%r13
	.cfi_def_cfa_offset 32
	.cfi_offset 13, -32
	pushq	%r12
	.cfi_def_cfa_offset 40
	.cfi_offset 12, -40
	pushq	%rbp
	.cfi_def_cfa_offset 48
	.cfi_offset 6, -48
	pushq	%rbx
	.cfi_def_cfa_offset 56
	.cfi_offset 3, -56
	subq	$72, %rsp
	.cfi_def_cfa_offset 128
	movl	64(%rdi), %r12d
	movq	%fs:40, %rax
	movq	%rax, 56(%rsp)
	movq	_ZTVN7asiopal13SocketChannelE@GOTPCREL(%rip), %rax
	addq	$16, %rax
	movq	%rax, (%rdi)
	cmpl	$-1, %r12d
	jne	.L753
.L622:
	movq	_ZTVN7asiopal13IAsyncChannelE@GOTPCREL(%rip), %rax
	movq	48(%r15), %rbp
	addq	$16, %rax
	movq	%rax, (%r15)
	testq	%rbp, %rbp
	je	.L669
	movq	_ZL28__gthrw___pthread_key_createPjPFvPvE@GOTPCREL(%rip), %rbx
	testq	%rbx, %rbx
	jne	.L754
	movl	8(%rbp), %eax
	leal	-1(%rax), %edx
	movl	%edx, 8(%rbp)
.L671:
	cmpl	$1, %eax
	je	.L755
.L669:
	movq	32(%r15), %rbp
	testq	%rbp, %rbp
	je	.L676
	movq	_ZL28__gthrw___pthread_key_createPjPFvPvE@GOTPCREL(%rip), %rbx
	testq	%rbx, %rbx
	jne	.L756
	movl	8(%rbp), %eax
	leal	-1(%rax), %edx
	movl	%edx, 8(%rbp)
.L678:
	cmpl	$1, %eax
	je	.L757
.L676:
	movq	16(%r15), %rdi
	testq	%rdi, %rdi
	je	.L621
	cmpq	$0, _ZL28__gthrw___pthread_key_createPjPFvPvE@GOTPCREL(%rip)
	jne	.L758
	movl	12(%rdi), %eax
	leal	-1(%rax), %edx
	movl	%edx, 12(%rdi)
.L685:
	cmpl	$1, %eax
	je	.L759
.L621:
	movq	56(%rsp), %rax
	subq	%fs:40, %rax
	jne	.L748
	addq	$72, %rsp
	.cfi_remember_state
	.cfi_def_cfa_offset 56
	popq	%rbx
	.cfi_def_cfa_offset 48
	popq	%rbp
	.cfi_def_cfa_offset 40
	popq	%r12
	.cfi_def_cfa_offset 32
	popq	%r13
	.cfi_def_cfa_offset 24
	popq	%r14
	.cfi_def_cfa_offset 16
	popq	%r15
	.cfi_def_cfa_offset 8
	ret
	.p2align 4,,10
	.p2align 3
.L753:
	.cfi_restore_state
	movq	72(%rdi), %rbp
	testq	%rbp, %rbp
	je	.L651
	movq	88(%rdi), %rax
	movzbl	68(%rdi), %ebx
	movq	40(%rax), %rax
	movq	%rax, 16(%rsp)
	leaq	40(%rbp), %rax
	movq	%rax, %rdi
	movq	%rax, 24(%rsp)
	call	pthread_mutex_lock@PLT
	movq	72(%r15), %r11
	cmpb	$0, 144(%r11)
	jne	.L624
	andl	$64, %ebx
	jne	.L760
.L625:
	movq	$0, 8(%rsp)
	xorl	%ebp, %ebp
	movl	$0, 4(%rsp)
.L634:
	movslq	4(%rsp), %r10
	movq	%r10, %rax
	salq	$4, %rax
	movq	96(%rax,%r11), %rbx
	testq	%rbx, %rbx
	je	.L690
	movq	_ZGVZN4asio15system_categoryEvE8instance@GOTPCREL(%rip), %r14
	movq	_ZZN4asio15system_categoryEvE8instance@GOTPCREL(%rip), %r12
	movq	%rax, %r13
	movzbl	(%r14), %eax
	testb	%al, %al
	je	.L761
	.p2align 4,,10
	.p2align 3
.L629:
	movq	72(%r15), %r11
	movl	$125, 24(%rbx)
	movq	%r12, 32(%rbx)
	leaq	(%r11,%r13), %rdi
	movq	96(%rdi), %rax
	testq	%rax, %rax
	je	.L631
	movq	(%rax), %rdx
	movq	%rdx, 96(%rdi)
	testq	%rdx, %rdx
	je	.L762
	movq	$0, (%rax)
	movq	$0, (%rbx)
	testq	%rbp, %rbp
	je	.L763
.L688:
	movq	%rbx, 0(%rbp)
	testq	%rdx, %rdx
	je	.L626
.L633:
	movzbl	(%r14), %eax
	movq	%rbx, %rbp
	movq	%rdx, %rbx
	testb	%al, %al
	jne	.L629
.L761:
	movq	%r14, %rdi
	call	__cxa_guard_acquire@PLT
	testl	%eax, %eax
	je	.L629
	movq	_ZN4asio6detail15system_categoryD1Ev@GOTPCREL(%rip), %rdi
	leaq	__dso_handle(%rip), %rdx
	movq	%r12, %rsi
	call	__cxa_atexit@PLT
	movq	%r14, %rdi
	call	__cxa_guard_release@PLT
	jmp	.L629
	.p2align 4,,10
	.p2align 3
.L624:
	movq	24(%rsp), %rdi
	call	pthread_mutex_unlock@PLT
.L746:
	movl	64(%r15), %r12d
	cmpl	$-1, %r12d
	je	.L622
.L651:
	call	__errno_location@PLT
	movzbl	68(%r15), %ebp
	movq	%rax, %rbx
	testb	$8, %bpl
	jne	.L744
	movq	_ZGVZN4asio15system_categoryEvE8instance@GOTPCREL(%rip), %r14
.L653:
	movl	$0, (%rbx)
	movl	%r12d, %edi
	call	close@PLT
	movl	%eax, %ebp
	movzbl	(%r14), %eax
	testb	%al, %al
	je	.L764
.L658:
	testl	%ebp, %ebp
	je	.L622
	movl	(%rbx), %ebp
	movzbl	(%r14), %eax
	testb	%al, %al
	je	.L765
.L662:
	cmpl	$11, %ebp
	je	.L664
.L752:
	movzbl	(%r14), %eax
	testb	%al, %al
	jne	.L622
	movq	%r14, %rdi
	call	__cxa_guard_acquire@PLT
	testl	%eax, %eax
	je	.L622
	movq	_ZZN4asio15system_categoryEvE8instance@GOTPCREL(%rip), %rsi
	movq	_ZN4asio6detail15system_categoryD1Ev@GOTPCREL(%rip), %rdi
	leaq	__dso_handle(%rip), %rdx
	call	__cxa_atexit@PLT
	movq	%r14, %rdi
	call	__cxa_guard_release@PLT
	jmp	.L622
	.p2align 4,,10
	.p2align 3
.L755:
	movq	0(%rbp), %rax
	movq	%rbp, %rdi
	call	*16(%rax)
	testq	%rbx, %rbx
	jne	.L766
	movl	12(%rbp), %eax
	leal	-1(%rax), %edx
	movl	%edx, 12(%rbp)
.L674:
	cmpl	$1, %eax
	jne	.L669
	movq	0(%rbp), %rax
	movq	%rbp, %rdi
	call	*24(%rax)
	jmp	.L669
	.p2align 4,,10
	.p2align 3
.L757:
	movq	0(%rbp), %rax
	movq	%rbp, %rdi
	call	*16(%rax)
	testq	%rbx, %rbx
	jne	.L767
	movl	12(%rbp), %eax
	leal	-1(%rax), %edx
	movl	%edx, 12(%rbp)
.L681:
	cmpl	$1, %eax
	jne	.L676
	movq	0(%rbp), %rax
	movq	%rbp, %rdi
	call	*24(%rax)
	jmp	.L676
	.p2align 4,,10
	.p2align 3
.L759:
	movq	56(%rsp), %rax
	subq	%fs:40, %rax
	jne	.L748
	movq	(%rdi), %rax
	movq	24(%rax), %rax
	addq	$72, %rsp
	.cfi_remember_state
	.cfi_def_cfa_offset 56
	popq	%rbx
	.cfi_def_cfa_offset 48
	popq	%rbp
	.cfi_def_cfa_offset 40
	popq	%r12
	.cfi_def_cfa_offset 32
	popq	%r13
	.cfi_def_cfa_offset 24
	popq	%r14
	.cfi_def_cfa_offset 16
	popq	%r15
	.cfi_def_cfa_offset 8
	jmp	*%rax
	.p2align 4,,10
	.p2align 3
.L756:
	.cfi_restore_state
	movl	$-1, %eax
	lock xaddl	%eax, 8(%rbp)
	jmp	.L678
	.p2align 4,,10
	.p2align 3
.L758:
	movl	$-1, %eax
	lock xaddl	%eax, 12(%rdi)
	jmp	.L685
	.p2align 4,,10
	.p2align 3
.L754:
	movl	$-1, %eax
	lock xaddl	%eax, 8(%rbp)
	jmp	.L671
	.p2align 4,,10
	.p2align 3
.L631:
	movq	$0, (%rbx)
	testq	%rbp, %rbp
	je	.L693
	movq	%rbx, 0(%rbp)
.L626:
	addl	$1, 4(%rsp)
	movl	4(%rsp), %eax
	cmpl	$3, %eax
	je	.L768
.L692:
	movq	%rbx, %rbp
	jmp	.L634
	.p2align 4,,10
	.p2align 3
.L762:
	movq	$0, 104(%rdi)
	movq	$0, (%rax)
	movq	$0, (%rbx)
	testq	%rbp, %rbp
	jne	.L688
	.p2align 4,,10
	.p2align 3
.L693:
	addl	$1, 4(%rsp)
	movl	4(%rsp), %eax
	movq	%rbx, 8(%rsp)
	cmpl	$3, %eax
	jne	.L692
.L768:
	movl	$-1, 88(%r11)
	movq	24(%rsp), %rdi
	movb	$1, 144(%r11)
	call	pthread_mutex_unlock@PLT
	movq	16(%rsp), %r14
	movq	72(%r15), %rbp
	leaq	120(%r14), %r12
	movq	%r12, %rdi
	call	pthread_mutex_lock@PLT
	cmpq	160(%r14), %rbp
	je	.L769
.L635:
	movq	32(%rbp), %rax
	testq	%rax, %rax
	je	.L636
	movq	24(%rbp), %rdx
	movq	%rdx, 24(%rax)
.L636:
	movq	24(%rbp), %rax
	testq	%rax, %rax
	je	.L637
	movq	32(%rbp), %rdx
	movq	%rdx, 32(%rax)
.L637:
	movq	16(%rsp), %r14
	movq	%r12, %rdi
	movq	168(%r14), %rax
	movq	$0, 32(%rbp)
	movq	%rax, 24(%rbp)
	movq	%rbp, 168(%r14)
	call	pthread_mutex_unlock@PLT
	cmpq	$0, 8(%rsp)
	movq	$0, 72(%r15)
	je	.L746
	movq	40(%r14), %rbp
	cmpb	$0, 40(%rbp)
	je	.L639
	data16	leaq	_ZN4asio6detail15keyword_tss_ptrINS0_10call_stackINS0_15task_io_serviceENS0_27task_io_service_thread_infoEE7contextEE6value_E@tlsgd(%rip), %rdi
	.value	0x6666
	rex64
	call	__tls_get_addr@PLT
	movq	(%rax), %rax
	testq	%rax, %rax
	jne	.L642
	jmp	.L639
	.p2align 4,,10
	.p2align 3
.L640:
	movq	16(%rax), %rax
	testq	%rax, %rax
	je	.L639
.L642:
	cmpq	(%rax), %rbp
	jne	.L640
	movq	8(%rax), %rax
	testq	%rax, %rax
	je	.L639
	movq	16(%rax), %rdx
	testq	%rdx, %rdx
	je	.L643
	movq	8(%rsp), %rsi
	movq	%rsi, (%rdx)
.L644:
	movq	%rbx, 16(%rax)
	jmp	.L746
	.p2align 4,,10
	.p2align 3
.L763:
	movq	%rbx, 8(%rsp)
	jmp	.L633
	.p2align 4,,10
	.p2align 3
.L764:
	movq	%r14, %rdi
	call	__cxa_guard_acquire@PLT
	testl	%eax, %eax
	je	.L658
	movq	_ZZN4asio15system_categoryEvE8instance@GOTPCREL(%rip), %rsi
	movq	_ZN4asio6detail15system_categoryD1Ev@GOTPCREL(%rip), %rdi
	leaq	__dso_handle(%rip), %rdx
	call	__cxa_atexit@PLT
	movq	%r14, %rdi
	call	__cxa_guard_release@PLT
	jmp	.L658
	.p2align 4,,10
	.p2align 3
.L744:
	orl	$8, %ebp
	leaq	40(%rsp), %rcx
	movl	$13, %edx
	movl	%r12d, %edi
	movb	%bpl, 68(%r15)
	movl	$8, %r8d
	movl	$1, %esi
	movl	$0, (%rax)
	movq	$0, 40(%rsp)
	call	setsockopt@PLT
	movq	_ZGVZN4asio15system_categoryEvE8instance@GOTPCREL(%rip), %r14
	movzbl	(%r14), %eax
	testb	%al, %al
	jne	.L653
	movq	%r14, %rdi
	call	__cxa_guard_acquire@PLT
	testl	%eax, %eax
	je	.L653
	movq	_ZZN4asio15system_categoryEvE8instance@GOTPCREL(%rip), %rsi
	movq	_ZN4asio6detail15system_categoryD1Ev@GOTPCREL(%rip), %rdi
	leaq	__dso_handle(%rip), %rdx
	call	__cxa_atexit@PLT
	movq	%r14, %rdi
	call	__cxa_guard_release@PLT
	jmp	.L653
	.p2align 4,,10
	.p2align 3
.L639:
	leaq	48(%rbp), %r12
	movq	%r12, %rdi
	call	pthread_mutex_lock@PLT
	movq	200(%rbp), %rax
	testq	%rax, %rax
	je	.L646
	movq	8(%rsp), %rcx
	movq	%rcx, (%rax)
.L647:
	movq	136(%rbp), %rax
	movq	%rbx, 200(%rbp)
	orq	$1, %rax
	movq	%rax, 136(%rbp)
	cmpq	$1, %rax
	je	.L648
	movq	%r12, %rdi
	call	pthread_mutex_unlock@PLT
	leaq	88(%rbp), %rdi
	call	pthread_cond_signal@PLT
	jmp	.L746
.L648:
	cmpb	$0, 176(%rbp)
	jne	.L650
	movq	144(%rbp), %rax
	testq	%rax, %rax
	je	.L650
	movb	$1, 176(%rbp)
	leaq	88(%rax), %rdx
	leaq	40(%rsp), %rcx
	movl	$3, %esi
	movq	%rdx, 44(%rsp)
	movl	88(%rax), %edx
	movl	$-2147483639, 40(%rsp)
	movl	96(%rax), %edi
	call	epoll_ctl@PLT
.L650:
	movq	%r12, %rdi
	call	pthread_mutex_unlock@PLT
	jmp	.L746
	.p2align 4,,10
	.p2align 3
.L766:
	movl	$-1, %eax
	lock xaddl	%eax, 12(%rbp)
	jmp	.L674
	.p2align 4,,10
	.p2align 3
.L767:
	movl	$-1, %eax
	lock xaddl	%eax, 12(%rbp)
	jmp	.L681
	.p2align 4,,10
	.p2align 3
.L760:
	movq	16(%rsp), %rax
	movl	$0, 40(%rsp)
	leaq	40(%rsp), %rcx
	movl	%r12d, %edx
	movq	$0, 44(%rsp)
	movl	$2, %esi
	movl	96(%rax), %edi
	call	epoll_ctl@PLT
	movq	72(%r15), %r11
	jmp	.L625
	.p2align 4,,10
	.p2align 3
.L690:
	movq	%rbp, %rbx
	jmp	.L626
	.p2align 4,,10
	.p2align 3
.L769:
	movq	24(%rbp), %rax
	movq	16(%rsp), %rcx
	movq	%rax, 160(%rcx)
	jmp	.L635
.L765:
	movq	%r14, %rdi
	call	__cxa_guard_acquire@PLT
	testl	%eax, %eax
	je	.L662
	movq	_ZZN4asio15system_categoryEvE8instance@GOTPCREL(%rip), %rsi
	movq	_ZN4asio6detail15system_categoryD1Ev@GOTPCREL(%rip), %rdi
	leaq	__dso_handle(%rip), %rdx
	call	__cxa_atexit@PLT
	movq	%r14, %rdi
	call	__cxa_guard_release@PLT
	jmp	.L662
.L664:
	movl	%r12d, %edi
	leaq	40(%rsp), %rdx
	movl	$21537, %esi
	xorl	%eax, %eax
	movl	$0, 40(%rsp)
	call	ioctl@PLT
	andb	$-4, 68(%r15)
	movl	%r12d, %edi
	movl	$0, (%rbx)
	call	close@PLT
	jmp	.L752
.L646:
	movq	8(%rsp), %rax
	movq	%rax, 192(%rbp)
	jmp	.L647
.L643:
	movq	8(%rsp), %rcx
	movq	%rcx, 8(%rax)
	jmp	.L644
.L748:
	call	__stack_chk_fail@PLT
	.cfi_endproc
.LFE9444:
	.section	.gcc_except_table
.LLSDA9444:
	.byte	0xff
	.byte	0xff
	.byte	0x1
	.uleb128 .LLSDACSE9444-.LLSDACSB9444
.LLSDACSB9444:
.LLSDACSE9444:
	.section	.text._ZN7asiopal13SocketChannelD2Ev,"axG",@progbits,_ZN7asiopal13SocketChannelD5Ev,comdat
	.size	_ZN7asiopal13SocketChannelD2Ev, .-_ZN7asiopal13SocketChannelD2Ev
	.weak	_ZN7asiopal13SocketChannelD1Ev
	.set	_ZN7asiopal13SocketChannelD1Ev,_ZN7asiopal13SocketChannelD2Ev
	.section	.text._ZN4asio6detail15task_io_service25post_immediate_completionEPNS0_25task_io_service_operationEb,"axG",@progbits,_ZN4asio6detail15task_io_service25post_immediate_completionEPNS0_25task_io_service_operationEb,comdat
	.align 2
	.p2align 4
	.weak	_ZN4asio6detail15task_io_service25post_immediate_completionEPNS0_25task_io_service_operationEb
	.type	_ZN4asio6detail15task_io_service25post_immediate_completionEPNS0_25task_io_service_operationEb, @function
_ZN4asio6detail15task_io_service25post_immediate_completionEPNS0_25task_io_service_operationEb:
.LFB3355:
	.cfi_startproc
	pushq	%r12
	.cfi_def_cfa_offset 16
	.cfi_offset 12, -16
	pushq	%rbp
	.cfi_def_cfa_offset 24
	.cfi_offset 6, -24
	movq	%rsi, %rbp
	pushq	%rbx
	.cfi_def_cfa_offset 32
	.cfi_offset 3, -32
	movq	%rdi, %rbx
	subq	$32, %rsp
	.cfi_def_cfa_offset 64
	movq	%fs:40, %rax
	movq	%rax, 24(%rsp)
	xorl	%eax, %eax
	cmpb	$0, 40(%rdi)
	jne	.L785
	testb	%dl, %dl
	je	.L771
.L785:
	data16	leaq	_ZN4asio6detail15keyword_tss_ptrINS0_10call_stackINS0_15task_io_serviceENS0_27task_io_service_thread_infoEE7contextEE6value_E@tlsgd(%rip), %rdi
	.value	0x6666
	rex64
	call	__tls_get_addr@PLT
	movq	(%rax), %rax
	testq	%rax, %rax
	jne	.L775
	jmp	.L771
	.p2align 4,,10
	.p2align 3
.L773:
	movq	16(%rax), %rax
	testq	%rax, %rax
	je	.L771
.L775:
	cmpq	(%rax), %rbx
	jne	.L773
	movq	8(%rax), %rax
	testq	%rax, %rax
	je	.L771
	addq	$1, 24(%rax)
	cmpq	$0, 16(%rax)
	movq	$0, 0(%rbp)
	je	.L776
	movq	16(%rax), %rdx
	movq	%rbp, (%rdx)
	movq	%rbp, 16(%rax)
.L770:
	movq	24(%rsp), %rax
	subq	%fs:40, %rax
	jne	.L797
	addq	$32, %rsp
	.cfi_remember_state
	.cfi_def_cfa_offset 32
	popq	%rbx
	.cfi_def_cfa_offset 24
	popq	%rbp
	.cfi_def_cfa_offset 16
	popq	%r12
	.cfi_def_cfa_offset 8
	ret
	.p2align 4,,10
	.p2align 3
.L771:
	.cfi_restore_state
	lock addq	$1, 184(%rbx)
	leaq	48(%rbx), %r12
	movq	%r12, %rdi
	call	pthread_mutex_lock@PLT
	cmpq	$0, 200(%rbx)
	movq	$0, 0(%rbp)
	je	.L778
	movq	200(%rbx), %rax
	movq	%rbp, (%rax)
	movq	%rbp, 200(%rbx)
.L779:
	movq	136(%rbx), %rax
	orq	$1, %rax
	movq	%rax, 136(%rbx)
	cmpq	$1, %rax
	je	.L780
	movq	%r12, %rdi
	call	pthread_mutex_unlock@PLT
	movq	24(%rsp), %rax
	subq	%fs:40, %rax
	jne	.L797
	addq	$32, %rsp
	.cfi_remember_state
	.cfi_def_cfa_offset 32
	leaq	88(%rbx), %rdi
	popq	%rbx
	.cfi_def_cfa_offset 24
	popq	%rbp
	.cfi_def_cfa_offset 16
	popq	%r12
	.cfi_def_cfa_offset 8
	jmp	pthread_cond_signal@PLT
	.p2align 4,,10
	.p2align 3
.L780:
	.cfi_restore_state
	cmpb	$0, 176(%rbx)
	jne	.L782
	movq	144(%rbx), %rax
	testq	%rax, %rax
	je	.L782
	leaq	88(%rax), %rdx
	movb	$1, 176(%rbx)
	movl	96(%rax), %edi
	leaq	12(%rsp), %rcx
	movq	%rdx, 16(%rsp)
	movl	88(%rax), %edx
	movl	$3, %esi
	movl	$-2147483639, 12(%rsp)
	call	epoll_ctl@PLT
.L782:
	movq	24(%rsp), %rax
	subq	%fs:40, %rax
	jne	.L797
	addq	$32, %rsp
	.cfi_remember_state
	.cfi_def_cfa_offset 32
	movq	%r12, %rdi
	popq	%rbx
	.cfi_def_cfa_offset 24
	popq	%rbp
	.cfi_def_cfa_offset 16
	popq	%r12
	.cfi_def_cfa_offset 8
	jmp	pthread_mutex_unlock@PLT
	.p2align 4,,10
	.p2align 3
.L778:
	.cfi_restore_state
	movq	%rbp, %xmm0
	punpcklqdq	%xmm0, %xmm0
	movups	%xmm0, 192(%rbx)
	jmp	.L779
	.p2align 4,,10
	.p2align 3
.L776:
	movq	%rbp, %xmm0
	punpcklqdq	%xmm0, %xmm0
	movups	%xmm0, 8(%rax)
	jmp	.L770
.L797:
	call	__stack_chk_fail@PLT
	.cfi_endproc
.LFE3355:
	.size	_ZN4asio6detail15task_io_service25post_immediate_completionEPNS0_25task_io_service_operationEb, .-_ZN4asio6detail15task_io_service25post_immediate_completionEPNS0_25task_io_service_operationEb
	.section	.text.unlikely
	.align 2
.LCOLDB25:
	.text
.LHOTB25:
	.align 2
	.p2align 4
	.globl	_ZN7asiopal13SocketChannel13BeginReadImplEN7openpal6WSliceE
	.type	_ZN7asiopal13SocketChannel13BeginReadImplEN7openpal6WSliceE, @function
_ZN7asiopal13SocketChannel13BeginReadImplEN7openpal6WSliceE:
.LFB7040:
	.cfi_startproc
	.cfi_personality 0x9b,DW.ref.__gxx_personality_v0
	.cfi_lsda 0x1b,.LLSDA7040
	pushq	%r15
	.cfi_def_cfa_offset 16
	.cfi_offset 15, -16
	pushq	%r14
	.cfi_def_cfa_offset 24
	.cfi_offset 14, -24
	movq	%rdx, %r14
	pushq	%r13
	.cfi_def_cfa_offset 32
	.cfi_offset 13, -32
	movl	%esi, %r13d
	pushq	%r12
	.cfi_def_cfa_offset 40
	.cfi_offset 12, -40
	movq	%rdi, %r12
	pushq	%rbp
	.cfi_def_cfa_offset 48
	.cfi_offset 6, -48
	pushq	%rbx
	.cfi_def_cfa_offset 56
	.cfi_offset 3, -56
	subq	$136, %rsp
	.cfi_def_cfa_offset 192
	movq	%fs:40, %rax
	movq	%rax, 120(%rsp)
	movq	24(%rdi), %rax
	movq	%rdi, 96(%rsp)
	movdqu	40(%rax), %xmm0
	movq	48(%rax), %rbp
	movq	88(%rdi), %rax
	movaps	%xmm0, 80(%rsp)
	movq	%rax, 16(%rsp)
	data16	leaq	_ZN4asio6detail15keyword_tss_ptrINS0_10call_stackINS0_14strand_service11strand_implEhE7contextEE6value_E@tlsgd(%rip), %rdi
	.value	0x6666
	rex64
	call	__tls_get_addr@PLT
	movq	(%rax), %rbx
	testq	%rbx, %rbx
	jne	.L801
	jmp	.L799
	.p2align 4,,10
	.p2align 3
.L800:
	movq	16(%rbx), %rbx
	testq	%rbx, %rbx
	je	.L799
.L801:
	cmpq	(%rbx), %rbp
	jne	.L800
	movq	8(%rbx), %rbx
.L799:
	pxor	%xmm0, %xmm0
	leaq	80(%rsp), %rax
	movq	%rax, 48(%rsp)
	movups	%xmm0, 56(%rsp)
	data16	leaq	_ZN4asio6detail15keyword_tss_ptrINS0_10call_stackINS0_15task_io_serviceENS0_27task_io_service_thread_infoEE7contextEE6value_E@tlsgd(%rip), %rdi
	.value	0x6666
	rex64
	call	__tls_get_addr@PLT
	movq	(%rax), %rax
	testq	%rax, %rax
	je	.L802
	movq	8(%rax), %rax
	testq	%rax, %rax
	je	.L802
	movq	(%rax), %rbp
	testq	%rbp, %rbp
	je	.L802
	movq	$0, (%rax)
	movzbl	0(%rbp), %eax
	cmpb	$111, %al
	jbe	.L803
	movb	%al, 112(%rbp)
	jmp	.L804
	.p2align 4,,10
	.p2align 3
.L803:
	movq	%rbp, %rdi
	call	_ZdlPv@PLT
.L802:
	movl	$113, %edi
.LEHB4:
	call	_Znwm@PLT
.LEHE4:
	movb	$112, 112(%rax)
	movq	%rax, %rbp
.L804:
	movzbl	68(%r12), %edx
	movl	64(%r12), %r15d
	movq	%rbp, 56(%rsp)
	leaq	_ZN4asio6detail23reactive_socket_recv_opINS_17mutable_buffers_1ENS0_15wrapped_handlerINS_10io_service6strandEZN7asiopal13SocketChannel13BeginReadImplEN7openpal6WSliceEEUlRKSt10error_codemE_NS0_26is_continuation_if_runningEEEE11do_completeEPNS0_15task_io_serviceEPNS0_25task_io_service_operationESC_m(%rip), %rax
	movq	$0, 0(%rbp)
	movq	%rax, 8(%rbp)
	movl	$0, 16(%rbp)
	movl	$0, 24(%rbp)
	movb	%dl, 8(%rsp)
	call	_ZNSt3_V215system_categoryEv@PLT
	movzbl	8(%rsp), %edx
	movdqa	80(%rsp), %xmm1
	movq	$0, 40(%rbp)
	movq	%rax, 32(%rbp)
	movq	%rax, %rcx
	movq	_ZN4asio6detail28reactive_socket_recv_op_baseINS_17mutable_buffers_1EE10do_performEPNS0_10reactor_opE@GOTPCREL(%rip), %rax
	movl	%r15d, 56(%rbp)
	movq	%rax, 48(%rbp)
	movq	96(%rsp), %rax
	movb	%dl, 60(%rbp)
	movq	%r14, 64(%rbp)
	movq	%r13, 72(%rbp)
	movl	$0, 80(%rbp)
	movq	%rax, 104(%rbp)
	movq	%rbp, 64(%rsp)
	movups	%xmm1, 88(%rbp)
	testb	$16, %dl
	je	.L875
	testq	%r13, %r13
	je	.L805
.L875:
	andl	$3, %edx
	jne	.L807
	cmpl	$-1, %r15d
	je	.L972
	movq	%rcx, 8(%rsp)
	call	__errno_location@PLT
	movl	%r15d, %edi
	leaq	36(%rsp), %rdx
	movl	$21537, %esi
	movl	$0, (%rax)
	movq	%rax, %r14
	xorl	%eax, %eax
	movl	$1, 36(%rsp)
	call	ioctl@PLT
	movq	_ZGVZN4asio15system_categoryEvE8instance@GOTPCREL(%rip), %r13
	movl	%eax, %r15d
	movzbl	0(%r13), %eax
	testb	%al, %al
	movq	8(%rsp), %rcx
	je	.L812
.L952:
	movq	_ZZN4asio15system_categoryEvE8instance@GOTPCREL(%rip), %rsi
.L813:
	movl	(%r14), %eax
	movq	%rsi, 32(%rbp)
	movl	%eax, 24(%rbp)
	testl	%r15d, %r15d
	jns	.L973
.L805:
	movq	16(%rsp), %rax
	movq	40(%rax), %rax
	movq	40(%rax), %r12
	cmpb	$0, 40(%r12)
	jne	.L879
	testq	%rbx, %rbx
	je	.L862
.L879:
	data16	leaq	_ZN4asio6detail15keyword_tss_ptrINS0_10call_stackINS0_15task_io_serviceENS0_27task_io_service_thread_infoEE7contextEE6value_E@tlsgd(%rip), %rdi
	.value	0x6666
	rex64
	call	__tls_get_addr@PLT
	movq	(%rax), %rax
	testq	%rax, %rax
	jne	.L866
	jmp	.L862
	.p2align 4,,10
	.p2align 3
.L864:
	movq	16(%rax), %rax
	testq	%rax, %rax
	je	.L862
.L866:
	cmpq	(%rax), %r12
	jne	.L864
.L971:
	movq	8(%rax), %rax
	testq	%rax, %rax
	je	.L862
	addq	$1, 24(%rax)
	movq	$0, 0(%rbp)
	cmpq	$0, 16(%rax)
	je	.L867
	movq	16(%rax), %rdx
	movq	%rbp, (%rdx)
	movq	%rbp, 16(%rax)
	jmp	.L798
	.p2align 4,,10
	.p2align 3
.L973:
	movl	$0, 24(%rbp)
	movl	64(%r12), %r15d
	movq	%rcx, 32(%rbp)
	orb	$2, 68(%r12)
.L807:
	movq	16(%rsp), %rax
	movq	72(%r12), %r13
	movq	40(%rax), %r14
	testq	%r13, %r13
	je	.L974
	addq	$40, %r13
	movq	%r13, %rdi
	call	pthread_mutex_lock@PLT
	movq	72(%r12), %rax
	cmpb	$0, 144(%rax)
	jne	.L975
	cmpq	$0, 96(%rax)
	je	.L976
.L845:
	movq	104(%rax), %rdx
	movq	$0, 0(%rbp)
	testq	%rdx, %rdx
	je	.L859
	movq	%rbp, (%rdx)
	movq	%rbp, 104(%rax)
.L860:
	movq	40(%r14), %rax
	lock addq	$1, 184(%rax)
	movq	%r13, %rdi
	call	pthread_mutex_unlock@PLT
	jmp	.L798
.L974:
	movq	_ZGVZN4asio15system_categoryEvE8instance@GOTPCREL(%rip), %r12
	movzbl	(%r12), %eax
	testb	%al, %al
	je	.L817
.L953:
	movq	_ZZN4asio15system_categoryEvE8instance@GOTPCREL(%rip), %rsi
.L818:
	movq	40(%r14), %r12
	movl	$9, 24(%rbp)
	movq	%rsi, 32(%rbp)
	cmpb	$0, 40(%r12)
	jne	.L876
	testq	%rbx, %rbx
	jne	.L876
	.p2align 4,,10
	.p2align 3
.L862:
	lock addq	$1, 184(%r12)
	leaq	48(%r12), %r13
	movq	%r13, %rdi
	call	pthread_mutex_lock@PLT
	movq	$0, 0(%rbp)
	cmpq	$0, 200(%r12)
	je	.L868
	movq	200(%r12), %rax
	movq	%rbp, (%rax)
	movq	%rbp, 200(%r12)
.L869:
	movq	136(%r12), %rax
	orq	$1, %rax
	movq	%rax, 136(%r12)
	cmpq	$1, %rax
	je	.L870
	movq	%r13, %rdi
	call	pthread_mutex_unlock@PLT
	leaq	88(%r12), %rdi
	call	pthread_cond_signal@PLT
	.p2align 4,,10
	.p2align 3
.L798:
	movq	120(%rsp), %rax
	subq	%fs:40, %rax
	jne	.L977
	addq	$136, %rsp
	.cfi_remember_state
	.cfi_def_cfa_offset 56
	popq	%rbx
	.cfi_def_cfa_offset 48
	popq	%rbp
	.cfi_def_cfa_offset 40
	popq	%r12
	.cfi_def_cfa_offset 32
	popq	%r13
	.cfi_def_cfa_offset 24
	popq	%r14
	.cfi_def_cfa_offset 16
	popq	%r15
	.cfi_def_cfa_offset 8
	ret
	.p2align 4,,10
	.p2align 3
.L870:
	.cfi_restore_state
	cmpb	$0, 176(%r12)
	jne	.L839
	movq	144(%r12), %rax
	testq	%rax, %rax
	je	.L839
	leaq	88(%rax), %rdx
	leaq	36(%rsp), %rcx
	movl	$3, %esi
	movb	$1, 176(%r12)
	movl	$-2147483639, 36(%rsp)
	movq	%rdx, 40(%rsp)
	movl	88(%rax), %edx
	movl	96(%rax), %edi
	call	epoll_ctl@PLT
.L839:
	movq	%r13, %rdi
	call	pthread_mutex_unlock@PLT
	jmp	.L798
.L867:
	movq	%rbp, %xmm0
	punpcklqdq	%xmm0, %xmm0
	movups	%xmm0, 8(%rax)
	jmp	.L798
.L859:
	movq	%rbp, %xmm0
	punpcklqdq	%xmm0, %xmm0
	movups	%xmm0, 96(%rax)
	jmp	.L860
	.p2align 4,,10
	.p2align 3
.L812:
	movq	%r13, %rdi
	movq	%rcx, 8(%rsp)
	call	__cxa_guard_acquire@PLT
	movq	8(%rsp), %rcx
	testl	%eax, %eax
	je	.L952
	movq	_ZZN4asio15system_categoryEvE8instance@GOTPCREL(%rip), %rsi
	movq	_ZN4asio6detail15system_categoryD1Ev@GOTPCREL(%rip), %rdi
	movq	%rcx, 24(%rsp)
	leaq	__dso_handle(%rip), %rdx
	movq	%rsi, 8(%rsp)
	call	__cxa_atexit@PLT
	movq	%r13, %rdi
	call	__cxa_guard_release@PLT
	movq	24(%rsp), %rcx
	movq	8(%rsp), %rsi
	jmp	.L813
	.p2align 4,,10
	.p2align 3
.L868:
	movq	%rbp, %xmm0
	punpcklqdq	%xmm0, %xmm0
	movups	%xmm0, 192(%r12)
	jmp	.L869
.L876:
	data16	leaq	_ZN4asio6detail15keyword_tss_ptrINS0_10call_stackINS0_15task_io_serviceENS0_27task_io_service_thread_infoEE7contextEE6value_E@tlsgd(%rip), %rdi
	.value	0x6666
	rex64
	call	__tls_get_addr@PLT
	movq	(%rax), %rax
	testq	%rax, %rax
	jne	.L824
	jmp	.L862
	.p2align 4,,10
	.p2align 3
.L822:
	movq	16(%rax), %rax
	testq	%rax, %rax
	je	.L862
.L824:
	cmpq	(%rax), %r12
	jne	.L822
	jmp	.L971
.L975:
	movq	40(%r14), %r12
	testq	%rbx, %rbx
	jne	.L877
	cmpb	$0, 40(%r12)
	je	.L833
.L877:
	data16	leaq	_ZN4asio6detail15keyword_tss_ptrINS0_10call_stackINS0_15task_io_serviceENS0_27task_io_service_thread_infoEE7contextEE6value_E@tlsgd(%rip), %rdi
	.value	0x6666
	rex64
	call	__tls_get_addr@PLT
	movq	(%rax), %rax
	testq	%rax, %rax
	jne	.L837
	jmp	.L833
	.p2align 4,,10
	.p2align 3
.L835:
	movq	16(%rax), %rax
	testq	%rax, %rax
	je	.L833
.L837:
	cmpq	(%rax), %r12
	jne	.L835
	movq	8(%rax), %rax
	testq	%rax, %rax
	je	.L833
	addq	$1, 24(%rax)
	cmpq	$0, 16(%rax)
	movq	$0, 0(%rbp)
	je	.L838
	movq	16(%rax), %rdx
	movq	%rbp, (%rdx)
	movq	%rbp, 16(%rax)
	jmp	.L839
.L972:
	movq	_ZGVZN4asio15system_categoryEvE8instance@GOTPCREL(%rip), %r12
	movzbl	(%r12), %eax
	testb	%al, %al
	je	.L809
.L951:
	movq	_ZZN4asio15system_categoryEvE8instance@GOTPCREL(%rip), %rsi
.L810:
	movl	$9, 24(%rbp)
	movq	%rsi, 32(%rbp)
	jmp	.L805
.L976:
	cmpq	$0, 128(%rax)
	je	.L978
	movl	92(%rax), %edx
	movq	%rax, 40(%rsp)
	leaq	36(%rsp), %rcx
	movl	$3, %esi
	movl	%edx, 36(%rsp)
	movl	96(%r14), %edi
	movl	%r15d, %edx
	call	epoll_ctl@PLT
.L954:
	movq	72(%r12), %rax
	jmp	.L845
.L817:
	movq	%r12, %rdi
	call	__cxa_guard_acquire@PLT
	testl	%eax, %eax
	je	.L953
	movq	_ZZN4asio15system_categoryEvE8instance@GOTPCREL(%rip), %rsi
	movq	_ZN4asio6detail15system_categoryD1Ev@GOTPCREL(%rip), %rdi
	leaq	__dso_handle(%rip), %rdx
	movq	%rsi, 8(%rsp)
	call	__cxa_atexit@PLT
	movq	%r12, %rdi
	call	__cxa_guard_release@PLT
	movq	8(%rsp), %rsi
	jmp	.L818
.L809:
	movq	%r12, %rdi
	call	__cxa_guard_acquire@PLT
	testl	%eax, %eax
	je	.L951
	movq	_ZZN4asio15system_categoryEvE8instance@GOTPCREL(%rip), %rsi
	movq	_ZN4asio6detail15system_categoryD1Ev@GOTPCREL(%rip), %rdi
	leaq	__dso_handle(%rip), %rdx
	movq	%rsi, 8(%rsp)
	call	__cxa_atexit@PLT
	movq	%r12, %rdi
	call	__cxa_guard_release@PLT
	movq	8(%rsp), %rsi
	jmp	.L810
.L833:
	lock addq	$1, 184(%r12)
	leaq	48(%r12), %r14
	movq	%r14, %rdi
	call	pthread_mutex_lock@PLT
	movq	$0, 0(%rbp)
	cmpq	$0, 200(%r12)
	je	.L840
	movq	200(%r12), %rax
	movq	%rbp, (%rax)
	movq	%rbp, 200(%r12)
.L841:
	movq	136(%r12), %rax
	orq	$1, %rax
	movq	%rax, 136(%r12)
	cmpq	$1, %rax
	je	.L842
	movq	%r14, %rdi
	call	pthread_mutex_unlock@PLT
	leaq	88(%r12), %rdi
	call	pthread_cond_signal@PLT
	jmp	.L839
.L842:
	cmpb	$0, 176(%r12)
	jne	.L844
	movq	144(%r12), %rax
	testq	%rax, %rax
	je	.L844
	leaq	88(%rax), %rdx
	leaq	36(%rsp), %rcx
	movl	$3, %esi
	movb	$1, 176(%r12)
	movq	%rdx, 40(%rsp)
	movl	88(%rax), %edx
	movl	$-2147483639, 36(%rsp)
	movl	96(%rax), %edi
	call	epoll_ctl@PLT
.L844:
	movq	%r14, %rdi
	call	pthread_mutex_unlock@PLT
	jmp	.L839
.L978:
	movq	%rbp, %rdi
.LEHB5:
	call	*48(%rbp)
.LEHE5:
	testb	%al, %al
	je	.L954
	movq	%r13, %rdi
	call	pthread_mutex_unlock@PLT
	movq	40(%r14), %r12
	cmpb	$0, 40(%r12)
	jne	.L878
	testq	%rbx, %rbx
	je	.L862
.L878:
	data16	leaq	_ZN4asio6detail15keyword_tss_ptrINS0_10call_stackINS0_15task_io_serviceENS0_27task_io_service_thread_infoEE7contextEE6value_E@tlsgd(%rip), %rdi
	.value	0x6666
	rex64
	call	__tls_get_addr@PLT
	movq	(%rax), %rax
	testq	%rax, %rax
	jne	.L852
	jmp	.L862
	.p2align 4,,10
	.p2align 3
.L850:
	movq	16(%rax), %rax
	testq	%rax, %rax
	je	.L862
.L852:
	cmpq	(%rax), %r12
	jne	.L850
	jmp	.L971
.L840:
	movq	%rbp, %xmm0
	punpcklqdq	%xmm0, %xmm0
	movups	%xmm0, 192(%r12)
	jmp	.L841
.L838:
	movq	%rbp, %xmm0
	punpcklqdq	%xmm0, %xmm0
	movups	%xmm0, 8(%rax)
	jmp	.L839
.L977:
	call	__stack_chk_fail@PLT
.L874:
	movq	%rax, %rbp
	jmp	.L861
	.section	.gcc_except_table
.LLSDA7040:
	.byte	0xff
	.byte	0xff
	.byte	0x1
	.uleb128 .LLSDACSE7040-.LLSDACSB7040
.LLSDACSB7040:
	.uleb128 .LEHB4-.LFB7040
	.uleb128 .LEHE4-.LEHB4
	.uleb128 0
	.uleb128 0
	.uleb128 .LEHB5-.LFB7040
	.uleb128 .LEHE5-.LEHB5
	.uleb128 .L874-.LFB7040
	.uleb128 0
.LLSDACSE7040:
	.text
	.cfi_endproc
	.section	.text.unlikely
	.cfi_startproc
	.cfi_personality 0x9b,DW.ref.__gxx_personality_v0
	.cfi_lsda 0x1b,.LLSDAC7040
	.type	_ZN7asiopal13SocketChannel13BeginReadImplEN7openpal6WSliceE.cold, @function
_ZN7asiopal13SocketChannel13BeginReadImplEN7openpal6WSliceE.cold:
.LFSB7040:
.L861:
	.cfi_def_cfa_offset 192
	.cfi_offset 3, -56
	.cfi_offset 6, -48
	.cfi_offset 12, -40
	.cfi_offset 13, -32
	.cfi_offset 14, -24
	.cfi_offset 15, -16
	movq	%r13, %rdi
	call	pthread_mutex_unlock@PLT
	leaq	48(%rsp), %rdi
	call	_ZN4asio6detail23reactive_socket_recv_opINS_17mutable_buffers_1ENS0_15wrapped_handlerINS_10io_service6strandEZN7asiopal13SocketChannel13BeginReadImplEN7openpal6WSliceEEUlRKSt10error_codemE_NS0_26is_continuation_if_runningEEEE3ptr5resetEv
	movq	%rbp, %rdi
.LEHB6:
	call	_Unwind_Resume@PLT
.LEHE6:
	.cfi_endproc
.LFE7040:
	.section	.gcc_except_table
.LLSDAC7040:
	.byte	0xff
	.byte	0xff
	.byte	0x1
	.uleb128 .LLSDACSEC7040-.LLSDACSBC7040
.LLSDACSBC7040:
	.uleb128 .LEHB6-.LCOLDB25
	.uleb128 .LEHE6-.LEHB6
	.uleb128 0
	.uleb128 0
.LLSDACSEC7040:
	.section	.text.unlikely
	.text
	.size	_ZN7asiopal13SocketChannel13BeginReadImplEN7openpal6WSliceE, .-_ZN7asiopal13SocketChannel13BeginReadImplEN7openpal6WSliceE
	.section	.text.unlikely
	.size	_ZN7asiopal13SocketChannel13BeginReadImplEN7openpal6WSliceE.cold, .-_ZN7asiopal13SocketChannel13BeginReadImplEN7openpal6WSliceE.cold
.LCOLDE25:
	.text
.LHOTE25:
	.section	.text.unlikely
	.align 2
.LCOLDB26:
	.text
.LHOTB26:
	.align 2
	.p2align 4
	.globl	_ZN7asiopal13SocketChannel14BeginWriteImplERKN7openpal6RSliceE
	.type	_ZN7asiopal13SocketChannel14BeginWriteImplERKN7openpal6RSliceE, @function
_ZN7asiopal13SocketChannel14BeginWriteImplERKN7openpal6RSliceE:
.LFB7045:
	.cfi_startproc
	.cfi_personality 0x9b,DW.ref.__gxx_personality_v0
	.cfi_lsda 0x1b,.LLSDA7045
	pushq	%r15
	.cfi_def_cfa_offset 16
	.cfi_offset 15, -16
	pushq	%r14
	.cfi_def_cfa_offset 24
	.cfi_offset 14, -24
	leaq	64(%rdi), %r14
	pushq	%r13
	.cfi_def_cfa_offset 32
	.cfi_offset 13, -32
	pushq	%r12
	.cfi_def_cfa_offset 40
	.cfi_offset 12, -40
	pushq	%rbp
	.cfi_def_cfa_offset 48
	.cfi_offset 6, -48
	pushq	%rbx
	.cfi_def_cfa_offset 56
	.cfi_offset 3, -56
	movq	%rdi, %rbx
	subq	$184, %rsp
	.cfi_def_cfa_offset 240
	movl	(%rsi), %r12d
	movq	%fs:40, %rax
	movq	%rax, 168(%rsp)
	movq	24(%rdi), %rax
	movdqu	40(%rax), %xmm0
	movq	48(%rax), %rbp
	movq	8(%rsi), %rax
	movaps	%xmm0, 16(%rsp)
	movq	%rax, 8(%rsp)
	call	_ZNSt3_V215system_categoryEv@PLT
	movdqa	16(%rsp), %xmm0
	movq	%r14, %xmm1
	cmpq	$65536, %r12
	movq	%rax, %r13
	movl	$65536, %eax
	movhps	8(%rsp), %xmm1
	movq	%r12, 112(%rsp)
	cmovbe	%r12, %rax
	movl	$1, 120(%rsp)
	movq	$0, 128(%rsp)
	movq	%rax, 32(%rsp)
	movq	88(%rbx), %rax
	movq	%rbx, 152(%rsp)
	movq	%rax, 40(%rsp)
	movaps	%xmm1, 96(%rsp)
	movups	%xmm0, 136(%rsp)
	data16	leaq	_ZN4asio6detail15keyword_tss_ptrINS0_10call_stackINS0_14strand_service11strand_implEhE7contextEE6value_E@tlsgd(%rip), %rdi
	.value	0x6666
	rex64
	call	__tls_get_addr@PLT
	movq	(%rax), %rax
	testq	%rax, %rax
	jne	.L982
	jmp	.L1056
	.p2align 4,,10
	.p2align 3
.L981:
	movq	16(%rax), %rax
	testq	%rax, %rax
	je	.L1056
.L982:
	cmpq	(%rax), %rbp
	jne	.L981
	cmpq	$0, 8(%rax)
	setne	16(%rsp)
.L980:
	pxor	%xmm0, %xmm0
	leaq	96(%rsp), %rax
	movq	%rax, 64(%rsp)
	movups	%xmm0, 72(%rsp)
	data16	leaq	_ZN4asio6detail15keyword_tss_ptrINS0_10call_stackINS0_15task_io_serviceENS0_27task_io_service_thread_infoEE7contextEE6value_E@tlsgd(%rip), %rdi
	.value	0x6666
	rex64
	call	__tls_get_addr@PLT
	movq	(%rax), %rax
	testq	%rax, %rax
	je	.L983
	movq	8(%rax), %rax
	testq	%rax, %rax
	je	.L983
	movq	(%rax), %rbp
	testq	%rbp, %rbp
	je	.L983
	movq	$0, (%rax)
	movzbl	0(%rbp), %eax
	cmpb	$-105, %al
	jbe	.L984
	movb	%al, 152(%rbp)
	xorl	%edx, %edx
	movl	$1, %ecx
.L985:
	leaq	_ZN4asio6detail23reactive_socket_send_opINS_15const_buffers_1ENS0_8write_opINS_19basic_stream_socketINS_2ip3tcpENS_21stream_socket_serviceIS6_EEEES2_NS0_14transfer_all_tENS0_15wrapped_handlerINS_10io_service6strandEZN7asiopal13SocketChannel14BeginWriteImplERKN7openpal6RSliceEEUlRKSt10error_codemE_NS0_26is_continuation_if_runningEEEEEE11do_completeEPNS0_15task_io_serviceEPNS0_25task_io_service_operationESM_m(%rip), %rax
	movl	64(%rbx), %r15d
	movq	%r13, 32(%rbp)
	movq	%rbp, 72(%rsp)
	movdqu	104(%rsp), %xmm2
	movdqu	136(%rsp), %xmm3
	movq	%rax, 8(%rbp)
	movq	_ZN4asio6detail28reactive_socket_send_op_baseINS_15const_buffers_1EE10do_performEPNS0_10reactor_opE@GOTPCREL(%rip), %rax
	movq	$0, 0(%rbp)
	movl	$0, 16(%rbp)
	movq	%rax, 48(%rbp)
	movq	8(%rsp), %rax
	movl	$0, 24(%rbp)
	movq	%rax, 64(%rbp)
	movq	32(%rsp), %rax
	movq	$0, 40(%rbp)
	movq	%rax, 72(%rbp)
	movq	152(%rsp), %rax
	movl	%r15d, 56(%rbp)
	movl	$0, 80(%rbp)
	movq	%r14, 88(%rbp)
	movl	%ecx, 112(%rbp)
	movq	%rdx, 120(%rbp)
	movq	%rax, 144(%rbp)
	movups	%xmm2, 96(%rbp)
	movups	%xmm3, 128(%rbp)
	movzbl	68(%rbx), %eax
	movq	%rbp, 80(%rsp)
	testb	$16, %al
	je	.L986
	testq	%r12, %r12
	jne	.L986
.L987:
	movq	40(%rsp), %rax
	movq	40(%rax), %rax
	movq	40(%rax), %rbx
	cmpb	$0, 40(%rbx)
	jne	.L1061
	cmpb	$0, 16(%rsp)
	je	.L1044
.L1061:
	data16	leaq	_ZN4asio6detail15keyword_tss_ptrINS0_10call_stackINS0_15task_io_serviceENS0_27task_io_service_thread_infoEE7contextEE6value_E@tlsgd(%rip), %rdi
	.value	0x6666
	rex64
	call	__tls_get_addr@PLT
	movq	(%rax), %rax
	testq	%rax, %rax
	jne	.L1048
	jmp	.L1044
	.p2align 4,,10
	.p2align 3
.L1046:
	movq	16(%rax), %rax
	testq	%rax, %rax
	je	.L1044
.L1048:
	cmpq	(%rax), %rbx
	jne	.L1046
.L1152:
	movq	8(%rax), %rax
	testq	%rax, %rax
	je	.L1044
	addq	$1, 24(%rax)
	movq	$0, 0(%rbp)
	cmpq	$0, 16(%rax)
	je	.L1049
	movq	16(%rax), %rdx
	movq	%rbp, (%rdx)
	movq	%rbp, 16(%rax)
	jmp	.L979
	.p2align 4,,10
	.p2align 3
.L986:
	movzbl	16(%rsp), %r14d
	testb	$3, %al
	jne	.L989
	cmpl	$-1, %r15d
	je	.L1153
	call	__errno_location@PLT
	movl	%r15d, %edi
	leaq	52(%rsp), %rdx
	movl	$21537, %esi
	movl	$0, (%rax)
	movq	%rax, %r12
	xorl	%eax, %eax
	movl	$1, 52(%rsp)
	call	ioctl@PLT
	movl	%eax, %r15d
	movq	_ZGVZN4asio15system_categoryEvE8instance@GOTPCREL(%rip), %rax
	movzbl	(%rax), %eax
	testb	%al, %al
	je	.L994
.L1134:
	movq	_ZZN4asio15system_categoryEvE8instance@GOTPCREL(%rip), %rsi
.L995:
	movl	(%r12), %eax
	movq	%rsi, 32(%rbp)
	movl	%eax, 24(%rbp)
	testl	%r15d, %r15d
	js	.L987
	movl	$0, 24(%rbp)
	movl	64(%rbx), %r15d
	movq	%r13, 32(%rbp)
	orb	$2, 68(%rbx)
.L989:
	movq	40(%rsp), %rax
	movq	72(%rbx), %r12
	movq	40(%rax), %r13
	testq	%r12, %r12
	je	.L1154
	addq	$40, %r12
	movq	%r12, %rdi
	call	pthread_mutex_lock@PLT
	movq	72(%rbx), %rax
	cmpb	$0, 144(%rax)
	jne	.L1155
	cmpq	$0, 112(%rax)
	je	.L1156
.L1027:
	movq	120(%rax), %rdx
	movq	$0, 0(%rbp)
	testq	%rdx, %rdx
	je	.L1041
	movq	%rbp, (%rdx)
	movq	%rbp, 120(%rax)
.L1042:
	movq	40(%r13), %rax
	lock addq	$1, 184(%rax)
	movq	%r12, %rdi
	call	pthread_mutex_unlock@PLT
	jmp	.L979
	.p2align 4,,10
	.p2align 3
.L984:
	movq	%rbp, %rdi
	call	_ZdlPv@PLT
.L983:
	movl	$153, %edi
.LEHB7:
	call	_Znwm@PLT
.LEHE7:
	movq	96(%rsp), %r14
	movl	120(%rsp), %ecx
	movb	$-104, 152(%rax)
	movq	128(%rsp), %rdx
	movq	%rax, %rbp
	jmp	.L985
	.p2align 4,,10
	.p2align 3
.L1154:
	movq	_ZGVZN4asio15system_categoryEvE8instance@GOTPCREL(%rip), %r12
	movzbl	(%r12), %eax
	testb	%al, %al
	je	.L999
.L1135:
	movq	_ZZN4asio15system_categoryEvE8instance@GOTPCREL(%rip), %rsi
.L1000:
	movq	40(%r13), %rbx
	movl	$9, 24(%rbp)
	movq	%rsi, 32(%rbp)
	cmpb	$0, 40(%rbx)
	jne	.L1058
	cmpb	$0, 16(%rsp)
	jne	.L1058
	.p2align 4,,10
	.p2align 3
.L1044:
	lock addq	$1, 184(%rbx)
	leaq	48(%rbx), %r12
	movq	%r12, %rdi
	call	pthread_mutex_lock@PLT
	movq	$0, 0(%rbp)
	cmpq	$0, 200(%rbx)
	je	.L1050
	movq	200(%rbx), %rax
	movq	%rbp, (%rax)
	movq	%rbp, 200(%rbx)
.L1051:
	movq	136(%rbx), %rax
	orq	$1, %rax
	movq	%rax, 136(%rbx)
	cmpq	$1, %rax
	je	.L1052
	movq	%r12, %rdi
	call	pthread_mutex_unlock@PLT
	leaq	88(%rbx), %rdi
	call	pthread_cond_signal@PLT
	.p2align 4,,10
	.p2align 3
.L979:
	movq	168(%rsp), %rax
	subq	%fs:40, %rax
	jne	.L1157
	addq	$184, %rsp
	.cfi_remember_state
	.cfi_def_cfa_offset 56
	popq	%rbx
	.cfi_def_cfa_offset 48
	popq	%rbp
	.cfi_def_cfa_offset 40
	popq	%r12
	.cfi_def_cfa_offset 32
	popq	%r13
	.cfi_def_cfa_offset 24
	popq	%r14
	.cfi_def_cfa_offset 16
	popq	%r15
	.cfi_def_cfa_offset 8
	ret
	.p2align 4,,10
	.p2align 3
.L1052:
	.cfi_restore_state
	cmpb	$0, 176(%rbx)
	jne	.L1021
	movq	144(%rbx), %rax
	testq	%rax, %rax
	je	.L1021
	movb	$1, 176(%rbx)
	leaq	88(%rax), %rdx
	leaq	52(%rsp), %rcx
	movl	$3, %esi
	movl	$-2147483639, 52(%rsp)
	movq	%rdx, 56(%rsp)
	movl	88(%rax), %edx
	movl	96(%rax), %edi
	call	epoll_ctl@PLT
.L1021:
	movq	%r12, %rdi
	call	pthread_mutex_unlock@PLT
	jmp	.L979
	.p2align 4,,10
	.p2align 3
.L1056:
	movb	$0, 16(%rsp)
	jmp	.L980
	.p2align 4,,10
	.p2align 3
.L1049:
	movq	%rbp, %xmm0
	punpcklqdq	%xmm0, %xmm0
	movups	%xmm0, 8(%rax)
	jmp	.L979
	.p2align 4,,10
	.p2align 3
.L1041:
	movq	%rbp, %xmm0
	punpcklqdq	%xmm0, %xmm0
	movups	%xmm0, 112(%rax)
	jmp	.L1042
	.p2align 4,,10
	.p2align 3
.L994:
	movq	_ZGVZN4asio15system_categoryEvE8instance@GOTPCREL(%rip), %rdi
	call	__cxa_guard_acquire@PLT
	testl	%eax, %eax
	je	.L1134
	movq	_ZZN4asio15system_categoryEvE8instance@GOTPCREL(%rip), %rsi
	movq	_ZN4asio6detail15system_categoryD1Ev@GOTPCREL(%rip), %rdi
	leaq	__dso_handle(%rip), %rdx
	movq	%rsi, 8(%rsp)
	call	__cxa_atexit@PLT
	movq	_ZGVZN4asio15system_categoryEvE8instance@GOTPCREL(%rip), %rdi
	call	__cxa_guard_release@PLT
	movq	8(%rsp), %rsi
	jmp	.L995
	.p2align 4,,10
	.p2align 3
.L1050:
	movq	%rbp, %xmm0
	punpcklqdq	%xmm0, %xmm0
	movups	%xmm0, 192(%rbx)
	jmp	.L1051
	.p2align 4,,10
	.p2align 3
.L1058:
	data16	leaq	_ZN4asio6detail15keyword_tss_ptrINS0_10call_stackINS0_15task_io_serviceENS0_27task_io_service_thread_infoEE7contextEE6value_E@tlsgd(%rip), %rdi
	.value	0x6666
	rex64
	call	__tls_get_addr@PLT
	movq	(%rax), %rax
	testq	%rax, %rax
	jne	.L1006
	jmp	.L1044
	.p2align 4,,10
	.p2align 3
.L1004:
	movq	16(%rax), %rax
	testq	%rax, %rax
	je	.L1044
.L1006:
	cmpq	(%rax), %rbx
	jne	.L1004
	jmp	.L1152
	.p2align 4,,10
	.p2align 3
.L1155:
	movq	40(%r13), %rbx
	cmpb	$0, 40(%rbx)
	jne	.L1059
	cmpb	$0, 16(%rsp)
	je	.L1015
.L1059:
	data16	leaq	_ZN4asio6detail15keyword_tss_ptrINS0_10call_stackINS0_15task_io_serviceENS0_27task_io_service_thread_infoEE7contextEE6value_E@tlsgd(%rip), %rdi
	.value	0x6666
	rex64
	call	__tls_get_addr@PLT
	movq	(%rax), %rax
	testq	%rax, %rax
	jne	.L1019
	jmp	.L1015
	.p2align 4,,10
	.p2align 3
.L1017:
	movq	16(%rax), %rax
	testq	%rax, %rax
	je	.L1015
.L1019:
	cmpq	(%rax), %rbx
	jne	.L1017
	movq	8(%rax), %rax
	testq	%rax, %rax
	je	.L1015
	addq	$1, 24(%rax)
	cmpq	$0, 16(%rax)
	movq	$0, 0(%rbp)
	je	.L1020
	movq	16(%rax), %rdx
	movq	%rbp, (%rdx)
	movq	%rbp, 16(%rax)
	jmp	.L1021
	.p2align 4,,10
	.p2align 3
.L1153:
	movq	_ZGVZN4asio15system_categoryEvE8instance@GOTPCREL(%rip), %r12
	movzbl	(%r12), %eax
	testb	%al, %al
	je	.L991
.L1133:
	movq	_ZZN4asio15system_categoryEvE8instance@GOTPCREL(%rip), %rsi
.L992:
	movl	$9, 24(%rbp)
	movq	%rsi, 32(%rbp)
	jmp	.L987
	.p2align 4,,10
	.p2align 3
.L1156:
	movq	%rbp, %rdi
.LEHB8:
	call	*48(%rbp)
.LEHE8:
	testb	%al, %al
	jne	.L1158
	movq	72(%rbx), %rax
	movl	92(%rax), %edx
	testb	$4, %dl
	jne	.L1027
	orl	$4, %edx
	movq	%rax, 56(%rsp)
	leaq	52(%rsp), %rcx
	movl	$3, %esi
	movl	%edx, 52(%rsp)
	movl	96(%r13), %edi
	movl	%r15d, %edx
	call	epoll_ctl@PLT
	testl	%eax, %eax
	jne	.L1040
	movq	72(%rbx), %rax
	movl	52(%rsp), %edx
	orl	%edx, 92(%rax)
	jmp	.L1027
.L999:
	movq	%r12, %rdi
	call	__cxa_guard_acquire@PLT
	testl	%eax, %eax
	je	.L1135
	movq	_ZZN4asio15system_categoryEvE8instance@GOTPCREL(%rip), %rsi
	movq	_ZN4asio6detail15system_categoryD1Ev@GOTPCREL(%rip), %rdi
	leaq	__dso_handle(%rip), %rdx
	movq	%rsi, 8(%rsp)
	call	__cxa_atexit@PLT
	movq	%r12, %rdi
	call	__cxa_guard_release@PLT
	movq	8(%rsp), %rsi
	jmp	.L1000
.L991:
	movq	%r12, %rdi
	call	__cxa_guard_acquire@PLT
	testl	%eax, %eax
	je	.L1133
	movq	_ZZN4asio15system_categoryEvE8instance@GOTPCREL(%rip), %rsi
	movq	_ZN4asio6detail15system_categoryD1Ev@GOTPCREL(%rip), %rdi
	leaq	__dso_handle(%rip), %rdx
	movq	%rsi, 8(%rsp)
	call	__cxa_atexit@PLT
	movq	%r12, %rdi
	call	__cxa_guard_release@PLT
	movq	8(%rsp), %rsi
	jmp	.L992
.L1015:
	lock addq	$1, 184(%rbx)
	leaq	48(%rbx), %r13
	movq	%r13, %rdi
	call	pthread_mutex_lock@PLT
	cmpq	$0, 200(%rbx)
	movq	$0, 0(%rbp)
	je	.L1022
	movq	200(%rbx), %rax
	movq	%rbp, (%rax)
	movq	%rbp, 200(%rbx)
.L1023:
	movq	136(%rbx), %rax
	orq	$1, %rax
	movq	%rax, 136(%rbx)
	cmpq	$1, %rax
	je	.L1024
	movq	%r13, %rdi
	call	pthread_mutex_unlock@PLT
	leaq	88(%rbx), %rdi
	call	pthread_cond_signal@PLT
	jmp	.L1021
.L1024:
	cmpb	$0, 176(%rbx)
	jne	.L1026
	movq	144(%rbx), %rax
	testq	%rax, %rax
	je	.L1026
	movb	$1, 176(%rbx)
	leaq	88(%rax), %rdx
	leaq	52(%rsp), %rcx
	movl	$3, %esi
	movq	%rdx, 56(%rsp)
	movl	88(%rax), %edx
	movl	$-2147483639, 52(%rsp)
	movl	96(%rax), %edi
	call	epoll_ctl@PLT
.L1026:
	movq	%r13, %rdi
	call	pthread_mutex_unlock@PLT
	jmp	.L1021
.L1022:
	movq	%rbp, %xmm0
	punpcklqdq	%xmm0, %xmm0
	movups	%xmm0, 192(%rbx)
	jmp	.L1023
.L1020:
	movq	%rbp, %xmm0
	punpcklqdq	%xmm0, %xmm0
	movups	%xmm0, 8(%rax)
	jmp	.L1021
.L1158:
	movq	%r12, %rdi
	call	pthread_mutex_unlock@PLT
	movq	40(%r13), %rbx
	cmpb	$0, 40(%rbx)
	jne	.L1060
	cmpb	$0, 16(%rsp)
	je	.L1044
.L1060:
	data16	leaq	_ZN4asio6detail15keyword_tss_ptrINS0_10call_stackINS0_15task_io_serviceENS0_27task_io_service_thread_infoEE7contextEE6value_E@tlsgd(%rip), %rdi
	.value	0x6666
	rex64
	call	__tls_get_addr@PLT
	movq	(%rax), %rax
	testq	%rax, %rax
	jne	.L1033
	jmp	.L1044
	.p2align 4,,10
	.p2align 3
.L1031:
	movq	16(%rax), %rax
	testq	%rax, %rax
	je	.L1044
.L1033:
	cmpq	(%rax), %rbx
	jne	.L1031
	jmp	.L1152
.L1040:
	call	_ZN4asio15system_categoryEv@PLT
	movq	%rax, %rbx
	call	__errno_location@PLT
	movq	40(%r13), %rdi
	movl	%r14d, %edx
	movq	%rbp, %rsi
	movl	(%rax), %eax
	movq	%rbx, 32(%rbp)
	movl	%eax, 24(%rbp)
	call	_ZN4asio6detail15task_io_service25post_immediate_completionEPNS0_25task_io_service_operationEb@PLT
	jmp	.L1021
.L1157:
	call	__stack_chk_fail@PLT
.L1057:
	movq	%rax, %rbp
	jmp	.L1043
	.section	.gcc_except_table
.LLSDA7045:
	.byte	0xff
	.byte	0xff
	.byte	0x1
	.uleb128 .LLSDACSE7045-.LLSDACSB7045
.LLSDACSB7045:
	.uleb128 .LEHB7-.LFB7045
	.uleb128 .LEHE7-.LEHB7
	.uleb128 0
	.uleb128 0
	.uleb128 .LEHB8-.LFB7045
	.uleb128 .LEHE8-.LEHB8
	.uleb128 .L1057-.LFB7045
	.uleb128 0
.LLSDACSE7045:
	.text
	.cfi_endproc
	.section	.text.unlikely
	.cfi_startproc
	.cfi_personality 0x9b,DW.ref.__gxx_personality_v0
	.cfi_lsda 0x1b,.LLSDAC7045
	.type	_ZN7asiopal13SocketChannel14BeginWriteImplERKN7openpal6RSliceE.cold, @function
_ZN7asiopal13SocketChannel14BeginWriteImplERKN7openpal6RSliceE.cold:
.LFSB7045:
.L1043:
	.cfi_def_cfa_offset 240
	.cfi_offset 3, -56
	.cfi_offset 6, -48
	.cfi_offset 12, -40
	.cfi_offset 13, -32
	.cfi_offset 14, -24
	.cfi_offset 15, -16
	movq	%r12, %rdi
	call	pthread_mutex_unlock@PLT
	leaq	64(%rsp), %rdi
	call	_ZN4asio6detail23reactive_socket_send_opINS_15const_buffers_1ENS0_8write_opINS_19basic_stream_socketINS_2ip3tcpENS_21stream_socket_serviceIS6_EEEES2_NS0_14transfer_all_tENS0_15wrapped_handlerINS_10io_service6strandEZN7asiopal13SocketChannel14BeginWriteImplERKN7openpal6RSliceEEUlRKSt10error_codemE_NS0_26is_continuation_if_runningEEEEEE3ptr5resetEv
	movq	%rbp, %rdi
.LEHB9:
	call	_Unwind_Resume@PLT
.LEHE9:
	.cfi_endproc
.LFE7045:
	.section	.gcc_except_table
.LLSDAC7045:
	.byte	0xff
	.byte	0xff
	.byte	0x1
	.uleb128 .LLSDACSEC7045-.LLSDACSBC7045
.LLSDACSBC7045:
	.uleb128 .LEHB9-.LCOLDB26
	.uleb128 .LEHE9-.LEHB9
	.uleb128 0
	.uleb128 0
.LLSDACSEC7045:
	.section	.text.unlikely
	.text
	.size	_ZN7asiopal13SocketChannel14BeginWriteImplERKN7openpal6RSliceE, .-_ZN7asiopal13SocketChannel14BeginWriteImplERKN7openpal6RSliceE
	.section	.text.unlikely
	.size	_ZN7asiopal13SocketChannel14BeginWriteImplERKN7openpal6RSliceE.cold, .-_ZN7asiopal13SocketChannel14BeginWriteImplERKN7openpal6RSliceE.cold
.LCOLDE26:
	.text
.LHOTE26:
	.section	.text._ZN4asio6detail14strand_service16on_dispatch_exitD2Ev,"axG",@progbits,_ZN4asio6detail14strand_service16on_dispatch_exitD5Ev,comdat
	.align 2
	.p2align 4
	.weak	_ZN4asio6detail14strand_service16on_dispatch_exitD2Ev
	.type	_ZN4asio6detail14strand_service16on_dispatch_exitD2Ev, @function
_ZN4asio6detail14strand_service16on_dispatch_exitD2Ev:
.LFB6394:
	.cfi_startproc
	pushq	%r12
	.cfi_def_cfa_offset 16
	.cfi_offset 12, -16
	pushq	%rbp
	.cfi_def_cfa_offset 24
	.cfi_offset 6, -24
	pushq	%rbx
	.cfi_def_cfa_offset 32
	.cfi_offset 3, -32
	movq	%rdi, %rbx
	subq	$32, %rsp
	.cfi_def_cfa_offset 64
	movq	%fs:40, %rax
	movq	%rax, 24(%rsp)
	movq	8(%rdi), %rax
	leaq	24(%rax), %rdi
	call	pthread_mutex_lock@PLT
	movq	8(%rbx), %rdi
	movq	72(%rdi), %rbp
	testq	%rbp, %rbp
	je	.L1192
	movq	96(%rdi), %rax
	testq	%rax, %rax
	je	.L1162
	movq	%rbp, (%rax)
	movq	88(%rdi), %rbp
.L1163:
	movq	80(%rdi), %rax
	pxor	%xmm0, %xmm0
	movups	%xmm0, 72(%rdi)
	movq	%rax, 96(%rdi)
.L1161:
	testq	%rbp, %rbp
	setne	64(%rdi)
	addq	$24, %rdi
	call	pthread_mutex_unlock@PLT
	testq	%rbp, %rbp
	jne	.L1193
.L1159:
	movq	24(%rsp), %rax
	subq	%fs:40, %rax
	jne	.L1191
	addq	$32, %rsp
	.cfi_remember_state
	.cfi_def_cfa_offset 32
	popq	%rbx
	.cfi_def_cfa_offset 24
	popq	%rbp
	.cfi_def_cfa_offset 16
	popq	%r12
	.cfi_def_cfa_offset 8
	ret
	.p2align 4,,10
	.p2align 3
.L1162:
	.cfi_restore_state
	movq	%rbp, 88(%rdi)
	jmp	.L1163
	.p2align 4,,10
	.p2align 3
.L1193:
	movq	(%rbx), %rbp
	movq	8(%rbx), %rbx
	cmpb	$0, 40(%rbp)
	je	.L1165
	data16	leaq	_ZN4asio6detail15keyword_tss_ptrINS0_10call_stackINS0_15task_io_serviceENS0_27task_io_service_thread_infoEE7contextEE6value_E@tlsgd(%rip), %rdi
	.value	0x6666
	rex64
	call	__tls_get_addr@PLT
	movq	(%rax), %rax
	testq	%rax, %rax
	jne	.L1168
	jmp	.L1165
	.p2align 4,,10
	.p2align 3
.L1166:
	movq	16(%rax), %rax
	testq	%rax, %rax
	je	.L1165
.L1168:
	cmpq	(%rax), %rbp
	jne	.L1166
	movq	8(%rax), %rax
	testq	%rax, %rax
	je	.L1165
	addq	$1, 24(%rax)
	cmpq	$0, 16(%rax)
	movq	$0, (%rbx)
	je	.L1169
	movq	16(%rax), %rdx
	movq	%rbx, (%rdx)
	movq	%rbx, 16(%rax)
	jmp	.L1159
	.p2align 4,,10
	.p2align 3
.L1165:
	lock addq	$1, 184(%rbp)
	leaq	48(%rbp), %r12
	movq	%r12, %rdi
	call	pthread_mutex_lock@PLT
	cmpq	$0, 200(%rbp)
	movq	$0, (%rbx)
	je	.L1170
	movq	200(%rbp), %rax
	movq	%rbx, (%rax)
	movq	%rbx, 200(%rbp)
.L1171:
	movq	136(%rbp), %rax
	orq	$1, %rax
	movq	%rax, 136(%rbp)
	cmpq	$1, %rax
	je	.L1172
	movq	%r12, %rdi
	call	pthread_mutex_unlock@PLT
	movq	24(%rsp), %rax
	subq	%fs:40, %rax
	jne	.L1191
	addq	$32, %rsp
	.cfi_remember_state
	.cfi_def_cfa_offset 32
	leaq	88(%rbp), %rdi
	popq	%rbx
	.cfi_def_cfa_offset 24
	popq	%rbp
	.cfi_def_cfa_offset 16
	popq	%r12
	.cfi_def_cfa_offset 8
	jmp	pthread_cond_signal@PLT
	.p2align 4,,10
	.p2align 3
.L1192:
	.cfi_restore_state
	movq	88(%rdi), %rbp
	jmp	.L1161
	.p2align 4,,10
	.p2align 3
.L1170:
	movq	%rbx, %xmm0
	punpcklqdq	%xmm0, %xmm0
	movups	%xmm0, 192(%rbp)
	jmp	.L1171
	.p2align 4,,10
	.p2align 3
.L1172:
	cmpb	$0, 176(%rbp)
	jne	.L1174
	movq	144(%rbp), %rax
	testq	%rax, %rax
	je	.L1174
	leaq	88(%rax), %rdx
	movb	$1, 176(%rbp)
	movl	96(%rax), %edi
	leaq	12(%rsp), %rcx
	movq	%rdx, 16(%rsp)
	movl	88(%rax), %edx
	movl	$3, %esi
	movl	$-2147483639, 12(%rsp)
	call	epoll_ctl@PLT
.L1174:
	movq	24(%rsp), %rax
	subq	%fs:40, %rax
	jne	.L1191
	addq	$32, %rsp
	.cfi_remember_state
	.cfi_def_cfa_offset 32
	movq	%r12, %rdi
	popq	%rbx
	.cfi_def_cfa_offset 24
	popq	%rbp
	.cfi_def_cfa_offset 16
	popq	%r12
	.cfi_def_cfa_offset 8
	jmp	pthread_mutex_unlock@PLT
	.p2align 4,,10
	.p2align 3
.L1169:
	.cfi_restore_state
	movq	%rbx, %xmm0
	punpcklqdq	%xmm0, %xmm0
	movups	%xmm0, 8(%rax)
	jmp	.L1159
.L1191:
	call	__stack_chk_fail@PLT
	.cfi_endproc
.LFE6394:
	.size	_ZN4asio6detail14strand_service16on_dispatch_exitD2Ev, .-_ZN4asio6detail14strand_service16on_dispatch_exitD2Ev
	.weak	_ZN4asio6detail14strand_service16on_dispatch_exitD1Ev
	.set	_ZN4asio6detail14strand_service16on_dispatch_exitD1Ev,_ZN4asio6detail14strand_service16on_dispatch_exitD2Ev
	.section	.text.unlikely
	.align 2
.LCOLDB27:
	.text
.LHOTB27:
	.align 2
	.p2align 4
	.type	_ZN4asio6detail14strand_service8dispatchINS0_7binder2IZN7asiopal13SocketChannel13BeginReadImplEN7openpal6WSliceEEUlRKSt10error_codemE_S8_mEEEEvRPNS1_11strand_implERT_, @function
_ZN4asio6detail14strand_service8dispatchINS0_7binder2IZN7asiopal13SocketChannel13BeginReadImplEN7openpal6WSliceEEUlRKSt10error_codemE_S8_mEEEEvRPNS1_11strand_implERT_:
.LFB9410:
	.cfi_startproc
	.cfi_personality 0x9b,DW.ref.__gxx_personality_v0
	.cfi_lsda 0x1b,.LLSDA9410
	pushq	%r14
	.cfi_def_cfa_offset 16
	.cfi_offset 14, -16
	pushq	%r13
	.cfi_def_cfa_offset 24
	.cfi_offset 13, -24
	movq	%rdi, %r13
	pushq	%r12
	.cfi_def_cfa_offset 32
	.cfi_offset 12, -32
	movq	%rsi, %r12
	pushq	%rbp
	.cfi_def_cfa_offset 40
	.cfi_offset 6, -40
	movq	%rdx, %rbp
	pushq	%rbx
	.cfi_def_cfa_offset 48
	.cfi_offset 3, -48
	subq	$160, %rsp
	.cfi_def_cfa_offset 208
	movq	(%rsi), %rbx
	movq	%fs:40, %rax
	movq	%rax, 152(%rsp)
	xorl	%eax, %eax
	data16	leaq	_ZN4asio6detail15keyword_tss_ptrINS0_10call_stackINS0_14strand_service11strand_implEhE7contextEE6value_E@tlsgd(%rip), %rdi
	.value	0x6666
	rex64
	call	__tls_get_addr@PLT
	movq	(%rax), %rax
	testq	%rax, %rax
	jne	.L1198
	jmp	.L1195
	.p2align 4,,10
	.p2align 3
.L1196:
	movq	16(%rax), %rax
	testq	%rax, %rax
	je	.L1195
.L1198:
	cmpq	(%rax), %rbx
	jne	.L1196
	cmpq	$0, 8(%rax)
	je	.L1195
	lfence
	movq	0(%rbp), %rax
	movq	24(%rbp), %rdx
	movq	40(%rax), %rdi
	movb	$0, 57(%rax)
	testq	%rdi, %rdi
	je	.L1201
	cmpb	$0, 56(%rax)
	jne	.L1201
	movq	(%rdi), %rax
	leaq	8(%rbp), %rsi
.LEHB10:
	call	*16(%rax)
.LEHE10:
.L1201:
	sfence
.L1194:
	movq	152(%rsp), %rax
	subq	%fs:40, %rax
	jne	.L1330
	addq	$160, %rsp
	.cfi_remember_state
	.cfi_def_cfa_offset 48
	popq	%rbx
	.cfi_def_cfa_offset 40
	popq	%rbp
	.cfi_def_cfa_offset 32
	popq	%r12
	.cfi_def_cfa_offset 24
	popq	%r13
	.cfi_def_cfa_offset 16
	popq	%r14
	.cfi_def_cfa_offset 8
	ret
	.p2align 4,,10
	.p2align 3
.L1195:
	.cfi_restore_state
	pxor	%xmm0, %xmm0
	movq	%rbp, 16(%rsp)
	movups	%xmm0, 24(%rsp)
	data16	leaq	_ZN4asio6detail15keyword_tss_ptrINS0_10call_stackINS0_15task_io_serviceENS0_27task_io_service_thread_infoEE7contextEE6value_E@tlsgd(%rip), %rdi
	.value	0x6666
	rex64
	call	__tls_get_addr@PLT
	movq	(%rax), %rax
	testq	%rax, %rax
	je	.L1202
	movq	8(%rax), %rax
	testq	%rax, %rax
	je	.L1202
	movq	(%rax), %r14
	testq	%r14, %r14
	je	.L1202
	movq	$0, (%rax)
	movzbl	(%r14), %eax
	cmpb	$55, %al
	jbe	.L1203
	movb	%al, 56(%r14)
	jmp	.L1204
.L1203:
	movq	%r14, %rdi
	call	_ZdlPv@PLT
.L1202:
	movl	$57, %edi
.LEHB11:
	call	_Znwm@PLT
.LEHE11:
	movb	$56, 56(%rax)
	movq	%rax, %r14
.L1204:
	leaq	_ZN4asio6detail18completion_handlerINS0_7binder2IZN7asiopal13SocketChannel13BeginReadImplEN7openpal6WSliceEEUlRKSt10error_codemE_S7_mEEE11do_completeEPNS0_15task_io_serviceEPNS0_25task_io_service_operationES9_m(%rip), %rax
	movq	%r14, 24(%rsp)
	movdqu	0(%rbp), %xmm1
	movdqu	16(%rbp), %xmm2
	movq	40(%r13), %rbx
	movq	$0, (%r14)
	movq	%rax, 8(%r14)
	movl	$0, 16(%r14)
	movups	%xmm1, 24(%r14)
	movups	%xmm2, 40(%r14)
	movq	%r14, 32(%rsp)
	data16	leaq	_ZN4asio6detail15keyword_tss_ptrINS0_10call_stackINS0_15task_io_serviceENS0_27task_io_service_thread_infoEE7contextEE6value_E@tlsgd(%rip), %rdi
	.value	0x6666
	rex64
	call	__tls_get_addr@PLT
	movq	(%rax), %rax
	testq	%rax, %rax
	jne	.L1209
	jmp	.L1205
	.p2align 4,,10
	.p2align 3
.L1206:
	movq	16(%rax), %rax
	testq	%rax, %rax
	je	.L1205
.L1209:
	cmpq	(%rax), %rbx
	jne	.L1206
	movq	8(%rax), %rbx
	movq	(%r12), %rax
	leaq	24(%rax), %rdi
	call	pthread_mutex_lock@PLT
	testq	%rbx, %rbx
	je	.L1208
	movq	(%r12), %rax
	cmpb	$0, 64(%rax)
	leaq	24(%rax), %rdi
	je	.L1331
.L1210:
	cmpq	$0, 80(%rax)
	movq	$0, (%r14)
	je	.L1214
	movq	80(%rax), %rdx
	movq	%r14, (%rdx)
	movq	%r14, 80(%rax)
.L1329:
	call	pthread_mutex_unlock@PLT
	jmp	.L1194
.L1331:
	movb	$1, 64(%rax)
	call	pthread_mutex_unlock@PLT
	movq	(%r12), %r12
	pxor	%xmm0, %xmm0
	movq	32(%rsp), %rbp
	movups	%xmm0, 24(%rsp)
	movq	%r12, 48(%rsp)
	data16	leaq	_ZN4asio6detail15keyword_tss_ptrINS0_10call_stackINS0_14strand_service11strand_implEhE7contextEE6value_E@tlsgd(%rip), %rdi
	.value	0x6666
	rex64
	call	__tls_get_addr@PLT
	movdqu	24(%rbp), %xmm4
	movq	40(%r13), %rbx
	movq	%r12, %xmm3
	leaq	112(%rsp), %r12
	movq	%rbp, 88(%rsp)
	movaps	%xmm4, 112(%rsp)
	movq	%rbx, %xmm0
	movdqu	40(%rbp), %xmm5
	punpcklqdq	%xmm3, %xmm0
	movq	%r12, 80(%rsp)
	movq	$0, 96(%rsp)
	movaps	%xmm0, (%rsp)
	movq	(%rax), %rdx
	movaps	%xmm5, 128(%rsp)
	movq	%rdx, 64(%rsp)
	leaq	48(%rsp), %rdx
	movq	%rdx, (%rax)
	movq	%rdx, 56(%rsp)
	data16	leaq	_ZN4asio6detail15keyword_tss_ptrINS0_10call_stackINS0_15task_io_serviceENS0_27task_io_service_thread_infoEE7contextEE6value_E@tlsgd(%rip), %rdi
	.value	0x6666
	rex64
	call	__tls_get_addr@PLT
	movq	(%rax), %rax
	testq	%rax, %rax
	je	.L1212
	movq	8(%rax), %rax
	testq	%rax, %rax
	je	.L1212
	cmpq	$0, (%rax)
	je	.L1332
.L1212:
	movq	%rbp, %rdi
	call	_ZdlPv@PLT
.L1229:
	movq	$0, 88(%rsp)
	testq	%rbx, %rbx
	je	.L1230
	movq	112(%rsp), %rax
	movq	136(%rsp), %rdx
	movq	40(%rax), %rdi
	movb	$0, 57(%rax)
	testq	%rdi, %rdi
	je	.L1234
	cmpb	$0, 56(%rax)
	je	.L1333
.L1234:
	sfence
	cmpq	$0, 96(%rsp)
	je	.L1334
	movq	$0, 96(%rsp)
	movq	88(%rsp), %rbp
.L1235:
	testq	%rbp, %rbp
	je	.L1230
	data16	leaq	_ZN4asio6detail15keyword_tss_ptrINS0_10call_stackINS0_15task_io_serviceENS0_27task_io_service_thread_infoEE7contextEE6value_E@tlsgd(%rip), %rdi
	.value	0x6666
	rex64
	call	__tls_get_addr@PLT
	movq	(%rax), %rax
	testq	%rax, %rax
	je	.L1236
	movq	8(%rax), %rax
	testq	%rax, %rax
	je	.L1236
	cmpq	$0, (%rax)
	je	.L1335
.L1236:
	movq	%rbp, %rdi
	call	_ZdlPv@PLT
.L1230:
	movq	8(%rsp), %rax
	leaq	24(%rax), %rdi
	call	pthread_mutex_lock@PLT
	movq	8(%rsp), %rdi
	movq	72(%rdi), %rbx
	testq	%rbx, %rbx
	je	.L1336
	movq	96(%rdi), %rax
	testq	%rax, %rax
	je	.L1240
	movq	%rbx, (%rax)
	movq	88(%rdi), %rbx
.L1241:
	movq	80(%rdi), %rax
	pxor	%xmm0, %xmm0
	movups	%xmm0, 72(%rdi)
	movq	%rax, 96(%rdi)
.L1238:
	testq	%rbx, %rbx
	setne	64(%rdi)
	addq	$24, %rdi
	call	pthread_mutex_unlock@PLT
	testq	%rbx, %rbx
	jne	.L1337
.L1242:
	data16	leaq	_ZN4asio6detail15keyword_tss_ptrINS0_10call_stackINS0_14strand_service11strand_implEhE7contextEE6value_E@tlsgd(%rip), %rdi
	.value	0x6666
	rex64
	call	__tls_get_addr@PLT
	movq	64(%rsp), %rdx
	cmpq	$0, 32(%rsp)
	movq	24(%rsp), %rbp
	movq	%rdx, (%rax)
	je	.L1253
	movq	$0, 32(%rsp)
.L1253:
	testq	%rbp, %rbp
	je	.L1194
	data16	leaq	_ZN4asio6detail15keyword_tss_ptrINS0_10call_stackINS0_15task_io_serviceENS0_27task_io_service_thread_infoEE7contextEE6value_E@tlsgd(%rip), %rdi
	.value	0x6666
	rex64
	call	__tls_get_addr@PLT
	movq	(%rax), %rax
	testq	%rax, %rax
	je	.L1255
	movq	8(%rax), %rax
	testq	%rax, %rax
	je	.L1255
	cmpq	$0, (%rax)
	je	.L1338
.L1255:
	movq	%rbp, %rdi
	call	_ZdlPv@PLT
	jmp	.L1194
	.p2align 4,,10
	.p2align 3
.L1205:
	movq	(%r12), %rax
	leaq	24(%rax), %rdi
	call	pthread_mutex_lock@PLT
.L1208:
	movq	(%r12), %rax
	cmpb	$0, 64(%rax)
	leaq	24(%rax), %rdi
	jne	.L1210
	movb	$1, 64(%rax)
	call	pthread_mutex_unlock@PLT
	movq	(%r12), %rbp
	movq	$0, (%r14)
	cmpq	$0, 96(%rbp)
	je	.L1217
	movq	96(%rbp), %rax
	movq	%r14, (%rax)
	movq	%r14, 96(%rbp)
.L1218:
	movq	40(%r13), %rbx
	cmpb	$0, 40(%rbx)
	je	.L1219
	data16	leaq	_ZN4asio6detail15keyword_tss_ptrINS0_10call_stackINS0_15task_io_serviceENS0_27task_io_service_thread_infoEE7contextEE6value_E@tlsgd(%rip), %rdi
	.value	0x6666
	rex64
	call	__tls_get_addr@PLT
	movq	(%rax), %rax
	testq	%rax, %rax
	jne	.L1222
	jmp	.L1219
	.p2align 4,,10
	.p2align 3
.L1220:
	movq	16(%rax), %rax
	testq	%rax, %rax
	je	.L1219
.L1222:
	cmpq	(%rax), %rbx
	jne	.L1220
	movq	8(%rax), %rax
	testq	%rax, %rax
	je	.L1219
	addq	$1, 24(%rax)
	cmpq	$0, 16(%rax)
	movq	$0, 0(%rbp)
	je	.L1223
	movq	16(%rax), %rdx
	movq	%rbp, (%rdx)
	movq	%rbp, 16(%rax)
	jmp	.L1194
.L1219:
	lock addq	$1, 184(%rbx)
	leaq	48(%rbx), %r12
	movq	%r12, %rdi
	call	pthread_mutex_lock@PLT
	cmpq	$0, 200(%rbx)
	movq	$0, 0(%rbp)
	je	.L1224
	movq	200(%rbx), %rax
	movq	%rbp, (%rax)
	movq	%rbp, 200(%rbx)
.L1225:
	movq	136(%rbx), %rax
	orq	$1, %rax
	movq	%rax, 136(%rbx)
	cmpq	$1, %rax
	je	.L1226
	movq	%r12, %rdi
	call	pthread_mutex_unlock@PLT
	leaq	88(%rbx), %rdi
	call	pthread_cond_signal@PLT
	jmp	.L1194
.L1214:
	movq	%r14, %xmm0
	punpcklqdq	%xmm0, %xmm0
	movups	%xmm0, 72(%rax)
	jmp	.L1329
.L1333:
	movq	(%rdi), %rax
	leaq	120(%rsp), %rsi
.LEHB12:
	call	*16(%rax)
.LEHE12:
	jmp	.L1234
.L1224:
	movq	%rbp, %xmm0
	punpcklqdq	%xmm0, %xmm0
	movups	%xmm0, 192(%rbx)
	jmp	.L1225
.L1337:
	movq	(%rsp), %rbx
	movq	8(%rsp), %rbp
	cmpb	$0, 40(%rbx)
	je	.L1243
	data16	leaq	_ZN4asio6detail15keyword_tss_ptrINS0_10call_stackINS0_15task_io_serviceENS0_27task_io_service_thread_infoEE7contextEE6value_E@tlsgd(%rip), %rdi
	.value	0x6666
	rex64
	call	__tls_get_addr@PLT
	movq	(%rax), %rax
	testq	%rax, %rax
	jne	.L1246
	jmp	.L1243
	.p2align 4,,10
	.p2align 3
.L1244:
	movq	16(%rax), %rax
	testq	%rax, %rax
	je	.L1243
.L1246:
	cmpq	(%rax), %rbx
	jne	.L1244
	movq	8(%rax), %rax
	testq	%rax, %rax
	je	.L1243
	addq	$1, 24(%rax)
	cmpq	$0, 16(%rax)
	movq	$0, 0(%rbp)
	je	.L1247
	movq	16(%rax), %rdx
	movq	%rbp, (%rdx)
	movq	%rbp, 16(%rax)
	jmp	.L1242
.L1226:
	cmpb	$0, 176(%rbx)
	jne	.L1228
	movq	144(%rbx), %rax
	testq	%rax, %rax
	je	.L1228
	movb	$1, 176(%rbx)
	leaq	88(%rax), %rdx
	leaq	112(%rsp), %rcx
	movl	$3, %esi
	movq	%rdx, 116(%rsp)
	movl	88(%rax), %edx
	movl	$-2147483639, 112(%rsp)
	movl	96(%rax), %edi
	call	epoll_ctl@PLT
.L1228:
	movq	%r12, %rdi
	jmp	.L1329
.L1336:
	movq	88(%rdi), %rbx
	jmp	.L1238
.L1334:
	movq	88(%rsp), %rbp
	jmp	.L1235
.L1243:
	lock addq	$1, 184(%rbx)
	leaq	48(%rbx), %r13
	movq	%r13, %rdi
	call	pthread_mutex_lock@PLT
	cmpq	$0, 200(%rbx)
	movq	$0, 0(%rbp)
	je	.L1248
	movq	200(%rbx), %rax
	movq	%rbp, (%rax)
	movq	%rbp, 200(%rbx)
.L1249:
	movq	136(%rbx), %rax
	orq	$1, %rax
	movq	%rax, 136(%rbx)
	cmpq	$1, %rax
	je	.L1250
	movq	%r13, %rdi
	call	pthread_mutex_unlock@PLT
	leaq	88(%rbx), %rdi
	call	pthread_cond_signal@PLT
	jmp	.L1242
.L1240:
	movq	%rbx, 88(%rdi)
	jmp	.L1241
.L1250:
	cmpb	$0, 176(%rbx)
	jne	.L1252
	movq	144(%rbx), %rax
	testq	%rax, %rax
	je	.L1252
	movb	$1, 176(%rbx)
	leaq	88(%rax), %rdx
	movq	%r12, %rcx
	movl	$3, %esi
	movq	%rdx, 116(%rsp)
	movl	88(%rax), %edx
	movl	$-2147483639, 112(%rsp)
	movl	96(%rax), %edi
	call	epoll_ctl@PLT
.L1252:
	movq	%r13, %rdi
	call	pthread_mutex_unlock@PLT
	jmp	.L1242
.L1338:
	movzbl	56(%rbp), %edx
	movb	%dl, 0(%rbp)
	movq	%rbp, (%rax)
	jmp	.L1194
.L1217:
	movq	%r14, %xmm0
	punpcklqdq	%xmm0, %xmm0
	movups	%xmm0, 88(%rbp)
	jmp	.L1218
.L1335:
	movzbl	56(%rbp), %edx
	movb	%dl, 0(%rbp)
	movq	%rbp, (%rax)
	jmp	.L1230
.L1332:
	movzbl	56(%rbp), %edx
	movb	%dl, 0(%rbp)
	movq	%rbp, (%rax)
	jmp	.L1229
.L1248:
	movq	%rbp, %xmm0
	punpcklqdq	%xmm0, %xmm0
	movups	%xmm0, 192(%rbx)
	jmp	.L1249
.L1223:
	movq	%rbp, %xmm0
	punpcklqdq	%xmm0, %xmm0
	movups	%xmm0, 8(%rax)
	jmp	.L1194
.L1247:
	movq	%rbp, %xmm0
	punpcklqdq	%xmm0, %xmm0
	movups	%xmm0, 8(%rax)
	jmp	.L1242
.L1330:
	call	__stack_chk_fail@PLT
.L1258:
	movq	%rax, %rdi
	jmp	.L1256
.L1259:
	movq	%rax, %rbp
	jmp	.L1239
	.section	.gcc_except_table
.LLSDA9410:
	.byte	0xff
	.byte	0xff
	.byte	0x1
	.uleb128 .LLSDACSE9410-.LLSDACSB9410
.LLSDACSB9410:
	.uleb128 .LEHB10-.LFB9410
	.uleb128 .LEHE10-.LEHB10
	.uleb128 .L1258-.LFB9410
	.uleb128 0
	.uleb128 .LEHB11-.LFB9410
	.uleb128 .LEHE11-.LEHB11
	.uleb128 0
	.uleb128 0
	.uleb128 .LEHB12-.LFB9410
	.uleb128 .LEHE12-.LEHB12
	.uleb128 .L1259-.LFB9410
	.uleb128 0
.LLSDACSE9410:
	.text
	.cfi_endproc
	.section	.text.unlikely
	.cfi_startproc
	.cfi_personality 0x9b,DW.ref.__gxx_personality_v0
	.cfi_lsda 0x1b,.LLSDAC9410
	.type	_ZN4asio6detail14strand_service8dispatchINS0_7binder2IZN7asiopal13SocketChannel13BeginReadImplEN7openpal6WSliceEEUlRKSt10error_codemE_S8_mEEEEvRPNS1_11strand_implERT_.cold, @function
_ZN4asio6detail14strand_service8dispatchINS0_7binder2IZN7asiopal13SocketChannel13BeginReadImplEN7openpal6WSliceEEUlRKSt10error_codemE_S8_mEEEEvRPNS1_11strand_implERT_.cold:
.LFSB9410:
.L1256:
	.cfi_def_cfa_offset 208
	.cfi_offset 3, -48
	.cfi_offset 6, -40
	.cfi_offset 12, -32
	.cfi_offset 13, -24
	.cfi_offset 14, -16
	sfence
.LEHB13:
	call	_Unwind_Resume@PLT
.L1239:
	sfence
	leaq	80(%rsp), %rdi
	call	_ZN4asio6detail18completion_handlerINS0_7binder2IZN7asiopal13SocketChannel13BeginReadImplEN7openpal6WSliceEEUlRKSt10error_codemE_S7_mEEE3ptr5resetEv
	movq	%rsp, %rdi
	call	_ZN4asio6detail14strand_service16on_dispatch_exitD1Ev@PLT
	data16	leaq	_ZN4asio6detail15keyword_tss_ptrINS0_10call_stackINS0_14strand_service11strand_implEhE7contextEE6value_E@tlsgd(%rip), %rdi
	.value	0x6666
	rex64
	call	__tls_get_addr@PLT
	movq	64(%rsp), %rdx
	leaq	16(%rsp), %rdi
	movq	%rdx, (%rax)
	call	_ZN4asio6detail18completion_handlerINS0_7binder2IZN7asiopal13SocketChannel13BeginReadImplEN7openpal6WSliceEEUlRKSt10error_codemE_S7_mEEE3ptr5resetEv
	movq	%rbp, %rdi
	call	_Unwind_Resume@PLT
.LEHE13:
	.cfi_endproc
.LFE9410:
	.section	.gcc_except_table
.LLSDAC9410:
	.byte	0xff
	.byte	0xff
	.byte	0x1
	.uleb128 .LLSDACSEC9410-.LLSDACSBC9410
.LLSDACSBC9410:
	.uleb128 .LEHB13-.LCOLDB27
	.uleb128 .LEHE13-.LEHB13
	.uleb128 0
	.uleb128 0
.LLSDACSEC9410:
	.section	.text.unlikely
	.text
	.size	_ZN4asio6detail14strand_service8dispatchINS0_7binder2IZN7asiopal13SocketChannel13BeginReadImplEN7openpal6WSliceEEUlRKSt10error_codemE_S8_mEEEEvRPNS1_11strand_implERT_, .-_ZN4asio6detail14strand_service8dispatchINS0_7binder2IZN7asiopal13SocketChannel13BeginReadImplEN7openpal6WSliceEEUlRKSt10error_codemE_S8_mEEEEvRPNS1_11strand_implERT_
	.section	.text.unlikely
	.size	_ZN4asio6detail14strand_service8dispatchINS0_7binder2IZN7asiopal13SocketChannel13BeginReadImplEN7openpal6WSliceEEUlRKSt10error_codemE_S8_mEEEEvRPNS1_11strand_implERT_.cold, .-_ZN4asio6detail14strand_service8dispatchINS0_7binder2IZN7asiopal13SocketChannel13BeginReadImplEN7openpal6WSliceEEUlRKSt10error_codemE_S8_mEEEEvRPNS1_11strand_implERT_.cold
.LCOLDE27:
	.text
.LHOTE27:
	.section	.text.unlikely
.LCOLDB28:
	.text
.LHOTB28:
	.p2align 4
	.type	_ZN4asio6detail18completion_handlerINS0_17rewrapped_handlerINS0_7binder2INS0_15wrapped_handlerINS_10io_service6strandEZN7asiopal13SocketChannel13BeginReadImplEN7openpal6WSliceEEUlRKSt10error_codemE_NS0_26is_continuation_if_runningEEESB_mEESE_EEE11do_completeEPNS0_15task_io_serviceEPNS0_25task_io_service_operationESD_m, @function
_ZN4asio6detail18completion_handlerINS0_17rewrapped_handlerINS0_7binder2INS0_15wrapped_handlerINS_10io_service6strandEZN7asiopal13SocketChannel13BeginReadImplEN7openpal6WSliceEEUlRKSt10error_codemE_NS0_26is_continuation_if_runningEEESB_mEESE_EEE11do_completeEPNS0_15task_io_serviceEPNS0_25task_io_service_operationESD_m:
.LFB9335:
	.cfi_startproc
	.cfi_personality 0x9b,DW.ref.__gxx_personality_v0
	.cfi_lsda 0x1b,.LLSDA9335
	pushq	%rbp
	.cfi_def_cfa_offset 16
	.cfi_offset 6, -16
	movq	%rsi, %rbp
	pushq	%rbx
	.cfi_def_cfa_offset 24
	.cfi_offset 3, -24
	movq	%rdi, %rbx
	subq	$152, %rsp
	.cfi_def_cfa_offset 176
	movdqu	32(%rsi), %xmm0
	movdqu	56(%rsi), %xmm1
	movq	%fs:40, %rax
	movq	%rax, 136(%rsp)
	xorl	%eax, %eax
	movq	24(%rsi), %rax
	movq	%rsi, 8(%rsp)
	movq	$0, 16(%rsp)
	movq	%rax, 80(%rsp)
	movq	48(%rsi), %rax
	movups	%xmm0, 88(%rsp)
	movq	%rax, 104(%rsp)
	movq	72(%rsi), %rax
	movups	%xmm1, 112(%rsp)
	movq	%rax, 128(%rsp)
	leaq	80(%rsp), %rax
	movq	%rax, (%rsp)
	data16	leaq	_ZN4asio6detail15keyword_tss_ptrINS0_10call_stackINS0_15task_io_serviceENS0_27task_io_service_thread_infoEE7contextEE6value_E@tlsgd(%rip), %rdi
	.value	0x6666
	rex64
	call	__tls_get_addr@PLT
	movq	(%rax), %rax
	testq	%rax, %rax
	je	.L1340
	movq	8(%rax), %rax
	testq	%rax, %rax
	je	.L1340
	cmpq	$0, (%rax)
	je	.L1368
.L1340:
	movq	%rbp, %rdi
	call	_ZdlPv@PLT
.L1341:
	movq	$0, 8(%rsp)
	testq	%rbx, %rbx
	je	.L1339
	movq	104(%rsp), %rax
	movq	88(%rsp), %rdi
	leaq	32(%rsp), %rdx
	leaq	96(%rsp), %rsi
	movq	%rax, 32(%rsp)
	movl	112(%rsp), %eax
	movl	%eax, 40(%rsp)
	movq	120(%rsp), %rax
	movq	%rax, 48(%rsp)
	movq	128(%rsp), %rax
	movq	%rax, 56(%rsp)
.LEHB14:
	call	_ZN4asio6detail14strand_service8dispatchINS0_7binder2IZN7asiopal13SocketChannel13BeginReadImplEN7openpal6WSliceEEUlRKSt10error_codemE_S8_mEEEEvRPNS1_11strand_implERT_
.LEHE14:
	sfence
	cmpq	$0, 16(%rsp)
	movq	8(%rsp), %rbp
	je	.L1343
	movq	$0, 16(%rsp)
.L1343:
	testq	%rbp, %rbp
	je	.L1339
	data16	leaq	_ZN4asio6detail15keyword_tss_ptrINS0_10call_stackINS0_15task_io_serviceENS0_27task_io_service_thread_infoEE7contextEE6value_E@tlsgd(%rip), %rdi
	.value	0x6666
	rex64
	call	__tls_get_addr@PLT
	movq	(%rax), %rax
	testq	%rax, %rax
	je	.L1345
	movq	8(%rax), %rax
	testq	%rax, %rax
	je	.L1345
	cmpq	$0, (%rax)
	je	.L1369
.L1345:
	movq	%rbp, %rdi
	call	_ZdlPv@PLT
.L1339:
	movq	136(%rsp), %rax
	subq	%fs:40, %rax
	jne	.L1370
	addq	$152, %rsp
	.cfi_remember_state
	.cfi_def_cfa_offset 24
	popq	%rbx
	.cfi_def_cfa_offset 16
	popq	%rbp
	.cfi_def_cfa_offset 8
	ret
	.p2align 4,,10
	.p2align 3
.L1368:
	.cfi_restore_state
	movzbl	80(%rbp), %edx
	movb	%dl, 0(%rbp)
	movq	%rbp, (%rax)
	jmp	.L1341
	.p2align 4,,10
	.p2align 3
.L1369:
	movzbl	80(%rbp), %edx
	movb	%dl, 0(%rbp)
	movq	%rbp, (%rax)
	jmp	.L1339
.L1370:
	call	__stack_chk_fail@PLT
.L1348:
	movq	%rax, %rbp
	jmp	.L1346
	.section	.gcc_except_table
.LLSDA9335:
	.byte	0xff
	.byte	0xff
	.byte	0x1
	.uleb128 .LLSDACSE9335-.LLSDACSB9335
.LLSDACSB9335:
	.uleb128 .LEHB14-.LFB9335
	.uleb128 .LEHE14-.LEHB14
	.uleb128 .L1348-.LFB9335
	.uleb128 0
.LLSDACSE9335:
	.text
	.cfi_endproc
	.section	.text.unlikely
	.cfi_startproc
	.cfi_personality 0x9b,DW.ref.__gxx_personality_v0
	.cfi_lsda 0x1b,.LLSDAC9335
	.type	_ZN4asio6detail18completion_handlerINS0_17rewrapped_handlerINS0_7binder2INS0_15wrapped_handlerINS_10io_service6strandEZN7asiopal13SocketChannel13BeginReadImplEN7openpal6WSliceEEUlRKSt10error_codemE_NS0_26is_continuation_if_runningEEESB_mEESE_EEE11do_completeEPNS0_15task_io_serviceEPNS0_25task_io_service_operationESD_m.cold, @function
_ZN4asio6detail18completion_handlerINS0_17rewrapped_handlerINS0_7binder2INS0_15wrapped_handlerINS_10io_service6strandEZN7asiopal13SocketChannel13BeginReadImplEN7openpal6WSliceEEUlRKSt10error_codemE_NS0_26is_continuation_if_runningEEESB_mEESE_EEE11do_completeEPNS0_15task_io_serviceEPNS0_25task_io_service_operationESD_m.cold:
.LFSB9335:
.L1346:
	.cfi_def_cfa_offset 176
	.cfi_offset 3, -24
	.cfi_offset 6, -16
	sfence
	movq	%rsp, %rdi
	call	_ZN4asio6detail18completion_handlerINS0_17rewrapped_handlerINS0_7binder2INS0_15wrapped_handlerINS_10io_service6strandEZN7asiopal13SocketChannel13BeginReadImplEN7openpal6WSliceEEUlRKSt10error_codemE_NS0_26is_continuation_if_runningEEESB_mEESE_EEE3ptr5resetEv
	movq	%rbp, %rdi
.LEHB15:
	call	_Unwind_Resume@PLT
.LEHE15:
	.cfi_endproc
.LFE9335:
	.section	.gcc_except_table
.LLSDAC9335:
	.byte	0xff
	.byte	0xff
	.byte	0x1
	.uleb128 .LLSDACSEC9335-.LLSDACSBC9335
.LLSDACSBC9335:
	.uleb128 .LEHB15-.LCOLDB28
	.uleb128 .LEHE15-.LEHB15
	.uleb128 0
	.uleb128 0
.LLSDACSEC9335:
	.section	.text.unlikely
	.text
	.size	_ZN4asio6detail18completion_handlerINS0_17rewrapped_handlerINS0_7binder2INS0_15wrapped_handlerINS_10io_service6strandEZN7asiopal13SocketChannel13BeginReadImplEN7openpal6WSliceEEUlRKSt10error_codemE_NS0_26is_continuation_if_runningEEESB_mEESE_EEE11do_completeEPNS0_15task_io_serviceEPNS0_25task_io_service_operationESD_m, .-_ZN4asio6detail18completion_handlerINS0_17rewrapped_handlerINS0_7binder2INS0_15wrapped_handlerINS_10io_service6strandEZN7asiopal13SocketChannel13BeginReadImplEN7openpal6WSliceEEUlRKSt10error_codemE_NS0_26is_continuation_if_runningEEESB_mEESE_EEE11do_completeEPNS0_15task_io_serviceEPNS0_25task_io_service_operationESD_m
	.section	.text.unlikely
	.size	_ZN4asio6detail18completion_handlerINS0_17rewrapped_handlerINS0_7binder2INS0_15wrapped_handlerINS_10io_service6strandEZN7asiopal13SocketChannel13BeginReadImplEN7openpal6WSliceEEUlRKSt10error_codemE_NS0_26is_continuation_if_runningEEESB_mEESE_EEE11do_completeEPNS0_15task_io_serviceEPNS0_25task_io_service_operationESD_m.cold, .-_ZN4asio6detail18completion_handlerINS0_17rewrapped_handlerINS0_7binder2INS0_15wrapped_handlerINS_10io_service6strandEZN7asiopal13SocketChannel13BeginReadImplEN7openpal6WSliceEEUlRKSt10error_codemE_NS0_26is_continuation_if_runningEEESB_mEESE_EEE11do_completeEPNS0_15task_io_serviceEPNS0_25task_io_service_operationESD_m.cold
.LCOLDE28:
	.text
.LHOTE28:
	.section	.text.unlikely
.LCOLDB29:
	.text
.LHOTB29:
	.p2align 4
	.type	_ZN4asio6detail23reactive_socket_recv_opINS_17mutable_buffers_1ENS0_15wrapped_handlerINS_10io_service6strandEZN7asiopal13SocketChannel13BeginReadImplEN7openpal6WSliceEEUlRKSt10error_codemE_NS0_26is_continuation_if_runningEEEE11do_completeEPNS0_15task_io_serviceEPNS0_25task_io_service_operationESC_m, @function
_ZN4asio6detail23reactive_socket_recv_opINS_17mutable_buffers_1ENS0_15wrapped_handlerINS_10io_service6strandEZN7asiopal13SocketChannel13BeginReadImplEN7openpal6WSliceEEUlRKSt10error_codemE_NS0_26is_continuation_if_runningEEEE11do_completeEPNS0_15task_io_serviceEPNS0_25task_io_service_operationESC_m:
.LFB8848:
	.cfi_startproc
	.cfi_personality 0x9b,DW.ref.__gxx_personality_v0
	.cfi_lsda 0x1b,.LLSDA8848
	pushq	%r13
	.cfi_def_cfa_offset 16
	.cfi_offset 13, -16
	pushq	%r12
	.cfi_def_cfa_offset 24
	.cfi_offset 12, -24
	pushq	%rbp
	.cfi_def_cfa_offset 32
	.cfi_offset 6, -32
	movq	%rsi, %rbp
	pushq	%rbx
	.cfi_def_cfa_offset 40
	.cfi_offset 3, -40
	movq	%rdi, %rbx
	subq	$456, %rsp
	.cfi_def_cfa_offset 496
	movdqu	88(%rsi), %xmm2
	movdqu	24(%rsi), %xmm3
	movq	%fs:40, %rax
	movq	%rax, 440(%rsp)
	xorl	%eax, %eax
	movq	104(%rsi), %rax
	movq	%rsi, 24(%rsp)
	movq	$0, 32(%rsp)
	movq	%rax, 208(%rsp)
	movq	40(%rsi), %rax
	movaps	%xmm2, 192(%rsp)
	movq	%rax, 232(%rsp)
	leaq	192(%rsp), %rax
	movq	%rax, 16(%rsp)
	movups	%xmm3, 216(%rsp)
	data16	leaq	_ZN4asio6detail15keyword_tss_ptrINS0_10call_stackINS0_15task_io_serviceENS0_27task_io_service_thread_infoEE7contextEE6value_E@tlsgd(%rip), %rdi
	.value	0x6666
	rex64
	call	__tls_get_addr@PLT
	movq	(%rax), %rax
	testq	%rax, %rax
	je	.L1372
	movq	8(%rax), %rax
	testq	%rax, %rax
	je	.L1372
	cmpq	$0, (%rax)
	je	.L1528
.L1372:
	movq	%rbp, %rdi
	call	_ZdlPv@PLT
.L1373:
	movq	$0, 24(%rsp)
	testq	%rbx, %rbx
	je	.L1371
	movq	208(%rsp), %rax
	movq	200(%rsp), %rbp
	movdqa	192(%rsp), %xmm1
	movdqu	216(%rsp), %xmm0
	movq	%rax, 240(%rsp)
	movq	%rax, 264(%rsp)
	movq	%rax, 368(%rsp)
	movq	%rax, 392(%rsp)
	movq	232(%rsp), %rax
	movups	%xmm1, 248(%rsp)
	movq	%rax, 416(%rsp)
	movaps	%xmm0, 272(%rsp)
	movups	%xmm1, 376(%rsp)
	movaps	%xmm0, 400(%rsp)
	data16	leaq	_ZN4asio6detail15keyword_tss_ptrINS0_10call_stackINS0_14strand_service11strand_implEhE7contextEE6value_E@tlsgd(%rip), %rdi
	.value	0x6666
	rex64
	call	__tls_get_addr@PLT
	movq	(%rax), %rax
	testq	%rax, %rax
	jne	.L1378
	jmp	.L1375
	.p2align 4,,10
	.p2align 3
.L1376:
	movq	16(%rax), %rax
	testq	%rax, %rax
	je	.L1375
.L1378:
	cmpq	(%rax), %rbp
	jne	.L1376
	cmpq	$0, 8(%rax)
	je	.L1375
	lfence
	movq	392(%rsp), %rax
	leaq	304(%rsp), %rdx
	leaq	384(%rsp), %rsi
	movq	376(%rsp), %rdi
	movq	%rax, 304(%rsp)
	movl	400(%rsp), %eax
	movl	%eax, 312(%rsp)
	movq	408(%rsp), %rax
	movq	%rax, 320(%rsp)
	movq	416(%rsp), %rax
	movq	%rax, 328(%rsp)
.LEHB16:
	call	_ZN4asio6detail14strand_service8dispatchINS0_7binder2IZN7asiopal13SocketChannel13BeginReadImplEN7openpal6WSliceEEUlRKSt10error_codemE_S8_mEEEEvRPNS1_11strand_implERT_
.LEHE16:
	sfence
.L1379:
	sfence
	cmpq	$0, 32(%rsp)
	movq	24(%rsp), %rbp
	je	.L1433
	movq	$0, 32(%rsp)
.L1433:
	testq	%rbp, %rbp
	je	.L1371
	data16	leaq	_ZN4asio6detail15keyword_tss_ptrINS0_10call_stackINS0_15task_io_serviceENS0_27task_io_service_thread_infoEE7contextEE6value_E@tlsgd(%rip), %rdi
	.value	0x6666
	rex64
	call	__tls_get_addr@PLT
	movq	(%rax), %rax
	testq	%rax, %rax
	je	.L1436
	movq	8(%rax), %rax
	testq	%rax, %rax
	je	.L1436
	cmpq	$0, (%rax)
	je	.L1529
.L1436:
	movq	%rbp, %rdi
	call	_ZdlPv@PLT
.L1371:
	movq	440(%rsp), %rax
	subq	%fs:40, %rax
	jne	.L1530
	addq	$456, %rsp
	.cfi_remember_state
	.cfi_def_cfa_offset 40
	popq	%rbx
	.cfi_def_cfa_offset 32
	popq	%rbp
	.cfi_def_cfa_offset 24
	popq	%r12
	.cfi_def_cfa_offset 16
	popq	%r13
	.cfi_def_cfa_offset 8
	ret
	.p2align 4,,10
	.p2align 3
.L1375:
	.cfi_restore_state
	pxor	%xmm0, %xmm0
	leaq	368(%rsp), %rax
	movq	192(%rsp), %r12
	movq	%rax, 48(%rsp)
	movups	%xmm0, 56(%rsp)
	data16	leaq	_ZN4asio6detail15keyword_tss_ptrINS0_10call_stackINS0_15task_io_serviceENS0_27task_io_service_thread_infoEE7contextEE6value_E@tlsgd(%rip), %rdi
	.value	0x6666
	rex64
	call	__tls_get_addr@PLT
	movq	(%rax), %rax
	testq	%rax, %rax
	je	.L1380
	movq	8(%rax), %rax
	testq	%rax, %rax
	je	.L1380
	movq	(%rax), %rbp
	testq	%rbp, %rbp
	je	.L1380
	movq	$0, (%rax)
	movzbl	0(%rbp), %eax
	cmpb	$79, %al
	jbe	.L1381
	movb	%al, 80(%rbp)
	jmp	.L1382
	.p2align 4,,10
	.p2align 3
.L1381:
	movq	%rbp, %rdi
	call	_ZdlPv@PLT
.L1380:
	movl	$81, %edi
.LEHB17:
	call	_Znwm@PLT
.LEHE17:
	movb	$80, 80(%rax)
	movq	%rax, %rbp
.L1382:
	leaq	_ZN4asio6detail18completion_handlerINS0_17rewrapped_handlerINS0_7binder2INS0_15wrapped_handlerINS_10io_service6strandEZN7asiopal13SocketChannel13BeginReadImplEN7openpal6WSliceEEUlRKSt10error_codemE_NS0_26is_continuation_if_runningEEESB_mEESE_EEE11do_completeEPNS0_15task_io_serviceEPNS0_25task_io_service_operationESD_m(%rip), %rax
	movq	%rbp, 56(%rsp)
	movdqu	376(%rsp), %xmm4
	movq	%rax, 8(%rbp)
	movq	40(%r12), %rbx
	movq	368(%rsp), %rax
	movl	$0, 16(%rbp)
	movdqa	400(%rsp), %xmm5
	movq	$0, 0(%rbp)
	movq	%rax, 24(%rbp)
	movq	392(%rsp), %rax
	movups	%xmm4, 32(%rbp)
	movq	%rax, 48(%rbp)
	movq	416(%rsp), %rax
	movups	%xmm5, 56(%rbp)
	movq	%rax, 72(%rbp)
	movq	%rbp, 64(%rsp)
	data16	leaq	_ZN4asio6detail15keyword_tss_ptrINS0_10call_stackINS0_15task_io_serviceENS0_27task_io_service_thread_infoEE7contextEE6value_E@tlsgd(%rip), %rdi
	.value	0x6666
	rex64
	call	__tls_get_addr@PLT
	movq	(%rax), %rax
	testq	%rax, %rax
	jne	.L1387
	jmp	.L1383
	.p2align 4,,10
	.p2align 3
.L1384:
	movq	16(%rax), %rax
	testq	%rax, %rax
	je	.L1383
.L1387:
	cmpq	(%rax), %rbx
	jne	.L1384
	movq	8(%rax), %rbx
	movq	200(%rsp), %rax
	leaq	24(%rax), %rdi
	call	pthread_mutex_lock@PLT
	testq	%rbx, %rbx
	je	.L1386
	movq	200(%rsp), %rax
	cmpb	$0, 64(%rax)
	leaq	24(%rax), %rdi
	je	.L1531
.L1388:
	cmpq	$0, 80(%rax)
	movq	$0, 0(%rbp)
	je	.L1392
	movq	80(%rax), %rdx
	movq	%rbp, (%rdx)
	movq	%rbp, 80(%rax)
.L1527:
	call	pthread_mutex_unlock@PLT
	jmp	.L1379
.L1531:
	movb	$1, 64(%rax)
	call	pthread_mutex_unlock@PLT
	pxor	%xmm0, %xmm0
	movq	64(%rsp), %rbp
	movq	200(%rsp), %r13
	movups	%xmm0, 56(%rsp)
	movq	%r13, 80(%rsp)
	data16	leaq	_ZN4asio6detail15keyword_tss_ptrINS0_10call_stackINS0_14strand_service11strand_implEhE7contextEE6value_E@tlsgd(%rip), %rdi
	.value	0x6666
	rex64
	call	__tls_get_addr@PLT
	movq	40(%r12), %rbx
	movq	%r13, %xmm6
	movdqu	32(%rbp), %xmm7
	leaq	304(%rsp), %r12
	movq	%rbp, 120(%rsp)
	movq	%rbx, %xmm0
	movq	%r12, 112(%rsp)
	movq	$0, 128(%rsp)
	punpcklqdq	%xmm6, %xmm0
	movdqu	56(%rbp), %xmm6
	movaps	%xmm0, (%rsp)
	movq	(%rax), %rdx
	movq	%rdx, 96(%rsp)
	leaq	80(%rsp), %rdx
	movq	%rdx, (%rax)
	movq	24(%rbp), %rax
	movq	%rdx, 88(%rsp)
	movq	%rax, 304(%rsp)
	movq	48(%rbp), %rax
	movups	%xmm7, 312(%rsp)
	movq	%rax, 328(%rsp)
	movq	72(%rbp), %rax
	movaps	%xmm6, 336(%rsp)
	movq	%rax, 352(%rsp)
	data16	leaq	_ZN4asio6detail15keyword_tss_ptrINS0_10call_stackINS0_15task_io_serviceENS0_27task_io_service_thread_infoEE7contextEE6value_E@tlsgd(%rip), %rdi
	.value	0x6666
	rex64
	call	__tls_get_addr@PLT
	movq	(%rax), %rax
	testq	%rax, %rax
	je	.L1390
	movq	8(%rax), %rax
	testq	%rax, %rax
	je	.L1390
	cmpq	$0, (%rax)
	je	.L1532
.L1390:
	movq	%rbp, %rdi
	call	_ZdlPv@PLT
.L1407:
	movq	$0, 120(%rsp)
	testq	%rbx, %rbx
	je	.L1410
	movq	328(%rsp), %rax
	movq	312(%rsp), %rdi
	leaq	144(%rsp), %rdx
	leaq	320(%rsp), %rsi
	movq	%rax, 144(%rsp)
	movl	336(%rsp), %eax
	movl	%eax, 152(%rsp)
	movq	344(%rsp), %rax
	movq	%rax, 160(%rsp)
	movq	352(%rsp), %rax
	movq	%rax, 168(%rsp)
.LEHB18:
	call	_ZN4asio6detail14strand_service8dispatchINS0_7binder2IZN7asiopal13SocketChannel13BeginReadImplEN7openpal6WSliceEEUlRKSt10error_codemE_S8_mEEEEvRPNS1_11strand_implERT_
.LEHE18:
	sfence
	movq	120(%rsp), %rbp
	cmpq	$0, 128(%rsp)
	je	.L1409
	movq	$0, 128(%rsp)
.L1409:
	testq	%rbp, %rbp
	je	.L1410
	data16	leaq	_ZN4asio6detail15keyword_tss_ptrINS0_10call_stackINS0_15task_io_serviceENS0_27task_io_service_thread_infoEE7contextEE6value_E@tlsgd(%rip), %rdi
	.value	0x6666
	rex64
	call	__tls_get_addr@PLT
	movq	(%rax), %rax
	testq	%rax, %rax
	je	.L1411
	movq	8(%rax), %rax
	testq	%rax, %rax
	je	.L1411
	cmpq	$0, (%rax)
	je	.L1533
.L1411:
	movq	%rbp, %rdi
	call	_ZdlPv@PLT
.L1410:
	movq	8(%rsp), %rax
	leaq	24(%rax), %rdi
	call	pthread_mutex_lock@PLT
	movq	8(%rsp), %rdi
	movq	72(%rdi), %rbx
	testq	%rbx, %rbx
	je	.L1534
	movq	96(%rdi), %rax
	testq	%rax, %rax
	je	.L1416
	movq	%rbx, (%rax)
	movq	88(%rdi), %rbx
.L1417:
	movq	80(%rdi), %rax
	pxor	%xmm0, %xmm0
	movups	%xmm0, 72(%rdi)
	movq	%rax, 96(%rdi)
.L1413:
	testq	%rbx, %rbx
	setne	64(%rdi)
	addq	$24, %rdi
	call	pthread_mutex_unlock@PLT
	testq	%rbx, %rbx
	jne	.L1535
.L1418:
	data16	leaq	_ZN4asio6detail15keyword_tss_ptrINS0_10call_stackINS0_14strand_service11strand_implEhE7contextEE6value_E@tlsgd(%rip), %rdi
	.value	0x6666
	rex64
	call	__tls_get_addr@PLT
	movq	96(%rsp), %rdx
	cmpq	$0, 64(%rsp)
	movq	56(%rsp), %rbp
	movq	%rdx, (%rax)
	je	.L1429
	movq	$0, 64(%rsp)
.L1429:
	testq	%rbp, %rbp
	je	.L1379
	data16	leaq	_ZN4asio6detail15keyword_tss_ptrINS0_10call_stackINS0_15task_io_serviceENS0_27task_io_service_thread_infoEE7contextEE6value_E@tlsgd(%rip), %rdi
	.value	0x6666
	rex64
	call	__tls_get_addr@PLT
	movq	(%rax), %rax
	testq	%rax, %rax
	je	.L1431
	movq	8(%rax), %rax
	testq	%rax, %rax
	je	.L1431
	cmpq	$0, (%rax)
	je	.L1536
.L1431:
	movq	%rbp, %rdi
	call	_ZdlPv@PLT
	jmp	.L1379
	.p2align 4,,10
	.p2align 3
.L1528:
	movzbl	112(%rbp), %edx
	movb	%dl, 0(%rbp)
	movq	%rbp, (%rax)
	jmp	.L1373
	.p2align 4,,10
	.p2align 3
.L1392:
	movq	%rbp, %xmm0
	punpcklqdq	%xmm0, %xmm0
	movups	%xmm0, 72(%rax)
	jmp	.L1527
	.p2align 4,,10
	.p2align 3
.L1383:
	movq	200(%rsp), %rax
	leaq	24(%rax), %rdi
	call	pthread_mutex_lock@PLT
.L1386:
	movq	200(%rsp), %rax
	cmpb	$0, 64(%rax)
	leaq	24(%rax), %rdi
	jne	.L1388
	movb	$1, 64(%rax)
	call	pthread_mutex_unlock@PLT
	movq	200(%rsp), %r13
	movq	$0, 0(%rbp)
	cmpq	$0, 96(%r13)
	je	.L1395
	movq	96(%r13), %rax
	movq	%rbp, (%rax)
	movq	%rbp, 96(%r13)
.L1396:
	movq	40(%r12), %rbx
	cmpb	$0, 40(%rbx)
	je	.L1397
	data16	leaq	_ZN4asio6detail15keyword_tss_ptrINS0_10call_stackINS0_15task_io_serviceENS0_27task_io_service_thread_infoEE7contextEE6value_E@tlsgd(%rip), %rdi
	.value	0x6666
	rex64
	call	__tls_get_addr@PLT
	movq	(%rax), %rax
	testq	%rax, %rax
	jne	.L1400
	jmp	.L1397
	.p2align 4,,10
	.p2align 3
.L1398:
	movq	16(%rax), %rax
	testq	%rax, %rax
	je	.L1397
.L1400:
	cmpq	(%rax), %rbx
	jne	.L1398
	movq	8(%rax), %rax
	testq	%rax, %rax
	je	.L1397
	addq	$1, 24(%rax)
	cmpq	$0, 16(%rax)
	movq	$0, 0(%r13)
	je	.L1401
	movq	16(%rax), %rdx
	movq	%r13, (%rdx)
	movq	%r13, 16(%rax)
	jmp	.L1379
	.p2align 4,,10
	.p2align 3
.L1397:
	lock addq	$1, 184(%rbx)
	leaq	48(%rbx), %rbp
	movq	%rbp, %rdi
	call	pthread_mutex_lock@PLT
	cmpq	$0, 200(%rbx)
	movq	$0, 0(%r13)
	je	.L1402
	movq	200(%rbx), %rax
	movq	%r13, (%rax)
	movq	%r13, 200(%rbx)
.L1403:
	movq	136(%rbx), %rax
	orq	$1, %rax
	movq	%rax, 136(%rbx)
	cmpq	$1, %rax
	je	.L1404
	movq	%rbp, %rdi
	call	pthread_mutex_unlock@PLT
	leaq	88(%rbx), %rdi
	call	pthread_cond_signal@PLT
	jmp	.L1379
.L1404:
	cmpb	$0, 176(%rbx)
	jne	.L1406
	movq	144(%rbx), %rax
	testq	%rax, %rax
	je	.L1406
	movb	$1, 176(%rbx)
	leaq	88(%rax), %rdx
	movl	$3, %esi
	leaq	304(%rsp), %rcx
	movq	%rdx, 308(%rsp)
	movl	88(%rax), %edx
	movl	$-2147483639, 304(%rsp)
	movl	96(%rax), %edi
	call	epoll_ctl@PLT
.L1406:
	movq	%rbp, %rdi
	jmp	.L1527
	.p2align 4,,10
	.p2align 3
.L1529:
	movzbl	112(%rbp), %edx
	movb	%dl, 0(%rbp)
	movq	%rbp, (%rax)
	jmp	.L1371
	.p2align 4,,10
	.p2align 3
.L1535:
	movq	(%rsp), %rbx
	movq	8(%rsp), %rbp
	cmpb	$0, 40(%rbx)
	je	.L1419
	data16	leaq	_ZN4asio6detail15keyword_tss_ptrINS0_10call_stackINS0_15task_io_serviceENS0_27task_io_service_thread_infoEE7contextEE6value_E@tlsgd(%rip), %rdi
	.value	0x6666
	rex64
	call	__tls_get_addr@PLT
	movq	(%rax), %rax
	testq	%rax, %rax
	jne	.L1422
	jmp	.L1419
	.p2align 4,,10
	.p2align 3
.L1420:
	movq	16(%rax), %rax
	testq	%rax, %rax
	je	.L1419
.L1422:
	cmpq	(%rax), %rbx
	jne	.L1420
	movq	8(%rax), %rax
	testq	%rax, %rax
	je	.L1419
	addq	$1, 24(%rax)
	cmpq	$0, 16(%rax)
	movq	$0, 0(%rbp)
	je	.L1423
	movq	16(%rax), %rdx
	movq	%rbp, (%rdx)
	movq	%rbp, 16(%rax)
	jmp	.L1418
.L1419:
	lock addq	$1, 184(%rbx)
	leaq	48(%rbx), %r13
	movq	%r13, %rdi
	call	pthread_mutex_lock@PLT
	cmpq	$0, 200(%rbx)
	movq	$0, 0(%rbp)
	je	.L1424
	movq	200(%rbx), %rax
	movq	%rbp, (%rax)
	movq	%rbp, 200(%rbx)
.L1425:
	movq	136(%rbx), %rax
	orq	$1, %rax
	movq	%rax, 136(%rbx)
	cmpq	$1, %rax
	je	.L1426
	movq	%r13, %rdi
	call	pthread_mutex_unlock@PLT
	leaq	88(%rbx), %rdi
	call	pthread_cond_signal@PLT
	jmp	.L1418
	.p2align 4,,10
	.p2align 3
.L1534:
	movq	88(%rdi), %rbx
	jmp	.L1413
.L1424:
	movq	%rbp, %xmm0
	punpcklqdq	%xmm0, %xmm0
	movups	%xmm0, 192(%rbx)
	jmp	.L1425
.L1416:
	movq	%rbx, 88(%rdi)
	jmp	.L1417
.L1536:
	movzbl	80(%rbp), %edx
	movb	%dl, 0(%rbp)
	movq	%rbp, (%rax)
	jmp	.L1379
.L1426:
	cmpb	$0, 176(%rbx)
	jne	.L1428
	movq	144(%rbx), %rax
	testq	%rax, %rax
	je	.L1428
	movb	$1, 176(%rbx)
	leaq	88(%rax), %rdx
	movq	%r12, %rcx
	movl	$3, %esi
	movq	%rdx, 308(%rsp)
	movl	88(%rax), %edx
	movl	$-2147483639, 304(%rsp)
	movl	96(%rax), %edi
	call	epoll_ctl@PLT
.L1428:
	movq	%r13, %rdi
	call	pthread_mutex_unlock@PLT
	jmp	.L1418
.L1395:
	movq	%rbp, %xmm0
	punpcklqdq	%xmm0, %xmm0
	movups	%xmm0, 88(%r13)
	jmp	.L1396
.L1402:
	movq	%r13, %xmm0
	punpcklqdq	%xmm0, %xmm0
	movups	%xmm0, 192(%rbx)
	jmp	.L1403
.L1533:
	movzbl	80(%rbp), %edx
	movb	%dl, 0(%rbp)
	movq	%rbp, (%rax)
	jmp	.L1410
.L1532:
	movzbl	80(%rbp), %edx
	movb	%dl, 0(%rbp)
	movq	%rbp, (%rax)
	jmp	.L1407
.L1401:
	movq	%r13, %xmm0
	punpcklqdq	%xmm0, %xmm0
	movups	%xmm0, 8(%rax)
	jmp	.L1379
.L1423:
	movq	%rbp, %xmm0
	punpcklqdq	%xmm0, %xmm0
	movups	%xmm0, 8(%rax)
	jmp	.L1418
.L1530:
	call	__stack_chk_fail@PLT
.L1439:
	movq	%rax, %rbp
	jmp	.L1434
.L1440:
	movq	%rax, %rbp
	jmp	.L1414
.L1438:
	movq	%rax, %rbp
	jmp	.L1415
	.section	.gcc_except_table
.LLSDA8848:
	.byte	0xff
	.byte	0xff
	.byte	0x1
	.uleb128 .LLSDACSE8848-.LLSDACSB8848
.LLSDACSB8848:
	.uleb128 .LEHB16-.LFB8848
	.uleb128 .LEHE16-.LEHB16
	.uleb128 .L1439-.LFB8848
	.uleb128 0
	.uleb128 .LEHB17-.LFB8848
	.uleb128 .LEHE17-.LEHB17
	.uleb128 .L1438-.LFB8848
	.uleb128 0
	.uleb128 .LEHB18-.LFB8848
	.uleb128 .LEHE18-.LEHB18
	.uleb128 .L1440-.LFB8848
	.uleb128 0
.LLSDACSE8848:
	.text
	.cfi_endproc
	.section	.text.unlikely
	.cfi_startproc
	.cfi_personality 0x9b,DW.ref.__gxx_personality_v0
	.cfi_lsda 0x1b,.LLSDAC8848
	.type	_ZN4asio6detail23reactive_socket_recv_opINS_17mutable_buffers_1ENS0_15wrapped_handlerINS_10io_service6strandEZN7asiopal13SocketChannel13BeginReadImplEN7openpal6WSliceEEUlRKSt10error_codemE_NS0_26is_continuation_if_runningEEEE11do_completeEPNS0_15task_io_serviceEPNS0_25task_io_service_operationESC_m.cold, @function
_ZN4asio6detail23reactive_socket_recv_opINS_17mutable_buffers_1ENS0_15wrapped_handlerINS_10io_service6strandEZN7asiopal13SocketChannel13BeginReadImplEN7openpal6WSliceEEUlRKSt10error_codemE_NS0_26is_continuation_if_runningEEEE11do_completeEPNS0_15task_io_serviceEPNS0_25task_io_service_operationESC_m.cold:
.LFSB8848:
.L1434:
	.cfi_def_cfa_offset 496
	.cfi_offset 3, -40
	.cfi_offset 6, -32
	.cfi_offset 12, -24
	.cfi_offset 13, -16
	sfence
	jmp	.L1415
.L1414:
	sfence
	leaq	112(%rsp), %rdi
	call	_ZN4asio6detail18completion_handlerINS0_17rewrapped_handlerINS0_7binder2INS0_15wrapped_handlerINS_10io_service6strandEZN7asiopal13SocketChannel13BeginReadImplEN7openpal6WSliceEEUlRKSt10error_codemE_NS0_26is_continuation_if_runningEEESB_mEESE_EEE3ptr5resetEv
	movq	%rsp, %rdi
	call	_ZN4asio6detail14strand_service16on_dispatch_exitD1Ev@PLT
	data16	leaq	_ZN4asio6detail15keyword_tss_ptrINS0_10call_stackINS0_14strand_service11strand_implEhE7contextEE6value_E@tlsgd(%rip), %rdi
	.value	0x6666
	rex64
	call	__tls_get_addr@PLT
	movq	96(%rsp), %rdx
	leaq	48(%rsp), %rdi
	movq	%rdx, (%rax)
	call	_ZN4asio6detail18completion_handlerINS0_17rewrapped_handlerINS0_7binder2INS0_15wrapped_handlerINS_10io_service6strandEZN7asiopal13SocketChannel13BeginReadImplEN7openpal6WSliceEEUlRKSt10error_codemE_NS0_26is_continuation_if_runningEEESB_mEESE_EEE3ptr5resetEv
.L1415:
	sfence
	leaq	16(%rsp), %rdi
	call	_ZN4asio6detail23reactive_socket_recv_opINS_17mutable_buffers_1ENS0_15wrapped_handlerINS_10io_service6strandEZN7asiopal13SocketChannel13BeginReadImplEN7openpal6WSliceEEUlRKSt10error_codemE_NS0_26is_continuation_if_runningEEEE3ptr5resetEv
	movq	%rbp, %rdi
.LEHB19:
	call	_Unwind_Resume@PLT
.LEHE19:
	.cfi_endproc
.LFE8848:
	.section	.gcc_except_table
.LLSDAC8848:
	.byte	0xff
	.byte	0xff
	.byte	0x1
	.uleb128 .LLSDACSEC8848-.LLSDACSBC8848
.LLSDACSBC8848:
	.uleb128 .LEHB19-.LCOLDB29
	.uleb128 .LEHE19-.LEHB19
	.uleb128 0
	.uleb128 0
.LLSDACSEC8848:
	.section	.text.unlikely
	.text
	.size	_ZN4asio6detail23reactive_socket_recv_opINS_17mutable_buffers_1ENS0_15wrapped_handlerINS_10io_service6strandEZN7asiopal13SocketChannel13BeginReadImplEN7openpal6WSliceEEUlRKSt10error_codemE_NS0_26is_continuation_if_runningEEEE11do_completeEPNS0_15task_io_serviceEPNS0_25task_io_service_operationESC_m, .-_ZN4asio6detail23reactive_socket_recv_opINS_17mutable_buffers_1ENS0_15wrapped_handlerINS_10io_service6strandEZN7asiopal13SocketChannel13BeginReadImplEN7openpal6WSliceEEUlRKSt10error_codemE_NS0_26is_continuation_if_runningEEEE11do_completeEPNS0_15task_io_serviceEPNS0_25task_io_service_operationESC_m
	.section	.text.unlikely
	.size	_ZN4asio6detail23reactive_socket_recv_opINS_17mutable_buffers_1ENS0_15wrapped_handlerINS_10io_service6strandEZN7asiopal13SocketChannel13BeginReadImplEN7openpal6WSliceEEUlRKSt10error_codemE_NS0_26is_continuation_if_runningEEEE11do_completeEPNS0_15task_io_serviceEPNS0_25task_io_service_operationESC_m.cold, .-_ZN4asio6detail23reactive_socket_recv_opINS_17mutable_buffers_1ENS0_15wrapped_handlerINS_10io_service6strandEZN7asiopal13SocketChannel13BeginReadImplEN7openpal6WSliceEEUlRKSt10error_codemE_NS0_26is_continuation_if_runningEEEE11do_completeEPNS0_15task_io_serviceEPNS0_25task_io_service_operationESC_m.cold
.LCOLDE29:
	.text
.LHOTE29:
	.section	.text.unlikely
	.align 2
.LCOLDB30:
	.text
.LHOTB30:
	.align 2
	.p2align 4
	.type	_ZN4asio6detail14strand_service8dispatchINS0_7binder2IZN7asiopal13SocketChannel14BeginWriteImplERKN7openpal6RSliceEEUlRKSt10error_codemE_SA_mEEEEvRPNS1_11strand_implERT_.constprop.0, @function
_ZN4asio6detail14strand_service8dispatchINS0_7binder2IZN7asiopal13SocketChannel14BeginWriteImplERKN7openpal6RSliceEEUlRKSt10error_codemE_SA_mEEEEvRPNS1_11strand_implERT_.constprop.0:
.LFB9627:
	.cfi_startproc
	.cfi_personality 0x9b,DW.ref.__gxx_personality_v0
	.cfi_lsda 0x1b,.LLSDA9627
	pushq	%r14
	.cfi_def_cfa_offset 16
	.cfi_offset 14, -16
	pushq	%r13
	.cfi_def_cfa_offset 24
	.cfi_offset 13, -24
	movq	%rdi, %r13
	pushq	%r12
	.cfi_def_cfa_offset 32
	.cfi_offset 12, -32
	movq	%rsi, %r12
	pushq	%rbp
	.cfi_def_cfa_offset 40
	.cfi_offset 6, -40
	movq	%rdx, %rbp
	pushq	%rbx
	.cfi_def_cfa_offset 48
	.cfi_offset 3, -48
	subq	$160, %rsp
	.cfi_def_cfa_offset 208
	movq	(%rsi), %rbx
	movq	%fs:40, %rax
	movq	%rax, 152(%rsp)
	xorl	%eax, %eax
	data16	leaq	_ZN4asio6detail15keyword_tss_ptrINS0_10call_stackINS0_14strand_service11strand_implEhE7contextEE6value_E@tlsgd(%rip), %rdi
	.value	0x6666
	rex64
	call	__tls_get_addr@PLT
	movq	(%rax), %rax
	testq	%rax, %rax
	jne	.L1541
	jmp	.L1538
	.p2align 4,,10
	.p2align 3
.L1539:
	movq	16(%rax), %rax
	testq	%rax, %rax
	je	.L1538
.L1541:
	cmpq	(%rax), %rbx
	jne	.L1539
	cmpq	$0, 8(%rax)
	je	.L1538
	lfence
	movq	0(%rbp), %rax
	movq	24(%rbp), %rdx
	movq	40(%rax), %rdi
	movb	$0, 58(%rax)
	testq	%rdi, %rdi
	je	.L1544
	cmpb	$0, 56(%rax)
	jne	.L1544
	movq	(%rdi), %rax
	leaq	8(%rbp), %rsi
.LEHB20:
	call	*24(%rax)
.LEHE20:
.L1544:
	sfence
.L1537:
	movq	152(%rsp), %rax
	subq	%fs:40, %rax
	jne	.L1673
	addq	$160, %rsp
	.cfi_remember_state
	.cfi_def_cfa_offset 48
	popq	%rbx
	.cfi_def_cfa_offset 40
	popq	%rbp
	.cfi_def_cfa_offset 32
	popq	%r12
	.cfi_def_cfa_offset 24
	popq	%r13
	.cfi_def_cfa_offset 16
	popq	%r14
	.cfi_def_cfa_offset 8
	ret
	.p2align 4,,10
	.p2align 3
.L1538:
	.cfi_restore_state
	pxor	%xmm0, %xmm0
	movq	%rbp, 16(%rsp)
	movups	%xmm0, 24(%rsp)
	data16	leaq	_ZN4asio6detail15keyword_tss_ptrINS0_10call_stackINS0_15task_io_serviceENS0_27task_io_service_thread_infoEE7contextEE6value_E@tlsgd(%rip), %rdi
	.value	0x6666
	rex64
	call	__tls_get_addr@PLT
	movq	(%rax), %rax
	testq	%rax, %rax
	je	.L1545
	movq	8(%rax), %rax
	testq	%rax, %rax
	je	.L1545
	movq	(%rax), %r14
	testq	%r14, %r14
	je	.L1545
	movq	$0, (%rax)
	movzbl	(%r14), %eax
	cmpb	$55, %al
	jbe	.L1546
	movb	%al, 56(%r14)
	jmp	.L1547
.L1546:
	movq	%r14, %rdi
	call	_ZdlPv@PLT
.L1545:
	movl	$57, %edi
.LEHB21:
	call	_Znwm@PLT
.LEHE21:
	movb	$56, 56(%rax)
	movq	%rax, %r14
.L1547:
	leaq	_ZN4asio6detail18completion_handlerINS0_7binder2IZN7asiopal13SocketChannel14BeginWriteImplERKN7openpal6RSliceEEUlRKSt10error_codemE_S9_mEEE11do_completeEPNS0_15task_io_serviceEPNS0_25task_io_service_operationESB_m(%rip), %rax
	movq	%r14, 24(%rsp)
	movdqu	0(%rbp), %xmm1
	movdqu	16(%rbp), %xmm2
	movq	40(%r13), %rbx
	movq	$0, (%r14)
	movq	%rax, 8(%r14)
	movl	$0, 16(%r14)
	movups	%xmm1, 24(%r14)
	movups	%xmm2, 40(%r14)
	movq	%r14, 32(%rsp)
	data16	leaq	_ZN4asio6detail15keyword_tss_ptrINS0_10call_stackINS0_15task_io_serviceENS0_27task_io_service_thread_infoEE7contextEE6value_E@tlsgd(%rip), %rdi
	.value	0x6666
	rex64
	call	__tls_get_addr@PLT
	movq	(%rax), %rax
	testq	%rax, %rax
	jne	.L1552
	jmp	.L1548
	.p2align 4,,10
	.p2align 3
.L1549:
	movq	16(%rax), %rax
	testq	%rax, %rax
	je	.L1548
.L1552:
	cmpq	(%rax), %rbx
	jne	.L1549
	movq	8(%rax), %rbx
	movq	(%r12), %rax
	leaq	24(%rax), %rdi
	call	pthread_mutex_lock@PLT
	testq	%rbx, %rbx
	je	.L1551
	movq	(%r12), %rax
	cmpb	$0, 64(%rax)
	leaq	24(%rax), %rdi
	je	.L1674
.L1553:
	cmpq	$0, 80(%rax)
	movq	$0, (%r14)
	je	.L1557
	movq	80(%rax), %rdx
	movq	%r14, (%rdx)
	movq	%r14, 80(%rax)
.L1672:
	call	pthread_mutex_unlock@PLT
	jmp	.L1537
.L1674:
	movb	$1, 64(%rax)
	call	pthread_mutex_unlock@PLT
	movq	(%r12), %r12
	pxor	%xmm0, %xmm0
	movq	32(%rsp), %rbp
	movups	%xmm0, 24(%rsp)
	movq	%r12, 48(%rsp)
	data16	leaq	_ZN4asio6detail15keyword_tss_ptrINS0_10call_stackINS0_14strand_service11strand_implEhE7contextEE6value_E@tlsgd(%rip), %rdi
	.value	0x6666
	rex64
	call	__tls_get_addr@PLT
	movdqu	24(%rbp), %xmm4
	movq	40(%r13), %rbx
	movq	%r12, %xmm3
	leaq	112(%rsp), %r12
	movq	%rbp, 88(%rsp)
	movaps	%xmm4, 112(%rsp)
	movq	%rbx, %xmm0
	movdqu	40(%rbp), %xmm5
	punpcklqdq	%xmm3, %xmm0
	movq	%r12, 80(%rsp)
	movq	$0, 96(%rsp)
	movaps	%xmm0, (%rsp)
	movq	(%rax), %rdx
	movaps	%xmm5, 128(%rsp)
	movq	%rdx, 64(%rsp)
	leaq	48(%rsp), %rdx
	movq	%rdx, (%rax)
	movq	%rdx, 56(%rsp)
	data16	leaq	_ZN4asio6detail15keyword_tss_ptrINS0_10call_stackINS0_15task_io_serviceENS0_27task_io_service_thread_infoEE7contextEE6value_E@tlsgd(%rip), %rdi
	.value	0x6666
	rex64
	call	__tls_get_addr@PLT
	movq	(%rax), %rax
	testq	%rax, %rax
	je	.L1555
	movq	8(%rax), %rax
	testq	%rax, %rax
	je	.L1555
	cmpq	$0, (%rax)
	je	.L1675
.L1555:
	movq	%rbp, %rdi
	call	_ZdlPv@PLT
.L1572:
	movq	$0, 88(%rsp)
	testq	%rbx, %rbx
	je	.L1573
	movq	112(%rsp), %rax
	movq	136(%rsp), %rdx
	movq	40(%rax), %rdi
	movb	$0, 58(%rax)
	testq	%rdi, %rdi
	je	.L1577
	cmpb	$0, 56(%rax)
	je	.L1676
.L1577:
	sfence
	cmpq	$0, 96(%rsp)
	je	.L1677
	movq	$0, 96(%rsp)
	movq	88(%rsp), %rbp
.L1578:
	testq	%rbp, %rbp
	je	.L1573
	data16	leaq	_ZN4asio6detail15keyword_tss_ptrINS0_10call_stackINS0_15task_io_serviceENS0_27task_io_service_thread_infoEE7contextEE6value_E@tlsgd(%rip), %rdi
	.value	0x6666
	rex64
	call	__tls_get_addr@PLT
	movq	(%rax), %rax
	testq	%rax, %rax
	je	.L1579
	movq	8(%rax), %rax
	testq	%rax, %rax
	je	.L1579
	cmpq	$0, (%rax)
	je	.L1678
.L1579:
	movq	%rbp, %rdi
	call	_ZdlPv@PLT
.L1573:
	movq	8(%rsp), %rax
	leaq	24(%rax), %rdi
	call	pthread_mutex_lock@PLT
	movq	8(%rsp), %rdi
	movq	72(%rdi), %rbx
	testq	%rbx, %rbx
	je	.L1679
	movq	96(%rdi), %rax
	testq	%rax, %rax
	je	.L1583
	movq	%rbx, (%rax)
	movq	88(%rdi), %rbx
.L1584:
	movq	80(%rdi), %rax
	pxor	%xmm0, %xmm0
	movups	%xmm0, 72(%rdi)
	movq	%rax, 96(%rdi)
.L1581:
	testq	%rbx, %rbx
	setne	64(%rdi)
	addq	$24, %rdi
	call	pthread_mutex_unlock@PLT
	testq	%rbx, %rbx
	jne	.L1680
.L1585:
	data16	leaq	_ZN4asio6detail15keyword_tss_ptrINS0_10call_stackINS0_14strand_service11strand_implEhE7contextEE6value_E@tlsgd(%rip), %rdi
	.value	0x6666
	rex64
	call	__tls_get_addr@PLT
	movq	64(%rsp), %rdx
	cmpq	$0, 32(%rsp)
	movq	24(%rsp), %rbp
	movq	%rdx, (%rax)
	je	.L1596
	movq	$0, 32(%rsp)
.L1596:
	testq	%rbp, %rbp
	je	.L1537
	data16	leaq	_ZN4asio6detail15keyword_tss_ptrINS0_10call_stackINS0_15task_io_serviceENS0_27task_io_service_thread_infoEE7contextEE6value_E@tlsgd(%rip), %rdi
	.value	0x6666
	rex64
	call	__tls_get_addr@PLT
	movq	(%rax), %rax
	testq	%rax, %rax
	je	.L1598
	movq	8(%rax), %rax
	testq	%rax, %rax
	je	.L1598
	cmpq	$0, (%rax)
	je	.L1681
.L1598:
	movq	%rbp, %rdi
	call	_ZdlPv@PLT
	jmp	.L1537
	.p2align 4,,10
	.p2align 3
.L1548:
	movq	(%r12), %rax
	leaq	24(%rax), %rdi
	call	pthread_mutex_lock@PLT
.L1551:
	movq	(%r12), %rax
	cmpb	$0, 64(%rax)
	leaq	24(%rax), %rdi
	jne	.L1553
	movb	$1, 64(%rax)
	call	pthread_mutex_unlock@PLT
	movq	(%r12), %rbp
	movq	$0, (%r14)
	cmpq	$0, 96(%rbp)
	je	.L1560
	movq	96(%rbp), %rax
	movq	%r14, (%rax)
	movq	%r14, 96(%rbp)
.L1561:
	movq	40(%r13), %rbx
	cmpb	$0, 40(%rbx)
	je	.L1562
	data16	leaq	_ZN4asio6detail15keyword_tss_ptrINS0_10call_stackINS0_15task_io_serviceENS0_27task_io_service_thread_infoEE7contextEE6value_E@tlsgd(%rip), %rdi
	.value	0x6666
	rex64
	call	__tls_get_addr@PLT
	movq	(%rax), %rax
	testq	%rax, %rax
	jne	.L1565
	jmp	.L1562
	.p2align 4,,10
	.p2align 3
.L1563:
	movq	16(%rax), %rax
	testq	%rax, %rax
	je	.L1562
.L1565:
	cmpq	(%rax), %rbx
	jne	.L1563
	movq	8(%rax), %rax
	testq	%rax, %rax
	je	.L1562
	addq	$1, 24(%rax)
	cmpq	$0, 16(%rax)
	movq	$0, 0(%rbp)
	je	.L1566
	movq	16(%rax), %rdx
	movq	%rbp, (%rdx)
	movq	%rbp, 16(%rax)
	jmp	.L1537
.L1562:
	lock addq	$1, 184(%rbx)
	leaq	48(%rbx), %r12
	movq	%r12, %rdi
	call	pthread_mutex_lock@PLT
	cmpq	$0, 200(%rbx)
	movq	$0, 0(%rbp)
	je	.L1567
	movq	200(%rbx), %rax
	movq	%rbp, (%rax)
	movq	%rbp, 200(%rbx)
.L1568:
	movq	136(%rbx), %rax
	orq	$1, %rax
	movq	%rax, 136(%rbx)
	cmpq	$1, %rax
	je	.L1569
	movq	%r12, %rdi
	call	pthread_mutex_unlock@PLT
	leaq	88(%rbx), %rdi
	call	pthread_cond_signal@PLT
	jmp	.L1537
.L1557:
	movq	%r14, %xmm0
	punpcklqdq	%xmm0, %xmm0
	movups	%xmm0, 72(%rax)
	jmp	.L1672
.L1676:
	movq	(%rdi), %rax
	leaq	120(%rsp), %rsi
.LEHB22:
	call	*24(%rax)
.LEHE22:
	jmp	.L1577
.L1567:
	movq	%rbp, %xmm0
	punpcklqdq	%xmm0, %xmm0
	movups	%xmm0, 192(%rbx)
	jmp	.L1568
.L1680:
	movq	(%rsp), %rbx
	movq	8(%rsp), %rbp
	cmpb	$0, 40(%rbx)
	je	.L1586
	data16	leaq	_ZN4asio6detail15keyword_tss_ptrINS0_10call_stackINS0_15task_io_serviceENS0_27task_io_service_thread_infoEE7contextEE6value_E@tlsgd(%rip), %rdi
	.value	0x6666
	rex64
	call	__tls_get_addr@PLT
	movq	(%rax), %rax
	testq	%rax, %rax
	jne	.L1589
	jmp	.L1586
	.p2align 4,,10
	.p2align 3
.L1587:
	movq	16(%rax), %rax
	testq	%rax, %rax
	je	.L1586
.L1589:
	cmpq	(%rax), %rbx
	jne	.L1587
	movq	8(%rax), %rax
	testq	%rax, %rax
	je	.L1586
	addq	$1, 24(%rax)
	cmpq	$0, 16(%rax)
	movq	$0, 0(%rbp)
	je	.L1590
	movq	16(%rax), %rdx
	movq	%rbp, (%rdx)
	movq	%rbp, 16(%rax)
	jmp	.L1585
.L1569:
	cmpb	$0, 176(%rbx)
	jne	.L1571
	movq	144(%rbx), %rax
	testq	%rax, %rax
	je	.L1571
	movb	$1, 176(%rbx)
	leaq	88(%rax), %rdx
	leaq	112(%rsp), %rcx
	movl	$3, %esi
	movq	%rdx, 116(%rsp)
	movl	88(%rax), %edx
	movl	$-2147483639, 112(%rsp)
	movl	96(%rax), %edi
	call	epoll_ctl@PLT
.L1571:
	movq	%r12, %rdi
	jmp	.L1672
.L1679:
	movq	88(%rdi), %rbx
	jmp	.L1581
.L1677:
	movq	88(%rsp), %rbp
	jmp	.L1578
.L1586:
	lock addq	$1, 184(%rbx)
	leaq	48(%rbx), %r13
	movq	%r13, %rdi
	call	pthread_mutex_lock@PLT
	cmpq	$0, 200(%rbx)
	movq	$0, 0(%rbp)
	je	.L1591
	movq	200(%rbx), %rax
	movq	%rbp, (%rax)
	movq	%rbp, 200(%rbx)
.L1592:
	movq	136(%rbx), %rax
	orq	$1, %rax
	movq	%rax, 136(%rbx)
	cmpq	$1, %rax
	je	.L1593
	movq	%r13, %rdi
	call	pthread_mutex_unlock@PLT
	leaq	88(%rbx), %rdi
	call	pthread_cond_signal@PLT
	jmp	.L1585
.L1583:
	movq	%rbx, 88(%rdi)
	jmp	.L1584
.L1593:
	cmpb	$0, 176(%rbx)
	jne	.L1595
	movq	144(%rbx), %rax
	testq	%rax, %rax
	je	.L1595
	movb	$1, 176(%rbx)
	leaq	88(%rax), %rdx
	movq	%r12, %rcx
	movl	$3, %esi
	movq	%rdx, 116(%rsp)
	movl	88(%rax), %edx
	movl	$-2147483639, 112(%rsp)
	movl	96(%rax), %edi
	call	epoll_ctl@PLT
.L1595:
	movq	%r13, %rdi
	call	pthread_mutex_unlock@PLT
	jmp	.L1585
.L1681:
	movzbl	56(%rbp), %edx
	movb	%dl, 0(%rbp)
	movq	%rbp, (%rax)
	jmp	.L1537
.L1560:
	movq	%r14, %xmm0
	punpcklqdq	%xmm0, %xmm0
	movups	%xmm0, 88(%rbp)
	jmp	.L1561
.L1678:
	movzbl	56(%rbp), %edx
	movb	%dl, 0(%rbp)
	movq	%rbp, (%rax)
	jmp	.L1573
.L1675:
	movzbl	56(%rbp), %edx
	movb	%dl, 0(%rbp)
	movq	%rbp, (%rax)
	jmp	.L1572
.L1591:
	movq	%rbp, %xmm0
	punpcklqdq	%xmm0, %xmm0
	movups	%xmm0, 192(%rbx)
	jmp	.L1592
.L1566:
	movq	%rbp, %xmm0
	punpcklqdq	%xmm0, %xmm0
	movups	%xmm0, 8(%rax)
	jmp	.L1537
.L1590:
	movq	%rbp, %xmm0
	punpcklqdq	%xmm0, %xmm0
	movups	%xmm0, 8(%rax)
	jmp	.L1585
.L1673:
	call	__stack_chk_fail@PLT
.L1601:
	movq	%rax, %rdi
	jmp	.L1599
.L1602:
	movq	%rax, %rbp
	jmp	.L1582
	.section	.gcc_except_table
.LLSDA9627:
	.byte	0xff
	.byte	0xff
	.byte	0x1
	.uleb128 .LLSDACSE9627-.LLSDACSB9627
.LLSDACSB9627:
	.uleb128 .LEHB20-.LFB9627
	.uleb128 .LEHE20-.LEHB20
	.uleb128 .L1601-.LFB9627
	.uleb128 0
	.uleb128 .LEHB21-.LFB9627
	.uleb128 .LEHE21-.LEHB21
	.uleb128 0
	.uleb128 0
	.uleb128 .LEHB22-.LFB9627
	.uleb128 .LEHE22-.LEHB22
	.uleb128 .L1602-.LFB9627
	.uleb128 0
.LLSDACSE9627:
	.text
	.cfi_endproc
	.section	.text.unlikely
	.cfi_startproc
	.cfi_personality 0x9b,DW.ref.__gxx_personality_v0
	.cfi_lsda 0x1b,.LLSDAC9627
	.type	_ZN4asio6detail14strand_service8dispatchINS0_7binder2IZN7asiopal13SocketChannel14BeginWriteImplERKN7openpal6RSliceEEUlRKSt10error_codemE_SA_mEEEEvRPNS1_11strand_implERT_.constprop.0.cold, @function
_ZN4asio6detail14strand_service8dispatchINS0_7binder2IZN7asiopal13SocketChannel14BeginWriteImplERKN7openpal6RSliceEEUlRKSt10error_codemE_SA_mEEEEvRPNS1_11strand_implERT_.constprop.0.cold:
.LFSB9627:
.L1599:
	.cfi_def_cfa_offset 208
	.cfi_offset 3, -48
	.cfi_offset 6, -40
	.cfi_offset 12, -32
	.cfi_offset 13, -24
	.cfi_offset 14, -16
	sfence
.LEHB23:
	call	_Unwind_Resume@PLT
.L1582:
	sfence
	leaq	80(%rsp), %rdi
	call	_ZN4asio6detail18completion_handlerINS0_7binder2IZN7asiopal13SocketChannel14BeginWriteImplERKN7openpal6RSliceEEUlRKSt10error_codemE_S9_mEEE3ptr5resetEv
	movq	%rsp, %rdi
	call	_ZN4asio6detail14strand_service16on_dispatch_exitD1Ev@PLT
	data16	leaq	_ZN4asio6detail15keyword_tss_ptrINS0_10call_stackINS0_14strand_service11strand_implEhE7contextEE6value_E@tlsgd(%rip), %rdi
	.value	0x6666
	rex64
	call	__tls_get_addr@PLT
	movq	64(%rsp), %rdx
	leaq	16(%rsp), %rdi
	movq	%rdx, (%rax)
	call	_ZN4asio6detail18completion_handlerINS0_7binder2IZN7asiopal13SocketChannel14BeginWriteImplERKN7openpal6RSliceEEUlRKSt10error_codemE_S9_mEEE3ptr5resetEv
	movq	%rbp, %rdi
	call	_Unwind_Resume@PLT
.LEHE23:
	.cfi_endproc
.LFE9627:
	.section	.gcc_except_table
.LLSDAC9627:
	.byte	0xff
	.byte	0xff
	.byte	0x1
	.uleb128 .LLSDACSEC9627-.LLSDACSBC9627
.LLSDACSBC9627:
	.uleb128 .LEHB23-.LCOLDB30
	.uleb128 .LEHE23-.LEHB23
	.uleb128 0
	.uleb128 0
.LLSDACSEC9627:
	.section	.text.unlikely
	.text
	.size	_ZN4asio6detail14strand_service8dispatchINS0_7binder2IZN7asiopal13SocketChannel14BeginWriteImplERKN7openpal6RSliceEEUlRKSt10error_codemE_SA_mEEEEvRPNS1_11strand_implERT_.constprop.0, .-_ZN4asio6detail14strand_service8dispatchINS0_7binder2IZN7asiopal13SocketChannel14BeginWriteImplERKN7openpal6RSliceEEUlRKSt10error_codemE_SA_mEEEEvRPNS1_11strand_implERT_.constprop.0
	.section	.text.unlikely
	.size	_ZN4asio6detail14strand_service8dispatchINS0_7binder2IZN7asiopal13SocketChannel14BeginWriteImplERKN7openpal6RSliceEEUlRKSt10error_codemE_SA_mEEEEvRPNS1_11strand_implERT_.constprop.0.cold, .-_ZN4asio6detail14strand_service8dispatchINS0_7binder2IZN7asiopal13SocketChannel14BeginWriteImplERKN7openpal6RSliceEEUlRKSt10error_codemE_SA_mEEEEvRPNS1_11strand_implERT_.constprop.0.cold
.LCOLDE30:
	.text
.LHOTE30:
	.section	.text.unlikely
.LCOLDB31:
	.text
.LHOTB31:
	.p2align 4
	.type	_ZN4asio6detail18completion_handlerINS0_17rewrapped_handlerINS0_7binder2INS0_8write_opINS_19basic_stream_socketINS_2ip3tcpENS_21stream_socket_serviceIS7_EEEENS_15const_buffers_1ENS0_14transfer_all_tENS0_15wrapped_handlerINS_10io_service6strandEZN7asiopal13SocketChannel14BeginWriteImplERKN7openpal6RSliceEEUlRKSt10error_codemE_NS0_26is_continuation_if_runningEEEEESM_mEESP_EEE11do_completeEPNS0_15task_io_serviceEPNS0_25task_io_service_operationESO_m, @function
_ZN4asio6detail18completion_handlerINS0_17rewrapped_handlerINS0_7binder2INS0_8write_opINS_19basic_stream_socketINS_2ip3tcpENS_21stream_socket_serviceIS7_EEEENS_15const_buffers_1ENS0_14transfer_all_tENS0_15wrapped_handlerINS_10io_service6strandEZN7asiopal13SocketChannel14BeginWriteImplERKN7openpal6RSliceEEUlRKSt10error_codemE_NS0_26is_continuation_if_runningEEEEESM_mEESP_EEE11do_completeEPNS0_15task_io_serviceEPNS0_25task_io_service_operationESO_m:
.LFB9389:
	.cfi_startproc
	.cfi_personality 0x9b,DW.ref.__gxx_personality_v0
	.cfi_lsda 0x1b,.LLSDA9389
	pushq	%r15
	.cfi_def_cfa_offset 16
	.cfi_offset 15, -16
	pushq	%r14
	.cfi_def_cfa_offset 24
	.cfi_offset 14, -24
	pushq	%r13
	.cfi_def_cfa_offset 32
	.cfi_offset 13, -32
	pushq	%r12
	.cfi_def_cfa_offset 40
	.cfi_offset 12, -40
	pushq	%rbp
	.cfi_def_cfa_offset 48
	.cfi_offset 6, -48
	movq	%rsi, %rbp
	pushq	%rbx
	.cfi_def_cfa_offset 56
	.cfi_offset 3, -56
	movq	%rdi, %rbx
	subq	$328, %rsp
	.cfi_def_cfa_offset 384
	movdqu	40(%rsi), %xmm1
	movdqu	72(%rsi), %xmm2
	movq	%fs:40, %rax
	movq	%rax, 312(%rsp)
	xorl	%eax, %eax
	movq	24(%rsi), %rax
	movdqu	96(%rsi), %xmm3
	movq	%rsi, 56(%rsp)
	movq	$0, 64(%rsp)
	movq	%rax, 208(%rsp)
	movq	32(%rsi), %rax
	movaps	%xmm1, 224(%rsp)
	movq	%rax, 216(%rsp)
	movl	56(%rsi), %eax
	movaps	%xmm2, 256(%rsp)
	movl	%eax, 240(%rsp)
	movq	64(%rsi), %rax
	movups	%xmm3, 280(%rsp)
	movq	%rax, 248(%rsp)
	movq	88(%rsi), %rax
	movq	%rax, 272(%rsp)
	movq	112(%rsi), %rax
	movq	%rax, 296(%rsp)
	leaq	208(%rsp), %rax
	movq	%rax, 48(%rsp)
	data16	leaq	_ZN4asio6detail15keyword_tss_ptrINS0_10call_stackINS0_15task_io_serviceENS0_27task_io_service_thread_infoEE7contextEE6value_E@tlsgd(%rip), %rdi
	.value	0x6666
	rex64
	call	__tls_get_addr@PLT
	movq	(%rax), %rax
	testq	%rax, %rax
	je	.L1683
	movq	8(%rax), %rax
	testq	%rax, %rax
	je	.L1683
	cmpq	$0, (%rax)
	je	.L1864
.L1683:
	movq	%rbp, %rdi
	call	_ZdlPv@PLT
.L1684:
	movq	$0, 56(%rsp)
	testq	%rbx, %rbx
	je	.L1682
	movq	248(%rsp), %r15
	movq	296(%rsp), %rax
	movl	$0, 240(%rsp)
	movl	280(%rsp), %ecx
	addq	%rax, %r15
	movq	%r15, 248(%rsp)
	testq	%rax, %rax
	je	.L1686
	testl	%ecx, %ecx
	je	.L1865
.L1686:
	movq	272(%rsp), %rax
	movq	256(%rsp), %rdi
	movl	%ecx, 88(%rsp)
	leaq	80(%rsp), %rdx
	leaq	264(%rsp), %rsi
	movq	%r15, 104(%rsp)
	movq	%rax, 80(%rsp)
	movq	288(%rsp), %rax
	movq	%rax, 96(%rsp)
.LEHB24:
	call	_ZN4asio6detail14strand_service8dispatchINS0_7binder2IZN7asiopal13SocketChannel14BeginWriteImplERKN7openpal6RSliceEEUlRKSt10error_codemE_SA_mEEEEvRPNS1_11strand_implERT_.constprop.0
.L1757:
	sfence
	cmpq	$0, 64(%rsp)
	movq	56(%rsp), %rbp
	je	.L1759
	movq	$0, 64(%rsp)
.L1759:
	testq	%rbp, %rbp
	je	.L1682
	data16	leaq	_ZN4asio6detail15keyword_tss_ptrINS0_10call_stackINS0_15task_io_serviceENS0_27task_io_service_thread_infoEE7contextEE6value_E@tlsgd(%rip), %rdi
	.value	0x6666
	rex64
	call	__tls_get_addr@PLT
	movq	(%rax), %rax
	testq	%rax, %rax
	je	.L1761
	movq	8(%rax), %rax
	testq	%rax, %rax
	je	.L1761
	cmpq	$0, (%rax)
	je	.L1866
.L1761:
	movq	%rbp, %rdi
	call	_ZdlPv@PLT
.L1682:
	movq	312(%rsp), %rax
	subq	%fs:40, %rax
	jne	.L1867
	addq	$328, %rsp
	.cfi_remember_state
	.cfi_def_cfa_offset 56
	popq	%rbx
	.cfi_def_cfa_offset 48
	popq	%rbp
	.cfi_def_cfa_offset 40
	popq	%r12
	.cfi_def_cfa_offset 32
	popq	%r13
	.cfi_def_cfa_offset 24
	popq	%r14
	.cfi_def_cfa_offset 16
	popq	%r15
	.cfi_def_cfa_offset 8
	ret
	.p2align 4,,10
	.p2align 3
.L1865:
	.cfi_restore_state
	movq	232(%rsp), %r12
	cmpq	%r12, %r15
	je	.L1686
	movq	216(%rsp), %rbx
	ja	.L1763
	movq	224(%rsp), %rax
	subq	%r15, %r12
	movl	$65536, %r14d
	addq	%r15, %rax
	cmpq	$65536, %r12
	movq	%rax, (%rsp)
	cmovbe	%r12, %r14
.L1688:
	movq	24(%rbx), %rax
	pxor	%xmm0, %xmm0
	movdqa	224(%rsp), %xmm4
	movq	%rbx, 128(%rsp)
	movdqa	256(%rsp), %xmm5
	movq	%r15, 160(%rsp)
	movq	%rax, 8(%rsp)
	movq	272(%rsp), %rax
	movl	$0, 152(%rsp)
	movq	%rax, 184(%rsp)
	leaq	128(%rsp), %rax
	movq	%rax, 80(%rsp)
	movups	%xmm4, 136(%rsp)
	movups	%xmm5, 168(%rsp)
	movups	%xmm0, 88(%rsp)
	data16	leaq	_ZN4asio6detail15keyword_tss_ptrINS0_10call_stackINS0_15task_io_serviceENS0_27task_io_service_thread_infoEE7contextEE6value_E@tlsgd(%rip), %rdi
	.value	0x6666
	rex64
	call	__tls_get_addr@PLT
	movq	(%rax), %rax
	testq	%rax, %rax
	je	.L1689
	movq	8(%rax), %rax
	testq	%rax, %rax
	je	.L1689
	movq	(%rax), %rbp
	testq	%rbp, %rbp
	je	.L1689
	movq	$0, (%rax)
	movzbl	0(%rbp), %eax
	cmpb	$-105, %al
	jbe	.L1690
	movb	%al, 152(%rbp)
	movq	%rbx, 16(%rsp)
	movl	$0, 28(%rsp)
	jmp	.L1691
	.p2align 4,,10
	.p2align 3
.L1866:
	movzbl	120(%rbp), %edx
	movb	%dl, 0(%rbp)
	movq	%rbp, (%rax)
	jmp	.L1682
	.p2align 4,,10
	.p2align 3
.L1864:
	movzbl	120(%rbp), %edx
	movb	%dl, 0(%rbp)
	movq	%rbp, (%rax)
	jmp	.L1684
	.p2align 4,,10
	.p2align 3
.L1690:
	movq	%rbp, %rdi
	call	_ZdlPv@PLT
.L1689:
	movl	$153, %edi
	call	_Znwm@PLT
.LEHE24:
	movb	$-104, 152(%rax)
	movq	%rax, %rbp
	movq	128(%rsp), %rax
	movq	160(%rsp), %r15
	movq	%rax, 16(%rsp)
	movl	152(%rsp), %eax
	movl	%eax, 28(%rsp)
.L1691:
	leaq	_ZN4asio6detail23reactive_socket_send_opINS_15const_buffers_1ENS0_8write_opINS_19basic_stream_socketINS_2ip3tcpENS_21stream_socket_serviceIS6_EEEES2_NS0_14transfer_all_tENS0_15wrapped_handlerINS_10io_service6strandEZN7asiopal13SocketChannel14BeginWriteImplERKN7openpal6RSliceEEUlRKSt10error_codemE_NS0_26is_continuation_if_runningEEEEEE11do_completeEPNS0_15task_io_serviceEPNS0_25task_io_service_operationESM_m(%rip), %rax
	movl	(%rbx), %r13d
	movq	%rbp, 88(%rsp)
	movq	$0, 0(%rbp)
	movq	%rax, 8(%rbp)
	movl	$0, 16(%rbp)
	movl	$0, 24(%rbp)
	call	_ZNSt3_V215system_categoryEv@PLT
	movq	$0, 40(%rbp)
	movdqu	136(%rsp), %xmm6
	movdqu	168(%rsp), %xmm7
	movq	%rax, 32(%rbp)
	movq	%rax, %rcx
	movq	_ZN4asio6detail28reactive_socket_send_op_baseINS_15const_buffers_1EE10do_performEPNS0_10reactor_opE@GOTPCREL(%rip), %rax
	movl	%r13d, 56(%rbp)
	movq	%r14, 72(%rbp)
	movq	%rax, 48(%rbp)
	movq	(%rsp), %rax
	movl	$0, 80(%rbp)
	movq	%rax, 64(%rbp)
	movq	16(%rsp), %rax
	movq	%r15, 120(%rbp)
	movq	%rax, 88(%rbp)
	movl	28(%rsp), %eax
	movups	%xmm6, 96(%rbp)
	movl	%eax, 112(%rbp)
	movq	184(%rsp), %rax
	movups	%xmm7, 128(%rbp)
	movq	%rax, 144(%rbp)
	movq	%rbp, 96(%rsp)
	movzbl	4(%rbx), %eax
	testb	$16, %al
	je	.L1766
	testq	%r12, %r12
	je	.L1692
.L1766:
	testb	$3, %al
	jne	.L1694
	cmpl	$-1, %r13d
	je	.L1868
	movq	%rcx, (%rsp)
	call	__errno_location@PLT
	movl	%r13d, %edi
	leaq	36(%rsp), %rdx
	movl	$21537, %esi
	movl	$0, (%rax)
	movq	%rax, %r12
	xorl	%eax, %eax
	movl	$1, 36(%rsp)
	call	ioctl@PLT
	movq	_ZGVZN4asio15system_categoryEvE8instance@GOTPCREL(%rip), %r13
	movl	%eax, %r14d
	movzbl	0(%r13), %eax
	testb	%al, %al
	movq	(%rsp), %rcx
	je	.L1699
.L1845:
	movq	_ZZN4asio15system_categoryEvE8instance@GOTPCREL(%rip), %r15
.L1700:
	movl	(%r12), %eax
	movq	%r15, 32(%rbp)
	movl	%eax, 24(%rbp)
	testl	%r14d, %r14d
	js	.L1692
	movl	$0, 24(%rbp)
	movl	(%rbx), %r13d
	movq	%rcx, 32(%rbp)
	orb	$2, 4(%rbx)
.L1694:
	movq	8(%rsp), %rax
	movq	8(%rbx), %r12
	movq	40(%rax), %r14
	testq	%r12, %r12
	je	.L1869
	addq	$40, %r12
	movq	%r12, %rdi
	call	pthread_mutex_lock@PLT
	movq	8(%rbx), %rax
	cmpb	$0, 144(%rax)
	jne	.L1870
	cmpq	$0, 112(%rax)
	je	.L1871
.L1730:
	movq	120(%rax), %rdx
	movq	$0, 0(%rbp)
	testq	%rdx, %rdx
	je	.L1743
	movq	%rbp, (%rdx)
	movq	%rbp, 120(%rax)
.L1744:
	movq	40(%r14), %rax
	lock addq	$1, 184(%rax)
	movq	%r12, %rdi
	call	pthread_mutex_unlock@PLT
	jmp	.L1757
.L1868:
	movq	_ZGVZN4asio15system_categoryEvE8instance@GOTPCREL(%rip), %r12
	movzbl	(%r12), %eax
	testb	%al, %al
	je	.L1696
.L1844:
	movq	_ZZN4asio15system_categoryEvE8instance@GOTPCREL(%rip), %r15
.L1697:
	movl	$9, 24(%rbp)
	movq	%r15, 32(%rbp)
	.p2align 4,,10
	.p2align 3
.L1692:
	movq	8(%rsp), %rax
	movq	40(%rax), %rax
	movq	40(%rax), %rbx
	data16	leaq	_ZN4asio6detail15keyword_tss_ptrINS0_10call_stackINS0_15task_io_serviceENS0_27task_io_service_thread_infoEE7contextEE6value_E@tlsgd(%rip), %rdi
	.value	0x6666
	rex64
	call	__tls_get_addr@PLT
	movq	(%rax), %rax
	testq	%rax, %rax
	jne	.L1750
	jmp	.L1747
	.p2align 4,,10
	.p2align 3
.L1748:
	movq	16(%rax), %rax
	testq	%rax, %rax
	je	.L1747
.L1750:
	cmpq	(%rax), %rbx
	jne	.L1748
.L1863:
	movq	8(%rax), %rax
	testq	%rax, %rax
	je	.L1747
	addq	$1, 24(%rax)
	movq	$0, 0(%rbp)
	cmpq	$0, 16(%rax)
	je	.L1751
	movq	16(%rax), %rdx
	movq	%rbp, (%rdx)
	movq	%rbp, 16(%rax)
	jmp	.L1757
	.p2align 4,,10
	.p2align 3
.L1763:
	movq	$0, (%rsp)
	xorl	%r14d, %r14d
	xorl	%r12d, %r12d
	jmp	.L1688
	.p2align 4,,10
	.p2align 3
.L1747:
	lock addq	$1, 184(%rbx)
	leaq	48(%rbx), %r12
	movq	%r12, %rdi
	call	pthread_mutex_lock@PLT
	movq	$0, 0(%rbp)
	cmpq	$0, 200(%rbx)
	je	.L1752
	movq	200(%rbx), %rax
	movq	%rbp, (%rax)
	movq	%rbp, 200(%rbx)
.L1753:
	movq	136(%rbx), %rax
	orq	$1, %rax
	movq	%rax, 136(%rbx)
	cmpq	$1, %rax
	je	.L1754
	movq	%r12, %rdi
	call	pthread_mutex_unlock@PLT
	leaq	88(%rbx), %rdi
	call	pthread_cond_signal@PLT
	jmp	.L1757
	.p2align 4,,10
	.p2align 3
.L1754:
	cmpb	$0, 176(%rbx)
	jne	.L1724
	movq	144(%rbx), %rax
	testq	%rax, %rax
	je	.L1724
	movb	$1, 176(%rbx)
	leaq	88(%rax), %rdx
	leaq	36(%rsp), %rcx
	movl	$3, %esi
	movl	$-2147483639, 36(%rsp)
	movq	%rdx, 40(%rsp)
	movl	88(%rax), %edx
	movl	96(%rax), %edi
	call	epoll_ctl@PLT
.L1724:
	movq	%r12, %rdi
	call	pthread_mutex_unlock@PLT
	jmp	.L1757
	.p2align 4,,10
	.p2align 3
.L1699:
	movq	%r13, %rdi
	movq	%rcx, (%rsp)
	call	__cxa_guard_acquire@PLT
	movq	(%rsp), %rcx
	testl	%eax, %eax
	je	.L1845
	movq	_ZZN4asio15system_categoryEvE8instance@GOTPCREL(%rip), %r15
	movq	_ZN4asio6detail15system_categoryD1Ev@GOTPCREL(%rip), %rdi
	leaq	__dso_handle(%rip), %rdx
	movq	%rcx, (%rsp)
	movq	%r15, %rsi
	call	__cxa_atexit@PLT
	movq	%r13, %rdi
	call	__cxa_guard_release@PLT
	movq	(%rsp), %rcx
	jmp	.L1700
	.p2align 4,,10
	.p2align 3
.L1752:
	movq	%rbp, %xmm0
	punpcklqdq	%xmm0, %xmm0
	movups	%xmm0, 192(%rbx)
	jmp	.L1753
	.p2align 4,,10
	.p2align 3
.L1751:
	movq	%rbp, %xmm0
	punpcklqdq	%xmm0, %xmm0
	movups	%xmm0, 8(%rax)
	jmp	.L1757
.L1743:
	movq	%rbp, %xmm0
	punpcklqdq	%xmm0, %xmm0
	movups	%xmm0, 112(%rax)
	jmp	.L1744
.L1869:
	movq	_ZGVZN4asio15system_categoryEvE8instance@GOTPCREL(%rip), %r12
	movzbl	(%r12), %eax
	testb	%al, %al
	je	.L1704
.L1846:
	movq	_ZZN4asio15system_categoryEvE8instance@GOTPCREL(%rip), %r15
.L1705:
	movl	$9, 24(%rbp)
	movq	40(%r14), %rbx
	movq	%r15, 32(%rbp)
	data16	leaq	_ZN4asio6detail15keyword_tss_ptrINS0_10call_stackINS0_15task_io_serviceENS0_27task_io_service_thread_infoEE7contextEE6value_E@tlsgd(%rip), %rdi
	.value	0x6666
	rex64
	call	__tls_get_addr@PLT
	movq	(%rax), %rax
	testq	%rax, %rax
	jne	.L1710
	jmp	.L1747
	.p2align 4,,10
	.p2align 3
.L1708:
	movq	16(%rax), %rax
	testq	%rax, %rax
	je	.L1747
.L1710:
	cmpq	(%rax), %rbx
	jne	.L1708
	jmp	.L1863
.L1870:
	data16	leaq	_ZN4asio6detail15keyword_tss_ptrINS0_10call_stackINS0_15task_io_serviceENS0_27task_io_service_thread_infoEE7contextEE6value_E@tlsgd(%rip), %rdi
	.value	0x6666
	rex64
	call	__tls_get_addr@PLT
	movq	40(%r14), %rbx
	movq	(%rax), %rax
	testq	%rax, %rax
	jne	.L1722
	jmp	.L1719
	.p2align 4,,10
	.p2align 3
.L1720:
	movq	16(%rax), %rax
	testq	%rax, %rax
	je	.L1719
.L1722:
	cmpq	(%rax), %rbx
	jne	.L1720
	movq	8(%rax), %rax
	testq	%rax, %rax
	je	.L1719
	addq	$1, 24(%rax)
	cmpq	$0, 16(%rax)
	movq	$0, 0(%rbp)
	je	.L1723
	movq	16(%rax), %rdx
	movq	%rbp, (%rdx)
	movq	%rbp, 16(%rax)
	jmp	.L1724
.L1719:
	lock addq	$1, 184(%rbx)
	leaq	48(%rbx), %r13
	movq	%r13, %rdi
	call	pthread_mutex_lock@PLT
	cmpq	$0, 200(%rbx)
	movq	$0, 0(%rbp)
	je	.L1725
	movq	200(%rbx), %rax
	movq	%rbp, (%rax)
	movq	%rbp, 200(%rbx)
.L1726:
	movq	136(%rbx), %rax
	orq	$1, %rax
	movq	%rax, 136(%rbx)
	cmpq	$1, %rax
	je	.L1727
	movq	%r13, %rdi
	call	pthread_mutex_unlock@PLT
	leaq	88(%rbx), %rdi
	call	pthread_cond_signal@PLT
	jmp	.L1724
.L1871:
	movq	%rbp, %rdi
.LEHB25:
	call	*48(%rbp)
.LEHE25:
	testb	%al, %al
	jne	.L1872
	movq	8(%rbx), %rax
	movl	92(%rax), %edx
	testb	$4, %dl
	jne	.L1730
	orl	$4, %edx
	movq	%rax, 40(%rsp)
	leaq	36(%rsp), %rcx
	movl	$3, %esi
	movl	%edx, 36(%rsp)
	movl	96(%r14), %edi
	movl	%r13d, %edx
	call	epoll_ctl@PLT
	testl	%eax, %eax
	jne	.L1742
	movq	8(%rbx), %rax
	movl	36(%rsp), %edx
	orl	%edx, 92(%rax)
	movq	8(%rbx), %rax
	jmp	.L1730
.L1727:
	cmpb	$0, 176(%rbx)
	jne	.L1729
	movq	144(%rbx), %rax
	testq	%rax, %rax
	je	.L1729
	movb	$1, 176(%rbx)
	leaq	88(%rax), %rdx
	leaq	36(%rsp), %rcx
	movl	$3, %esi
	movq	%rdx, 40(%rsp)
	movl	88(%rax), %edx
	movl	$-2147483639, 36(%rsp)
	movl	96(%rax), %edi
	call	epoll_ctl@PLT
.L1729:
	movq	%r13, %rdi
	call	pthread_mutex_unlock@PLT
	jmp	.L1724
.L1704:
	movq	%r12, %rdi
	call	__cxa_guard_acquire@PLT
	testl	%eax, %eax
	je	.L1846
	movq	_ZZN4asio15system_categoryEvE8instance@GOTPCREL(%rip), %r15
	movq	_ZN4asio6detail15system_categoryD1Ev@GOTPCREL(%rip), %rdi
	leaq	__dso_handle(%rip), %rdx
	movq	%r15, %rsi
	call	__cxa_atexit@PLT
	movq	%r12, %rdi
	call	__cxa_guard_release@PLT
	jmp	.L1705
.L1696:
	movq	%r12, %rdi
	call	__cxa_guard_acquire@PLT
	testl	%eax, %eax
	je	.L1844
	movq	_ZZN4asio15system_categoryEvE8instance@GOTPCREL(%rip), %r15
	movq	_ZN4asio6detail15system_categoryD1Ev@GOTPCREL(%rip), %rdi
	leaq	__dso_handle(%rip), %rdx
	movq	%r15, %rsi
	call	__cxa_atexit@PLT
	movq	%r12, %rdi
	call	__cxa_guard_release@PLT
	jmp	.L1697
.L1725:
	movq	%rbp, %xmm0
	punpcklqdq	%xmm0, %xmm0
	movups	%xmm0, 192(%rbx)
	jmp	.L1726
.L1723:
	movq	%rbp, %xmm0
	punpcklqdq	%xmm0, %xmm0
	movups	%xmm0, 8(%rax)
	jmp	.L1724
.L1872:
	movq	%r12, %rdi
	call	pthread_mutex_unlock@PLT
	movq	40(%r14), %rbx
	data16	leaq	_ZN4asio6detail15keyword_tss_ptrINS0_10call_stackINS0_15task_io_serviceENS0_27task_io_service_thread_infoEE7contextEE6value_E@tlsgd(%rip), %rdi
	.value	0x6666
	rex64
	call	__tls_get_addr@PLT
	movq	(%rax), %rax
	testq	%rax, %rax
	jne	.L1735
	jmp	.L1747
	.p2align 4,,10
	.p2align 3
.L1733:
	movq	16(%rax), %rax
	testq	%rax, %rax
	je	.L1747
.L1735:
	cmpq	(%rax), %rbx
	jne	.L1733
	jmp	.L1863
.L1867:
	call	__stack_chk_fail@PLT
.L1742:
	call	_ZN4asio15system_categoryEv@PLT
	movq	%rax, %rbx
	call	__errno_location@PLT
	movq	40(%r14), %rdi
	movl	$1, %edx
	movq	%rbp, %rsi
	movl	(%rax), %eax
	movq	%rbx, 32(%rbp)
	movl	%eax, 24(%rbp)
	call	_ZN4asio6detail15task_io_service25post_immediate_completionEPNS0_25task_io_service_operationEb@PLT
	jmp	.L1724
.L1764:
	movq	%rax, %rbp
	jmp	.L1746
.L1765:
	movq	%rax, %rbp
	jmp	.L1745
	.section	.gcc_except_table
.LLSDA9389:
	.byte	0xff
	.byte	0xff
	.byte	0x1
	.uleb128 .LLSDACSE9389-.LLSDACSB9389
.LLSDACSB9389:
	.uleb128 .LEHB24-.LFB9389
	.uleb128 .LEHE24-.LEHB24
	.uleb128 .L1764-.LFB9389
	.uleb128 0
	.uleb128 .LEHB25-.LFB9389
	.uleb128 .LEHE25-.LEHB25
	.uleb128 .L1765-.LFB9389
	.uleb128 0
.LLSDACSE9389:
	.text
	.cfi_endproc
	.section	.text.unlikely
	.cfi_startproc
	.cfi_personality 0x9b,DW.ref.__gxx_personality_v0
	.cfi_lsda 0x1b,.LLSDAC9389
	.type	_ZN4asio6detail18completion_handlerINS0_17rewrapped_handlerINS0_7binder2INS0_8write_opINS_19basic_stream_socketINS_2ip3tcpENS_21stream_socket_serviceIS7_EEEENS_15const_buffers_1ENS0_14transfer_all_tENS0_15wrapped_handlerINS_10io_service6strandEZN7asiopal13SocketChannel14BeginWriteImplERKN7openpal6RSliceEEUlRKSt10error_codemE_NS0_26is_continuation_if_runningEEEEESM_mEESP_EEE11do_completeEPNS0_15task_io_serviceEPNS0_25task_io_service_operationESO_m.cold, @function
_ZN4asio6detail18completion_handlerINS0_17rewrapped_handlerINS0_7binder2INS0_8write_opINS_19basic_stream_socketINS_2ip3tcpENS_21stream_socket_serviceIS7_EEEENS_15const_buffers_1ENS0_14transfer_all_tENS0_15wrapped_handlerINS_10io_service6strandEZN7asiopal13SocketChannel14BeginWriteImplERKN7openpal6RSliceEEUlRKSt10error_codemE_NS0_26is_continuation_if_runningEEEEESM_mEESP_EEE11do_completeEPNS0_15task_io_serviceEPNS0_25task_io_service_operationESO_m.cold:
.LFSB9389:
.L1745:
	.cfi_def_cfa_offset 384
	.cfi_offset 3, -56
	.cfi_offset 6, -48
	.cfi_offset 12, -40
	.cfi_offset 13, -32
	.cfi_offset 14, -24
	.cfi_offset 15, -16
	movq	%r12, %rdi
	call	pthread_mutex_unlock@PLT
	leaq	80(%rsp), %rdi
	call	_ZN4asio6detail23reactive_socket_send_opINS_15const_buffers_1ENS0_8write_opINS_19basic_stream_socketINS_2ip3tcpENS_21stream_socket_serviceIS6_EEEES2_NS0_14transfer_all_tENS0_15wrapped_handlerINS_10io_service6strandEZN7asiopal13SocketChannel14BeginWriteImplERKN7openpal6RSliceEEUlRKSt10error_codemE_NS0_26is_continuation_if_runningEEEEEE3ptr5resetEv
.L1746:
	sfence
	leaq	48(%rsp), %rdi
	call	_ZN4asio6detail18completion_handlerINS0_17rewrapped_handlerINS0_7binder2INS0_8write_opINS_19basic_stream_socketINS_2ip3tcpENS_21stream_socket_serviceIS7_EEEENS_15const_buffers_1ENS0_14transfer_all_tENS0_15wrapped_handlerINS_10io_service6strandEZN7asiopal13SocketChannel14BeginWriteImplERKN7openpal6RSliceEEUlRKSt10error_codemE_NS0_26is_continuation_if_runningEEEEESM_mEESP_EEE3ptr5resetEv
	movq	%rbp, %rdi
.LEHB26:
	call	_Unwind_Resume@PLT
.LEHE26:
	.cfi_endproc
.LFE9389:
	.section	.gcc_except_table
.LLSDAC9389:
	.byte	0xff
	.byte	0xff
	.byte	0x1
	.uleb128 .LLSDACSEC9389-.LLSDACSBC9389
.LLSDACSBC9389:
	.uleb128 .LEHB26-.LCOLDB31
	.uleb128 .LEHE26-.LEHB26
	.uleb128 0
	.uleb128 0
.LLSDACSEC9389:
	.section	.text.unlikely
	.text
	.size	_ZN4asio6detail18completion_handlerINS0_17rewrapped_handlerINS0_7binder2INS0_8write_opINS_19basic_stream_socketINS_2ip3tcpENS_21stream_socket_serviceIS7_EEEENS_15const_buffers_1ENS0_14transfer_all_tENS0_15wrapped_handlerINS_10io_service6strandEZN7asiopal13SocketChannel14BeginWriteImplERKN7openpal6RSliceEEUlRKSt10error_codemE_NS0_26is_continuation_if_runningEEEEESM_mEESP_EEE11do_completeEPNS0_15task_io_serviceEPNS0_25task_io_service_operationESO_m, .-_ZN4asio6detail18completion_handlerINS0_17rewrapped_handlerINS0_7binder2INS0_8write_opINS_19basic_stream_socketINS_2ip3tcpENS_21stream_socket_serviceIS7_EEEENS_15const_buffers_1ENS0_14transfer_all_tENS0_15wrapped_handlerINS_10io_service6strandEZN7asiopal13SocketChannel14BeginWriteImplERKN7openpal6RSliceEEUlRKSt10error_codemE_NS0_26is_continuation_if_runningEEEEESM_mEESP_EEE11do_completeEPNS0_15task_io_serviceEPNS0_25task_io_service_operationESO_m
	.section	.text.unlikely
	.size	_ZN4asio6detail18completion_handlerINS0_17rewrapped_handlerINS0_7binder2INS0_8write_opINS_19basic_stream_socketINS_2ip3tcpENS_21stream_socket_serviceIS7_EEEENS_15const_buffers_1ENS0_14transfer_all_tENS0_15wrapped_handlerINS_10io_service6strandEZN7asiopal13SocketChannel14BeginWriteImplERKN7openpal6RSliceEEUlRKSt10error_codemE_NS0_26is_continuation_if_runningEEEEESM_mEESP_EEE11do_completeEPNS0_15task_io_serviceEPNS0_25task_io_service_operationESO_m.cold, .-_ZN4asio6detail18completion_handlerINS0_17rewrapped_handlerINS0_7binder2INS0_8write_opINS_19basic_stream_socketINS_2ip3tcpENS_21stream_socket_serviceIS7_EEEENS_15const_buffers_1ENS0_14transfer_all_tENS0_15wrapped_handlerINS_10io_service6strandEZN7asiopal13SocketChannel14BeginWriteImplERKN7openpal6RSliceEEUlRKSt10error_codemE_NS0_26is_continuation_if_runningEEEEESM_mEESP_EEE11do_completeEPNS0_15task_io_serviceEPNS0_25task_io_service_operationESO_m.cold
.LCOLDE31:
	.text
.LHOTE31:
	.section	.text.unlikely
.LCOLDB32:
	.text
.LHOTB32:
	.p2align 4
	.type	_ZN4asio6detail23reactive_socket_send_opINS_15const_buffers_1ENS0_8write_opINS_19basic_stream_socketINS_2ip3tcpENS_21stream_socket_serviceIS6_EEEES2_NS0_14transfer_all_tENS0_15wrapped_handlerINS_10io_service6strandEZN7asiopal13SocketChannel14BeginWriteImplERKN7openpal6RSliceEEUlRKSt10error_codemE_NS0_26is_continuation_if_runningEEEEEE11do_completeEPNS0_15task_io_serviceEPNS0_25task_io_service_operationESM_m, @function
_ZN4asio6detail23reactive_socket_send_opINS_15const_buffers_1ENS0_8write_opINS_19basic_stream_socketINS_2ip3tcpENS_21stream_socket_serviceIS6_EEEES2_NS0_14transfer_all_tENS0_15wrapped_handlerINS_10io_service6strandEZN7asiopal13SocketChannel14BeginWriteImplERKN7openpal6RSliceEEUlRKSt10error_codemE_NS0_26is_continuation_if_runningEEEEEE11do_completeEPNS0_15task_io_serviceEPNS0_25task_io_service_operationESM_m:
.LFB9207:
	.cfi_startproc
	.cfi_personality 0x9b,DW.ref.__gxx_personality_v0
	.cfi_lsda 0x1b,.LLSDA9207
	pushq	%r15
	.cfi_def_cfa_offset 16
	.cfi_offset 15, -16
	pushq	%r14
	.cfi_def_cfa_offset 24
	.cfi_offset 14, -24
	pushq	%r13
	.cfi_def_cfa_offset 32
	.cfi_offset 13, -32
	pushq	%r12
	.cfi_def_cfa_offset 40
	.cfi_offset 12, -40
	pushq	%rbp
	.cfi_def_cfa_offset 48
	.cfi_offset 6, -48
	movq	%rsi, %rbp
	pushq	%rbx
	.cfi_def_cfa_offset 56
	.cfi_offset 3, -56
	movq	%rdi, %rbx
	subq	$536, %rsp
	.cfi_def_cfa_offset 592
	movdqu	96(%rsi), %xmm3
	movdqu	128(%rsi), %xmm4
	movq	%fs:40, %rax
	movq	%rax, 520(%rsp)
	xorl	%eax, %eax
	movq	88(%rsi), %rax
	movdqu	24(%rsi), %xmm5
	movq	%rsi, 72(%rsp)
	movq	$0, 80(%rsp)
	movq	%rax, 224(%rsp)
	movl	112(%rsi), %eax
	movups	%xmm3, 232(%rsp)
	movl	%eax, 248(%rsp)
	movq	120(%rsi), %rax
	movups	%xmm4, 264(%rsp)
	movq	%rax, 256(%rsp)
	movq	144(%rsi), %rax
	movaps	%xmm5, 288(%rsp)
	movq	%rax, 280(%rsp)
	movq	40(%rsi), %rax
	movq	%rax, 304(%rsp)
	leaq	224(%rsp), %rax
	movq	%rax, 64(%rsp)
	data16	leaq	_ZN4asio6detail15keyword_tss_ptrINS0_10call_stackINS0_15task_io_serviceENS0_27task_io_service_thread_infoEE7contextEE6value_E@tlsgd(%rip), %rdi
	.value	0x6666
	rex64
	call	__tls_get_addr@PLT
	movq	(%rax), %rax
	testq	%rax, %rax
	je	.L1874
	movq	8(%rax), %rax
	testq	%rax, %rax
	je	.L1874
	cmpq	$0, (%rax)
	je	.L2163
.L1874:
	movq	%rbp, %rdi
	call	_ZdlPv@PLT
.L1875:
	movq	$0, 72(%rsp)
	testq	%rbx, %rbx
	je	.L1873
	movq	280(%rsp), %rax
	movl	248(%rsp), %edx
	movq	224(%rsp), %r12
	movq	272(%rsp), %rbx
	movdqu	232(%rsp), %xmm2
	movq	%rax, 320(%rsp)
	movdqu	264(%rsp), %xmm1
	movq	%rax, 384(%rsp)
	movdqa	288(%rsp), %xmm0
	movq	%rax, 416(%rsp)
	movl	%edx, 448(%rsp)
	movq	256(%rsp), %rdx
	movq	%rax, 480(%rsp)
	movq	304(%rsp), %rax
	movq	%r12, 424(%rsp)
	movq	%rdx, 456(%rsp)
	movq	%rax, 504(%rsp)
	movaps	%xmm2, 336(%rsp)
	movaps	%xmm1, 368(%rsp)
	movups	%xmm0, 392(%rsp)
	movaps	%xmm2, 432(%rsp)
	movaps	%xmm1, 464(%rsp)
	movups	%xmm0, 488(%rsp)
	data16	leaq	_ZN4asio6detail15keyword_tss_ptrINS0_10call_stackINS0_14strand_service11strand_implEhE7contextEE6value_E@tlsgd(%rip), %rdi
	.value	0x6666
	rex64
	call	__tls_get_addr@PLT
	movq	(%rax), %rax
	testq	%rax, %rax
	jne	.L1880
	jmp	.L1877
	.p2align 4,,10
	.p2align 3
.L1878:
	movq	16(%rax), %rax
	testq	%rax, %rax
	je	.L1877
.L1880:
	cmpq	(%rax), %rbx
	jne	.L1878
	cmpq	$0, 8(%rax)
	je	.L1877
	lfence
	movq	456(%rsp), %r15
	movq	504(%rsp), %rax
	movl	488(%rsp), %ecx
	movl	$0, 448(%rsp)
	addq	%rax, %r15
	movq	%r15, 456(%rsp)
	testq	%rax, %rax
	je	.L1881
	testl	%ecx, %ecx
	jne	.L1881
	movq	440(%rsp), %r12
	cmpq	%r12, %r15
	je	.L1881
	movq	424(%rsp), %rbx
	ja	.L2006
	movq	432(%rsp), %rax
	subq	%r15, %r12
	movl	$65536, %r14d
	addq	%r15, %rax
	cmpq	$65536, %r12
	movq	%rax, (%rsp)
	cmovbe	%r12, %r14
.L1883:
	movq	24(%rbx), %rax
	pxor	%xmm0, %xmm0
	movdqa	432(%rsp), %xmm7
	movq	%rbx, 144(%rsp)
	movl	$0, 168(%rsp)
	movq	%rax, 8(%rsp)
	movq	480(%rsp), %rax
	movups	%xmm7, 152(%rsp)
	movdqa	464(%rsp), %xmm7
	movq	%rax, 200(%rsp)
	leaq	144(%rsp), %rax
	movq	%r15, 176(%rsp)
	movq	%rax, 96(%rsp)
	movups	%xmm7, 184(%rsp)
	movups	%xmm0, 104(%rsp)
	data16	leaq	_ZN4asio6detail15keyword_tss_ptrINS0_10call_stackINS0_15task_io_serviceENS0_27task_io_service_thread_infoEE7contextEE6value_E@tlsgd(%rip), %rdi
	.value	0x6666
	rex64
	call	__tls_get_addr@PLT
	movq	(%rax), %rax
	testq	%rax, %rax
	je	.L1884
	movq	8(%rax), %rax
	testq	%rax, %rax
	je	.L1884
	movq	(%rax), %rbp
	testq	%rbp, %rbp
	je	.L1884
	movq	$0, (%rax)
	movzbl	0(%rbp), %eax
	cmpb	$-105, %al
	jbe	.L1885
	movb	%al, 152(%rbp)
	movq	%rbx, %rdi
	xorl	%esi, %esi
.L1886:
	leaq	_ZN4asio6detail23reactive_socket_send_opINS_15const_buffers_1ENS0_8write_opINS_19basic_stream_socketINS_2ip3tcpENS_21stream_socket_serviceIS6_EEEES2_NS0_14transfer_all_tENS0_15wrapped_handlerINS_10io_service6strandEZN7asiopal13SocketChannel14BeginWriteImplERKN7openpal6RSliceEEUlRKSt10error_codemE_NS0_26is_continuation_if_runningEEEEEE11do_completeEPNS0_15task_io_serviceEPNS0_25task_io_service_operationESM_m(%rip), %rax
	movl	(%rbx), %r13d
	movq	%rbp, 104(%rsp)
	movq	$0, 0(%rbp)
	movq	%rax, 8(%rbp)
	movl	$0, 16(%rbp)
	movl	$0, 24(%rbp)
	movq	%rdi, 24(%rsp)
	movl	%esi, 20(%rsp)
	call	_ZNSt3_V215system_categoryEv@PLT
	movq	24(%rsp), %rdi
	movl	20(%rsp), %esi
	movq	$0, 40(%rbp)
	movdqu	152(%rsp), %xmm7
	movq	%rax, 32(%rbp)
	movq	%rax, %rcx
	movq	_ZN4asio6detail28reactive_socket_send_op_baseINS_15const_buffers_1EE10do_performEPNS0_10reactor_opE@GOTPCREL(%rip), %rax
	movl	%r13d, 56(%rbp)
	movups	%xmm7, 96(%rbp)
	movdqu	184(%rsp), %xmm7
	movq	%rax, 48(%rbp)
	movq	(%rsp), %rax
	movq	%r14, 72(%rbp)
	movq	%rax, 64(%rbp)
	movq	200(%rsp), %rax
	movl	$0, 80(%rbp)
	movq	%rdi, 88(%rbp)
	movl	%esi, 112(%rbp)
	movq	%r15, 120(%rbp)
	movq	%rax, 144(%rbp)
	movups	%xmm7, 128(%rbp)
	movq	%rbp, 112(%rsp)
	movzbl	4(%rbx), %eax
	testb	$16, %al
	je	.L2011
	testq	%r12, %r12
	je	.L1887
.L2011:
	testb	$3, %al
	jne	.L1889
	cmpl	$-1, %r13d
	je	.L2164
	movq	%rcx, (%rsp)
	call	__errno_location@PLT
	movl	%r13d, %edi
	leaq	48(%rsp), %rdx
	movl	$21537, %esi
	movl	$0, (%rax)
	movq	%rax, %r14
	xorl	%eax, %eax
	movl	$1, 48(%rsp)
	call	ioctl@PLT
	movq	_ZGVZN4asio15system_categoryEvE8instance@GOTPCREL(%rip), %r13
	movl	%eax, %r15d
	movzbl	0(%r13), %eax
	testb	%al, %al
	movq	(%rsp), %rcx
	je	.L1894
.L2143:
	movq	_ZZN4asio15system_categoryEvE8instance@GOTPCREL(%rip), %r12
.L1895:
	movl	(%r14), %eax
	movq	%r12, 32(%rbp)
	movl	%eax, 24(%rbp)
	testl	%r15d, %r15d
	jns	.L2165
.L1887:
	movq	8(%rsp), %rax
	movq	40(%rax), %rax
	movq	40(%rax), %rbx
	data16	leaq	_ZN4asio6detail15keyword_tss_ptrINS0_10call_stackINS0_15task_io_serviceENS0_27task_io_service_thread_infoEE7contextEE6value_E@tlsgd(%rip), %rdi
	.value	0x6666
	rex64
	call	__tls_get_addr@PLT
	movq	(%rax), %rax
	testq	%rax, %rax
	jne	.L1945
	jmp	.L1942
	.p2align 4,,10
	.p2align 3
.L1943:
	movq	16(%rax), %rax
	testq	%rax, %rax
	je	.L1942
.L1945:
	cmpq	(%rax), %rbx
	jne	.L1943
.L2162:
	movq	8(%rax), %rax
	testq	%rax, %rax
	je	.L1942
	addq	$1, 24(%rax)
	movq	$0, 0(%rbp)
	cmpq	$0, 16(%rax)
	je	.L1946
	movq	16(%rax), %rdx
	movq	%rbp, (%rdx)
	movq	%rbp, 16(%rax)
	jmp	.L1952
	.p2align 4,,10
	.p2align 3
.L1881:
	movq	480(%rsp), %rax
	movq	464(%rsp), %rdi
	movl	%ecx, 104(%rsp)
	leaq	96(%rsp), %rdx
	leaq	472(%rsp), %rsi
	movq	%r15, 120(%rsp)
	movq	%rax, 96(%rsp)
	movq	496(%rsp), %rax
	movq	%rax, 112(%rsp)
.LEHB27:
	call	_ZN4asio6detail14strand_service8dispatchINS0_7binder2IZN7asiopal13SocketChannel14BeginWriteImplERKN7openpal6RSliceEEUlRKSt10error_codemE_SA_mEEEEvRPNS1_11strand_implERT_.constprop.0
.LEHE27:
.L1952:
	sfence
.L1954:
	sfence
	cmpq	$0, 80(%rsp)
	movq	72(%rsp), %rbp
	je	.L2000
	movq	$0, 80(%rsp)
.L2000:
	testq	%rbp, %rbp
	je	.L1873
	data16	leaq	_ZN4asio6detail15keyword_tss_ptrINS0_10call_stackINS0_15task_io_serviceENS0_27task_io_service_thread_infoEE7contextEE6value_E@tlsgd(%rip), %rdi
	.value	0x6666
	rex64
	call	__tls_get_addr@PLT
	movq	(%rax), %rax
	testq	%rax, %rax
	je	.L2004
	movq	8(%rax), %rax
	testq	%rax, %rax
	je	.L2004
	cmpq	$0, (%rax)
	je	.L2166
.L2004:
	movq	%rbp, %rdi
	call	_ZdlPv@PLT
.L1873:
	movq	520(%rsp), %rax
	subq	%fs:40, %rax
	jne	.L2167
	addq	$536, %rsp
	.cfi_remember_state
	.cfi_def_cfa_offset 56
	popq	%rbx
	.cfi_def_cfa_offset 48
	popq	%rbp
	.cfi_def_cfa_offset 40
	popq	%r12
	.cfi_def_cfa_offset 32
	popq	%r13
	.cfi_def_cfa_offset 24
	popq	%r14
	.cfi_def_cfa_offset 16
	popq	%r15
	.cfi_def_cfa_offset 8
	ret
	.p2align 4,,10
	.p2align 3
.L1877:
	.cfi_restore_state
	pxor	%xmm0, %xmm0
	leaq	416(%rsp), %rax
	movq	264(%rsp), %r13
	movq	%rax, 96(%rsp)
	movups	%xmm0, 104(%rsp)
	data16	leaq	_ZN4asio6detail15keyword_tss_ptrINS0_10call_stackINS0_15task_io_serviceENS0_27task_io_service_thread_infoEE7contextEE6value_E@tlsgd(%rip), %rdi
	.value	0x6666
	rex64
	call	__tls_get_addr@PLT
	movq	(%rax), %rax
	testq	%rax, %rax
	je	.L1955
	movq	8(%rax), %rax
	testq	%rax, %rax
	je	.L1955
	movq	(%rax), %rbp
	testq	%rbp, %rbp
	je	.L1955
	movq	$0, (%rax)
	movzbl	0(%rbp), %eax
	cmpb	$119, %al
	jbe	.L1956
	movb	%al, 120(%rbp)
	jmp	.L1957
	.p2align 4,,10
	.p2align 3
.L1956:
	movq	%rbp, %rdi
	call	_ZdlPv@PLT
.L1955:
	movl	$121, %edi
.LEHB28:
	call	_Znwm@PLT
.LEHE28:
	movb	$120, 120(%rax)
	movq	424(%rsp), %r12
	movq	%rax, %rbp
.L1957:
	leaq	_ZN4asio6detail18completion_handlerINS0_17rewrapped_handlerINS0_7binder2INS0_8write_opINS_19basic_stream_socketINS_2ip3tcpENS_21stream_socket_serviceIS7_EEEENS_15const_buffers_1ENS0_14transfer_all_tENS0_15wrapped_handlerINS_10io_service6strandEZN7asiopal13SocketChannel14BeginWriteImplERKN7openpal6RSliceEEUlRKSt10error_codemE_NS0_26is_continuation_if_runningEEEEESM_mEESP_EEE11do_completeEPNS0_15task_io_serviceEPNS0_25task_io_service_operationESO_m(%rip), %rax
	movq	%rbp, 104(%rsp)
	movdqa	432(%rsp), %xmm6
	movq	%rax, 8(%rbp)
	movq	416(%rsp), %rax
	movups	%xmm6, 40(%rbp)
	movq	40(%r13), %rbx
	movdqa	464(%rsp), %xmm7
	movq	%rax, 24(%rbp)
	movl	448(%rsp), %eax
	movdqu	488(%rsp), %xmm6
	movl	$0, 16(%rbp)
	movl	%eax, 56(%rbp)
	movq	456(%rsp), %rax
	movq	$0, 0(%rbp)
	movq	%rax, 64(%rbp)
	movq	480(%rsp), %rax
	movq	%r12, 32(%rbp)
	movq	%rax, 88(%rbp)
	movq	504(%rsp), %rax
	movups	%xmm7, 72(%rbp)
	movq	%rax, 112(%rbp)
	movups	%xmm6, 96(%rbp)
	movq	%rbp, 112(%rsp)
	data16	leaq	_ZN4asio6detail15keyword_tss_ptrINS0_10call_stackINS0_15task_io_serviceENS0_27task_io_service_thread_infoEE7contextEE6value_E@tlsgd(%rip), %rdi
	.value	0x6666
	rex64
	call	__tls_get_addr@PLT
	movq	(%rax), %rax
	testq	%rax, %rax
	jne	.L1962
	jmp	.L1958
	.p2align 4,,10
	.p2align 3
.L1959:
	movq	16(%rax), %rax
	testq	%rax, %rax
	je	.L1958
.L1962:
	cmpq	(%rax), %rbx
	jne	.L1959
	movq	8(%rax), %rbx
	movq	272(%rsp), %rax
	leaq	24(%rax), %rdi
	call	pthread_mutex_lock@PLT
	testq	%rbx, %rbx
	je	.L1961
	movq	272(%rsp), %rax
	cmpb	$0, 64(%rax)
	leaq	24(%rax), %rdi
	je	.L2168
.L1963:
	cmpq	$0, 80(%rax)
	movq	$0, 0(%rbp)
	je	.L1966
	movq	80(%rax), %rdx
	movq	%rbp, (%rdx)
	movq	%rbp, 80(%rax)
.L2148:
	call	pthread_mutex_unlock@PLT
	jmp	.L1954
.L2168:
	movb	$1, 64(%rax)
	leaq	48(%rsp), %r12
	call	pthread_mutex_unlock@PLT
	pxor	%xmm0, %xmm0
	movq	112(%rsp), %r14
	movq	272(%rsp), %rbx
	movups	%xmm0, 104(%rsp)
	movq	%rbx, 144(%rsp)
	data16	leaq	_ZN4asio6detail15keyword_tss_ptrINS0_10call_stackINS0_14strand_service11strand_implEhE7contextEE6value_E@tlsgd(%rip), %rdi
	.value	0x6666
	rex64
	call	__tls_get_addr@PLT
	movq	40(%r13), %rbp
	movq	%rbx, %xmm7
	movl	$0, 48(%rsp)
	movq	%rbp, %xmm0
	punpcklqdq	%xmm7, %xmm0
	movaps	%xmm0, 32(%rsp)
	movq	(%rax), %rdx
	movq	%rdx, 160(%rsp)
	leaq	144(%rsp), %rdx
	movq	%rdx, 152(%rsp)
	movq	%rdx, (%rax)
	call	_ZNSt3_V215system_categoryEv@PLT
	xorl	%ecx, %ecx
	movq	%r12, %rdx
	movq	%r14, %rsi
	movq	%rbp, %rdi
	movq	%rax, 56(%rsp)
.LEHB29:
	call	_ZN4asio6detail18completion_handlerINS0_17rewrapped_handlerINS0_7binder2INS0_8write_opINS_19basic_stream_socketINS_2ip3tcpENS_21stream_socket_serviceIS7_EEEENS_15const_buffers_1ENS0_14transfer_all_tENS0_15wrapped_handlerINS_10io_service6strandEZN7asiopal13SocketChannel14BeginWriteImplERKN7openpal6RSliceEEUlRKSt10error_codemE_NS0_26is_continuation_if_runningEEEEESM_mEESP_EEE11do_completeEPNS0_15task_io_serviceEPNS0_25task_io_service_operationESO_m
.LEHE29:
	movq	40(%rsp), %rax
	leaq	24(%rax), %rdi
	call	pthread_mutex_lock@PLT
	movq	40(%rsp), %rdi
	movq	72(%rdi), %rbx
	testq	%rbx, %rbx
	je	.L2169
	movq	96(%rdi), %rax
	testq	%rax, %rax
	je	.L1983
	movq	%rbx, (%rax)
	movq	88(%rdi), %rbx
.L1984:
	movq	80(%rdi), %rax
	pxor	%xmm0, %xmm0
	movups	%xmm0, 72(%rdi)
	movq	%rax, 96(%rdi)
.L1982:
	testq	%rbx, %rbx
	setne	64(%rdi)
	addq	$24, %rdi
	call	pthread_mutex_unlock@PLT
	testq	%rbx, %rbx
	jne	.L2170
.L1985:
	data16	leaq	_ZN4asio6detail15keyword_tss_ptrINS0_10call_stackINS0_14strand_service11strand_implEhE7contextEE6value_E@tlsgd(%rip), %rdi
	.value	0x6666
	rex64
	call	__tls_get_addr@PLT
	cmpq	$0, 112(%rsp)
	movq	104(%rsp), %rbp
	movq	160(%rsp), %rdx
	movq	%rdx, (%rax)
	je	.L1996
	movq	$0, 112(%rsp)
.L1996:
	testq	%rbp, %rbp
	je	.L1954
	data16	leaq	_ZN4asio6detail15keyword_tss_ptrINS0_10call_stackINS0_15task_io_serviceENS0_27task_io_service_thread_infoEE7contextEE6value_E@tlsgd(%rip), %rdi
	.value	0x6666
	rex64
	call	__tls_get_addr@PLT
	movq	(%rax), %rax
	testq	%rax, %rax
	je	.L1998
	movq	8(%rax), %rax
	testq	%rax, %rax
	je	.L1998
	cmpq	$0, (%rax)
	je	.L2171
.L1998:
	movq	%rbp, %rdi
	call	_ZdlPv@PLT
	jmp	.L1954
	.p2align 4,,10
	.p2align 3
.L2163:
	movzbl	152(%rbp), %edx
	movb	%dl, 0(%rbp)
	movq	%rbp, (%rax)
	jmp	.L1875
	.p2align 4,,10
	.p2align 3
.L1966:
	movq	%rbp, %xmm0
	punpcklqdq	%xmm0, %xmm0
	movups	%xmm0, 72(%rax)
	jmp	.L2148
	.p2align 4,,10
	.p2align 3
.L2169:
	movq	88(%rdi), %rbx
	jmp	.L1982
	.p2align 4,,10
	.p2align 3
.L1958:
	movq	272(%rsp), %rax
	leaq	24(%rax), %rdi
	call	pthread_mutex_lock@PLT
.L1961:
	movq	272(%rsp), %rax
	cmpb	$0, 64(%rax)
	leaq	24(%rax), %rdi
	jne	.L1963
	movb	$1, 64(%rax)
	call	pthread_mutex_unlock@PLT
	movq	272(%rsp), %r12
	movq	$0, 0(%rbp)
	cmpq	$0, 96(%r12)
	je	.L1969
	movq	96(%r12), %rax
	movq	%rbp, (%rax)
	movq	%rbp, 96(%r12)
.L1970:
	movq	40(%r13), %rbx
	cmpb	$0, 40(%rbx)
	je	.L1971
	data16	leaq	_ZN4asio6detail15keyword_tss_ptrINS0_10call_stackINS0_15task_io_serviceENS0_27task_io_service_thread_infoEE7contextEE6value_E@tlsgd(%rip), %rdi
	.value	0x6666
	rex64
	call	__tls_get_addr@PLT
	movq	(%rax), %rax
	testq	%rax, %rax
	jne	.L1974
	jmp	.L1971
	.p2align 4,,10
	.p2align 3
.L1972:
	movq	16(%rax), %rax
	testq	%rax, %rax
	je	.L1971
.L1974:
	cmpq	(%rax), %rbx
	jne	.L1972
	movq	8(%rax), %rax
	testq	%rax, %rax
	je	.L1971
	addq	$1, 24(%rax)
	cmpq	$0, 16(%rax)
	movq	$0, (%r12)
	je	.L1975
	movq	16(%rax), %rdx
	movq	%r12, (%rdx)
	movq	%r12, 16(%rax)
	jmp	.L1954
	.p2align 4,,10
	.p2align 3
.L1971:
	lock addq	$1, 184(%rbx)
	leaq	48(%rbx), %rbp
	movq	%rbp, %rdi
	call	pthread_mutex_lock@PLT
	cmpq	$0, 200(%rbx)
	movq	$0, (%r12)
	je	.L1976
	movq	200(%rbx), %rax
	movq	%r12, (%rax)
	movq	%r12, 200(%rbx)
.L1977:
	movq	136(%rbx), %rax
	orq	$1, %rax
	movq	%rax, 136(%rbx)
	cmpq	$1, %rax
	je	.L1978
	movq	%rbp, %rdi
	call	pthread_mutex_unlock@PLT
	leaq	88(%rbx), %rdi
	call	pthread_cond_signal@PLT
	jmp	.L1954
.L1978:
	cmpb	$0, 176(%rbx)
	jne	.L1980
	movq	144(%rbx), %rax
	testq	%rax, %rax
	je	.L1980
	movb	$1, 176(%rbx)
	leaq	88(%rax), %rdx
	movl	$3, %esi
	leaq	144(%rsp), %rcx
	movq	%rdx, 148(%rsp)
	movl	88(%rax), %edx
	movl	$-2147483639, 144(%rsp)
	movl	96(%rax), %edi
	call	epoll_ctl@PLT
.L1980:
	movq	%rbp, %rdi
	jmp	.L2148
	.p2align 4,,10
	.p2align 3
.L2166:
	movzbl	152(%rbp), %edx
	movb	%dl, 0(%rbp)
	movq	%rbp, (%rax)
	jmp	.L1873
	.p2align 4,,10
	.p2align 3
.L2170:
	movq	32(%rsp), %rbx
	movq	40(%rsp), %rbp
	cmpb	$0, 40(%rbx)
	je	.L1986
	data16	leaq	_ZN4asio6detail15keyword_tss_ptrINS0_10call_stackINS0_15task_io_serviceENS0_27task_io_service_thread_infoEE7contextEE6value_E@tlsgd(%rip), %rdi
	.value	0x6666
	rex64
	call	__tls_get_addr@PLT
	movq	(%rax), %rax
	testq	%rax, %rax
	jne	.L1989
	jmp	.L1986
	.p2align 4,,10
	.p2align 3
.L1987:
	movq	16(%rax), %rax
	testq	%rax, %rax
	je	.L1986
.L1989:
	cmpq	(%rax), %rbx
	jne	.L1987
	movq	8(%rax), %rax
	testq	%rax, %rax
	je	.L1986
	addq	$1, 24(%rax)
	cmpq	$0, 16(%rax)
	movq	$0, 0(%rbp)
	je	.L1990
	movq	16(%rax), %rdx
	movq	%rbp, (%rdx)
	movq	%rbp, 16(%rax)
	jmp	.L1985
.L1986:
	lock addq	$1, 184(%rbx)
	leaq	48(%rbx), %r13
	movq	%r13, %rdi
	call	pthread_mutex_lock@PLT
	cmpq	$0, 200(%rbx)
	movq	$0, 0(%rbp)
	je	.L1991
	movq	200(%rbx), %rax
	movq	%rbp, (%rax)
	movq	%rbp, 200(%rbx)
.L1992:
	movq	136(%rbx), %rax
	orq	$1, %rax
	movq	%rax, 136(%rbx)
	cmpq	$1, %rax
	je	.L1993
	movq	%r13, %rdi
	call	pthread_mutex_unlock@PLT
	leaq	88(%rbx), %rdi
	call	pthread_cond_signal@PLT
	jmp	.L1985
.L1991:
	movq	%rbp, %xmm0
	punpcklqdq	%xmm0, %xmm0
	movups	%xmm0, 192(%rbx)
	jmp	.L1992
.L1983:
	movq	%rbx, 88(%rdi)
	jmp	.L1984
.L1993:
	cmpb	$0, 176(%rbx)
	jne	.L1995
	movq	144(%rbx), %rax
	testq	%rax, %rax
	je	.L1995
	movb	$1, 176(%rbx)
	leaq	88(%rax), %rdx
	movq	%r12, %rcx
	movl	$3, %esi
	movq	%rdx, 52(%rsp)
	movl	88(%rax), %edx
	movl	$-2147483639, 48(%rsp)
	movl	96(%rax), %edi
	call	epoll_ctl@PLT
.L1995:
	movq	%r13, %rdi
	call	pthread_mutex_unlock@PLT
	jmp	.L1985
.L2171:
	movzbl	120(%rbp), %edx
	movb	%dl, 0(%rbp)
	movq	%rbp, (%rax)
	jmp	.L1954
.L1969:
	movq	%rbp, %xmm0
	punpcklqdq	%xmm0, %xmm0
	movups	%xmm0, 88(%r12)
	jmp	.L1970
.L1885:
	movq	%rbp, %rdi
	call	_ZdlPv@PLT
.L1884:
	movl	$153, %edi
.LEHB30:
	call	_Znwm@PLT
.LEHE30:
	movb	$-104, 152(%rax)
	movq	144(%rsp), %rdi
	movq	%rax, %rbp
	movl	168(%rsp), %esi
	movq	176(%rsp), %r15
	jmp	.L1886
.L1976:
	movq	%r12, %xmm0
	punpcklqdq	%xmm0, %xmm0
	movups	%xmm0, 192(%rbx)
	jmp	.L1977
.L2006:
	movq	$0, (%rsp)
	xorl	%r14d, %r14d
	xorl	%r12d, %r12d
	jmp	.L1883
.L1942:
	lock addq	$1, 184(%rbx)
	leaq	48(%rbx), %r12
	movq	%r12, %rdi
	call	pthread_mutex_lock@PLT
	movq	$0, 0(%rbp)
	cmpq	$0, 200(%rbx)
	je	.L1947
	movq	200(%rbx), %rax
	movq	%rbp, (%rax)
	movq	%rbp, 200(%rbx)
.L1948:
	movq	136(%rbx), %rax
	orq	$1, %rax
	movq	%rax, 136(%rbx)
	cmpq	$1, %rax
	je	.L1949
	movq	%r12, %rdi
	call	pthread_mutex_unlock@PLT
	leaq	88(%rbx), %rdi
	call	pthread_cond_signal@PLT
	jmp	.L1952
.L2165:
	movl	$0, 24(%rbp)
	movl	(%rbx), %r13d
	movq	%rcx, 32(%rbp)
	orb	$2, 4(%rbx)
.L1889:
	movq	8(%rsp), %rax
	movq	8(%rbx), %r12
	movq	40(%rax), %r14
	testq	%r12, %r12
	je	.L2172
	addq	$40, %r12
	movq	%r12, %rdi
	call	pthread_mutex_lock@PLT
	movq	8(%rbx), %rax
	cmpb	$0, 144(%rax)
	jne	.L2173
	cmpq	$0, 112(%rax)
	je	.L2174
.L1925:
	movq	120(%rax), %rdx
	movq	$0, 0(%rbp)
	testq	%rdx, %rdx
	je	.L1938
	movq	%rbp, (%rdx)
	movq	%rbp, 120(%rax)
.L1939:
	movq	40(%r14), %rax
	lock addq	$1, 184(%rax)
	movq	%r12, %rdi
	call	pthread_mutex_unlock@PLT
	jmp	.L1952
.L1949:
	cmpb	$0, 176(%rbx)
	jne	.L1919
	movq	144(%rbx), %rax
	testq	%rax, %rax
	je	.L1919
	movb	$1, 176(%rbx)
	leaq	88(%rax), %rdx
	leaq	48(%rsp), %rcx
	movl	$3, %esi
	movl	$-2147483639, 48(%rsp)
	movq	%rdx, 52(%rsp)
	movl	88(%rax), %edx
	movl	96(%rax), %edi
	call	epoll_ctl@PLT
.L1919:
	movq	%r12, %rdi
	call	pthread_mutex_unlock@PLT
	jmp	.L1952
.L1975:
	movq	%r12, %xmm0
	punpcklqdq	%xmm0, %xmm0
	movups	%xmm0, 8(%rax)
	jmp	.L1954
.L1990:
	movq	%rbp, %xmm0
	punpcklqdq	%xmm0, %xmm0
	movups	%xmm0, 8(%rax)
	jmp	.L1985
.L1894:
	movq	%r13, %rdi
	movq	%rcx, (%rsp)
	call	__cxa_guard_acquire@PLT
	movq	(%rsp), %rcx
	testl	%eax, %eax
	je	.L2143
	movq	_ZZN4asio15system_categoryEvE8instance@GOTPCREL(%rip), %r12
	movq	_ZN4asio6detail15system_categoryD1Ev@GOTPCREL(%rip), %rdi
	leaq	__dso_handle(%rip), %rdx
	movq	%rcx, (%rsp)
	movq	%r12, %rsi
	call	__cxa_atexit@PLT
	movq	%r13, %rdi
	call	__cxa_guard_release@PLT
	movq	(%rsp), %rcx
	jmp	.L1895
.L1947:
	movq	%rbp, %xmm0
	punpcklqdq	%xmm0, %xmm0
	movups	%xmm0, 192(%rbx)
	jmp	.L1948
.L1946:
	movq	%rbp, %xmm0
	punpcklqdq	%xmm0, %xmm0
	movups	%xmm0, 8(%rax)
	jmp	.L1952
.L1938:
	movq	%rbp, %xmm0
	punpcklqdq	%xmm0, %xmm0
	movups	%xmm0, 112(%rax)
	jmp	.L1939
.L2172:
	movq	_ZGVZN4asio15system_categoryEvE8instance@GOTPCREL(%rip), %r13
	movzbl	0(%r13), %eax
	testb	%al, %al
	je	.L1899
.L2144:
	movq	_ZZN4asio15system_categoryEvE8instance@GOTPCREL(%rip), %r12
.L1900:
	movl	$9, 24(%rbp)
	movq	40(%r14), %rbx
	movq	%r12, 32(%rbp)
	data16	leaq	_ZN4asio6detail15keyword_tss_ptrINS0_10call_stackINS0_15task_io_serviceENS0_27task_io_service_thread_infoEE7contextEE6value_E@tlsgd(%rip), %rdi
	.value	0x6666
	rex64
	call	__tls_get_addr@PLT
	movq	(%rax), %rax
	testq	%rax, %rax
	jne	.L1905
	jmp	.L1942
	.p2align 4,,10
	.p2align 3
.L1903:
	movq	16(%rax), %rax
	testq	%rax, %rax
	je	.L1942
.L1905:
	cmpq	(%rax), %rbx
	jne	.L1903
	jmp	.L2162
.L2173:
	data16	leaq	_ZN4asio6detail15keyword_tss_ptrINS0_10call_stackINS0_15task_io_serviceENS0_27task_io_service_thread_infoEE7contextEE6value_E@tlsgd(%rip), %rdi
	.value	0x6666
	rex64
	call	__tls_get_addr@PLT
	movq	40(%r14), %rbx
	movq	(%rax), %rax
	testq	%rax, %rax
	jne	.L1917
	jmp	.L1914
	.p2align 4,,10
	.p2align 3
.L1915:
	movq	16(%rax), %rax
	testq	%rax, %rax
	je	.L1914
.L1917:
	cmpq	(%rax), %rbx
	jne	.L1915
	movq	8(%rax), %rax
	testq	%rax, %rax
	je	.L1914
	addq	$1, 24(%rax)
	cmpq	$0, 16(%rax)
	movq	$0, 0(%rbp)
	je	.L1918
	movq	16(%rax), %rdx
	movq	%rbp, (%rdx)
	movq	%rbp, 16(%rax)
	jmp	.L1919
.L2164:
	movq	_ZGVZN4asio15system_categoryEvE8instance@GOTPCREL(%rip), %r13
	movzbl	0(%r13), %eax
	testb	%al, %al
	je	.L1891
.L2142:
	movq	_ZZN4asio15system_categoryEvE8instance@GOTPCREL(%rip), %r12
.L1892:
	movl	$9, 24(%rbp)
	movq	%r12, 32(%rbp)
	jmp	.L1887
.L1914:
	lock addq	$1, 184(%rbx)
	leaq	48(%rbx), %r13
	movq	%r13, %rdi
	call	pthread_mutex_lock@PLT
	cmpq	$0, 200(%rbx)
	movq	$0, 0(%rbp)
	je	.L1920
	movq	200(%rbx), %rax
	movq	%rbp, (%rax)
	movq	%rbp, 200(%rbx)
.L1921:
	movq	136(%rbx), %rax
	orq	$1, %rax
	movq	%rax, 136(%rbx)
	cmpq	$1, %rax
	je	.L1922
	movq	%r13, %rdi
	call	pthread_mutex_unlock@PLT
	leaq	88(%rbx), %rdi
	call	pthread_cond_signal@PLT
	jmp	.L1919
.L2174:
	movq	%rbp, %rdi
.LEHB31:
	call	*48(%rbp)
.LEHE31:
	testb	%al, %al
	jne	.L2175
	movq	8(%rbx), %rax
	movl	92(%rax), %edx
	testb	$4, %dl
	jne	.L1925
	orl	$4, %edx
	movq	%rax, 52(%rsp)
	leaq	48(%rsp), %rcx
	movl	$3, %esi
	movl	%edx, 48(%rsp)
	movl	96(%r14), %edi
	movl	%r13d, %edx
	call	epoll_ctl@PLT
	testl	%eax, %eax
	jne	.L1937
	movq	8(%rbx), %rax
	movl	48(%rsp), %edx
	orl	%edx, 92(%rax)
	movq	8(%rbx), %rax
	jmp	.L1925
.L1899:
	movq	%r13, %rdi
	call	__cxa_guard_acquire@PLT
	testl	%eax, %eax
	je	.L2144
	movq	_ZZN4asio15system_categoryEvE8instance@GOTPCREL(%rip), %r12
	movq	_ZN4asio6detail15system_categoryD1Ev@GOTPCREL(%rip), %rdi
	leaq	__dso_handle(%rip), %rdx
	movq	%r12, %rsi
	call	__cxa_atexit@PLT
	movq	%r13, %rdi
	call	__cxa_guard_release@PLT
	jmp	.L1900
.L1922:
	cmpb	$0, 176(%rbx)
	jne	.L1924
	movq	144(%rbx), %rax
	testq	%rax, %rax
	je	.L1924
	movb	$1, 176(%rbx)
	leaq	88(%rax), %rdx
	leaq	48(%rsp), %rcx
	movl	$3, %esi
	movq	%rdx, 52(%rsp)
	movl	88(%rax), %edx
	movl	$-2147483639, 48(%rsp)
	movl	96(%rax), %edi
	call	epoll_ctl@PLT
.L1924:
	movq	%r13, %rdi
	call	pthread_mutex_unlock@PLT
	jmp	.L1919
.L1918:
	movq	%rbp, %xmm0
	punpcklqdq	%xmm0, %xmm0
	movups	%xmm0, 8(%rax)
	jmp	.L1919
.L1920:
	movq	%rbp, %xmm0
	punpcklqdq	%xmm0, %xmm0
	movups	%xmm0, 192(%rbx)
	jmp	.L1921
.L2167:
	call	__stack_chk_fail@PLT
.L1891:
	movq	%r13, %rdi
	call	__cxa_guard_acquire@PLT
	testl	%eax, %eax
	je	.L2142
	movq	_ZZN4asio15system_categoryEvE8instance@GOTPCREL(%rip), %r12
	movq	_ZN4asio6detail15system_categoryD1Ev@GOTPCREL(%rip), %rdi
	leaq	__dso_handle(%rip), %rdx
	movq	%r12, %rsi
	call	__cxa_atexit@PLT
	movq	%r13, %rdi
	call	__cxa_guard_release@PLT
	jmp	.L1892
.L2175:
	movq	%r12, %rdi
	call	pthread_mutex_unlock@PLT
	movq	40(%r14), %rbx
	data16	leaq	_ZN4asio6detail15keyword_tss_ptrINS0_10call_stackINS0_15task_io_serviceENS0_27task_io_service_thread_infoEE7contextEE6value_E@tlsgd(%rip), %rdi
	.value	0x6666
	rex64
	call	__tls_get_addr@PLT
	movq	(%rax), %rax
	testq	%rax, %rax
	jne	.L1930
	jmp	.L1942
	.p2align 4,,10
	.p2align 3
.L1928:
	movq	16(%rax), %rax
	testq	%rax, %rax
	je	.L1942
.L1930:
	cmpq	(%rax), %rbx
	jne	.L1928
	jmp	.L2162
.L1937:
	call	_ZN4asio15system_categoryEv@PLT
	movq	%rax, %rbx
	call	__errno_location@PLT
	movq	40(%r14), %rdi
	movl	$1, %edx
	movq	%rbp, %rsi
	movl	(%rax), %eax
	movq	%rbx, 32(%rbp)
	movl	%eax, 24(%rbp)
	call	_ZN4asio6detail15task_io_service25post_immediate_completionEPNS0_25task_io_service_operationEb@PLT
	jmp	.L1919
.L2010:
	movq	%rax, %rbp
	jmp	.L1940
.L2008:
	movq	%rax, %rbp
	jmp	.L2002
.L2007:
	movq	%rax, %rbp
	jmp	.L2001
.L2009:
	movq	%rax, %rbp
	jmp	.L1941
	.section	.gcc_except_table
.LLSDA9207:
	.byte	0xff
	.byte	0xff
	.byte	0x1
	.uleb128 .LLSDACSE9207-.LLSDACSB9207
.LLSDACSB9207:
	.uleb128 .LEHB27-.LFB9207
	.uleb128 .LEHE27-.LEHB27
	.uleb128 .L2009-.LFB9207
	.uleb128 0
	.uleb128 .LEHB28-.LFB9207
	.uleb128 .LEHE28-.LEHB28
	.uleb128 .L2007-.LFB9207
	.uleb128 0
	.uleb128 .LEHB29-.LFB9207
	.uleb128 .LEHE29-.LEHB29
	.uleb128 .L2008-.LFB9207
	.uleb128 0
	.uleb128 .LEHB30-.LFB9207
	.uleb128 .LEHE30-.LEHB30
	.uleb128 .L2009-.LFB9207
	.uleb128 0
	.uleb128 .LEHB31-.LFB9207
	.uleb128 .LEHE31-.LEHB31
	.uleb128 .L2010-.LFB9207
	.uleb128 0
.LLSDACSE9207:
	.text
	.cfi_endproc
	.section	.text.unlikely
	.cfi_startproc
	.cfi_personality 0x9b,DW.ref.__gxx_personality_v0
	.cfi_lsda 0x1b,.LLSDAC9207
	.type	_ZN4asio6detail23reactive_socket_send_opINS_15const_buffers_1ENS0_8write_opINS_19basic_stream_socketINS_2ip3tcpENS_21stream_socket_serviceIS6_EEEES2_NS0_14transfer_all_tENS0_15wrapped_handlerINS_10io_service6strandEZN7asiopal13SocketChannel14BeginWriteImplERKN7openpal6RSliceEEUlRKSt10error_codemE_NS0_26is_continuation_if_runningEEEEEE11do_completeEPNS0_15task_io_serviceEPNS0_25task_io_service_operationESM_m.cold, @function
_ZN4asio6detail23reactive_socket_send_opINS_15const_buffers_1ENS0_8write_opINS_19basic_stream_socketINS_2ip3tcpENS_21stream_socket_serviceIS6_EEEES2_NS0_14transfer_all_tENS0_15wrapped_handlerINS_10io_service6strandEZN7asiopal13SocketChannel14BeginWriteImplERKN7openpal6RSliceEEUlRKSt10error_codemE_NS0_26is_continuation_if_runningEEEEEE11do_completeEPNS0_15task_io_serviceEPNS0_25task_io_service_operationESM_m.cold:
.LFSB9207:
.L1940:
	.cfi_def_cfa_offset 592
	.cfi_offset 3, -56
	.cfi_offset 6, -48
	.cfi_offset 12, -40
	.cfi_offset 13, -32
	.cfi_offset 14, -24
	.cfi_offset 15, -16
	movq	%r12, %rdi
	call	pthread_mutex_unlock@PLT
	leaq	96(%rsp), %rdi
	call	_ZN4asio6detail23reactive_socket_send_opINS_15const_buffers_1ENS0_8write_opINS_19basic_stream_socketINS_2ip3tcpENS_21stream_socket_serviceIS6_EEEES2_NS0_14transfer_all_tENS0_15wrapped_handlerINS_10io_service6strandEZN7asiopal13SocketChannel14BeginWriteImplERKN7openpal6RSliceEEUlRKSt10error_codemE_NS0_26is_continuation_if_runningEEEEEE3ptr5resetEv
.L1941:
	sfence
	jmp	.L2001
.L2002:
	leaq	32(%rsp), %rdi
	call	_ZN4asio6detail14strand_service16on_dispatch_exitD1Ev@PLT
	data16	leaq	_ZN4asio6detail15keyword_tss_ptrINS0_10call_stackINS0_14strand_service11strand_implEhE7contextEE6value_E@tlsgd(%rip), %rdi
	.value	0x6666
	rex64
	call	__tls_get_addr@PLT
	movq	160(%rsp), %rdx
	leaq	96(%rsp), %rdi
	movq	%rdx, (%rax)
	call	_ZN4asio6detail18completion_handlerINS0_17rewrapped_handlerINS0_7binder2INS0_8write_opINS_19basic_stream_socketINS_2ip3tcpENS_21stream_socket_serviceIS7_EEEENS_15const_buffers_1ENS0_14transfer_all_tENS0_15wrapped_handlerINS_10io_service6strandEZN7asiopal13SocketChannel14BeginWriteImplERKN7openpal6RSliceEEUlRKSt10error_codemE_NS0_26is_continuation_if_runningEEEEESM_mEESP_EEE3ptr5resetEv
.L2001:
	sfence
	leaq	64(%rsp), %rdi
	call	_ZN4asio6detail23reactive_socket_send_opINS_15const_buffers_1ENS0_8write_opINS_19basic_stream_socketINS_2ip3tcpENS_21stream_socket_serviceIS6_EEEES2_NS0_14transfer_all_tENS0_15wrapped_handlerINS_10io_service6strandEZN7asiopal13SocketChannel14BeginWriteImplERKN7openpal6RSliceEEUlRKSt10error_codemE_NS0_26is_continuation_if_runningEEEEEE3ptr5resetEv
	movq	%rbp, %rdi
.LEHB32:
	call	_Unwind_Resume@PLT
.LEHE32:
	.cfi_endproc
.LFE9207:
	.section	.gcc_except_table
.LLSDAC9207:
	.byte	0xff
	.byte	0xff
	.byte	0x1
	.uleb128 .LLSDACSEC9207-.LLSDACSBC9207
.LLSDACSBC9207:
	.uleb128 .LEHB32-.LCOLDB32
	.uleb128 .LEHE32-.LEHB32
	.uleb128 0
	.uleb128 0
.LLSDACSEC9207:
	.section	.text.unlikely
	.text
	.size	_ZN4asio6detail23reactive_socket_send_opINS_15const_buffers_1ENS0_8write_opINS_19basic_stream_socketINS_2ip3tcpENS_21stream_socket_serviceIS6_EEEES2_NS0_14transfer_all_tENS0_15wrapped_handlerINS_10io_service6strandEZN7asiopal13SocketChannel14BeginWriteImplERKN7openpal6RSliceEEUlRKSt10error_codemE_NS0_26is_continuation_if_runningEEEEEE11do_completeEPNS0_15task_io_serviceEPNS0_25task_io_service_operationESM_m, .-_ZN4asio6detail23reactive_socket_send_opINS_15const_buffers_1ENS0_8write_opINS_19basic_stream_socketINS_2ip3tcpENS_21stream_socket_serviceIS6_EEEES2_NS0_14transfer_all_tENS0_15wrapped_handlerINS_10io_service6strandEZN7asiopal13SocketChannel14BeginWriteImplERKN7openpal6RSliceEEUlRKSt10error_codemE_NS0_26is_continuation_if_runningEEEEEE11do_completeEPNS0_15task_io_serviceEPNS0_25task_io_service_operationESM_m
	.section	.text.unlikely
	.size	_ZN4asio6detail23reactive_socket_send_opINS_15const_buffers_1ENS0_8write_opINS_19basic_stream_socketINS_2ip3tcpENS_21stream_socket_serviceIS6_EEEES2_NS0_14transfer_all_tENS0_15wrapped_handlerINS_10io_service6strandEZN7asiopal13SocketChannel14BeginWriteImplERKN7openpal6RSliceEEUlRKSt10error_codemE_NS0_26is_continuation_if_runningEEEEEE11do_completeEPNS0_15task_io_serviceEPNS0_25task_io_service_operationESM_m.cold, .-_ZN4asio6detail23reactive_socket_send_opINS_15const_buffers_1ENS0_8write_opINS_19basic_stream_socketINS_2ip3tcpENS_21stream_socket_serviceIS6_EEEES2_NS0_14transfer_all_tENS0_15wrapped_handlerINS_10io_service6strandEZN7asiopal13SocketChannel14BeginWriteImplERKN7openpal6RSliceEEUlRKSt10error_codemE_NS0_26is_continuation_if_runningEEEEEE11do_completeEPNS0_15task_io_serviceEPNS0_25task_io_service_operationESM_m.cold
.LCOLDE32:
	.text
.LHOTE32:
	.align 2
	.p2align 4
	.globl	_ZN7asiopal13SocketChannelC2ESt10shared_ptrINS_8ExecutorEEN4asio19basic_stream_socketINS4_2ip3tcpENS4_21stream_socket_serviceIS7_EEEE
	.type	_ZN7asiopal13SocketChannelC2ESt10shared_ptrINS_8ExecutorEEN4asio19basic_stream_socketINS4_2ip3tcpENS4_21stream_socket_serviceIS7_EEEE, @function
_ZN7asiopal13SocketChannelC2ESt10shared_ptrINS_8ExecutorEEN4asio19basic_stream_socketINS4_2ip3tcpENS4_21stream_socket_serviceIS7_EEEE:
.LFB7038:
	.cfi_startproc
	movq	_ZTVN7asiopal13IAsyncChannelE@GOTPCREL(%rip), %rax
	movq	$0, 8(%rdi)
	movq	$0, 16(%rdi)
	addq	$16, %rax
	movq	%rax, (%rdi)
	movq	(%rsi), %rax
	movq	%rax, 24(%rdi)
	movq	8(%rsi), %rax
	movq	%rax, 32(%rdi)
	testq	%rax, %rax
	je	.L2177
	cmpq	$0, _ZL28__gthrw___pthread_key_createPjPFvPvE@GOTPCREL(%rip)
	jne	.L2182
	addl	$1, 8(%rax)
.L2177:
	xorl	%eax, %eax
	pxor	%xmm0, %xmm0
	movl	$2, 80(%rdi)
	movw	%ax, 56(%rdi)
	movq	_ZTVN7asiopal13SocketChannelE@GOTPCREL(%rip), %rax
	movups	%xmm0, 40(%rdi)
	addq	$16, %rax
	movb	$0, 58(%rdi)
	movq	%rax, (%rdi)
	movq	24(%rdx), %rax
	movq	%rax, 88(%rdi)
	movl	(%rdx), %eax
	movl	$-1, (%rdx)
	movl	%eax, 64(%rdi)
	movzbl	4(%rdx), %eax
	movb	$0, 4(%rdx)
	movb	%al, 68(%rdi)
	movq	8(%rdx), %rax
	movq	$0, 8(%rdx)
	movq	%rax, 72(%rdi)
	movl	16(%rdx), %eax
	movl	$2, 16(%rdx)
	movl	%eax, 80(%rdi)
	ret
	.p2align 4,,10
	.p2align 3
.L2182:
	lock addl	$1, 8(%rax)
	jmp	.L2177
	.cfi_endproc
.LFE7038:
	.size	_ZN7asiopal13SocketChannelC2ESt10shared_ptrINS_8ExecutorEEN4asio19basic_stream_socketINS4_2ip3tcpENS4_21stream_socket_serviceIS7_EEEE, .-_ZN7asiopal13SocketChannelC2ESt10shared_ptrINS_8ExecutorEEN4asio19basic_stream_socketINS4_2ip3tcpENS4_21stream_socket_serviceIS7_EEEE
	.globl	_ZN7asiopal13SocketChannelC1ESt10shared_ptrINS_8ExecutorEEN4asio19basic_stream_socketINS4_2ip3tcpENS4_21stream_socket_serviceIS7_EEEE
	.set	_ZN7asiopal13SocketChannelC1ESt10shared_ptrINS_8ExecutorEEN4asio19basic_stream_socketINS4_2ip3tcpENS4_21stream_socket_serviceIS7_EEEE,_ZN7asiopal13SocketChannelC2ESt10shared_ptrINS_8ExecutorEEN4asio19basic_stream_socketINS4_2ip3tcpENS4_21stream_socket_serviceIS7_EEEE
	.section	.text.startup,"ax",@progbits
	.p2align 4
	.type	_GLOBAL__sub_I_SocketChannel.cpp, @function
_GLOBAL__sub_I_SocketChannel.cpp:
.LFB9607:
	.cfi_startproc
	pushq	%rbp
	.cfi_def_cfa_offset 16
	.cfi_offset 6, -16
	call	_ZN4asio15system_categoryEv@PLT
	movq	_ZGVZN4asio5error18get_netdb_categoryEvE8instance@GOTPCREL(%rip), %rbp
	movzbl	0(%rbp), %eax
	testb	%al, %al
	je	.L2208
.L2185:
	movq	_ZGVZN4asio5error21get_addrinfo_categoryEvE8instance@GOTPCREL(%rip), %rbp
	movzbl	0(%rbp), %eax
	testb	%al, %al
	je	.L2209
.L2188:
	movq	_ZGVZN4asio5error17get_misc_categoryEvE8instance@GOTPCREL(%rip), %rbp
	movzbl	0(%rbp), %eax
	testb	%al, %al
	je	.L2210
.L2191:
	movq	_ZGVN4asio6detail10call_stackINS0_15task_io_serviceENS0_27task_io_service_thread_infoEE4top_E@GOTPCREL(%rip), %rax
	cmpb	$0, (%rax)
	je	.L2211
.L2193:
	movq	_ZGVN4asio6detail12service_baseINS0_13epoll_reactorEE2idE@GOTPCREL(%rip), %rax
	cmpb	$0, (%rax)
	je	.L2212
.L2194:
	movq	_ZGVN4asio6detail12service_baseINS0_15task_io_serviceEE2idE@GOTPCREL(%rip), %rax
	cmpb	$0, (%rax)
	je	.L2213
.L2195:
	movq	_ZGVN4asio6detail10call_stackINS0_14strand_service11strand_implEhE4top_E@GOTPCREL(%rip), %rax
	cmpb	$0, (%rax)
	je	.L2214
.L2196:
	movq	_ZGVN4asio6detail12service_baseINS0_14strand_serviceEE2idE@GOTPCREL(%rip), %rax
	cmpb	$0, (%rax)
	je	.L2215
	popq	%rbp
	.cfi_remember_state
	.cfi_def_cfa_offset 8
	ret
.L2208:
	.cfi_restore_state
	movq	%rbp, %rdi
	call	__cxa_guard_acquire@PLT
	testl	%eax, %eax
	je	.L2185
	movq	_ZZN4asio5error18get_netdb_categoryEvE8instance@GOTPCREL(%rip), %rsi
	movq	_ZN4asio5error6detail14netdb_categoryD1Ev@GOTPCREL(%rip), %rdi
	leaq	__dso_handle(%rip), %rdx
	call	__cxa_atexit@PLT
	movq	%rbp, %rdi
	call	__cxa_guard_release@PLT
	jmp	.L2185
.L2215:
	movb	$1, (%rax)
	leaq	__dso_handle(%rip), %rdx
	movq	_ZN4asio6detail12service_baseINS0_14strand_serviceEE2idE@GOTPCREL(%rip), %rsi
	movq	_ZN4asio6detail10service_idINS0_14strand_serviceEED1Ev@GOTPCREL(%rip), %rdi
	popq	%rbp
	.cfi_remember_state
	.cfi_def_cfa_offset 8
	jmp	__cxa_atexit@PLT
.L2214:
	.cfi_restore_state
	movb	$1, (%rax)
	movq	_ZN4asio6detail10call_stackINS0_14strand_service11strand_implEhE4top_E@GOTPCREL(%rip), %rsi
	leaq	__dso_handle(%rip), %rdx
	movq	_ZN4asio6detail7tss_ptrINS0_10call_stackINS0_14strand_service11strand_implEhE7contextEED1Ev@GOTPCREL(%rip), %rdi
	call	__cxa_atexit@PLT
	jmp	.L2196
.L2213:
	movb	$1, (%rax)
	movq	_ZN4asio6detail12service_baseINS0_15task_io_serviceEE2idE@GOTPCREL(%rip), %rsi
	leaq	__dso_handle(%rip), %rdx
	movq	_ZN4asio6detail10service_idINS0_15task_io_serviceEED1Ev@GOTPCREL(%rip), %rdi
	call	__cxa_atexit@PLT
	jmp	.L2195
.L2212:
	movb	$1, (%rax)
	movq	_ZN4asio6detail12service_baseINS0_13epoll_reactorEE2idE@GOTPCREL(%rip), %rsi
	leaq	__dso_handle(%rip), %rdx
	movq	_ZN4asio6detail10service_idINS0_13epoll_reactorEED1Ev@GOTPCREL(%rip), %rdi
	call	__cxa_atexit@PLT
	jmp	.L2194
.L2211:
	movb	$1, (%rax)
	movq	_ZN4asio6detail10call_stackINS0_15task_io_serviceENS0_27task_io_service_thread_infoEE4top_E@GOTPCREL(%rip), %rsi
	leaq	__dso_handle(%rip), %rdx
	movq	_ZN4asio6detail7tss_ptrINS0_10call_stackINS0_15task_io_serviceENS0_27task_io_service_thread_infoEE7contextEED1Ev@GOTPCREL(%rip), %rdi
	call	__cxa_atexit@PLT
	jmp	.L2193
.L2210:
	movq	%rbp, %rdi
	call	__cxa_guard_acquire@PLT
	testl	%eax, %eax
	je	.L2191
	movq	_ZZN4asio5error17get_misc_categoryEvE8instance@GOTPCREL(%rip), %rsi
	movq	_ZN4asio5error6detail13misc_categoryD1Ev@GOTPCREL(%rip), %rdi
	leaq	__dso_handle(%rip), %rdx
	call	__cxa_atexit@PLT
	movq	%rbp, %rdi
	call	__cxa_guard_release@PLT
	jmp	.L2191
.L2209:
	movq	%rbp, %rdi
	call	__cxa_guard_acquire@PLT
	testl	%eax, %eax
	je	.L2188
	movq	_ZZN4asio5error21get_addrinfo_categoryEvE8instance@GOTPCREL(%rip), %rsi
	movq	_ZN4asio5error6detail17addrinfo_categoryD1Ev@GOTPCREL(%rip), %rdi
	leaq	__dso_handle(%rip), %rdx
	call	__cxa_atexit@PLT
	movq	%rbp, %rdi
	call	__cxa_guard_release@PLT
	jmp	.L2188
	.cfi_endproc
.LFE9607:
	.size	_GLOBAL__sub_I_SocketChannel.cpp, .-_GLOBAL__sub_I_SocketChannel.cpp
	.section	.init_array,"aw"
	.align 8
	.quad	_GLOBAL__sub_I_SocketChannel.cpp
	.weak	_ZTSN7openpal10UncopyableE
	.section	.rodata._ZTSN7openpal10UncopyableE,"aG",@progbits,_ZTSN7openpal10UncopyableE,comdat
	.align 16
	.type	_ZTSN7openpal10UncopyableE, @object
	.size	_ZTSN7openpal10UncopyableE, 23
_ZTSN7openpal10UncopyableE:
	.string	"N7openpal10UncopyableE"
	.weak	_ZTIN7openpal10UncopyableE
	.section	.data.rel.ro._ZTIN7openpal10UncopyableE,"awG",@progbits,_ZTIN7openpal10UncopyableE,comdat
	.align 8
	.type	_ZTIN7openpal10UncopyableE, @object
	.size	_ZTIN7openpal10UncopyableE, 16
_ZTIN7openpal10UncopyableE:
	.quad	_ZTVN10__cxxabiv117__class_type_infoE+16
	.quad	_ZTSN7openpal10UncopyableE
	.weak	_ZTSSt23enable_shared_from_thisIN7asiopal13IAsyncChannelEE
	.section	.rodata._ZTSSt23enable_shared_from_thisIN7asiopal13IAsyncChannelEE,"aG",@progbits,_ZTSSt23enable_shared_from_thisIN7asiopal13IAsyncChannelEE,comdat
	.align 32
	.type	_ZTSSt23enable_shared_from_thisIN7asiopal13IAsyncChannelEE, @object
	.size	_ZTSSt23enable_shared_from_thisIN7asiopal13IAsyncChannelEE, 55
_ZTSSt23enable_shared_from_thisIN7asiopal13IAsyncChannelEE:
	.string	"St23enable_shared_from_thisIN7asiopal13IAsyncChannelEE"
	.weak	_ZTISt23enable_shared_from_thisIN7asiopal13IAsyncChannelEE
	.section	.data.rel.ro._ZTISt23enable_shared_from_thisIN7asiopal13IAsyncChannelEE,"awG",@progbits,_ZTISt23enable_shared_from_thisIN7asiopal13IAsyncChannelEE,comdat
	.align 8
	.type	_ZTISt23enable_shared_from_thisIN7asiopal13IAsyncChannelEE, @object
	.size	_ZTISt23enable_shared_from_thisIN7asiopal13IAsyncChannelEE, 16
_ZTISt23enable_shared_from_thisIN7asiopal13IAsyncChannelEE:
	.quad	_ZTVN10__cxxabiv117__class_type_infoE+16
	.quad	_ZTSSt23enable_shared_from_thisIN7asiopal13IAsyncChannelEE
	.weak	_ZGVN4asio6detail12service_baseINS0_14strand_serviceEE2idE
	.section	.bss._ZGVN4asio6detail12service_baseINS0_14strand_serviceEE2idE,"awG",@nobits,_ZGVN4asio6detail12service_baseINS0_14strand_serviceEE2idE,comdat
	.align 8
	.type	_ZGVN4asio6detail12service_baseINS0_14strand_serviceEE2idE, @gnu_unique_object
	.size	_ZGVN4asio6detail12service_baseINS0_14strand_serviceEE2idE, 8
_ZGVN4asio6detail12service_baseINS0_14strand_serviceEE2idE:
	.zero	8
	.weak	_ZGVN4asio6detail10call_stackINS0_14strand_service11strand_implEhE4top_E
	.section	.bss._ZGVN4asio6detail10call_stackINS0_14strand_service11strand_implEhE4top_E,"awG",@nobits,_ZGVN4asio6detail10call_stackINS0_14strand_service11strand_implEhE4top_E,comdat
	.align 8
	.type	_ZGVN4asio6detail10call_stackINS0_14strand_service11strand_implEhE4top_E, @gnu_unique_object
	.size	_ZGVN4asio6detail10call_stackINS0_14strand_service11strand_implEhE4top_E, 8
_ZGVN4asio6detail10call_stackINS0_14strand_service11strand_implEhE4top_E:
	.zero	8
	.weak	_ZGVN4asio6detail12service_baseINS0_15task_io_serviceEE2idE
	.section	.bss._ZGVN4asio6detail12service_baseINS0_15task_io_serviceEE2idE,"awG",@nobits,_ZGVN4asio6detail12service_baseINS0_15task_io_serviceEE2idE,comdat
	.align 8
	.type	_ZGVN4asio6detail12service_baseINS0_15task_io_serviceEE2idE, @gnu_unique_object
	.size	_ZGVN4asio6detail12service_baseINS0_15task_io_serviceEE2idE, 8
_ZGVN4asio6detail12service_baseINS0_15task_io_serviceEE2idE:
	.zero	8
	.weak	_ZGVN4asio6detail12service_baseINS0_13epoll_reactorEE2idE
	.section	.bss._ZGVN4asio6detail12service_baseINS0_13epoll_reactorEE2idE,"awG",@nobits,_ZGVN4asio6detail12service_baseINS0_13epoll_reactorEE2idE,comdat
	.align 8
	.type	_ZGVN4asio6detail12service_baseINS0_13epoll_reactorEE2idE, @gnu_unique_object
	.size	_ZGVN4asio6detail12service_baseINS0_13epoll_reactorEE2idE, 8
_ZGVN4asio6detail12service_baseINS0_13epoll_reactorEE2idE:
	.zero	8
	.weak	_ZGVN4asio6detail10call_stackINS0_15task_io_serviceENS0_27task_io_service_thread_infoEE4top_E
	.section	.bss._ZGVN4asio6detail10call_stackINS0_15task_io_serviceENS0_27task_io_service_thread_infoEE4top_E,"awG",@nobits,_ZGVN4asio6detail10call_stackINS0_15task_io_serviceENS0_27task_io_service_thread_infoEE4top_E,comdat
	.align 8
	.type	_ZGVN4asio6detail10call_stackINS0_15task_io_serviceENS0_27task_io_service_thread_infoEE4top_E, @gnu_unique_object
	.size	_ZGVN4asio6detail10call_stackINS0_15task_io_serviceENS0_27task_io_service_thread_infoEE4top_E, 8
_ZGVN4asio6detail10call_stackINS0_15task_io_serviceENS0_27task_io_service_thread_infoEE4top_E:
	.zero	8
	.weak	_ZN4asio6detail12service_baseINS0_14strand_serviceEE2idE
	.section	.bss._ZN4asio6detail12service_baseINS0_14strand_serviceEE2idE,"awG",@nobits,_ZN4asio6detail12service_baseINS0_14strand_serviceEE2idE,comdat
	.type	_ZN4asio6detail12service_baseINS0_14strand_serviceEE2idE, @gnu_unique_object
	.size	_ZN4asio6detail12service_baseINS0_14strand_serviceEE2idE, 1
_ZN4asio6detail12service_baseINS0_14strand_serviceEE2idE:
	.zero	1
	.weak	_ZN4asio6detail10call_stackINS0_14strand_service11strand_implEhE4top_E
	.section	.bss._ZN4asio6detail10call_stackINS0_14strand_service11strand_implEhE4top_E,"awG",@nobits,_ZN4asio6detail10call_stackINS0_14strand_service11strand_implEhE4top_E,comdat
	.type	_ZN4asio6detail10call_stackINS0_14strand_service11strand_implEhE4top_E, @gnu_unique_object
	.size	_ZN4asio6detail10call_stackINS0_14strand_service11strand_implEhE4top_E, 1
_ZN4asio6detail10call_stackINS0_14strand_service11strand_implEhE4top_E:
	.zero	1
	.weak	_ZN4asio6detail12service_baseINS0_15task_io_serviceEE2idE
	.section	.bss._ZN4asio6detail12service_baseINS0_15task_io_serviceEE2idE,"awG",@nobits,_ZN4asio6detail12service_baseINS0_15task_io_serviceEE2idE,comdat
	.type	_ZN4asio6detail12service_baseINS0_15task_io_serviceEE2idE, @gnu_unique_object
	.size	_ZN4asio6detail12service_baseINS0_15task_io_serviceEE2idE, 1
_ZN4asio6detail12service_baseINS0_15task_io_serviceEE2idE:
	.zero	1
	.weak	_ZN4asio6detail12service_baseINS0_13epoll_reactorEE2idE
	.section	.bss._ZN4asio6detail12service_baseINS0_13epoll_reactorEE2idE,"awG",@nobits,_ZN4asio6detail12service_baseINS0_13epoll_reactorEE2idE,comdat
	.type	_ZN4asio6detail12service_baseINS0_13epoll_reactorEE2idE, @gnu_unique_object
	.size	_ZN4asio6detail12service_baseINS0_13epoll_reactorEE2idE, 1
_ZN4asio6detail12service_baseINS0_13epoll_reactorEE2idE:
	.zero	1
	.weak	_ZN4asio6detail10call_stackINS0_15task_io_serviceENS0_27task_io_service_thread_infoEE4top_E
	.section	.bss._ZN4asio6detail10call_stackINS0_15task_io_serviceENS0_27task_io_service_thread_infoEE4top_E,"awG",@nobits,_ZN4asio6detail10call_stackINS0_15task_io_serviceENS0_27task_io_service_thread_infoEE4top_E,comdat
	.type	_ZN4asio6detail10call_stackINS0_15task_io_serviceENS0_27task_io_service_thread_infoEE4top_E, @gnu_unique_object
	.size	_ZN4asio6detail10call_stackINS0_15task_io_serviceENS0_27task_io_service_thread_infoEE4top_E, 1
_ZN4asio6detail10call_stackINS0_15task_io_serviceENS0_27task_io_service_thread_infoEE4top_E:
	.zero	1
	.weak	_ZTSN4asio6detail15system_categoryE
	.section	.rodata._ZTSN4asio6detail15system_categoryE,"aG",@progbits,_ZTSN4asio6detail15system_categoryE,comdat
	.align 32
	.type	_ZTSN4asio6detail15system_categoryE, @object
	.size	_ZTSN4asio6detail15system_categoryE, 32
_ZTSN4asio6detail15system_categoryE:
	.string	"N4asio6detail15system_categoryE"
	.weak	_ZTIN4asio6detail15system_categoryE
	.section	.data.rel.ro._ZTIN4asio6detail15system_categoryE,"awG",@progbits,_ZTIN4asio6detail15system_categoryE,comdat
	.align 8
	.type	_ZTIN4asio6detail15system_categoryE, @object
	.size	_ZTIN4asio6detail15system_categoryE, 24
_ZTIN4asio6detail15system_categoryE:
	.quad	_ZTVN10__cxxabiv120__si_class_type_infoE+16
	.quad	_ZTSN4asio6detail15system_categoryE
	.quad	_ZTINSt3_V214error_categoryE
	.weak	_ZTSN4asio5error6detail14netdb_categoryE
	.section	.rodata._ZTSN4asio5error6detail14netdb_categoryE,"aG",@progbits,_ZTSN4asio5error6detail14netdb_categoryE,comdat
	.align 32
	.type	_ZTSN4asio5error6detail14netdb_categoryE, @object
	.size	_ZTSN4asio5error6detail14netdb_categoryE, 37
_ZTSN4asio5error6detail14netdb_categoryE:
	.string	"N4asio5error6detail14netdb_categoryE"
	.weak	_ZTIN4asio5error6detail14netdb_categoryE
	.section	.data.rel.ro._ZTIN4asio5error6detail14netdb_categoryE,"awG",@progbits,_ZTIN4asio5error6detail14netdb_categoryE,comdat
	.align 8
	.type	_ZTIN4asio5error6detail14netdb_categoryE, @object
	.size	_ZTIN4asio5error6detail14netdb_categoryE, 24
_ZTIN4asio5error6detail14netdb_categoryE:
	.quad	_ZTVN10__cxxabiv120__si_class_type_infoE+16
	.quad	_ZTSN4asio5error6detail14netdb_categoryE
	.quad	_ZTINSt3_V214error_categoryE
	.weak	_ZTSN4asio5error6detail17addrinfo_categoryE
	.section	.rodata._ZTSN4asio5error6detail17addrinfo_categoryE,"aG",@progbits,_ZTSN4asio5error6detail17addrinfo_categoryE,comdat
	.align 32
	.type	_ZTSN4asio5error6detail17addrinfo_categoryE, @object
	.size	_ZTSN4asio5error6detail17addrinfo_categoryE, 40
_ZTSN4asio5error6detail17addrinfo_categoryE:
	.string	"N4asio5error6detail17addrinfo_categoryE"
	.weak	_ZTIN4asio5error6detail17addrinfo_categoryE
	.section	.data.rel.ro._ZTIN4asio5error6detail17addrinfo_categoryE,"awG",@progbits,_ZTIN4asio5error6detail17addrinfo_categoryE,comdat
	.align 8
	.type	_ZTIN4asio5error6detail17addrinfo_categoryE, @object
	.size	_ZTIN4asio5error6detail17addrinfo_categoryE, 24
_ZTIN4asio5error6detail17addrinfo_categoryE:
	.quad	_ZTVN10__cxxabiv120__si_class_type_infoE+16
	.quad	_ZTSN4asio5error6detail17addrinfo_categoryE
	.quad	_ZTINSt3_V214error_categoryE
	.weak	_ZTSN4asio5error6detail13misc_categoryE
	.section	.rodata._ZTSN4asio5error6detail13misc_categoryE,"aG",@progbits,_ZTSN4asio5error6detail13misc_categoryE,comdat
	.align 32
	.type	_ZTSN4asio5error6detail13misc_categoryE, @object
	.size	_ZTSN4asio5error6detail13misc_categoryE, 36
_ZTSN4asio5error6detail13misc_categoryE:
	.string	"N4asio5error6detail13misc_categoryE"
	.weak	_ZTIN4asio5error6detail13misc_categoryE
	.section	.data.rel.ro._ZTIN4asio5error6detail13misc_categoryE,"awG",@progbits,_ZTIN4asio5error6detail13misc_categoryE,comdat
	.align 8
	.type	_ZTIN4asio5error6detail13misc_categoryE, @object
	.size	_ZTIN4asio5error6detail13misc_categoryE, 24
_ZTIN4asio5error6detail13misc_categoryE:
	.quad	_ZTVN10__cxxabiv120__si_class_type_infoE+16
	.quad	_ZTSN4asio5error6detail13misc_categoryE
	.quad	_ZTINSt3_V214error_categoryE
	.weak	_ZTSN7asiopal13IAsyncChannelE
	.section	.rodata._ZTSN7asiopal13IAsyncChannelE,"aG",@progbits,_ZTSN7asiopal13IAsyncChannelE,comdat
	.align 16
	.type	_ZTSN7asiopal13IAsyncChannelE, @object
	.size	_ZTSN7asiopal13IAsyncChannelE, 26
_ZTSN7asiopal13IAsyncChannelE:
	.string	"N7asiopal13IAsyncChannelE"
	.weak	_ZTIN7asiopal13IAsyncChannelE
	.section	.data.rel.ro._ZTIN7asiopal13IAsyncChannelE,"awG",@progbits,_ZTIN7asiopal13IAsyncChannelE,comdat
	.align 8
	.type	_ZTIN7asiopal13IAsyncChannelE, @object
	.size	_ZTIN7asiopal13IAsyncChannelE, 56
_ZTIN7asiopal13IAsyncChannelE:
	.quad	_ZTVN10__cxxabiv121__vmi_class_type_infoE+16
	.quad	_ZTSN7asiopal13IAsyncChannelE
	.long	0
	.long	2
	.quad	_ZTISt23enable_shared_from_thisIN7asiopal13IAsyncChannelEE
	.quad	2050
	.quad	_ZTIN7openpal10UncopyableE
	.quad	0
	.weak	_ZTSN7asiopal13SocketChannelE
	.section	.rodata._ZTSN7asiopal13SocketChannelE,"aG",@progbits,_ZTSN7asiopal13SocketChannelE,comdat
	.align 16
	.type	_ZTSN7asiopal13SocketChannelE, @object
	.size	_ZTSN7asiopal13SocketChannelE, 26
_ZTSN7asiopal13SocketChannelE:
	.string	"N7asiopal13SocketChannelE"
	.weak	_ZTIN7asiopal13SocketChannelE
	.section	.data.rel.ro._ZTIN7asiopal13SocketChannelE,"awG",@progbits,_ZTIN7asiopal13SocketChannelE,comdat
	.align 8
	.type	_ZTIN7asiopal13SocketChannelE, @object
	.size	_ZTIN7asiopal13SocketChannelE, 24
_ZTIN7asiopal13SocketChannelE:
	.quad	_ZTVN10__cxxabiv120__si_class_type_infoE+16
	.quad	_ZTSN7asiopal13SocketChannelE
	.quad	_ZTIN7asiopal13IAsyncChannelE
	.weak	_ZTVN4asio6detail15system_categoryE
	.section	.data.rel.ro._ZTVN4asio6detail15system_categoryE,"awG",@progbits,_ZTVN4asio6detail15system_categoryE,comdat
	.align 8
	.type	_ZTVN4asio6detail15system_categoryE, @object
	.size	_ZTVN4asio6detail15system_categoryE, 80
_ZTVN4asio6detail15system_categoryE:
	.quad	0
	.quad	_ZTIN4asio6detail15system_categoryE
	.quad	_ZN4asio6detail15system_categoryD1Ev
	.quad	_ZN4asio6detail15system_categoryD0Ev
	.quad	_ZNK4asio6detail15system_category4nameEv
	.quad	_ZNKSt3_V214error_category10_M_messageB5cxx11Ei
	.quad	_ZNK4asio6detail15system_category7messageB5cxx11Ei
	.quad	_ZNKSt3_V214error_category23default_error_conditionEi
	.quad	_ZNKSt3_V214error_category10equivalentEiRKSt15error_condition
	.quad	_ZNKSt3_V214error_category10equivalentERKSt10error_codei
	.weak	_ZTVN4asio5error6detail14netdb_categoryE
	.section	.data.rel.ro._ZTVN4asio5error6detail14netdb_categoryE,"awG",@progbits,_ZTVN4asio5error6detail14netdb_categoryE,comdat
	.align 8
	.type	_ZTVN4asio5error6detail14netdb_categoryE, @object
	.size	_ZTVN4asio5error6detail14netdb_categoryE, 80
_ZTVN4asio5error6detail14netdb_categoryE:
	.quad	0
	.quad	_ZTIN4asio5error6detail14netdb_categoryE
	.quad	_ZN4asio5error6detail14netdb_categoryD1Ev
	.quad	_ZN4asio5error6detail14netdb_categoryD0Ev
	.quad	_ZNK4asio5error6detail14netdb_category4nameEv
	.quad	_ZNKSt3_V214error_category10_M_messageB5cxx11Ei
	.quad	_ZNK4asio5error6detail14netdb_category7messageB5cxx11Ei
	.quad	_ZNKSt3_V214error_category23default_error_conditionEi
	.quad	_ZNKSt3_V214error_category10equivalentEiRKSt15error_condition
	.quad	_ZNKSt3_V214error_category10equivalentERKSt10error_codei
	.weak	_ZTVN4asio5error6detail17addrinfo_categoryE
	.section	.data.rel.ro._ZTVN4asio5error6detail17addrinfo_categoryE,"awG",@progbits,_ZTVN4asio5error6detail17addrinfo_categoryE,comdat
	.align 8
	.type	_ZTVN4asio5error6detail17addrinfo_categoryE, @object
	.size	_ZTVN4asio5error6detail17addrinfo_categoryE, 80
_ZTVN4asio5error6detail17addrinfo_categoryE:
	.quad	0
	.quad	_ZTIN4asio5error6detail17addrinfo_categoryE
	.quad	_ZN4asio5error6detail17addrinfo_categoryD1Ev
	.quad	_ZN4asio5error6detail17addrinfo_categoryD0Ev
	.quad	_ZNK4asio5error6detail17addrinfo_category4nameEv
	.quad	_ZNKSt3_V214error_category10_M_messageB5cxx11Ei
	.quad	_ZNK4asio5error6detail17addrinfo_category7messageB5cxx11Ei
	.quad	_ZNKSt3_V214error_category23default_error_conditionEi
	.quad	_ZNKSt3_V214error_category10equivalentEiRKSt15error_condition
	.quad	_ZNKSt3_V214error_category10equivalentERKSt10error_codei
	.weak	_ZTVN4asio5error6detail13misc_categoryE
	.section	.data.rel.ro._ZTVN4asio5error6detail13misc_categoryE,"awG",@progbits,_ZTVN4asio5error6detail13misc_categoryE,comdat
	.align 8
	.type	_ZTVN4asio5error6detail13misc_categoryE, @object
	.size	_ZTVN4asio5error6detail13misc_categoryE, 80
_ZTVN4asio5error6detail13misc_categoryE:
	.quad	0
	.quad	_ZTIN4asio5error6detail13misc_categoryE
	.quad	_ZN4asio5error6detail13misc_categoryD1Ev
	.quad	_ZN4asio5error6detail13misc_categoryD0Ev
	.quad	_ZNK4asio5error6detail13misc_category4nameEv
	.quad	_ZNKSt3_V214error_category10_M_messageB5cxx11Ei
	.quad	_ZNK4asio5error6detail13misc_category7messageB5cxx11Ei
	.quad	_ZNKSt3_V214error_category23default_error_conditionEi
	.quad	_ZNKSt3_V214error_category10equivalentEiRKSt15error_condition
	.quad	_ZNKSt3_V214error_category10equivalentERKSt10error_codei
	.weak	_ZTVN7asiopal13IAsyncChannelE
	.section	.data.rel.ro._ZTVN7asiopal13IAsyncChannelE,"awG",@progbits,_ZTVN7asiopal13IAsyncChannelE,comdat
	.align 8
	.type	_ZTVN7asiopal13IAsyncChannelE, @object
	.size	_ZTVN7asiopal13IAsyncChannelE, 56
_ZTVN7asiopal13IAsyncChannelE:
	.quad	0
	.quad	_ZTIN7asiopal13IAsyncChannelE
	.quad	0
	.quad	0
	.quad	__cxa_pure_virtual
	.quad	__cxa_pure_virtual
	.quad	__cxa_pure_virtual
	.weak	_ZTVN7asiopal13SocketChannelE
	.section	.data.rel.ro._ZTVN7asiopal13SocketChannelE,"awG",@progbits,_ZTVN7asiopal13SocketChannelE,comdat
	.align 8
	.type	_ZTVN7asiopal13SocketChannelE, @object
	.size	_ZTVN7asiopal13SocketChannelE, 56
_ZTVN7asiopal13SocketChannelE:
	.quad	0
	.quad	_ZTIN7asiopal13SocketChannelE
	.quad	_ZN7asiopal13SocketChannelD1Ev
	.quad	_ZN7asiopal13SocketChannelD0Ev
	.quad	_ZN7asiopal13SocketChannel13BeginReadImplEN7openpal6WSliceE
	.quad	_ZN7asiopal13SocketChannel14BeginWriteImplERKN7openpal6RSliceE
	.quad	_ZN7asiopal13SocketChannel12ShutdownImplEv
	.weak	_ZN4asio6detail15keyword_tss_ptrINS0_10call_stackINS0_14strand_service11strand_implEhE7contextEE6value_E
	.section	.tbss._ZN4asio6detail15keyword_tss_ptrINS0_10call_stackINS0_14strand_service11strand_implEhE7contextEE6value_E,"awTG",@nobits,_ZN4asio6detail15keyword_tss_ptrINS0_10call_stackINS0_14strand_service11strand_implEhE7contextEE6value_E,comdat
	.align 8
	.type	_ZN4asio6detail15keyword_tss_ptrINS0_10call_stackINS0_14strand_service11strand_implEhE7contextEE6value_E, @gnu_unique_object
	.size	_ZN4asio6detail15keyword_tss_ptrINS0_10call_stackINS0_14strand_service11strand_implEhE7contextEE6value_E, 8
_ZN4asio6detail15keyword_tss_ptrINS0_10call_stackINS0_14strand_service11strand_implEhE7contextEE6value_E:
	.zero	8
	.weak	_ZGVZN4asio5error17get_misc_categoryEvE8instance
	.section	.bss._ZGVZN4asio5error17get_misc_categoryEvE8instance,"awG",@nobits,_ZGVZN4asio5error17get_misc_categoryEvE8instance,comdat
	.align 8
	.type	_ZGVZN4asio5error17get_misc_categoryEvE8instance, @gnu_unique_object
	.size	_ZGVZN4asio5error17get_misc_categoryEvE8instance, 8
_ZGVZN4asio5error17get_misc_categoryEvE8instance:
	.zero	8
	.weak	_ZZN4asio5error17get_misc_categoryEvE8instance
	.section	.data.rel._ZZN4asio5error17get_misc_categoryEvE8instance,"awG",@progbits,_ZZN4asio5error17get_misc_categoryEvE8instance,comdat
	.align 8
	.type	_ZZN4asio5error17get_misc_categoryEvE8instance, @gnu_unique_object
	.size	_ZZN4asio5error17get_misc_categoryEvE8instance, 8
_ZZN4asio5error17get_misc_categoryEvE8instance:
	.quad	_ZTVN4asio5error6detail13misc_categoryE+16
	.weak	_ZGVZN4asio5error21get_addrinfo_categoryEvE8instance
	.section	.bss._ZGVZN4asio5error21get_addrinfo_categoryEvE8instance,"awG",@nobits,_ZGVZN4asio5error21get_addrinfo_categoryEvE8instance,comdat
	.align 8
	.type	_ZGVZN4asio5error21get_addrinfo_categoryEvE8instance, @gnu_unique_object
	.size	_ZGVZN4asio5error21get_addrinfo_categoryEvE8instance, 8
_ZGVZN4asio5error21get_addrinfo_categoryEvE8instance:
	.zero	8
	.weak	_ZZN4asio5error21get_addrinfo_categoryEvE8instance
	.section	.data.rel._ZZN4asio5error21get_addrinfo_categoryEvE8instance,"awG",@progbits,_ZZN4asio5error21get_addrinfo_categoryEvE8instance,comdat
	.align 8
	.type	_ZZN4asio5error21get_addrinfo_categoryEvE8instance, @gnu_unique_object
	.size	_ZZN4asio5error21get_addrinfo_categoryEvE8instance, 8
_ZZN4asio5error21get_addrinfo_categoryEvE8instance:
	.quad	_ZTVN4asio5error6detail17addrinfo_categoryE+16
	.weak	_ZGVZN4asio5error18get_netdb_categoryEvE8instance
	.section	.bss._ZGVZN4asio5error18get_netdb_categoryEvE8instance,"awG",@nobits,_ZGVZN4asio5error18get_netdb_categoryEvE8instance,comdat
	.align 8
	.type	_ZGVZN4asio5error18get_netdb_categoryEvE8instance, @gnu_unique_object
	.size	_ZGVZN4asio5error18get_netdb_categoryEvE8instance, 8
_ZGVZN4asio5error18get_netdb_categoryEvE8instance:
	.zero	8
	.weak	_ZZN4asio5error18get_netdb_categoryEvE8instance
	.section	.data.rel._ZZN4asio5error18get_netdb_categoryEvE8instance,"awG",@progbits,_ZZN4asio5error18get_netdb_categoryEvE8instance,comdat
	.align 8
	.type	_ZZN4asio5error18get_netdb_categoryEvE8instance, @gnu_unique_object
	.size	_ZZN4asio5error18get_netdb_categoryEvE8instance, 8
_ZZN4asio5error18get_netdb_categoryEvE8instance:
	.quad	_ZTVN4asio5error6detail14netdb_categoryE+16
	.weak	_ZGVZN4asio15system_categoryEvE8instance
	.section	.bss._ZGVZN4asio15system_categoryEvE8instance,"awG",@nobits,_ZGVZN4asio15system_categoryEvE8instance,comdat
	.align 8
	.type	_ZGVZN4asio15system_categoryEvE8instance, @gnu_unique_object
	.size	_ZGVZN4asio15system_categoryEvE8instance, 8
_ZGVZN4asio15system_categoryEvE8instance:
	.zero	8
	.weak	_ZZN4asio15system_categoryEvE8instance
	.section	.data.rel._ZZN4asio15system_categoryEvE8instance,"awG",@progbits,_ZZN4asio15system_categoryEvE8instance,comdat
	.align 8
	.type	_ZZN4asio15system_categoryEvE8instance, @gnu_unique_object
	.size	_ZZN4asio15system_categoryEvE8instance, 8
_ZZN4asio15system_categoryEvE8instance:
	.quad	_ZTVN4asio6detail15system_categoryE+16
	.weak	_ZN4asio6detail15keyword_tss_ptrINS0_10call_stackINS0_15task_io_serviceENS0_27task_io_service_thread_infoEE7contextEE6value_E
	.section	.tbss._ZN4asio6detail15keyword_tss_ptrINS0_10call_stackINS0_15task_io_serviceENS0_27task_io_service_thread_infoEE7contextEE6value_E,"awTG",@nobits,_ZN4asio6detail15keyword_tss_ptrINS0_10call_stackINS0_15task_io_serviceENS0_27task_io_service_thread_infoEE7contextEE6value_E,comdat
	.align 8
	.type	_ZN4asio6detail15keyword_tss_ptrINS0_10call_stackINS0_15task_io_serviceENS0_27task_io_service_thread_infoEE7contextEE6value_E, @gnu_unique_object
