	.file	"TCPClient.cpp"
	.text
	.section	.rodata._ZNK4asio6detail15system_category4nameEv.str1.1,"aMS",@progbits,1
.LC0:
	.string	"asio.system"
	.section	.text._ZNK4asio6detail15system_category4nameEv,"axG",@progbits,_ZNK4asio6detail15system_category4nameEv,comdat
	.align 2
	.p2align 4
	.weak	_ZNK4asio6detail15system_category4nameEv
	.type	_ZNK4asio6detail15system_category4nameEv, @function
_ZNK4asio6detail15system_category4nameEv:
.LFB2373:
	.cfi_startproc
	leaq	.LC0(%rip), %rax
	ret
	.cfi_endproc
.LFE2373:
	.size	_ZNK4asio6detail15system_category4nameEv, .-_ZNK4asio6detail15system_category4nameEv
	.section	.rodata._ZNK4asio5error6detail14netdb_category4nameEv.str1.1,"aMS",@progbits,1
.LC1:
	.string	"asio.netdb"
	.section	.text._ZNK4asio5error6detail14netdb_category4nameEv,"axG",@progbits,_ZNK4asio5error6detail14netdb_category4nameEv,comdat
	.align 2
	.p2align 4
	.weak	_ZNK4asio5error6detail14netdb_category4nameEv
	.type	_ZNK4asio5error6detail14netdb_category4nameEv, @function
_ZNK4asio5error6detail14netdb_category4nameEv:
.LFB2413:
	.cfi_startproc
	leaq	.LC1(%rip), %rax
	ret
	.cfi_endproc
.LFE2413:
	.size	_ZNK4asio5error6detail14netdb_category4nameEv, .-_ZNK4asio5error6detail14netdb_category4nameEv
	.section	.rodata._ZNK4asio5error6detail17addrinfo_category4nameEv.str1.1,"aMS",@progbits,1
.LC2:
	.string	"asio.addrinfo"
	.section	.text._ZNK4asio5error6detail17addrinfo_category4nameEv,"axG",@progbits,_ZNK4asio5error6detail17addrinfo_category4nameEv,comdat
	.align 2
	.p2align 4
	.weak	_ZNK4asio5error6detail17addrinfo_category4nameEv
	.type	_ZNK4asio5error6detail17addrinfo_category4nameEv, @function
_ZNK4asio5error6detail17addrinfo_category4nameEv:
.LFB2419:
	.cfi_startproc
	leaq	.LC2(%rip), %rax
	ret
	.cfi_endproc
.LFE2419:
	.size	_ZNK4asio5error6detail17addrinfo_category4nameEv, .-_ZNK4asio5error6detail17addrinfo_category4nameEv
	.section	.rodata._ZNK4asio5error6detail13misc_category4nameEv.str1.1,"aMS",@progbits,1
.LC3:
	.string	"asio.misc"
	.section	.text._ZNK4asio5error6detail13misc_category4nameEv,"axG",@progbits,_ZNK4asio5error6detail13misc_category4nameEv,comdat
	.align 2
	.p2align 4
	.weak	_ZNK4asio5error6detail13misc_category4nameEv
	.type	_ZNK4asio5error6detail13misc_category4nameEv, @function
_ZNK4asio5error6detail13misc_category4nameEv:
.LFB2425:
	.cfi_startproc
	leaq	.LC3(%rip), %rax
	ret
	.cfi_endproc
.LFE2425:
	.size	_ZNK4asio5error6detail13misc_category4nameEv, .-_ZNK4asio5error6detail13misc_category4nameEv
	.section	.text._ZN4asio10io_service7service12fork_serviceENS0_10fork_eventE,"axG",@progbits,_ZN4asio10io_service7service12fork_serviceENS0_10fork_eventE,comdat
	.align 2
	.p2align 4
	.weak	_ZN4asio10io_service7service12fork_serviceENS0_10fork_eventE
	.type	_ZN4asio10io_service7service12fork_serviceENS0_10fork_eventE, @function
_ZN4asio10io_service7service12fork_serviceENS0_10fork_eventE:
.LFB3405:
	.cfi_startproc
	ret
	.cfi_endproc
.LFE3405:
	.size	_ZN4asio10io_service7service12fork_serviceENS0_10fork_eventE, .-_ZN4asio10io_service7service12fork_serviceENS0_10fork_eventE
	.section	.text._ZNSt15_Sp_counted_ptrIPSt6vectorIN4asio2ip20basic_resolver_entryINS2_3tcpEEESaIS5_EELN9__gnu_cxx12_Lock_policyE2EED2Ev,"axG",@progbits,_ZNSt15_Sp_counted_ptrIPSt6vectorIN4asio2ip20basic_resolver_entryINS2_3tcpEEESaIS5_EELN9__gnu_cxx12_Lock_policyE2EED5Ev,comdat
	.align 2
	.p2align 4
	.weak	_ZNSt15_Sp_counted_ptrIPSt6vectorIN4asio2ip20basic_resolver_entryINS2_3tcpEEESaIS5_EELN9__gnu_cxx12_Lock_policyE2EED2Ev
	.type	_ZNSt15_Sp_counted_ptrIPSt6vectorIN4asio2ip20basic_resolver_entryINS2_3tcpEEESaIS5_EELN9__gnu_cxx12_Lock_policyE2EED2Ev, @function
_ZNSt15_Sp_counted_ptrIPSt6vectorIN4asio2ip20basic_resolver_entryINS2_3tcpEEESaIS5_EELN9__gnu_cxx12_Lock_policyE2EED2Ev:
.LFB10134:
	.cfi_startproc
	ret
	.cfi_endproc
.LFE10134:
	.size	_ZNSt15_Sp_counted_ptrIPSt6vectorIN4asio2ip20basic_resolver_entryINS2_3tcpEEESaIS5_EELN9__gnu_cxx12_Lock_policyE2EED2Ev, .-_ZNSt15_Sp_counted_ptrIPSt6vectorIN4asio2ip20basic_resolver_entryINS2_3tcpEEESaIS5_EELN9__gnu_cxx12_Lock_policyE2EED2Ev
	.weak	_ZNSt15_Sp_counted_ptrIPSt6vectorIN4asio2ip20basic_resolver_entryINS2_3tcpEEESaIS5_EELN9__gnu_cxx12_Lock_policyE2EED1Ev
	.set	_ZNSt15_Sp_counted_ptrIPSt6vectorIN4asio2ip20basic_resolver_entryINS2_3tcpEEESaIS5_EELN9__gnu_cxx12_Lock_policyE2EED1Ev,_ZNSt15_Sp_counted_ptrIPSt6vectorIN4asio2ip20basic_resolver_entryINS2_3tcpEEESaIS5_EELN9__gnu_cxx12_Lock_policyE2EED2Ev
	.section	.text._ZN4asio6detail12posix_thread4funcINS0_21resolver_service_base22work_io_service_runnerEED2Ev,"axG",@progbits,_ZN4asio6detail12posix_thread4funcINS0_21resolver_service_base22work_io_service_runnerEED5Ev,comdat
	.align 2
	.p2align 4
	.weak	_ZN4asio6detail12posix_thread4funcINS0_21resolver_service_base22work_io_service_runnerEED2Ev
	.type	_ZN4asio6detail12posix_thread4funcINS0_21resolver_service_base22work_io_service_runnerEED2Ev, @function
_ZN4asio6detail12posix_thread4funcINS0_21resolver_service_base22work_io_service_runnerEED2Ev:
.LFB10138:
	.cfi_startproc
	ret
	.cfi_endproc
.LFE10138:
	.size	_ZN4asio6detail12posix_thread4funcINS0_21resolver_service_base22work_io_service_runnerEED2Ev, .-_ZN4asio6detail12posix_thread4funcINS0_21resolver_service_base22work_io_service_runnerEED2Ev
	.weak	_ZN4asio6detail12posix_thread4funcINS0_21resolver_service_base22work_io_service_runnerEED1Ev
	.set	_ZN4asio6detail12posix_thread4funcINS0_21resolver_service_base22work_io_service_runnerEED1Ev,_ZN4asio6detail12posix_thread4funcINS0_21resolver_service_base22work_io_service_runnerEED2Ev
	.section	.text._ZN4asio21stream_socket_serviceINS_2ip3tcpEED2Ev,"axG",@progbits,_ZN4asio21stream_socket_serviceINS_2ip3tcpEED5Ev,comdat
	.align 2
	.p2align 4
	.weak	_ZN4asio21stream_socket_serviceINS_2ip3tcpEED2Ev
	.type	_ZN4asio21stream_socket_serviceINS_2ip3tcpEED2Ev, @function
_ZN4asio21stream_socket_serviceINS_2ip3tcpEED2Ev:
.LFB10142:
	.cfi_startproc
	ret
	.cfi_endproc
.LFE10142:
	.size	_ZN4asio21stream_socket_serviceINS_2ip3tcpEED2Ev, .-_ZN4asio21stream_socket_serviceINS_2ip3tcpEED2Ev
	.weak	_ZN4asio21stream_socket_serviceINS_2ip3tcpEED1Ev
	.set	_ZN4asio21stream_socket_serviceINS_2ip3tcpEED1Ev,_ZN4asio21stream_socket_serviceINS_2ip3tcpEED2Ev
	.section	.text._ZN4asio6detail7tss_ptrINS0_10call_stackINS0_15task_io_serviceENS0_27task_io_service_thread_infoEE7contextEED2Ev,"axG",@progbits,_ZN4asio6detail7tss_ptrINS0_10call_stackINS0_15task_io_serviceENS0_27task_io_service_thread_infoEE7contextEED5Ev,comdat
	.align 2
	.p2align 4
	.weak	_ZN4asio6detail7tss_ptrINS0_10call_stackINS0_15task_io_serviceENS0_27task_io_service_thread_infoEE7contextEED2Ev
	.type	_ZN4asio6detail7tss_ptrINS0_10call_stackINS0_15task_io_serviceENS0_27task_io_service_thread_infoEE7contextEED2Ev, @function
_ZN4asio6detail7tss_ptrINS0_10call_stackINS0_15task_io_serviceENS0_27task_io_service_thread_infoEE7contextEED2Ev:
.LFB10219:
	.cfi_startproc
	ret
	.cfi_endproc
.LFE10219:
	.size	_ZN4asio6detail7tss_ptrINS0_10call_stackINS0_15task_io_serviceENS0_27task_io_service_thread_infoEE7contextEED2Ev, .-_ZN4asio6detail7tss_ptrINS0_10call_stackINS0_15task_io_serviceENS0_27task_io_service_thread_infoEE7contextEED2Ev
	.weak	_ZN4asio6detail7tss_ptrINS0_10call_stackINS0_15task_io_serviceENS0_27task_io_service_thread_infoEE7contextEED1Ev
	.set	_ZN4asio6detail7tss_ptrINS0_10call_stackINS0_15task_io_serviceENS0_27task_io_service_thread_infoEE7contextEED1Ev,_ZN4asio6detail7tss_ptrINS0_10call_stackINS0_15task_io_serviceENS0_27task_io_service_thread_infoEE7contextEED2Ev
	.section	.text._ZN4asio6detail10service_idINS0_13epoll_reactorEED2Ev,"axG",@progbits,_ZN4asio6detail10service_idINS0_13epoll_reactorEED5Ev,comdat
	.align 2
	.p2align 4
	.weak	_ZN4asio6detail10service_idINS0_13epoll_reactorEED2Ev
	.type	_ZN4asio6detail10service_idINS0_13epoll_reactorEED2Ev, @function
_ZN4asio6detail10service_idINS0_13epoll_reactorEED2Ev:
.LFB10222:
	.cfi_startproc
	ret
	.cfi_endproc
.LFE10222:
	.size	_ZN4asio6detail10service_idINS0_13epoll_reactorEED2Ev, .-_ZN4asio6detail10service_idINS0_13epoll_reactorEED2Ev
	.weak	_ZN4asio6detail10service_idINS0_13epoll_reactorEED1Ev
	.set	_ZN4asio6detail10service_idINS0_13epoll_reactorEED1Ev,_ZN4asio6detail10service_idINS0_13epoll_reactorEED2Ev
	.section	.text._ZN4asio6detail10service_idINS0_15task_io_serviceEED2Ev,"axG",@progbits,_ZN4asio6detail10service_idINS0_15task_io_serviceEED5Ev,comdat
	.align 2
	.p2align 4
	.weak	_ZN4asio6detail10service_idINS0_15task_io_serviceEED2Ev
	.type	_ZN4asio6detail10service_idINS0_15task_io_serviceEED2Ev, @function
_ZN4asio6detail10service_idINS0_15task_io_serviceEED2Ev:
.LFB10225:
	.cfi_startproc
	ret
	.cfi_endproc
.LFE10225:
	.size	_ZN4asio6detail10service_idINS0_15task_io_serviceEED2Ev, .-_ZN4asio6detail10service_idINS0_15task_io_serviceEED2Ev
	.weak	_ZN4asio6detail10service_idINS0_15task_io_serviceEED1Ev
	.set	_ZN4asio6detail10service_idINS0_15task_io_serviceEED1Ev,_ZN4asio6detail10service_idINS0_15task_io_serviceEED2Ev
	.section	.text._ZN4asio6detail7tss_ptrINS0_10call_stackINS0_14strand_service11strand_implEhE7contextEED2Ev,"axG",@progbits,_ZN4asio6detail7tss_ptrINS0_10call_stackINS0_14strand_service11strand_implEhE7contextEED5Ev,comdat
	.align 2
	.p2align 4
	.weak	_ZN4asio6detail7tss_ptrINS0_10call_stackINS0_14strand_service11strand_implEhE7contextEED2Ev
	.type	_ZN4asio6detail7tss_ptrINS0_10call_stackINS0_14strand_service11strand_implEhE7contextEED2Ev, @function
_ZN4asio6detail7tss_ptrINS0_10call_stackINS0_14strand_service11strand_implEhE7contextEED2Ev:
.LFB10228:
	.cfi_startproc
	ret
	.cfi_endproc
.LFE10228:
	.size	_ZN4asio6detail7tss_ptrINS0_10call_stackINS0_14strand_service11strand_implEhE7contextEED2Ev, .-_ZN4asio6detail7tss_ptrINS0_10call_stackINS0_14strand_service11strand_implEhE7contextEED2Ev
	.weak	_ZN4asio6detail7tss_ptrINS0_10call_stackINS0_14strand_service11strand_implEhE7contextEED1Ev
	.set	_ZN4asio6detail7tss_ptrINS0_10call_stackINS0_14strand_service11strand_implEhE7contextEED1Ev,_ZN4asio6detail7tss_ptrINS0_10call_stackINS0_14strand_service11strand_implEhE7contextEED2Ev
	.section	.text._ZN4asio6detail10service_idINS0_14strand_serviceEED2Ev,"axG",@progbits,_ZN4asio6detail10service_idINS0_14strand_serviceEED5Ev,comdat
	.align 2
	.p2align 4
	.weak	_ZN4asio6detail10service_idINS0_14strand_serviceEED2Ev
	.type	_ZN4asio6detail10service_idINS0_14strand_serviceEED2Ev, @function
_ZN4asio6detail10service_idINS0_14strand_serviceEED2Ev:
.LFB10231:
	.cfi_startproc
	ret
	.cfi_endproc
.LFE10231:
	.size	_ZN4asio6detail10service_idINS0_14strand_serviceEED2Ev, .-_ZN4asio6detail10service_idINS0_14strand_serviceEED2Ev
	.weak	_ZN4asio6detail10service_idINS0_14strand_serviceEED1Ev
	.set	_ZN4asio6detail10service_idINS0_14strand_serviceEED1Ev,_ZN4asio6detail10service_idINS0_14strand_serviceEED2Ev
	.section	.text._ZN4asio6detail10service_idINS_2ip16resolver_serviceINS2_3tcpEEEED2Ev,"axG",@progbits,_ZN4asio6detail10service_idINS_2ip16resolver_serviceINS2_3tcpEEEED5Ev,comdat
	.align 2
	.p2align 4
	.weak	_ZN4asio6detail10service_idINS_2ip16resolver_serviceINS2_3tcpEEEED2Ev
	.type	_ZN4asio6detail10service_idINS_2ip16resolver_serviceINS2_3tcpEEEED2Ev, @function
_ZN4asio6detail10service_idINS_2ip16resolver_serviceINS2_3tcpEEEED2Ev:
.LFB10234:
	.cfi_startproc
	ret
	.cfi_endproc
.LFE10234:
	.size	_ZN4asio6detail10service_idINS_2ip16resolver_serviceINS2_3tcpEEEED2Ev, .-_ZN4asio6detail10service_idINS_2ip16resolver_serviceINS2_3tcpEEEED2Ev
	.weak	_ZN4asio6detail10service_idINS_2ip16resolver_serviceINS2_3tcpEEEED1Ev
	.set	_ZN4asio6detail10service_idINS_2ip16resolver_serviceINS2_3tcpEEEED1Ev,_ZN4asio6detail10service_idINS_2ip16resolver_serviceINS2_3tcpEEEED2Ev
	.section	.text._ZN4asio6detail10service_idINS_21stream_socket_serviceINS_2ip3tcpEEEED2Ev,"axG",@progbits,_ZN4asio6detail10service_idINS_21stream_socket_serviceINS_2ip3tcpEEEED5Ev,comdat
	.align 2
	.p2align 4
	.weak	_ZN4asio6detail10service_idINS_21stream_socket_serviceINS_2ip3tcpEEEED2Ev
	.type	_ZN4asio6detail10service_idINS_21stream_socket_serviceINS_2ip3tcpEEEED2Ev, @function
_ZN4asio6detail10service_idINS_21stream_socket_serviceINS_2ip3tcpEEEED2Ev:
.LFB10237:
	.cfi_startproc
	ret
	.cfi_endproc
.LFE10237:
	.size	_ZN4asio6detail10service_idINS_21stream_socket_serviceINS_2ip3tcpEEEED2Ev, .-_ZN4asio6detail10service_idINS_21stream_socket_serviceINS_2ip3tcpEEEED2Ev
	.weak	_ZN4asio6detail10service_idINS_21stream_socket_serviceINS_2ip3tcpEEEED1Ev
	.set	_ZN4asio6detail10service_idINS_21stream_socket_serviceINS_2ip3tcpEEEED1Ev,_ZN4asio6detail10service_idINS_21stream_socket_serviceINS_2ip3tcpEEEED2Ev
	.section	.text._ZNSt15_Sp_counted_ptrIPSt6vectorIN4asio2ip20basic_resolver_entryINS2_3tcpEEESaIS5_EELN9__gnu_cxx12_Lock_policyE2EE14_M_get_deleterERKSt9type_info,"axG",@progbits,_ZNSt15_Sp_counted_ptrIPSt6vectorIN4asio2ip20basic_resolver_entryINS2_3tcpEEESaIS5_EELN9__gnu_cxx12_Lock_policyE2EE14_M_get_deleterERKSt9type_info,comdat
	.align 2
	.p2align 4
	.weak	_ZNSt15_Sp_counted_ptrIPSt6vectorIN4asio2ip20basic_resolver_entryINS2_3tcpEEESaIS5_EELN9__gnu_cxx12_Lock_policyE2EE14_M_get_deleterERKSt9type_info
	.type	_ZNSt15_Sp_counted_ptrIPSt6vectorIN4asio2ip20basic_resolver_entryINS2_3tcpEEESaIS5_EELN9__gnu_cxx12_Lock_policyE2EE14_M_get_deleterERKSt9type_info, @function
_ZNSt15_Sp_counted_ptrIPSt6vectorIN4asio2ip20basic_resolver_entryINS2_3tcpEEESaIS5_EELN9__gnu_cxx12_Lock_policyE2EE14_M_get_deleterERKSt9type_info:
.LFB10241:
	.cfi_startproc
	xorl	%eax, %eax
	ret
	.cfi_endproc
.LFE10241:
	.size	_ZNSt15_Sp_counted_ptrIPSt6vectorIN4asio2ip20basic_resolver_entryINS2_3tcpEEESaIS5_EELN9__gnu_cxx12_Lock_policyE2EE14_M_get_deleterERKSt9type_info, .-_ZNSt15_Sp_counted_ptrIPSt6vectorIN4asio2ip20basic_resolver_entryINS2_3tcpEEESaIS5_EELN9__gnu_cxx12_Lock_policyE2EE14_M_get_deleterERKSt9type_info
	.section	.text._ZNSt19_Sp_counted_deleterIPvN4asio6detail10socket_ops12noop_deleterESaIvELN9__gnu_cxx12_Lock_policyE2EED2Ev,"axG",@progbits,_ZNSt19_Sp_counted_deleterIPvN4asio6detail10socket_ops12noop_deleterESaIvELN9__gnu_cxx12_Lock_policyE2EED5Ev,comdat
	.align 2
	.p2align 4
	.weak	_ZNSt19_Sp_counted_deleterIPvN4asio6detail10socket_ops12noop_deleterESaIvELN9__gnu_cxx12_Lock_policyE2EED2Ev
	.type	_ZNSt19_Sp_counted_deleterIPvN4asio6detail10socket_ops12noop_deleterESaIvELN9__gnu_cxx12_Lock_policyE2EED2Ev, @function
_ZNSt19_Sp_counted_deleterIPvN4asio6detail10socket_ops12noop_deleterESaIvELN9__gnu_cxx12_Lock_policyE2EED2Ev:
.LFB10278:
	.cfi_startproc
	ret
	.cfi_endproc
.LFE10278:
	.size	_ZNSt19_Sp_counted_deleterIPvN4asio6detail10socket_ops12noop_deleterESaIvELN9__gnu_cxx12_Lock_policyE2EED2Ev, .-_ZNSt19_Sp_counted_deleterIPvN4asio6detail10socket_ops12noop_deleterESaIvELN9__gnu_cxx12_Lock_policyE2EED2Ev
	.weak	_ZNSt19_Sp_counted_deleterIPvN4asio6detail10socket_ops12noop_deleterESaIvELN9__gnu_cxx12_Lock_policyE2EED1Ev
	.set	_ZNSt19_Sp_counted_deleterIPvN4asio6detail10socket_ops12noop_deleterESaIvELN9__gnu_cxx12_Lock_policyE2EED1Ev,_ZNSt19_Sp_counted_deleterIPvN4asio6detail10socket_ops12noop_deleterESaIvELN9__gnu_cxx12_Lock_policyE2EED2Ev
	.section	.text._ZNSt19_Sp_counted_deleterIPvN4asio6detail10socket_ops12noop_deleterESaIvELN9__gnu_cxx12_Lock_policyE2EE10_M_disposeEv,"axG",@progbits,_ZNSt19_Sp_counted_deleterIPvN4asio6detail10socket_ops12noop_deleterESaIvELN9__gnu_cxx12_Lock_policyE2EE10_M_disposeEv,comdat
	.align 2
	.p2align 4
	.weak	_ZNSt19_Sp_counted_deleterIPvN4asio6detail10socket_ops12noop_deleterESaIvELN9__gnu_cxx12_Lock_policyE2EE10_M_disposeEv
	.type	_ZNSt19_Sp_counted_deleterIPvN4asio6detail10socket_ops12noop_deleterESaIvELN9__gnu_cxx12_Lock_policyE2EE10_M_disposeEv, @function
_ZNSt19_Sp_counted_deleterIPvN4asio6detail10socket_ops12noop_deleterESaIvELN9__gnu_cxx12_Lock_policyE2EE10_M_disposeEv:
.LFB10281:
	.cfi_startproc
	ret
	.cfi_endproc
.LFE10281:
	.size	_ZNSt19_Sp_counted_deleterIPvN4asio6detail10socket_ops12noop_deleterESaIvELN9__gnu_cxx12_Lock_policyE2EE10_M_disposeEv, .-_ZNSt19_Sp_counted_deleterIPvN4asio6detail10socket_ops12noop_deleterESaIvELN9__gnu_cxx12_Lock_policyE2EE10_M_disposeEv
	.section	.text._ZN4asio21stream_socket_serviceINS_2ip3tcpEE16shutdown_serviceEv,"axG",@progbits,_ZN4asio21stream_socket_serviceINS_2ip3tcpEE16shutdown_serviceEv,comdat
	.align 2
	.p2align 4
	.weak	_ZN4asio21stream_socket_serviceINS_2ip3tcpEE16shutdown_serviceEv
	.type	_ZN4asio21stream_socket_serviceINS_2ip3tcpEE16shutdown_serviceEv, @function
_ZN4asio21stream_socket_serviceINS_2ip3tcpEE16shutdown_serviceEv:
.LFB10285:
	.cfi_startproc
	ret
	.cfi_endproc
.LFE10285:
	.size	_ZN4asio21stream_socket_serviceINS_2ip3tcpEE16shutdown_serviceEv, .-_ZN4asio21stream_socket_serviceINS_2ip3tcpEE16shutdown_serviceEv
	.section	.text._ZN4asio6detail12posix_thread4funcINS0_21resolver_service_base22work_io_service_runnerEED0Ev,"axG",@progbits,_ZN4asio6detail12posix_thread4funcINS0_21resolver_service_base22work_io_service_runnerEED5Ev,comdat
	.align 2
	.p2align 4
	.weak	_ZN4asio6detail12posix_thread4funcINS0_21resolver_service_base22work_io_service_runnerEED0Ev
	.type	_ZN4asio6detail12posix_thread4funcINS0_21resolver_service_base22work_io_service_runnerEED0Ev, @function
_ZN4asio6detail12posix_thread4funcINS0_21resolver_service_base22work_io_service_runnerEED0Ev:
.LFB10140:
	.cfi_startproc
	movl	$16, %esi
	jmp	_ZdlPvm@PLT
	.cfi_endproc
.LFE10140:
	.size	_ZN4asio6detail12posix_thread4funcINS0_21resolver_service_base22work_io_service_runnerEED0Ev, .-_ZN4asio6detail12posix_thread4funcINS0_21resolver_service_base22work_io_service_runnerEED0Ev
	.section	.text._ZNSt15_Sp_counted_ptrIPSt6vectorIN4asio2ip20basic_resolver_entryINS2_3tcpEEESaIS5_EELN9__gnu_cxx12_Lock_policyE2EED0Ev,"axG",@progbits,_ZNSt15_Sp_counted_ptrIPSt6vectorIN4asio2ip20basic_resolver_entryINS2_3tcpEEESaIS5_EELN9__gnu_cxx12_Lock_policyE2EED5Ev,comdat
	.align 2
	.p2align 4
	.weak	_ZNSt15_Sp_counted_ptrIPSt6vectorIN4asio2ip20basic_resolver_entryINS2_3tcpEEESaIS5_EELN9__gnu_cxx12_Lock_policyE2EED0Ev
	.type	_ZNSt15_Sp_counted_ptrIPSt6vectorIN4asio2ip20basic_resolver_entryINS2_3tcpEEESaIS5_EELN9__gnu_cxx12_Lock_policyE2EED0Ev, @function
_ZNSt15_Sp_counted_ptrIPSt6vectorIN4asio2ip20basic_resolver_entryINS2_3tcpEEESaIS5_EELN9__gnu_cxx12_Lock_policyE2EED0Ev:
.LFB10136:
	.cfi_startproc
	movl	$24, %esi
	jmp	_ZdlPvm@PLT
	.cfi_endproc
.LFE10136:
	.size	_ZNSt15_Sp_counted_ptrIPSt6vectorIN4asio2ip20basic_resolver_entryINS2_3tcpEEESaIS5_EELN9__gnu_cxx12_Lock_policyE2EED0Ev, .-_ZNSt15_Sp_counted_ptrIPSt6vectorIN4asio2ip20basic_resolver_entryINS2_3tcpEEESaIS5_EELN9__gnu_cxx12_Lock_policyE2EED0Ev
	.section	.text._ZNSt15_Sp_counted_ptrIPSt6vectorIN4asio2ip20basic_resolver_entryINS2_3tcpEEESaIS5_EELN9__gnu_cxx12_Lock_policyE2EE10_M_destroyEv,"axG",@progbits,_ZNSt15_Sp_counted_ptrIPSt6vectorIN4asio2ip20basic_resolver_entryINS2_3tcpEEESaIS5_EELN9__gnu_cxx12_Lock_policyE2EE10_M_destroyEv,comdat
	.align 2
	.p2align 4
	.weak	_ZNSt15_Sp_counted_ptrIPSt6vectorIN4asio2ip20basic_resolver_entryINS2_3tcpEEESaIS5_EELN9__gnu_cxx12_Lock_policyE2EE10_M_destroyEv
	.type	_ZNSt15_Sp_counted_ptrIPSt6vectorIN4asio2ip20basic_resolver_entryINS2_3tcpEEESaIS5_EELN9__gnu_cxx12_Lock_policyE2EE10_M_destroyEv, @function
_ZNSt15_Sp_counted_ptrIPSt6vectorIN4asio2ip20basic_resolver_entryINS2_3tcpEEESaIS5_EELN9__gnu_cxx12_Lock_policyE2EE10_M_destroyEv:
.LFB10240:
	.cfi_startproc
	movl	$24, %esi
	jmp	_ZdlPvm@PLT
	.cfi_endproc
.LFE10240:
	.size	_ZNSt15_Sp_counted_ptrIPSt6vectorIN4asio2ip20basic_resolver_entryINS2_3tcpEEESaIS5_EELN9__gnu_cxx12_Lock_policyE2EE10_M_destroyEv, .-_ZNSt15_Sp_counted_ptrIPSt6vectorIN4asio2ip20basic_resolver_entryINS2_3tcpEEESaIS5_EELN9__gnu_cxx12_Lock_policyE2EE10_M_destroyEv
	.section	.text._ZNSt19_Sp_counted_deleterIPvN4asio6detail10socket_ops12noop_deleterESaIvELN9__gnu_cxx12_Lock_policyE2EED0Ev,"axG",@progbits,_ZNSt19_Sp_counted_deleterIPvN4asio6detail10socket_ops12noop_deleterESaIvELN9__gnu_cxx12_Lock_policyE2EED5Ev,comdat
	.align 2
	.p2align 4
	.weak	_ZNSt19_Sp_counted_deleterIPvN4asio6detail10socket_ops12noop_deleterESaIvELN9__gnu_cxx12_Lock_policyE2EED0Ev
	.type	_ZNSt19_Sp_counted_deleterIPvN4asio6detail10socket_ops12noop_deleterESaIvELN9__gnu_cxx12_Lock_policyE2EED0Ev, @function
_ZNSt19_Sp_counted_deleterIPvN4asio6detail10socket_ops12noop_deleterESaIvELN9__gnu_cxx12_Lock_policyE2EED0Ev:
.LFB10280:
	.cfi_startproc
	movl	$24, %esi
	jmp	_ZdlPvm@PLT
	.cfi_endproc
.LFE10280:
	.size	_ZNSt19_Sp_counted_deleterIPvN4asio6detail10socket_ops12noop_deleterESaIvELN9__gnu_cxx12_Lock_policyE2EED0Ev, .-_ZNSt19_Sp_counted_deleterIPvN4asio6detail10socket_ops12noop_deleterESaIvELN9__gnu_cxx12_Lock_policyE2EED0Ev
	.section	.text._ZN4asio21stream_socket_serviceINS_2ip3tcpEED0Ev,"axG",@progbits,_ZN4asio21stream_socket_serviceINS_2ip3tcpEED5Ev,comdat
	.align 2
	.p2align 4
	.weak	_ZN4asio21stream_socket_serviceINS_2ip3tcpEED0Ev
	.type	_ZN4asio21stream_socket_serviceINS_2ip3tcpEED0Ev, @function
_ZN4asio21stream_socket_serviceINS_2ip3tcpEED0Ev:
.LFB10144:
	.cfi_startproc
	movl	$48, %esi
	jmp	_ZdlPvm@PLT
	.cfi_endproc
.LFE10144:
	.size	_ZN4asio21stream_socket_serviceINS_2ip3tcpEED0Ev, .-_ZN4asio21stream_socket_serviceINS_2ip3tcpEED0Ev
	.section	.text._ZNSt19_Sp_counted_deleterIPvN4asio6detail10socket_ops12noop_deleterESaIvELN9__gnu_cxx12_Lock_policyE2EE10_M_destroyEv,"axG",@progbits,_ZNSt19_Sp_counted_deleterIPvN4asio6detail10socket_ops12noop_deleterESaIvELN9__gnu_cxx12_Lock_policyE2EE10_M_destroyEv,comdat
	.align 2
	.p2align 4
	.weak	_ZNSt19_Sp_counted_deleterIPvN4asio6detail10socket_ops12noop_deleterESaIvELN9__gnu_cxx12_Lock_policyE2EE10_M_destroyEv
	.type	_ZNSt19_Sp_counted_deleterIPvN4asio6detail10socket_ops12noop_deleterESaIvELN9__gnu_cxx12_Lock_policyE2EE10_M_destroyEv, @function
_ZNSt19_Sp_counted_deleterIPvN4asio6detail10socket_ops12noop_deleterESaIvELN9__gnu_cxx12_Lock_policyE2EE10_M_destroyEv:
.LFB10282:
	.cfi_startproc
	movl	$24, %esi
	jmp	_ZdlPvm@PLT
	.cfi_endproc
.LFE10282:
	.size	_ZNSt19_Sp_counted_deleterIPvN4asio6detail10socket_ops12noop_deleterESaIvELN9__gnu_cxx12_Lock_policyE2EE10_M_destroyEv, .-_ZNSt19_Sp_counted_deleterIPvN4asio6detail10socket_ops12noop_deleterESaIvELN9__gnu_cxx12_Lock_policyE2EE10_M_destroyEv
	.section	.text._ZN4asio6detail15system_categoryD2Ev,"axG",@progbits,_ZN4asio6detail15system_categoryD5Ev,comdat
	.align 2
	.p2align 4
	.weak	_ZN4asio6detail15system_categoryD2Ev
	.type	_ZN4asio6detail15system_categoryD2Ev, @function
_ZN4asio6detail15system_categoryD2Ev:
.LFB10198:
	.cfi_startproc
	movq	_ZTVN4asio6detail15system_categoryE@GOTPCREL(%rip), %rax
	addq	$16, %rax
	movq	%rax, (%rdi)
	jmp	_ZNSt3_V214error_categoryD2Ev@PLT
	.cfi_endproc
.LFE10198:
	.size	_ZN4asio6detail15system_categoryD2Ev, .-_ZN4asio6detail15system_categoryD2Ev
	.weak	_ZN4asio6detail15system_categoryD1Ev
	.set	_ZN4asio6detail15system_categoryD1Ev,_ZN4asio6detail15system_categoryD2Ev
	.section	.text._ZN4asio6detail15system_categoryD0Ev,"axG",@progbits,_ZN4asio6detail15system_categoryD5Ev,comdat
	.align 2
	.p2align 4
	.weak	_ZN4asio6detail15system_categoryD0Ev
	.type	_ZN4asio6detail15system_categoryD0Ev, @function
_ZN4asio6detail15system_categoryD0Ev:
.LFB10200:
	.cfi_startproc
	movq	_ZTVN4asio6detail15system_categoryE@GOTPCREL(%rip), %rax
	pushq	%rbp
	.cfi_def_cfa_offset 16
	.cfi_offset 6, -16
	movq	%rdi, %rbp
	addq	$16, %rax
	movq	%rax, (%rdi)
	call	_ZNSt3_V214error_categoryD2Ev@PLT
	movq	%rbp, %rdi
	movl	$8, %esi
	popq	%rbp
	.cfi_def_cfa_offset 8
	jmp	_ZdlPvm@PLT
	.cfi_endproc
.LFE10200:
	.size	_ZN4asio6detail15system_categoryD0Ev, .-_ZN4asio6detail15system_categoryD0Ev
	.section	.text._ZN4asio5error6detail13misc_categoryD2Ev,"axG",@progbits,_ZN4asio5error6detail13misc_categoryD5Ev,comdat
	.align 2
	.p2align 4
	.weak	_ZN4asio5error6detail13misc_categoryD2Ev
	.type	_ZN4asio5error6detail13misc_categoryD2Ev, @function
_ZN4asio5error6detail13misc_categoryD2Ev:
.LFB10178:
	.cfi_startproc
	movq	_ZTVN4asio5error6detail13misc_categoryE@GOTPCREL(%rip), %rax
	addq	$16, %rax
	movq	%rax, (%rdi)
	jmp	_ZNSt3_V214error_categoryD2Ev@PLT
	.cfi_endproc
.LFE10178:
	.size	_ZN4asio5error6detail13misc_categoryD2Ev, .-_ZN4asio5error6detail13misc_categoryD2Ev
	.weak	_ZN4asio5error6detail13misc_categoryD1Ev
	.set	_ZN4asio5error6detail13misc_categoryD1Ev,_ZN4asio5error6detail13misc_categoryD2Ev
	.section	.text._ZN4asio5error6detail13misc_categoryD0Ev,"axG",@progbits,_ZN4asio5error6detail13misc_categoryD5Ev,comdat
	.align 2
	.p2align 4
	.weak	_ZN4asio5error6detail13misc_categoryD0Ev
	.type	_ZN4asio5error6detail13misc_categoryD0Ev, @function
_ZN4asio5error6detail13misc_categoryD0Ev:
.LFB10180:
	.cfi_startproc
	movq	_ZTVN4asio5error6detail13misc_categoryE@GOTPCREL(%rip), %rax
	pushq	%rbp
	.cfi_def_cfa_offset 16
	.cfi_offset 6, -16
	movq	%rdi, %rbp
	addq	$16, %rax
	movq	%rax, (%rdi)
	call	_ZNSt3_V214error_categoryD2Ev@PLT
	movq	%rbp, %rdi
	movl	$8, %esi
	popq	%rbp
	.cfi_def_cfa_offset 8
	jmp	_ZdlPvm@PLT
	.cfi_endproc
.LFE10180:
	.size	_ZN4asio5error6detail13misc_categoryD0Ev, .-_ZN4asio5error6detail13misc_categoryD0Ev
	.section	.text._ZN4asio5error6detail14netdb_categoryD2Ev,"axG",@progbits,_ZN4asio5error6detail14netdb_categoryD5Ev,comdat
	.align 2
	.p2align 4
	.weak	_ZN4asio5error6detail14netdb_categoryD2Ev
	.type	_ZN4asio5error6detail14netdb_categoryD2Ev, @function
_ZN4asio5error6detail14netdb_categoryD2Ev:
.LFB10186:
	.cfi_startproc
	movq	_ZTVN4asio5error6detail14netdb_categoryE@GOTPCREL(%rip), %rax
	addq	$16, %rax
	movq	%rax, (%rdi)
	jmp	_ZNSt3_V214error_categoryD2Ev@PLT
	.cfi_endproc
.LFE10186:
	.size	_ZN4asio5error6detail14netdb_categoryD2Ev, .-_ZN4asio5error6detail14netdb_categoryD2Ev
	.weak	_ZN4asio5error6detail14netdb_categoryD1Ev
	.set	_ZN4asio5error6detail14netdb_categoryD1Ev,_ZN4asio5error6detail14netdb_categoryD2Ev
	.section	.text._ZN4asio5error6detail14netdb_categoryD0Ev,"axG",@progbits,_ZN4asio5error6detail14netdb_categoryD5Ev,comdat
	.align 2
	.p2align 4
	.weak	_ZN4asio5error6detail14netdb_categoryD0Ev
	.type	_ZN4asio5error6detail14netdb_categoryD0Ev, @function
_ZN4asio5error6detail14netdb_categoryD0Ev:
.LFB10188:
	.cfi_startproc
	movq	_ZTVN4asio5error6detail14netdb_categoryE@GOTPCREL(%rip), %rax
	pushq	%rbp
	.cfi_def_cfa_offset 16
	.cfi_offset 6, -16
	movq	%rdi, %rbp
	addq	$16, %rax
	movq	%rax, (%rdi)
	call	_ZNSt3_V214error_categoryD2Ev@PLT
	movq	%rbp, %rdi
	movl	$8, %esi
	popq	%rbp
	.cfi_def_cfa_offset 8
	jmp	_ZdlPvm@PLT
	.cfi_endproc
.LFE10188:
	.size	_ZN4asio5error6detail14netdb_categoryD0Ev, .-_ZN4asio5error6detail14netdb_categoryD0Ev
	.section	.text._ZN4asio5error6detail17addrinfo_categoryD2Ev,"axG",@progbits,_ZN4asio5error6detail17addrinfo_categoryD5Ev,comdat
	.align 2
	.p2align 4
	.weak	_ZN4asio5error6detail17addrinfo_categoryD2Ev
	.type	_ZN4asio5error6detail17addrinfo_categoryD2Ev, @function
_ZN4asio5error6detail17addrinfo_categoryD2Ev:
.LFB10182:
	.cfi_startproc
	movq	_ZTVN4asio5error6detail17addrinfo_categoryE@GOTPCREL(%rip), %rax
	addq	$16, %rax
	movq	%rax, (%rdi)
	jmp	_ZNSt3_V214error_categoryD2Ev@PLT
	.cfi_endproc
.LFE10182:
	.size	_ZN4asio5error6detail17addrinfo_categoryD2Ev, .-_ZN4asio5error6detail17addrinfo_categoryD2Ev
	.weak	_ZN4asio5error6detail17addrinfo_categoryD1Ev
	.set	_ZN4asio5error6detail17addrinfo_categoryD1Ev,_ZN4asio5error6detail17addrinfo_categoryD2Ev
	.section	.text._ZN4asio5error6detail17addrinfo_categoryD0Ev,"axG",@progbits,_ZN4asio5error6detail17addrinfo_categoryD5Ev,comdat
	.align 2
	.p2align 4
	.weak	_ZN4asio5error6detail17addrinfo_categoryD0Ev
	.type	_ZN4asio5error6detail17addrinfo_categoryD0Ev, @function
_ZN4asio5error6detail17addrinfo_categoryD0Ev:
.LFB10184:
	.cfi_startproc
	movq	_ZTVN4asio5error6detail17addrinfo_categoryE@GOTPCREL(%rip), %rax
	pushq	%rbp
	.cfi_def_cfa_offset 16
	.cfi_offset 6, -16
	movq	%rdi, %rbp
	addq	$16, %rax
	movq	%rax, (%rdi)
	call	_ZNSt3_V214error_categoryD2Ev@PLT
	movq	%rbp, %rdi
	movl	$8, %esi
	popq	%rbp
	.cfi_def_cfa_offset 8
	jmp	_ZdlPvm@PLT
	.cfi_endproc
.LFE10184:
	.size	_ZN4asio5error6detail17addrinfo_categoryD0Ev, .-_ZN4asio5error6detail17addrinfo_categoryD0Ev
	.section	.text._ZN4asio6detail15task_io_service16shutdown_serviceEv,"axG",@progbits,_ZN4asio6detail15task_io_service16shutdown_serviceEv,comdat
	.align 2
	.p2align 4
	.weak	_ZN4asio6detail15task_io_service16shutdown_serviceEv
	.type	_ZN4asio6detail15task_io_service16shutdown_serviceEv, @function
_ZN4asio6detail15task_io_service16shutdown_serviceEv:
.LFB3333:
	.cfi_startproc
	pushq	%r13
	.cfi_def_cfa_offset 16
	.cfi_offset 13, -16
	pushq	%r12
	.cfi_def_cfa_offset 24
	.cfi_offset 12, -24
	pushq	%rbp
	.cfi_def_cfa_offset 32
	.cfi_offset 6, -32
	leaq	48(%rdi), %rbp
	pushq	%rbx
	.cfi_def_cfa_offset 40
	.cfi_offset 3, -40
	movq	%rdi, %rbx
	movq	%rbp, %rdi
	leaq	152(%rbx), %r12
	subq	$40, %rsp
	.cfi_def_cfa_offset 80
	movq	%fs:40, %rax
	movq	%rax, 24(%rsp)
	xorl	%eax, %eax
	call	pthread_mutex_lock@PLT
	movb	$1, 209(%rbx)
	movq	%rbp, %rdi
	call	pthread_mutex_unlock@PLT
.L45:
	movq	192(%rbx), %rbp
	jmp	.L44
	.p2align 4,,10
	.p2align 3
.L41:
	movq	$0, 0(%rbp)
	cmpq	%r12, %rbp
	jne	.L42
.L43:
	movq	%rax, %rbp
.L44:
	testq	%rbp, %rbp
	je	.L40
	movq	0(%rbp), %rax
	movq	%rax, 192(%rbx)
	testq	%rax, %rax
	jne	.L41
	movq	$0, 200(%rbx)
	movq	$0, 0(%rbp)
	cmpq	%r12, %rbp
	je	.L43
.L42:
	movl	$0, (%rsp)
	movq	8(%rbp), %r13
	call	_ZNSt3_V215system_categoryEv@PLT
	movq	%rsp, %rdx
	xorl	%ecx, %ecx
	movq	%rbp, %rsi
	movq	%rax, 8(%rsp)
	xorl	%edi, %edi
	call	*%r13
	jmp	.L45
	.p2align 4,,10
	.p2align 3
.L40:
	movq	$0, 144(%rbx)
	movq	24(%rsp), %rax
	subq	%fs:40, %rax
	jne	.L48
	addq	$40, %rsp
	.cfi_remember_state
	.cfi_def_cfa_offset 40
	popq	%rbx
	.cfi_def_cfa_offset 32
	popq	%rbp
	.cfi_def_cfa_offset 24
	popq	%r12
	.cfi_def_cfa_offset 16
	popq	%r13
	.cfi_def_cfa_offset 8
	ret
.L48:
	.cfi_restore_state
	call	__stack_chk_fail@PLT
	.cfi_endproc
.LFE3333:
	.size	_ZN4asio6detail15task_io_service16shutdown_serviceEv, .-_ZN4asio6detail15task_io_service16shutdown_serviceEv
	.section	.rodata.str1.8,"aMS",@progbits,1
	.align 8
.LC4:
	.string	"basic_string::_M_construct null not valid"
	.text
	.align 2
	.p2align 4
	.type	_ZNSt7__cxx1112basic_stringIcSt11char_traitsIcESaIcEEC2EPKcRKS3_.constprop.0, @function
_ZNSt7__cxx1112basic_stringIcSt11char_traitsIcESaIcEEC2EPKcRKS3_.constprop.0:
.LFB10380:
	.cfi_startproc
	pushq	%r13
	.cfi_def_cfa_offset 16
	.cfi_offset 13, -16
	pushq	%r12
	.cfi_def_cfa_offset 24
	.cfi_offset 12, -24
	leaq	16(%rdi), %r12
	pushq	%rbp
	.cfi_def_cfa_offset 32
	.cfi_offset 6, -32
	pushq	%rbx
	.cfi_def_cfa_offset 40
	.cfi_offset 3, -40
	subq	$24, %rsp
	.cfi_def_cfa_offset 64
	movq	%fs:40, %rax
	movq	%rax, 8(%rsp)
	xorl	%eax, %eax
	movq	%r12, (%rdi)
	testq	%rsi, %rsi
	je	.L50
	movq	%rdi, %rbx
	movq	%rsi, %rdi
	movq	%rsi, %rbp
	call	strlen@PLT
	movq	%rax, (%rsp)
	movq	%rax, %r13
	cmpq	$15, %rax
	ja	.L62
	cmpq	$1, %rax
	jne	.L54
	movzbl	0(%rbp), %edx
	movb	%dl, 16(%rbx)
.L55:
	movq	%rax, 8(%rbx)
	movb	$0, (%r12,%rax)
	movq	8(%rsp), %rax
	subq	%fs:40, %rax
	jne	.L63
	addq	$24, %rsp
	.cfi_remember_state
	.cfi_def_cfa_offset 40
	popq	%rbx
	.cfi_def_cfa_offset 32
	popq	%rbp
	.cfi_def_cfa_offset 24
	popq	%r12
	.cfi_def_cfa_offset 16
	popq	%r13
	.cfi_def_cfa_offset 8
	ret
	.p2align 4,,10
	.p2align 3
.L54:
	.cfi_restore_state
	testq	%rax, %rax
	je	.L55
	jmp	.L53
	.p2align 4,,10
	.p2align 3
.L62:
	movq	%rsp, %rsi
	xorl	%edx, %edx
	movq	%rbx, %rdi
	call	_ZNSt7__cxx1112basic_stringIcSt11char_traitsIcESaIcEE9_M_createERmm@PLT
	movq	%rax, (%rbx)
	movq	%rax, %r12
	movq	(%rsp), %rax
	movq	%rax, 16(%rbx)
.L53:
	movq	%r12, %rdi
	movq	%r13, %rdx
	movq	%rbp, %rsi
	call	memcpy@PLT
	movq	(%rsp), %rax
	movq	(%rbx), %r12
	jmp	.L55
.L63:
	call	__stack_chk_fail@PLT
.L50:
	leaq	.LC4(%rip), %rdi
	call	_ZSt19__throw_logic_errorPKc@PLT
	.cfi_endproc
.LFE10380:
	.size	_ZNSt7__cxx1112basic_stringIcSt11char_traitsIcESaIcEEC2EPKcRKS3_.constprop.0, .-_ZNSt7__cxx1112basic_stringIcSt11char_traitsIcESaIcEEC2EPKcRKS3_.constprop.0
	.section	.text.unlikely,"ax",@progbits
	.type	_ZN4asio6detail15throw_exceptionISt8bad_castEEvRKT_.isra.0, @function
_ZN4asio6detail15throw_exceptionISt8bad_castEEvRKT_.isra.0:
.LFB10371:
	.cfi_startproc
	pushq	%rax
	.cfi_def_cfa_offset 16
	popq	%rax
	.cfi_def_cfa_offset 8
	movl	$8, %edi
	pushq	%rax
	.cfi_def_cfa_offset 16
	call	__cxa_allocate_exception@PLT
	movq	_ZNSt8bad_castD1Ev@GOTPCREL(%rip), %rdx
	movq	_ZTISt8bad_cast@GOTPCREL(%rip), %rsi
	movq	%rax, %rdi
	movq	_ZTVSt8bad_cast@GOTPCREL(%rip), %rax
	addq	$16, %rax
	movq	%rax, (%rdi)
	call	__cxa_throw@PLT
	.cfi_endproc
.LFE10371:
	.size	_ZN4asio6detail15throw_exceptionISt8bad_castEEvRKT_.isra.0, .-_ZN4asio6detail15throw_exceptionISt8bad_castEEvRKT_.isra.0
	.text
	.align 2
	.p2align 4
	.type	_ZNSt7__cxx1112basic_stringIcSt11char_traitsIcESaIcEE12_M_constructIPcEEvT_S7_St20forward_iterator_tag.constprop.0, @function
_ZNSt7__cxx1112basic_stringIcSt11char_traitsIcESaIcEE12_M_constructIPcEEvT_S7_St20forward_iterator_tag.constprop.0:
.LFB10382:
	.cfi_startproc
	pushq	%r12
	.cfi_def_cfa_offset 16
	.cfi_offset 12, -16
	movq	%rdx, %r12
	pushq	%rbp
	.cfi_def_cfa_offset 24
	.cfi_offset 6, -24
	movq	%rsi, %rbp
	pushq	%rbx
	.cfi_def_cfa_offset 32
	.cfi_offset 3, -32
	movq	%rdi, %rbx
	subq	$16, %rsp
	.cfi_def_cfa_offset 48
	movq	%fs:40, %rax
	movq	%rax, 8(%rsp)
	xorl	%eax, %eax
	testq	%rdx, %rdx
	je	.L67
	testq	%rsi, %rsi
	je	.L83
.L67:
	subq	%rbp, %r12
	movq	%r12, (%rsp)
	cmpq	$15, %r12
	ja	.L84
	movq	(%rbx), %rdi
	cmpq	$1, %r12
	jne	.L70
	movzbl	0(%rbp), %eax
	movb	%al, (%rdi)
	movq	(%rsp), %r12
	movq	(%rbx), %rdi
.L71:
	movq	%r12, 8(%rbx)
	movb	$0, (%rdi,%r12)
	movq	8(%rsp), %rax
	subq	%fs:40, %rax
	jne	.L85
	addq	$16, %rsp
	.cfi_remember_state
	.cfi_def_cfa_offset 32
	popq	%rbx
	.cfi_def_cfa_offset 24
	popq	%rbp
	.cfi_def_cfa_offset 16
	popq	%r12
	.cfi_def_cfa_offset 8
	ret
	.p2align 4,,10
	.p2align 3
.L70:
	.cfi_restore_state
	testq	%r12, %r12
	je	.L71
	jmp	.L69
	.p2align 4,,10
	.p2align 3
.L84:
	movq	%rbx, %rdi
	movq	%rsp, %rsi
	xorl	%edx, %edx
	call	_ZNSt7__cxx1112basic_stringIcSt11char_traitsIcESaIcEE9_M_createERmm@PLT
	movq	%rax, (%rbx)
	movq	%rax, %rdi
	movq	(%rsp), %rax
	movq	%rax, 16(%rbx)
.L69:
	movq	%r12, %rdx
	movq	%rbp, %rsi
	call	memcpy@PLT
	movq	(%rsp), %r12
	movq	(%rbx), %rdi
	jmp	.L71
.L83:
	leaq	.LC4(%rip), %rdi
	call	_ZSt19__throw_logic_errorPKc@PLT
.L85:
	call	__stack_chk_fail@PLT
	.cfi_endproc
.LFE10382:
	.size	_ZNSt7__cxx1112basic_stringIcSt11char_traitsIcESaIcEE12_M_constructIPcEEvT_S7_St20forward_iterator_tag.constprop.0, .-_ZNSt7__cxx1112basic_stringIcSt11char_traitsIcESaIcEE12_M_constructIPcEEvT_S7_St20forward_iterator_tag.constprop.0
	.section	.text._ZNSt19_Sp_counted_deleterIPvN4asio6detail10socket_ops12noop_deleterESaIvELN9__gnu_cxx12_Lock_policyE2EE14_M_get_deleterERKSt9type_info,"axG",@progbits,_ZNSt19_Sp_counted_deleterIPvN4asio6detail10socket_ops12noop_deleterESaIvELN9__gnu_cxx12_Lock_policyE2EE14_M_get_deleterERKSt9type_info,comdat
	.align 2
	.p2align 4
	.weak	_ZNSt19_Sp_counted_deleterIPvN4asio6detail10socket_ops12noop_deleterESaIvELN9__gnu_cxx12_Lock_policyE2EE14_M_get_deleterERKSt9type_info
	.type	_ZNSt19_Sp_counted_deleterIPvN4asio6detail10socket_ops12noop_deleterESaIvELN9__gnu_cxx12_Lock_policyE2EE14_M_get_deleterERKSt9type_info, @function
_ZNSt19_Sp_counted_deleterIPvN4asio6detail10socket_ops12noop_deleterESaIvELN9__gnu_cxx12_Lock_policyE2EE14_M_get_deleterERKSt9type_info:
.LFB10283:
	.cfi_startproc
	pushq	%r12
	.cfi_def_cfa_offset 16
	.cfi_offset 12, -16
	pushq	%rbx
	.cfi_def_cfa_offset 24
	.cfi_offset 3, -24
	movq	%rdi, %rbx
	subq	$8, %rsp
	.cfi_def_cfa_offset 32
	movq	8(%rsi), %rdi
	movq	_ZTSN4asio6detail10socket_ops12noop_deleterE@GOTPCREL(%rip), %rsi
	cmpq	%rsi, %rdi
	je	.L87
	xorl	%r12d, %r12d
	cmpb	$42, (%rdi)
	je	.L86
	call	strcmp@PLT
	testl	%eax, %eax
	jne	.L86
.L87:
	leaq	16(%rbx), %r12
.L86:
	addq	$8, %rsp
	.cfi_def_cfa_offset 24
	movq	%r12, %rax
	popq	%rbx
	.cfi_def_cfa_offset 16
	popq	%r12
	.cfi_def_cfa_offset 8
	ret
	.cfi_endproc
.LFE10283:
	.size	_ZNSt19_Sp_counted_deleterIPvN4asio6detail10socket_ops12noop_deleterESaIvELN9__gnu_cxx12_Lock_policyE2EE14_M_get_deleterERKSt9type_info, .-_ZNSt19_Sp_counted_deleterIPvN4asio6detail10socket_ops12noop_deleterESaIvELN9__gnu_cxx12_Lock_policyE2EE14_M_get_deleterERKSt9type_info
	.section	.text._ZN4asio6detail13epoll_reactorD2Ev,"axG",@progbits,_ZN4asio6detail13epoll_reactorD5Ev,comdat
	.align 2
	.p2align 4
	.weak	_ZN4asio6detail13epoll_reactorD2Ev
	.type	_ZN4asio6detail13epoll_reactorD2Ev, @function
_ZN4asio6detail13epoll_reactorD2Ev:
.LFB3282:
	.cfi_startproc
	.cfi_personality 0x9b,DW.ref.__gxx_personality_v0
	.cfi_lsda 0x1b,.LLSDA3282
	pushq	%r15
	.cfi_def_cfa_offset 16
	.cfi_offset 15, -16
	pushq	%r14
	.cfi_def_cfa_offset 24
	.cfi_offset 14, -24
	pushq	%r13
	.cfi_def_cfa_offset 32
	.cfi_offset 13, -32
	pushq	%r12
	.cfi_def_cfa_offset 40
	.cfi_offset 12, -40
	pushq	%rbp
	.cfi_def_cfa_offset 48
	.cfi_offset 6, -48
	pushq	%rbx
	.cfi_def_cfa_offset 56
	.cfi_offset 3, -56
	subq	$56, %rsp
	.cfi_def_cfa_offset 112
	movq	%rdi, 8(%rsp)
	movq	%fs:40, %rax
	movq	%rax, 40(%rsp)
	movq	_ZTVN4asio6detail13epoll_reactorE@GOTPCREL(%rip), %rax
	addq	$16, %rax
	movq	%rax, (%rdi)
	movl	96(%rdi), %edi
	cmpl	$-1, %edi
	je	.L93
	call	close@PLT
.L93:
	movq	8(%rsp), %rax
	movl	100(%rax), %edi
	cmpl	$-1, %edi
	je	.L94
	call	close@PLT
.L94:
	movq	8(%rsp), %rax
	leaq	16(%rsp), %rbp
	movq	160(%rax), %r13
	testq	%r13, %r13
	je	.L105
	.p2align 4,,10
	.p2align 3
.L95:
	movq	%r13, %r12
	movq	24(%r13), %r13
	leaq	128(%r12), %r15
	leaq	80(%r12), %r14
.L100:
	movq	(%r15), %rsi
	testq	%rsi, %rsi
	je	.L102
	movq	%rsi, (%rsp)
	call	_ZNSt3_V215system_categoryEv@PLT
	movq	(%rsp), %rsi
	movq	%rax, %rbx
	jmp	.L104
	.p2align 4,,10
	.p2align 3
.L101:
	movq	$0, (%rsi)
	movq	8(%rsi), %rax
	xorl	%ecx, %ecx
	movq	%rbp, %rdx
	movl	$0, 16(%rsp)
	xorl	%edi, %edi
	movq	%rbx, 24(%rsp)
	call	*%rax
	movq	(%r15), %rsi
	testq	%rsi, %rsi
	je	.L102
.L104:
	movq	(%rsi), %rax
	movq	%rax, (%r15)
	testq	%rax, %rax
	jne	.L101
	movq	$0, 8(%r15)
	jmp	.L101
	.p2align 4,,10
	.p2align 3
.L102:
	subq	$16, %r15
	cmpq	%r14, %r15
	jne	.L100
	leaq	40(%r12), %rdi
	call	pthread_mutex_destroy@PLT
	movl	$152, %esi
	movq	%r12, %rdi
	call	_ZdlPvm@PLT
	testq	%r13, %r13
	jne	.L95
.L105:
	movq	8(%rsp), %rax
	movq	168(%rax), %r13
	testq	%r13, %r13
	je	.L96
	leaq	16(%rsp), %rbp
	.p2align 4,,10
	.p2align 3
.L97:
	movq	%r13, %r12
	movq	24(%r13), %r13
	leaq	128(%r12), %r15
	leaq	80(%r12), %r14
.L110:
	movq	(%r15), %rsi
	testq	%rsi, %rsi
	je	.L112
	movq	%rsi, (%rsp)
	call	_ZNSt3_V215system_categoryEv@PLT
	movq	(%rsp), %rsi
	movq	%rax, %rbx
	jmp	.L114
	.p2align 4,,10
	.p2align 3
.L111:
	movq	$0, (%rsi)
	movq	8(%rsi), %rax
	xorl	%ecx, %ecx
	movq	%rbp, %rdx
	movl	$0, 16(%rsp)
	xorl	%edi, %edi
	movq	%rbx, 24(%rsp)
	call	*%rax
	movq	(%r15), %rsi
	testq	%rsi, %rsi
	je	.L112
.L114:
	movq	(%rsi), %rax
	movq	%rax, (%r15)
	testq	%rax, %rax
	jne	.L111
	movq	$0, 8(%r15)
	jmp	.L111
	.p2align 4,,10
	.p2align 3
.L112:
	subq	$16, %r15
	cmpq	%r14, %r15
	jne	.L110
	leaq	40(%r12), %rdi
	call	pthread_mutex_destroy@PLT
	movl	$152, %esi
	movq	%r12, %rdi
	call	_ZdlPvm@PLT
	testq	%r13, %r13
	jne	.L97
.L96:
	movq	8(%rsp), %rbx
	leaq	120(%rbx), %rdi
	call	pthread_mutex_destroy@PLT
	movl	92(%rbx), %r8d
	cmpl	$-1, %r8d
	je	.L155
	movq	8(%rsp), %rbx
	movl	88(%rbx), %edi
	cmpl	%edi, %r8d
	jne	.L156
.L116:
	call	close@PLT
.L117:
	movq	40(%rsp), %rax
	subq	%fs:40, %rax
	jne	.L157
	movq	8(%rsp), %rdi
	addq	$56, %rsp
	.cfi_remember_state
	.cfi_def_cfa_offset 56
	popq	%rbx
	.cfi_def_cfa_offset 48
	popq	%rbp
	.cfi_def_cfa_offset 40
	addq	$48, %rdi
	popq	%r12
	.cfi_def_cfa_offset 32
	popq	%r13
	.cfi_def_cfa_offset 24
	popq	%r14
	.cfi_def_cfa_offset 16
	popq	%r15
	.cfi_def_cfa_offset 8
	jmp	pthread_mutex_destroy@PLT
.L156:
	.cfi_restore_state
	movl	%r8d, %edi
	call	close@PLT
	movl	88(%rbx), %edi
.L115:
	cmpl	$-1, %edi
	je	.L117
	jmp	.L116
.L155:
	movq	8(%rsp), %rax
	movl	88(%rax), %edi
	jmp	.L115
.L157:
	call	__stack_chk_fail@PLT
	.cfi_endproc
.LFE3282:
	.globl	__gxx_personality_v0
	.section	.gcc_except_table._ZN4asio6detail13epoll_reactorD2Ev,"aG",@progbits,_ZN4asio6detail13epoll_reactorD5Ev,comdat
.LLSDA3282:
	.byte	0xff
	.byte	0xff
	.byte	0x1
	.uleb128 .LLSDACSE3282-.LLSDACSB3282
.LLSDACSB3282:
.LLSDACSE3282:
	.section	.text._ZN4asio6detail13epoll_reactorD2Ev,"axG",@progbits,_ZN4asio6detail13epoll_reactorD5Ev,comdat
	.size	_ZN4asio6detail13epoll_reactorD2Ev, .-_ZN4asio6detail13epoll_reactorD2Ev
	.weak	_ZN4asio6detail13epoll_reactorD1Ev
	.set	_ZN4asio6detail13epoll_reactorD1Ev,_ZN4asio6detail13epoll_reactorD2Ev
	.section	.text._ZN4asio6detail13epoll_reactorD0Ev,"axG",@progbits,_ZN4asio6detail13epoll_reactorD5Ev,comdat
	.align 2
	.p2align 4
	.weak	_ZN4asio6detail13epoll_reactorD0Ev
	.type	_ZN4asio6detail13epoll_reactorD0Ev, @function
_ZN4asio6detail13epoll_reactorD0Ev:
.LFB3284:
	.cfi_startproc
	.cfi_personality 0x9b,DW.ref.__gxx_personality_v0
	.cfi_lsda 0x1b,.LLSDA3284
	pushq	%r15
	.cfi_def_cfa_offset 16
	.cfi_offset 15, -16
	pushq	%r14
	.cfi_def_cfa_offset 24
	.cfi_offset 14, -24
	pushq	%r13
	.cfi_def_cfa_offset 32
	.cfi_offset 13, -32
	pushq	%r12
	.cfi_def_cfa_offset 40
	.cfi_offset 12, -40
	pushq	%rbp
	.cfi_def_cfa_offset 48
	.cfi_offset 6, -48
	pushq	%rbx
	.cfi_def_cfa_offset 56
	.cfi_offset 3, -56
	subq	$56, %rsp
	.cfi_def_cfa_offset 112
	movq	%rdi, 8(%rsp)
	movq	%fs:40, %rax
	movq	%rax, 40(%rsp)
	movq	_ZTVN4asio6detail13epoll_reactorE@GOTPCREL(%rip), %rax
	addq	$16, %rax
	movq	%rax, (%rdi)
	movl	96(%rdi), %edi
	cmpl	$-1, %edi
	je	.L159
	call	close@PLT
.L159:
	movq	8(%rsp), %rax
	movl	100(%rax), %edi
	cmpl	$-1, %edi
	je	.L160
	call	close@PLT
.L160:
	movq	8(%rsp), %rax
	leaq	16(%rsp), %rbp
	movq	160(%rax), %r13
	testq	%r13, %r13
	je	.L171
	.p2align 4,,10
	.p2align 3
.L161:
	movq	%r13, %r12
	movq	24(%r13), %r13
	leaq	144(%r12), %r15
	leaq	96(%r12), %r14
.L166:
	movq	-16(%r15), %rsi
	subq	$16, %r15
	testq	%rsi, %rsi
	je	.L168
	movq	%rsi, (%rsp)
	call	_ZNSt3_V215system_categoryEv@PLT
	movq	(%rsp), %rsi
	movq	%rax, %rbx
	jmp	.L170
	.p2align 4,,10
	.p2align 3
.L167:
	movq	$0, (%rsi)
	movq	8(%rsi), %rax
	xorl	%ecx, %ecx
	movq	%rbp, %rdx
	movl	$0, 16(%rsp)
	xorl	%edi, %edi
	movq	%rbx, 24(%rsp)
	call	*%rax
	movq	(%r15), %rsi
	testq	%rsi, %rsi
	je	.L168
.L170:
	movq	(%rsi), %rax
	movq	%rax, (%r15)
	testq	%rax, %rax
	jne	.L167
	movq	$0, 8(%r15)
	jmp	.L167
	.p2align 4,,10
	.p2align 3
.L168:
	cmpq	%r14, %r15
	jne	.L166
	leaq	40(%r12), %rdi
	call	pthread_mutex_destroy@PLT
	movl	$152, %esi
	movq	%r12, %rdi
	call	_ZdlPvm@PLT
	testq	%r13, %r13
	jne	.L161
.L171:
	movq	8(%rsp), %rax
	movq	168(%rax), %r13
	testq	%r13, %r13
	je	.L162
	leaq	16(%rsp), %rbp
	.p2align 4,,10
	.p2align 3
.L163:
	movq	%r13, %r12
	movq	24(%r13), %r13
	leaq	128(%r12), %r15
	leaq	80(%r12), %r14
.L176:
	movq	(%r15), %rsi
	testq	%rsi, %rsi
	je	.L178
	movq	%rsi, (%rsp)
	call	_ZNSt3_V215system_categoryEv@PLT
	movq	(%rsp), %rsi
	movq	%rax, %rbx
	jmp	.L180
	.p2align 4,,10
	.p2align 3
.L177:
	movq	$0, (%rsi)
	movq	8(%rsi), %rax
	xorl	%ecx, %ecx
	movq	%rbp, %rdx
	movl	$0, 16(%rsp)
	xorl	%edi, %edi
	movq	%rbx, 24(%rsp)
	call	*%rax
	movq	(%r15), %rsi
	testq	%rsi, %rsi
	je	.L178
.L180:
	movq	(%rsi), %rax
	movq	%rax, (%r15)
	testq	%rax, %rax
	jne	.L177
	movq	$0, 8(%r15)
	jmp	.L177
	.p2align 4,,10
	.p2align 3
.L178:
	subq	$16, %r15
	cmpq	%r14, %r15
	jne	.L176
	leaq	40(%r12), %rdi
	call	pthread_mutex_destroy@PLT
	movl	$152, %esi
	movq	%r12, %rdi
	call	_ZdlPvm@PLT
	testq	%r13, %r13
	jne	.L163
.L162:
	movq	8(%rsp), %rbx
	leaq	120(%rbx), %rdi
	call	pthread_mutex_destroy@PLT
	movl	92(%rbx), %r8d
	cmpl	$-1, %r8d
	je	.L221
	movq	8(%rsp), %rbx
	movl	88(%rbx), %edi
	cmpl	%edi, %r8d
	jne	.L222
.L182:
	call	close@PLT
.L183:
	movq	8(%rsp), %rax
	leaq	48(%rax), %rdi
	call	pthread_mutex_destroy@PLT
	movq	40(%rsp), %rax
	subq	%fs:40, %rax
	jne	.L223
	movq	8(%rsp), %rdi
	addq	$56, %rsp
	.cfi_remember_state
	.cfi_def_cfa_offset 56
	movl	$176, %esi
	popq	%rbx
	.cfi_def_cfa_offset 48
	popq	%rbp
	.cfi_def_cfa_offset 40
	popq	%r12
	.cfi_def_cfa_offset 32
	popq	%r13
	.cfi_def_cfa_offset 24
	popq	%r14
	.cfi_def_cfa_offset 16
	popq	%r15
	.cfi_def_cfa_offset 8
	jmp	_ZdlPvm@PLT
.L222:
	.cfi_restore_state
	movl	%r8d, %edi
	call	close@PLT
	movl	88(%rbx), %edi
.L181:
	cmpl	$-1, %edi
	je	.L183
	jmp	.L182
.L221:
	movq	8(%rsp), %rax
	movl	88(%rax), %edi
	jmp	.L181
.L223:
	call	__stack_chk_fail@PLT
	.cfi_endproc
.LFE3284:
	.section	.gcc_except_table._ZN4asio6detail13epoll_reactorD0Ev,"aG",@progbits,_ZN4asio6detail13epoll_reactorD5Ev,comdat
.LLSDA3284:
	.byte	0xff
	.byte	0xff
	.byte	0x1
	.uleb128 .LLSDACSE3284-.LLSDACSB3284
.LLSDACSB3284:
.LLSDACSE3284:
	.section	.text._ZN4asio6detail13epoll_reactorD0Ev,"axG",@progbits,_ZN4asio6detail13epoll_reactorD5Ev,comdat
	.size	_ZN4asio6detail13epoll_reactorD0Ev, .-_ZN4asio6detail13epoll_reactorD0Ev
	.section	.text._ZNSt15_Sp_counted_ptrIPSt6vectorIN4asio2ip20basic_resolver_entryINS2_3tcpEEESaIS5_EELN9__gnu_cxx12_Lock_policyE2EE10_M_disposeEv,"axG",@progbits,_ZNSt15_Sp_counted_ptrIPSt6vectorIN4asio2ip20basic_resolver_entryINS2_3tcpEEESaIS5_EELN9__gnu_cxx12_Lock_policyE2EE10_M_disposeEv,comdat
	.align 2
	.p2align 4
	.weak	_ZNSt15_Sp_counted_ptrIPSt6vectorIN4asio2ip20basic_resolver_entryINS2_3tcpEEESaIS5_EELN9__gnu_cxx12_Lock_policyE2EE10_M_disposeEv
	.type	_ZNSt15_Sp_counted_ptrIPSt6vectorIN4asio2ip20basic_resolver_entryINS2_3tcpEEESaIS5_EELN9__gnu_cxx12_Lock_policyE2EE10_M_disposeEv, @function
_ZNSt15_Sp_counted_ptrIPSt6vectorIN4asio2ip20basic_resolver_entryINS2_3tcpEEESaIS5_EELN9__gnu_cxx12_Lock_policyE2EE10_M_disposeEv:
.LFB10239:
	.cfi_startproc
	pushq	%r12
	.cfi_def_cfa_offset 16
	.cfi_offset 12, -16
	pushq	%rbp
	.cfi_def_cfa_offset 24
	.cfi_offset 6, -24
	pushq	%rbx
	.cfi_def_cfa_offset 32
	.cfi_offset 3, -32
	movq	16(%rdi), %r12
	testq	%r12, %r12
	je	.L224
	movq	8(%r12), %rbx
	movq	(%r12), %rbp
	cmpq	%rbp, %rbx
	je	.L226
	.p2align 4,,10
	.p2align 3
.L231:
	movq	64(%rbp), %rdi
	leaq	80(%rbp), %rax
	cmpq	%rax, %rdi
	je	.L227
	movq	80(%rbp), %rax
	leaq	1(%rax), %rsi
	call	_ZdlPvm@PLT
.L227:
	movq	32(%rbp), %rdi
	leaq	48(%rbp), %rax
	cmpq	%rax, %rdi
	je	.L228
	movq	48(%rbp), %rax
	addq	$96, %rbp
	leaq	1(%rax), %rsi
	call	_ZdlPvm@PLT
	cmpq	%rbp, %rbx
	jne	.L231
	movq	(%r12), %rbp
.L226:
	testq	%rbp, %rbp
	je	.L232
	movq	16(%r12), %rsi
	movq	%rbp, %rdi
	subq	%rbp, %rsi
	call	_ZdlPvm@PLT
.L232:
	popq	%rbx
	.cfi_remember_state
	.cfi_def_cfa_offset 24
	movq	%r12, %rdi
	popq	%rbp
	.cfi_def_cfa_offset 16
	movl	$24, %esi
	popq	%r12
	.cfi_def_cfa_offset 8
	jmp	_ZdlPvm@PLT
	.p2align 4,,10
	.p2align 3
.L228:
	.cfi_restore_state
	addq	$96, %rbp
	cmpq	%rbp, %rbx
	jne	.L231
	movq	(%r12), %rbp
	jmp	.L226
	.p2align 4,,10
	.p2align 3
.L224:
	popq	%rbx
	.cfi_def_cfa_offset 24
	popq	%rbp
	.cfi_def_cfa_offset 16
	popq	%r12
	.cfi_def_cfa_offset 8
	ret
	.cfi_endproc
.LFE10239:
	.size	_ZNSt15_Sp_counted_ptrIPSt6vectorIN4asio2ip20basic_resolver_entryINS2_3tcpEEESaIS5_EELN9__gnu_cxx12_Lock_policyE2EE10_M_disposeEv, .-_ZNSt15_Sp_counted_ptrIPSt6vectorIN4asio2ip20basic_resolver_entryINS2_3tcpEEESaIS5_EELN9__gnu_cxx12_Lock_policyE2EE10_M_disposeEv
	.section	.text._ZN4asio6detail15task_io_serviceD2Ev,"axG",@progbits,_ZN4asio6detail15task_io_serviceD5Ev,comdat
	.align 2
	.p2align 4
	.weak	_ZN4asio6detail15task_io_serviceD2Ev
	.type	_ZN4asio6detail15task_io_serviceD2Ev, @function
_ZN4asio6detail15task_io_serviceD2Ev:
.LFB10174:
	.cfi_startproc
	.cfi_personality 0x9b,DW.ref.__gxx_personality_v0
	.cfi_lsda 0x1b,.LLSDA10174
	pushq	%r12
	.cfi_def_cfa_offset 16
	.cfi_offset 12, -16
	pushq	%rbp
	.cfi_def_cfa_offset 24
	.cfi_offset 6, -24
	pushq	%rbx
	.cfi_def_cfa_offset 32
	.cfi_offset 3, -32
	movq	%rdi, %rbx
	subq	$48, %rsp
	.cfi_def_cfa_offset 80
	movq	192(%rdi), %rsi
	movq	%fs:40, %rax
	movq	%rax, 40(%rsp)
	movq	_ZTVN4asio6detail15task_io_serviceE@GOTPCREL(%rip), %rax
	movq	%rsi, 8(%rsp)
	addq	$16, %rax
	testq	%rsi, %rsi
	movq	%rax, (%rdi)
	je	.L238
	call	_ZNSt3_V215system_categoryEv@PLT
	leaq	16(%rsp), %r12
	movq	8(%rsp), %rsi
	movq	%rax, %rbp
	jmp	.L241
	.p2align 4,,10
	.p2align 3
.L239:
	movq	$0, (%rsi)
	movq	8(%rsi), %rax
	xorl	%ecx, %ecx
	movq	%r12, %rdx
	movl	$0, 16(%rsp)
	xorl	%edi, %edi
	movq	%rbp, 24(%rsp)
	call	*%rax
	movq	192(%rbx), %rsi
	testq	%rsi, %rsi
	je	.L238
.L241:
	movq	(%rsi), %rax
	movq	%rax, 192(%rbx)
	testq	%rax, %rax
	jne	.L239
	movq	$0, 200(%rbx)
	jmp	.L239
	.p2align 4,,10
	.p2align 3
.L238:
	leaq	88(%rbx), %rdi
	call	pthread_cond_destroy@PLT
	movq	40(%rsp), %rax
	subq	%fs:40, %rax
	jne	.L255
	addq	$48, %rsp
	.cfi_remember_state
	.cfi_def_cfa_offset 32
	leaq	48(%rbx), %rdi
	popq	%rbx
	.cfi_def_cfa_offset 24
	popq	%rbp
	.cfi_def_cfa_offset 16
	popq	%r12
	.cfi_def_cfa_offset 8
	jmp	pthread_mutex_destroy@PLT
.L255:
	.cfi_restore_state
	call	__stack_chk_fail@PLT
	.cfi_endproc
.LFE10174:
	.section	.gcc_except_table._ZN4asio6detail15task_io_serviceD2Ev,"aG",@progbits,_ZN4asio6detail15task_io_serviceD5Ev,comdat
.LLSDA10174:
	.byte	0xff
	.byte	0xff
	.byte	0x1
	.uleb128 .LLSDACSE10174-.LLSDACSB10174
.LLSDACSB10174:
.LLSDACSE10174:
	.section	.text._ZN4asio6detail15task_io_serviceD2Ev,"axG",@progbits,_ZN4asio6detail15task_io_serviceD5Ev,comdat
	.size	_ZN4asio6detail15task_io_serviceD2Ev, .-_ZN4asio6detail15task_io_serviceD2Ev
	.weak	_ZN4asio6detail15task_io_serviceD1Ev
	.set	_ZN4asio6detail15task_io_serviceD1Ev,_ZN4asio6detail15task_io_serviceD2Ev
	.section	.text._ZN4asio6detail15task_io_serviceD0Ev,"axG",@progbits,_ZN4asio6detail15task_io_serviceD5Ev,comdat
	.align 2
	.p2align 4
	.weak	_ZN4asio6detail15task_io_serviceD0Ev
	.type	_ZN4asio6detail15task_io_serviceD0Ev, @function
_ZN4asio6detail15task_io_serviceD0Ev:
.LFB10176:
	.cfi_startproc
	.cfi_personality 0x9b,DW.ref.__gxx_personality_v0
	.cfi_lsda 0x1b,.LLSDA10176
	pushq	%r12
	.cfi_def_cfa_offset 16
	.cfi_offset 12, -16
	pushq	%rbp
	.cfi_def_cfa_offset 24
	.cfi_offset 6, -24
	movq	%rdi, %rbp
	pushq	%rbx
	.cfi_def_cfa_offset 32
	.cfi_offset 3, -32
	subq	$48, %rsp
	.cfi_def_cfa_offset 80
	movq	192(%rdi), %rsi
	movq	%fs:40, %rax
	movq	%rax, 40(%rsp)
	movq	_ZTVN4asio6detail15task_io_serviceE@GOTPCREL(%rip), %rax
	movq	%rsi, 8(%rsp)
	addq	$16, %rax
	testq	%rsi, %rsi
	movq	%rax, (%rdi)
	je	.L257
	call	_ZNSt3_V215system_categoryEv@PLT
	leaq	16(%rsp), %r12
	movq	8(%rsp), %rsi
	movq	%rax, %rbx
	jmp	.L260
	.p2align 4,,10
	.p2align 3
.L258:
	movq	$0, (%rsi)
	movq	8(%rsi), %rax
	xorl	%ecx, %ecx
	movq	%r12, %rdx
	movl	$0, 16(%rsp)
	xorl	%edi, %edi
	movq	%rbx, 24(%rsp)
	call	*%rax
	movq	192(%rbp), %rsi
	testq	%rsi, %rsi
	je	.L257
.L260:
	movq	(%rsi), %rax
	movq	%rax, 192(%rbp)
	testq	%rax, %rax
	jne	.L258
	movq	$0, 200(%rbp)
	jmp	.L258
	.p2align 4,,10
	.p2align 3
.L257:
	leaq	88(%rbp), %rdi
	call	pthread_cond_destroy@PLT
	leaq	48(%rbp), %rdi
	call	pthread_mutex_destroy@PLT
	movq	40(%rsp), %rax
	subq	%fs:40, %rax
	jne	.L274
	addq	$48, %rsp
	.cfi_remember_state
	.cfi_def_cfa_offset 32
	movq	%rbp, %rdi
	movl	$216, %esi
	popq	%rbx
	.cfi_def_cfa_offset 24
	popq	%rbp
	.cfi_def_cfa_offset 16
	popq	%r12
	.cfi_def_cfa_offset 8
	jmp	_ZdlPvm@PLT
.L274:
	.cfi_restore_state
	call	__stack_chk_fail@PLT
	.cfi_endproc
.LFE10176:
	.section	.gcc_except_table._ZN4asio6detail15task_io_serviceD0Ev,"aG",@progbits,_ZN4asio6detail15task_io_serviceD5Ev,comdat
.LLSDA10176:
	.byte	0xff
	.byte	0xff
	.byte	0x1
	.uleb128 .LLSDACSE10176-.LLSDACSB10176
.LLSDACSB10176:
.LLSDACSE10176:
	.section	.text._ZN4asio6detail15task_io_serviceD0Ev,"axG",@progbits,_ZN4asio6detail15task_io_serviceD5Ev,comdat
	.size	_ZN4asio6detail15task_io_serviceD0Ev, .-_ZN4asio6detail15task_io_serviceD0Ev
	.section	.text._ZN4asio6detail13epoll_reactor16shutdown_serviceEv,"axG",@progbits,_ZN4asio6detail13epoll_reactor16shutdown_serviceEv,comdat
	.align 2
	.p2align 4
	.weak	_ZN4asio6detail13epoll_reactor16shutdown_serviceEv
	.type	_ZN4asio6detail13epoll_reactor16shutdown_serviceEv, @function
_ZN4asio6detail13epoll_reactor16shutdown_serviceEv:
.LFB3285:
	.cfi_startproc
	.cfi_personality 0x9b,DW.ref.__gxx_personality_v0
	.cfi_lsda 0x1b,.LLSDA3285
	pushq	%r13
	.cfi_def_cfa_offset 16
	.cfi_offset 13, -16
	pushq	%r12
	.cfi_def_cfa_offset 24
	.cfi_offset 12, -24
	pushq	%rbp
	.cfi_def_cfa_offset 32
	.cfi_offset 6, -32
	leaq	48(%rdi), %rbp
	pushq	%rbx
	.cfi_def_cfa_offset 40
	.cfi_offset 3, -40
	movq	%rdi, %rbx
	movq	%rbp, %rdi
	subq	$72, %rsp
	.cfi_def_cfa_offset 112
	movq	%fs:40, %rax
	movq	%rax, 56(%rsp)
	xorl	%eax, %eax
	call	pthread_mutex_lock@PLT
	movb	$1, 112(%rbx)
	movq	%rbp, %rdi
	call	pthread_mutex_unlock@PLT
	movq	160(%rbx), %rax
	pxor	%xmm0, %xmm0
	movaps	%xmm0, 16(%rsp)
	testq	%rax, %rax
	je	.L350
	xorl	%esi, %esi
	xorl	%edx, %edx
	xorl	%r8d, %r8d
	xorl	%ebp, %ebp
	pxor	%xmm0, %xmm0
	jmp	.L276
	.p2align 4,,10
	.p2align 3
.L280:
	movq	%rcx, (%rdx)
.L281:
	movq	104(%rax), %rdx
	movl	$1, %esi
	movups	%xmm0, 96(%rax)
.L279:
	movq	112(%rax), %rcx
	testq	%rcx, %rcx
	je	.L282
	testq	%rdx, %rdx
	je	.L351
	movq	%rcx, (%rdx)
.L284:
	movq	120(%rax), %rdx
	movl	$1, %esi
	movups	%xmm0, 112(%rax)
.L282:
	movq	128(%rax), %rcx
	testq	%rcx, %rcx
	je	.L285
	testq	%rdx, %rdx
	je	.L352
	movq	%rcx, (%rdx)
.L287:
	movq	136(%rax), %rdx
	movl	$1, %esi
	movups	%xmm0, 128(%rax)
.L285:
	movq	24(%rax), %rcx
	movb	$1, 144(%rax)
	movq	%rcx, 160(%rbx)
	movq	32(%rax), %rcx
	testq	%rcx, %rcx
	je	.L288
	movq	24(%rax), %rdi
	movq	%rdi, 24(%rcx)
.L288:
	movq	24(%rax), %rcx
	testq	%rcx, %rcx
	je	.L289
	movq	32(%rax), %rdi
	movq	%rdi, 32(%rcx)
.L289:
	movq	168(%rbx), %rcx
	movq	$0, 32(%rax)
	movq	%rcx, 24(%rax)
	movq	%rax, 168(%rbx)
	movq	160(%rbx), %rax
	testq	%rax, %rax
	je	.L353
.L276:
	movq	96(%rax), %rcx
	testq	%rcx, %rcx
	je	.L279
	testq	%rdx, %rdx
	jne	.L280
	movq	%rcx, %rbp
	movl	$1, %r8d
	jmp	.L281
	.p2align 4,,10
	.p2align 3
.L352:
	movq	%rcx, %rbp
	movl	$1, %r8d
	jmp	.L287
	.p2align 4,,10
	.p2align 3
.L351:
	movq	%rcx, %rbp
	movl	$1, %r8d
	jmp	.L284
	.p2align 4,,10
	.p2align 3
.L353:
	testb	%r8b, %r8b
	je	.L307
	movq	%rbp, 16(%rsp)
.L292:
	testb	%sil, %sil
	je	.L293
	movq	%rdx, 24(%rsp)
.L293:
	movq	104(%rbx), %rbx
	testq	%rbx, %rbx
	je	.L294
.L278:
	leaq	16(%rsp), %rbp
	.p2align 4,,10
	.p2align 3
.L295:
	movq	(%rbx), %rax
	movq	%rbp, %rsi
	movq	%rbx, %rdi
.LEHB0:
	call	*48(%rax)
.LEHE0:
	movq	8(%rbx), %rbx
	testq	%rbx, %rbx
	jne	.L295
	movq	16(%rsp), %rbp
.L294:
	testq	%rbp, %rbp
	je	.L275
	pxor	%xmm0, %xmm0
	leaq	32(%rsp), %rbx
	movaps	%xmm0, 16(%rsp)
	call	_ZNSt3_V215system_categoryEv@PLT
	movq	%rax, %r12
	.p2align 4,,10
	.p2align 3
.L296:
	movq	%rbp, %rsi
	movq	0(%rbp), %rbp
	xorl	%ecx, %ecx
	xorl	%edi, %edi
	movq	$0, (%rsi)
	movq	8(%rsi), %rax
	movq	%rbx, %rdx
	movl	$0, 32(%rsp)
	movq	%r12, 40(%rsp)
	call	*%rax
	testq	%rbp, %rbp
	jne	.L296
	movq	16(%rsp), %rsi
	testq	%rsi, %rsi
	movq	%rsi, 8(%rsp)
	je	.L275
	call	_ZNSt3_V215system_categoryEv@PLT
	movq	8(%rsp), %rsi
	movq	%rax, %rbp
	jmp	.L301
	.p2align 4,,10
	.p2align 3
.L298:
	movq	$0, (%rsi)
	movq	8(%rsi), %rax
	xorl	%ecx, %ecx
	movq	%rbx, %rdx
	movl	$0, 32(%rsp)
	xorl	%edi, %edi
	movq	%rbp, 40(%rsp)
	call	*%rax
	movq	16(%rsp), %rsi
	testq	%rsi, %rsi
	je	.L275
.L301:
	movq	(%rsi), %rax
	movq	%rax, 16(%rsp)
	testq	%rax, %rax
	jne	.L298
	movq	$0, 24(%rsp)
	jmp	.L298
.L350:
	movq	104(%rbx), %rbx
	testq	%rbx, %rbx
	jne	.L278
	.p2align 4,,10
	.p2align 3
.L275:
	movq	56(%rsp), %rax
	subq	%fs:40, %rax
	jne	.L354
	addq	$72, %rsp
	.cfi_remember_state
	.cfi_def_cfa_offset 40
	popq	%rbx
	.cfi_def_cfa_offset 32
	popq	%rbp
	.cfi_def_cfa_offset 24
	popq	%r12
	.cfi_def_cfa_offset 16
	popq	%r13
	.cfi_def_cfa_offset 8
	ret
.L307:
	.cfi_restore_state
	xorl	%ebp, %ebp
	jmp	.L292
.L354:
	call	__stack_chk_fail@PLT
.L308:
	movq	%rax, %r12
	leaq	32(%rsp), %rbx
.L302:
	movq	16(%rsp), %rbp
	testq	%rbp, %rbp
	jne	.L355
	movq	%r12, %rdi
.LEHB1:
	call	_Unwind_Resume@PLT
.LEHE1:
.L355:
	movq	0(%rbp), %rax
	movq	%rax, 16(%rsp)
	testq	%rax, %rax
	jne	.L304
	movq	$0, 24(%rsp)
.L304:
	movq	$0, 0(%rbp)
	movq	8(%rbp), %r13
	movl	$0, 32(%rsp)
	call	_ZNSt3_V215system_categoryEv@PLT
	xorl	%ecx, %ecx
	movq	%rbx, %rdx
	movq	%rbp, %rsi
	movq	%rax, 40(%rsp)
	xorl	%edi, %edi
	call	*%r13
	jmp	.L302
	.cfi_endproc
.LFE3285:
	.section	.gcc_except_table._ZN4asio6detail13epoll_reactor16shutdown_serviceEv,"aG",@progbits,_ZN4asio6detail13epoll_reactor16shutdown_serviceEv,comdat
.LLSDA3285:
	.byte	0xff
	.byte	0xff
	.byte	0x1
	.uleb128 .LLSDACSE3285-.LLSDACSB3285
.LLSDACSB3285:
	.uleb128 .LEHB0-.LFB3285
	.uleb128 .LEHE0-.LEHB0
	.uleb128 .L308-.LFB3285
	.uleb128 0
	.uleb128 .LEHB1-.LFB3285
	.uleb128 .LEHE1-.LEHB1
	.uleb128 0
	.uleb128 0
.LLSDACSE3285:
	.section	.text._ZN4asio6detail13epoll_reactor16shutdown_serviceEv,"axG",@progbits,_ZN4asio6detail13epoll_reactor16shutdown_serviceEv,comdat
	.size	_ZN4asio6detail13epoll_reactor16shutdown_serviceEv, .-_ZN4asio6detail13epoll_reactor16shutdown_serviceEv
	.section	.text._ZN4asio2ip16resolver_serviceINS0_3tcpEE16shutdown_serviceEv,"axG",@progbits,_ZN4asio2ip16resolver_serviceINS0_3tcpEE16shutdown_serviceEv,comdat
	.align 2
	.p2align 4
	.weak	_ZN4asio2ip16resolver_serviceINS0_3tcpEE16shutdown_serviceEv
	.type	_ZN4asio2ip16resolver_serviceINS0_3tcpEE16shutdown_serviceEv, @function
_ZN4asio2ip16resolver_serviceINS0_3tcpEE16shutdown_serviceEv:
.LFB10286:
	.cfi_startproc
	.cfi_personality 0x9b,DW.ref.__gxx_personality_v0
	.cfi_lsda 0x1b,.LLSDA10286
	pushq	%r13
	.cfi_def_cfa_offset 16
	.cfi_offset 13, -16
	pushq	%r12
	.cfi_def_cfa_offset 24
	.cfi_offset 12, -24
	pushq	%rbp
	.cfi_def_cfa_offset 32
	.cfi_offset 6, -32
	pushq	%rbx
	.cfi_def_cfa_offset 40
	.cfi_offset 3, -40
	movq	%rdi, %rbx
	subq	$40, %rsp
	.cfi_def_cfa_offset 80
	movq	104(%rdi), %r12
	movq	%fs:40, %rax
	movq	%rax, 24(%rsp)
	xorl	%eax, %eax
	testq	%r12, %r12
	je	.L357
	movq	(%r12), %rbp
	lock subq	$1, 184(%rbp)
	je	.L404
.L358:
	movl	$8, %esi
	movq	%r12, %rdi
	call	_ZdlPvm@PLT
.L357:
	movq	88(%rbx), %rax
	movq	$0, 104(%rbx)
	testq	%rax, %rax
	je	.L356
	movq	8(%rax), %rbp
	leaq	48(%rbp), %r12
	movq	%r12, %rdi
	call	pthread_mutex_lock@PLT
	movb	$1, 208(%rbp)
	leaq	88(%rbp), %rdi
	orq	$1, 136(%rbp)
	call	pthread_cond_broadcast@PLT
	cmpb	$0, 176(%rbp)
	jne	.L361
	movq	144(%rbp), %rax
	testq	%rax, %rax
	je	.L361
	movb	$1, 176(%rbp)
	leaq	88(%rax), %rdx
	leaq	12(%rsp), %rcx
	movl	$3, %esi
	movq	%rdx, 16(%rsp)
	movl	88(%rax), %edx
	movl	$-2147483639, 12(%rsp)
	movl	96(%rax), %edi
	call	epoll_ctl@PLT
.L361:
	movq	%r12, %rdi
	call	pthread_mutex_unlock@PLT
	movq	112(%rbx), %rbp
	testq	%rbp, %rbp
	je	.L362
	cmpb	$0, 8(%rbp)
	je	.L405
.L363:
	movl	$16, %esi
	movq	%rbp, %rdi
	call	_ZdlPvm@PLT
.L364:
	movq	$0, 112(%rbx)
.L362:
	movq	88(%rbx), %r13
	testq	%r13, %r13
	je	.L365
	movq	0(%r13), %r12
	testq	%r12, %r12
	je	.L366
	movq	56(%r12), %rbp
	testq	%rbp, %rbp
	je	.L368
	.p2align 4,,10
	.p2align 3
.L367:
	movq	0(%rbp), %rax
	movq	%rbp, %rdi
	call	*16(%rax)
	movq	32(%rbp), %rbp
	testq	%rbp, %rbp
	jne	.L367
	movq	56(%r12), %rbp
	testq	%rbp, %rbp
	je	.L368
	.p2align 4,,10
	.p2align 3
.L369:
	movq	%rbp, %rdi
	movq	32(%rbp), %rbp
	movq	(%rdi), %rax
	call	*8(%rax)
	movq	%rbp, 56(%r12)
	testq	%rbp, %rbp
	jne	.L369
.L368:
	leaq	8(%r12), %rdi
	call	pthread_mutex_destroy@PLT
	movl	$64, %esi
	movq	%r12, %rdi
	call	_ZdlPvm@PLT
.L366:
	movl	$16, %esi
	movq	%r13, %rdi
	call	_ZdlPvm@PLT
.L365:
	movq	$0, 88(%rbx)
.L356:
	movq	24(%rsp), %rax
	subq	%fs:40, %rax
	jne	.L406
	addq	$40, %rsp
	.cfi_remember_state
	.cfi_def_cfa_offset 40
	popq	%rbx
	.cfi_def_cfa_offset 32
	popq	%rbp
	.cfi_def_cfa_offset 24
	popq	%r12
	.cfi_def_cfa_offset 16
	popq	%r13
	.cfi_def_cfa_offset 8
	ret
	.p2align 4,,10
	.p2align 3
.L404:
	.cfi_restore_state
	leaq	48(%rbp), %r13
	movq	%r13, %rdi
	call	pthread_mutex_lock@PLT
	movb	$1, 208(%rbp)
	leaq	88(%rbp), %rdi
	orq	$1, 136(%rbp)
	call	pthread_cond_broadcast@PLT
	cmpb	$0, 176(%rbp)
	jne	.L359
	movq	144(%rbp), %rax
	testq	%rax, %rax
	je	.L359
	movb	$1, 176(%rbp)
	leaq	88(%rax), %rdx
	leaq	12(%rsp), %rcx
	movl	$3, %esi
	movq	%rdx, 16(%rsp)
	movl	88(%rax), %edx
	movl	$-2147483639, 12(%rsp)
	movl	96(%rax), %edi
	call	epoll_ctl@PLT
.L359:
	movq	%r13, %rdi
	call	pthread_mutex_unlock@PLT
	jmp	.L358
	.p2align 4,,10
	.p2align 3
.L405:
	movq	0(%rbp), %rdi
	xorl	%esi, %esi
.LEHB2:
	call	pthread_join@PLT
.LEHE2:
	movb	$1, 8(%rbp)
	movq	112(%rbx), %rbp
	testq	%rbp, %rbp
	je	.L364
	cmpb	$0, 8(%rbp)
	jne	.L363
	movq	0(%rbp), %rdi
	call	pthread_detach@PLT
	jmp	.L363
.L406:
	call	__stack_chk_fail@PLT
	.cfi_endproc
.LFE10286:
	.section	.gcc_except_table._ZN4asio2ip16resolver_serviceINS0_3tcpEE16shutdown_serviceEv,"aG",@progbits,_ZN4asio2ip16resolver_serviceINS0_3tcpEE16shutdown_serviceEv,comdat
.LLSDA10286:
	.byte	0xff
	.byte	0xff
	.byte	0x1
	.uleb128 .LLSDACSE10286-.LLSDACSB10286
.LLSDACSB10286:
	.uleb128 .LEHB2-.LFB10286
	.uleb128 .LEHE2-.LEHB2
	.uleb128 0
	.uleb128 0
.LLSDACSE10286:
	.section	.text._ZN4asio2ip16resolver_serviceINS0_3tcpEE16shutdown_serviceEv,"axG",@progbits,_ZN4asio2ip16resolver_serviceINS0_3tcpEE16shutdown_serviceEv,comdat
	.size	_ZN4asio2ip16resolver_serviceINS0_3tcpEE16shutdown_serviceEv, .-_ZN4asio2ip16resolver_serviceINS0_3tcpEE16shutdown_serviceEv
	.section	.text._ZNK4asio6detail15system_category7messageB5cxx11Ei,"axG",@progbits,_ZNK4asio6detail15system_category7messageB5cxx11Ei,comdat
	.align 2
	.p2align 4
	.weak	_ZNK4asio6detail15system_category7messageB5cxx11Ei
	.type	_ZNK4asio6detail15system_category7messageB5cxx11Ei, @function
_ZNK4asio6detail15system_category7messageB5cxx11Ei:
.LFB2374:
	.cfi_startproc
	pushq	%r14
	.cfi_def_cfa_offset 16
	.cfi_offset 14, -16
	pushq	%r13
	.cfi_def_cfa_offset 24
	.cfi_offset 13, -24
	pushq	%r12
	.cfi_def_cfa_offset 32
	.cfi_offset 12, -32
	movq	%rdi, %r12
	pushq	%rbp
	.cfi_def_cfa_offset 40
	.cfi_offset 6, -40
	leaq	16(%rdi), %rbp
	subq	$296, %rsp
	.cfi_def_cfa_offset 336
	movq	%fs:40, %rax
	movq	%rax, 280(%rsp)
	xorl	%eax, %eax
	cmpl	$125, %edx
	je	.L422
	pxor	%xmm0, %xmm0
	movl	%edx, %edi
	leaq	16(%rsp), %rsi
	movl	$256, %edx
	movups	%xmm0, 16(%rsp)
	movups	%xmm0, 32(%rsp)
	movups	%xmm0, 48(%rsp)
	movups	%xmm0, 64(%rsp)
	movups	%xmm0, 80(%rsp)
	movups	%xmm0, 96(%rsp)
	movups	%xmm0, 112(%rsp)
	movups	%xmm0, 128(%rsp)
	movups	%xmm0, 144(%rsp)
	movups	%xmm0, 160(%rsp)
	movups	%xmm0, 176(%rsp)
	movups	%xmm0, 192(%rsp)
	movups	%xmm0, 208(%rsp)
	movups	%xmm0, 224(%rsp)
	movups	%xmm0, 240(%rsp)
	movups	%xmm0, 256(%rsp)
	call	strerror_r@PLT
	movq	%rbp, (%r12)
	movq	%rax, %r13
	testq	%rax, %rax
	je	.L410
	movq	%rax, %rdi
	call	strlen@PLT
	movq	%rax, 8(%rsp)
	movq	%rax, %r14
	cmpq	$15, %rax
	ja	.L423
	cmpq	$1, %rax
	jne	.L414
	movzbl	0(%r13), %edx
	movb	%dl, 16(%r12)
.L415:
	movq	%rax, 8(%r12)
	movb	$0, 0(%rbp,%rax)
.L407:
	movq	280(%rsp), %rax
	subq	%fs:40, %rax
	jne	.L424
	addq	$296, %rsp
	.cfi_remember_state
	.cfi_def_cfa_offset 40
	movq	%r12, %rax
	popq	%rbp
	.cfi_def_cfa_offset 32
	popq	%r12
	.cfi_def_cfa_offset 24
	popq	%r13
	.cfi_def_cfa_offset 16
	popq	%r14
	.cfi_def_cfa_offset 8
	ret
	.p2align 4,,10
	.p2align 3
.L423:
	.cfi_restore_state
	leaq	8(%rsp), %rsi
	xorl	%edx, %edx
	movq	%r12, %rdi
	call	_ZNSt7__cxx1112basic_stringIcSt11char_traitsIcESaIcEE9_M_createERmm@PLT
	movq	%rax, (%r12)
	movq	%rax, %rbp
	movq	8(%rsp), %rax
	movq	%rax, 16(%r12)
.L413:
	movq	%rbp, %rdi
	movq	%r14, %rdx
	movq	%r13, %rsi
	call	memcpy@PLT
	movq	8(%rsp), %rax
	movq	(%r12), %rbp
	jmp	.L415
	.p2align 4,,10
	.p2align 3
.L422:
	movq	%rbp, (%rdi)
	xorl	%edx, %edx
	leaq	8(%rsp), %rsi
	movq	$18, 8(%rsp)
	call	_ZNSt7__cxx1112basic_stringIcSt11char_traitsIcESaIcEE9_M_createERmm@PLT
	movq	8(%rsp), %rdx
	movdqa	.LC5(%rip), %xmm0
	movq	%rax, (%r12)
	movq	%rdx, 16(%r12)
	movl	$11876, %edx
	movw	%dx, 16(%rax)
	movups	%xmm0, (%rax)
	movq	8(%rsp), %rax
	movq	(%r12), %rdx
	movq	%rax, 8(%r12)
	movb	$0, (%rdx,%rax)
	jmp	.L407
	.p2align 4,,10
	.p2align 3
.L414:
	testq	%rax, %rax
	je	.L415
	jmp	.L413
.L410:
	leaq	.LC4(%rip), %rdi
	call	_ZSt19__throw_logic_errorPKc@PLT
.L424:
	call	__stack_chk_fail@PLT
	.cfi_endproc
.LFE2374:
	.size	_ZNK4asio6detail15system_category7messageB5cxx11Ei, .-_ZNK4asio6detail15system_category7messageB5cxx11Ei
	.section	.text._ZN4asio2ip16resolver_serviceINS0_3tcpEED2Ev,"axG",@progbits,_ZN4asio2ip16resolver_serviceINS0_3tcpEED5Ev,comdat
	.align 2
	.p2align 4
	.weak	_ZN4asio2ip16resolver_serviceINS0_3tcpEED2Ev
	.type	_ZN4asio2ip16resolver_serviceINS0_3tcpEED2Ev, @function
_ZN4asio2ip16resolver_serviceINS0_3tcpEED2Ev:
.LFB10146:
	.cfi_startproc
	.cfi_personality 0x9b,DW.ref.__gxx_personality_v0
	.cfi_lsda 0x1b,.LLSDA10146
	pushq	%r13
	.cfi_def_cfa_offset 16
	.cfi_offset 13, -16
	pushq	%r12
	.cfi_def_cfa_offset 24
	.cfi_offset 12, -24
	pushq	%rbp
	.cfi_def_cfa_offset 32
	.cfi_offset 6, -32
	pushq	%rbx
	.cfi_def_cfa_offset 40
	.cfi_offset 3, -40
	movq	%rdi, %rbx
	subq	$40, %rsp
	.cfi_def_cfa_offset 80
	movq	104(%rdi), %r12
	movq	%fs:40, %rax
	movq	%rax, 24(%rsp)
	movq	_ZTVN4asio2ip16resolver_serviceINS0_3tcpEEE@GOTPCREL(%rip), %rax
	addq	$16, %rax
	movq	%rax, (%rdi)
	testq	%r12, %r12
	je	.L426
	movq	(%r12), %rbp
	lock subq	$1, 184(%rbp)
	je	.L499
.L427:
	movl	$8, %esi
	movq	%r12, %rdi
	call	_ZdlPvm@PLT
.L426:
	movq	88(%rbx), %rax
	movq	$0, 104(%rbx)
	testq	%rax, %rax
	je	.L500
	movq	8(%rax), %rbp
	leaq	48(%rbp), %r12
	movq	%r12, %rdi
	call	pthread_mutex_lock@PLT
	movb	$1, 208(%rbp)
	leaq	88(%rbp), %rdi
	orq	$1, 136(%rbp)
	call	pthread_cond_broadcast@PLT
	cmpb	$0, 176(%rbp)
	jne	.L431
	movq	144(%rbp), %rax
	testq	%rax, %rax
	je	.L431
	movb	$1, 176(%rbp)
	leaq	88(%rax), %rdx
	leaq	12(%rsp), %rcx
	movl	$3, %esi
	movq	%rdx, 16(%rsp)
	movl	88(%rax), %edx
	movl	$-2147483639, 12(%rsp)
	movl	96(%rax), %edi
	call	epoll_ctl@PLT
.L431:
	movq	%r12, %rdi
	call	pthread_mutex_unlock@PLT
	movq	112(%rbx), %rbp
	testq	%rbp, %rbp
	je	.L432
	cmpb	$0, 8(%rbp)
	je	.L501
.L433:
	movl	$16, %esi
	movq	%rbp, %rdi
	call	_ZdlPvm@PLT
.L434:
	movq	88(%rbx), %r13
	movq	$0, 112(%rbx)
	testq	%r13, %r13
	je	.L436
.L435:
	movq	0(%r13), %r12
	testq	%r12, %r12
	je	.L437
	movq	56(%r12), %rbp
	testq	%rbp, %rbp
	je	.L439
	.p2align 4,,10
	.p2align 3
.L438:
	movq	0(%rbp), %rax
	movq	%rbp, %rdi
	call	*16(%rax)
	movq	32(%rbp), %rbp
	testq	%rbp, %rbp
	jne	.L438
	movq	56(%r12), %rbp
	testq	%rbp, %rbp
	je	.L439
	.p2align 4,,10
	.p2align 3
.L440:
	movq	%rbp, %rdi
	movq	32(%rbp), %rbp
	movq	(%rdi), %rax
	call	*8(%rax)
	movq	%rbp, 56(%r12)
	testq	%rbp, %rbp
	jne	.L440
.L439:
	leaq	8(%r12), %rdi
	call	pthread_mutex_destroy@PLT
	movl	$64, %esi
	movq	%r12, %rdi
	call	_ZdlPvm@PLT
.L437:
	movl	$16, %esi
	movq	%r13, %rdi
	call	_ZdlPvm@PLT
	movq	$0, 88(%rbx)
	movq	112(%rbx), %rbp
.L430:
	testq	%rbp, %rbp
	je	.L436
	cmpb	$0, 8(%rbp)
	je	.L502
.L442:
	movl	$16, %esi
	movq	%rbp, %rdi
	call	_ZdlPvm@PLT
.L436:
	movq	104(%rbx), %r12
	testq	%r12, %r12
	je	.L443
	movq	(%r12), %rbp
	lock subq	$1, 184(%rbp)
	je	.L503
.L444:
	movl	$8, %esi
	movq	%r12, %rdi
	call	_ZdlPvm@PLT
.L443:
	movq	88(%rbx), %r13
	testq	%r13, %r13
	je	.L446
	movq	0(%r13), %r12
	testq	%r12, %r12
	je	.L447
	movq	56(%r12), %rbp
	testq	%rbp, %rbp
	je	.L449
	.p2align 4,,10
	.p2align 3
.L448:
	movq	0(%rbp), %rax
	movq	%rbp, %rdi
	call	*16(%rax)
	movq	32(%rbp), %rbp
	testq	%rbp, %rbp
	jne	.L448
	movq	56(%r12), %rbp
	testq	%rbp, %rbp
	je	.L449
	.p2align 4,,10
	.p2align 3
.L450:
	movq	%rbp, %rdi
	movq	32(%rbp), %rbp
	movq	(%rdi), %rax
	call	*8(%rax)
	movq	%rbp, 56(%r12)
	testq	%rbp, %rbp
	jne	.L450
.L449:
	leaq	8(%r12), %rdi
	call	pthread_mutex_destroy@PLT
	movl	$64, %esi
	movq	%r12, %rdi
	call	_ZdlPvm@PLT
.L447:
	movl	$16, %esi
	movq	%r13, %rdi
	call	_ZdlPvm@PLT
.L446:
	movq	24(%rsp), %rax
	subq	%fs:40, %rax
	jne	.L504
	addq	$40, %rsp
	.cfi_remember_state
	.cfi_def_cfa_offset 40
	leaq	48(%rbx), %rdi
	popq	%rbx
	.cfi_def_cfa_offset 32
	popq	%rbp
	.cfi_def_cfa_offset 24
	popq	%r12
	.cfi_def_cfa_offset 16
	popq	%r13
	.cfi_def_cfa_offset 8
	jmp	pthread_mutex_destroy@PLT
	.p2align 4,,10
	.p2align 3
.L500:
	.cfi_restore_state
	movq	112(%rbx), %rbp
	jmp	.L430
	.p2align 4,,10
	.p2align 3
.L502:
	movq	0(%rbp), %rdi
	call	pthread_detach@PLT
	jmp	.L442
	.p2align 4,,10
	.p2align 3
.L499:
	leaq	48(%rbp), %r13
	movq	%r13, %rdi
	call	pthread_mutex_lock@PLT
	movb	$1, 208(%rbp)
	leaq	88(%rbp), %rdi
	orq	$1, 136(%rbp)
	call	pthread_cond_broadcast@PLT
	cmpb	$0, 176(%rbp)
	jne	.L428
	movq	144(%rbp), %rax
	testq	%rax, %rax
	je	.L428
	movb	$1, 176(%rbp)
	leaq	88(%rax), %rdx
	leaq	12(%rsp), %rcx
	movl	$3, %esi
	movq	%rdx, 16(%rsp)
	movl	88(%rax), %edx
	movl	$-2147483639, 12(%rsp)
	movl	96(%rax), %edi
	call	epoll_ctl@PLT
.L428:
	movq	%r13, %rdi
	call	pthread_mutex_unlock@PLT
	jmp	.L427
	.p2align 4,,10
	.p2align 3
.L432:
	movq	88(%rbx), %r13
	testq	%r13, %r13
	jne	.L435
	jmp	.L436
	.p2align 4,,10
	.p2align 3
.L503:
	leaq	48(%rbp), %r13
	movq	%r13, %rdi
	call	pthread_mutex_lock@PLT
	movb	$1, 208(%rbp)
	leaq	88(%rbp), %rdi
	orq	$1, 136(%rbp)
	call	pthread_cond_broadcast@PLT
	cmpb	$0, 176(%rbp)
	jne	.L445
	movq	144(%rbp), %rax
	testq	%rax, %rax
	je	.L445
	movb	$1, 176(%rbp)
	leaq	88(%rax), %rdx
	leaq	12(%rsp), %rcx
	movl	$3, %esi
	movq	%rdx, 16(%rsp)
	movl	88(%rax), %edx
	movl	$-2147483639, 12(%rsp)
	movl	96(%rax), %edi
	call	epoll_ctl@PLT
.L445:
	movq	%r13, %rdi
	call	pthread_mutex_unlock@PLT
	jmp	.L444
	.p2align 4,,10
	.p2align 3
.L501:
	movq	0(%rbp), %rdi
	xorl	%esi, %esi
	call	pthread_join@PLT
	movb	$1, 8(%rbp)
	movq	112(%rbx), %rbp
	testq	%rbp, %rbp
	je	.L434
	cmpb	$0, 8(%rbp)
	jne	.L433
	movq	0(%rbp), %rdi
	call	pthread_detach@PLT
	jmp	.L433
.L504:
	call	__stack_chk_fail@PLT
	.cfi_endproc
.LFE10146:
	.section	.gcc_except_table._ZN4asio2ip16resolver_serviceINS0_3tcpEED2Ev,"aG",@progbits,_ZN4asio2ip16resolver_serviceINS0_3tcpEED5Ev,comdat
.LLSDA10146:
	.byte	0xff
	.byte	0xff
	.byte	0x1
	.uleb128 .LLSDACSE10146-.LLSDACSB10146
.LLSDACSB10146:
.LLSDACSE10146:
	.section	.text._ZN4asio2ip16resolver_serviceINS0_3tcpEED2Ev,"axG",@progbits,_ZN4asio2ip16resolver_serviceINS0_3tcpEED5Ev,comdat
	.size	_ZN4asio2ip16resolver_serviceINS0_3tcpEED2Ev, .-_ZN4asio2ip16resolver_serviceINS0_3tcpEED2Ev
	.weak	_ZN4asio2ip16resolver_serviceINS0_3tcpEED1Ev
	.set	_ZN4asio2ip16resolver_serviceINS0_3tcpEED1Ev,_ZN4asio2ip16resolver_serviceINS0_3tcpEED2Ev
	.section	.text._ZN4asio2ip16resolver_serviceINS0_3tcpEED0Ev,"axG",@progbits,_ZN4asio2ip16resolver_serviceINS0_3tcpEED5Ev,comdat
	.align 2
	.p2align 4
	.weak	_ZN4asio2ip16resolver_serviceINS0_3tcpEED0Ev
	.type	_ZN4asio2ip16resolver_serviceINS0_3tcpEED0Ev, @function
_ZN4asio2ip16resolver_serviceINS0_3tcpEED0Ev:
.LFB10148:
	.cfi_startproc
	.cfi_personality 0x9b,DW.ref.__gxx_personality_v0
	.cfi_lsda 0x1b,.LLSDA10148
	pushq	%r13
	.cfi_def_cfa_offset 16
	.cfi_offset 13, -16
	pushq	%r12
	.cfi_def_cfa_offset 24
	.cfi_offset 12, -24
	pushq	%rbp
	.cfi_def_cfa_offset 32
	.cfi_offset 6, -32
	movq	%rdi, %rbp
	pushq	%rbx
	.cfi_def_cfa_offset 40
	.cfi_offset 3, -40
	subq	$40, %rsp
	.cfi_def_cfa_offset 80
	movq	104(%rdi), %r12
	movq	%fs:40, %rax
	movq	%rax, 24(%rsp)
	movq	_ZTVN4asio2ip16resolver_serviceINS0_3tcpEEE@GOTPCREL(%rip), %rax
	addq	$16, %rax
	movq	%rax, (%rdi)
	testq	%r12, %r12
	je	.L506
	movq	(%r12), %rbx
	lock subq	$1, 184(%rbx)
	je	.L579
.L507:
	movl	$8, %esi
	movq	%r12, %rdi
	call	_ZdlPvm@PLT
.L506:
	movq	88(%rbp), %rax
	movq	$0, 104(%rbp)
	testq	%rax, %rax
	je	.L580
	movq	8(%rax), %rbx
	leaq	48(%rbx), %r12
	movq	%r12, %rdi
	call	pthread_mutex_lock@PLT
	movb	$1, 208(%rbx)
	leaq	88(%rbx), %rdi
	orq	$1, 136(%rbx)
	call	pthread_cond_broadcast@PLT
	cmpb	$0, 176(%rbx)
	jne	.L511
	movq	144(%rbx), %rax
	testq	%rax, %rax
	je	.L511
	movb	$1, 176(%rbx)
	leaq	88(%rax), %rdx
	leaq	12(%rsp), %rcx
	movl	$3, %esi
	movq	%rdx, 16(%rsp)
	movl	88(%rax), %edx
	movl	$-2147483639, 12(%rsp)
	movl	96(%rax), %edi
	call	epoll_ctl@PLT
.L511:
	movq	%r12, %rdi
	call	pthread_mutex_unlock@PLT
	movq	112(%rbp), %r12
	testq	%r12, %r12
	je	.L512
	cmpb	$0, 8(%r12)
	je	.L581
.L513:
	movl	$16, %esi
	movq	%r12, %rdi
	call	_ZdlPvm@PLT
.L514:
	movq	88(%rbp), %r13
	movq	$0, 112(%rbp)
	testq	%r13, %r13
	je	.L516
.L515:
	movq	0(%r13), %r12
	testq	%r12, %r12
	je	.L517
	movq	56(%r12), %rbx
	testq	%rbx, %rbx
	je	.L519
	.p2align 4,,10
	.p2align 3
.L518:
	movq	(%rbx), %rax
	movq	%rbx, %rdi
	call	*16(%rax)
	movq	32(%rbx), %rbx
	testq	%rbx, %rbx
	jne	.L518
	movq	56(%r12), %rbx
	testq	%rbx, %rbx
	je	.L519
	.p2align 4,,10
	.p2align 3
.L520:
	movq	%rbx, %rdi
	movq	32(%rbx), %rbx
	movq	(%rdi), %rax
	call	*8(%rax)
	movq	%rbx, 56(%r12)
	testq	%rbx, %rbx
	jne	.L520
.L519:
	leaq	8(%r12), %rdi
	call	pthread_mutex_destroy@PLT
	movl	$64, %esi
	movq	%r12, %rdi
	call	_ZdlPvm@PLT
.L517:
	movl	$16, %esi
	movq	%r13, %rdi
	call	_ZdlPvm@PLT
	movq	$0, 88(%rbp)
	movq	112(%rbp), %r12
.L510:
	testq	%r12, %r12
	je	.L516
	cmpb	$0, 8(%r12)
	je	.L582
.L522:
	movl	$16, %esi
	movq	%r12, %rdi
	call	_ZdlPvm@PLT
.L516:
	movq	104(%rbp), %r12
	testq	%r12, %r12
	je	.L523
	movq	(%r12), %rbx
	lock subq	$1, 184(%rbx)
	je	.L583
.L524:
	movl	$8, %esi
	movq	%r12, %rdi
	call	_ZdlPvm@PLT
.L523:
	movq	88(%rbp), %r13
	testq	%r13, %r13
	je	.L526
	movq	0(%r13), %r12
	testq	%r12, %r12
	je	.L527
	movq	56(%r12), %rbx
	testq	%rbx, %rbx
	je	.L529
	.p2align 4,,10
	.p2align 3
.L528:
	movq	(%rbx), %rax
	movq	%rbx, %rdi
	call	*16(%rax)
	movq	32(%rbx), %rbx
	testq	%rbx, %rbx
	jne	.L528
	movq	56(%r12), %rbx
	testq	%rbx, %rbx
	je	.L529
	.p2align 4,,10
	.p2align 3
.L530:
	movq	%rbx, %rdi
	movq	32(%rbx), %rbx
	movq	(%rdi), %rax
	call	*8(%rax)
	movq	%rbx, 56(%r12)
	testq	%rbx, %rbx
	jne	.L530
.L529:
	leaq	8(%r12), %rdi
	call	pthread_mutex_destroy@PLT
	movl	$64, %esi
	movq	%r12, %rdi
	call	_ZdlPvm@PLT
.L527:
	movl	$16, %esi
	movq	%r13, %rdi
	call	_ZdlPvm@PLT
.L526:
	leaq	48(%rbp), %rdi
	call	pthread_mutex_destroy@PLT
	movq	24(%rsp), %rax
	subq	%fs:40, %rax
	jne	.L584
	addq	$40, %rsp
	.cfi_remember_state
	.cfi_def_cfa_offset 40
	movq	%rbp, %rdi
	movl	$120, %esi
	popq	%rbx
	.cfi_def_cfa_offset 32
	popq	%rbp
	.cfi_def_cfa_offset 24
	popq	%r12
	.cfi_def_cfa_offset 16
	popq	%r13
	.cfi_def_cfa_offset 8
	jmp	_ZdlPvm@PLT
	.p2align 4,,10
	.p2align 3
.L580:
	.cfi_restore_state
	movq	112(%rbp), %r12
	jmp	.L510
	.p2align 4,,10
	.p2align 3
.L582:
	movq	(%r12), %rdi
	call	pthread_detach@PLT
	jmp	.L522
	.p2align 4,,10
	.p2align 3
.L579:
	leaq	48(%rbx), %r13
	movq	%r13, %rdi
	call	pthread_mutex_lock@PLT
	movb	$1, 208(%rbx)
	leaq	88(%rbx), %rdi
	orq	$1, 136(%rbx)
	call	pthread_cond_broadcast@PLT
	cmpb	$0, 176(%rbx)
	jne	.L508
	movq	144(%rbx), %rax
	testq	%rax, %rax
	je	.L508
	movb	$1, 176(%rbx)
	leaq	88(%rax), %rdx
	leaq	12(%rsp), %rcx
	movl	$3, %esi
	movq	%rdx, 16(%rsp)
	movl	88(%rax), %edx
	movl	$-2147483639, 12(%rsp)
	movl	96(%rax), %edi
	call	epoll_ctl@PLT
.L508:
	movq	%r13, %rdi
	call	pthread_mutex_unlock@PLT
	jmp	.L507
	.p2align 4,,10
	.p2align 3
.L512:
	movq	88(%rbp), %r13
	testq	%r13, %r13
	jne	.L515
	jmp	.L516
	.p2align 4,,10
	.p2align 3
.L583:
	leaq	48(%rbx), %r13
	movq	%r13, %rdi
	call	pthread_mutex_lock@PLT
	movb	$1, 208(%rbx)
	leaq	88(%rbx), %rdi
	orq	$1, 136(%rbx)
	call	pthread_cond_broadcast@PLT
	cmpb	$0, 176(%rbx)
	jne	.L525
	movq	144(%rbx), %rax
	testq	%rax, %rax
	je	.L525
	movb	$1, 176(%rbx)
	leaq	88(%rax), %rdx
	leaq	12(%rsp), %rcx
	movl	$3, %esi
	movq	%rdx, 16(%rsp)
	movl	88(%rax), %edx
	movl	$-2147483639, 12(%rsp)
	movl	96(%rax), %edi
	call	epoll_ctl@PLT
.L525:
	movq	%r13, %rdi
	call	pthread_mutex_unlock@PLT
	jmp	.L524
	.p2align 4,,10
	.p2align 3
.L581:
	movq	(%r12), %rdi
	xorl	%esi, %esi
	call	pthread_join@PLT
	movb	$1, 8(%r12)
	movq	112(%rbp), %r12
	testq	%r12, %r12
	je	.L514
	cmpb	$0, 8(%r12)
	jne	.L513
	movq	(%r12), %rdi
	call	pthread_detach@PLT
	jmp	.L513
.L584:
	call	__stack_chk_fail@PLT
	.cfi_endproc
.LFE10148:
	.section	.gcc_except_table._ZN4asio2ip16resolver_serviceINS0_3tcpEED0Ev,"aG",@progbits,_ZN4asio2ip16resolver_serviceINS0_3tcpEED5Ev,comdat
.LLSDA10148:
	.byte	0xff
	.byte	0xff
	.byte	0x1
	.uleb128 .LLSDACSE10148-.LLSDACSB10148
.LLSDACSB10148:
.LLSDACSE10148:
	.section	.text._ZN4asio2ip16resolver_serviceINS0_3tcpEED0Ev,"axG",@progbits,_ZN4asio2ip16resolver_serviceINS0_3tcpEED5Ev,comdat
	.size	_ZN4asio2ip16resolver_serviceINS0_3tcpEED0Ev, .-_ZN4asio2ip16resolver_serviceINS0_3tcpEED0Ev
	.section	.text._ZNK4asio5error6detail17addrinfo_category7messageB5cxx11Ei,"axG",@progbits,_ZNK4asio5error6detail17addrinfo_category7messageB5cxx11Ei,comdat
	.align 2
	.p2align 4
	.weak	_ZNK4asio5error6detail17addrinfo_category7messageB5cxx11Ei
	.type	_ZNK4asio5error6detail17addrinfo_category7messageB5cxx11Ei, @function
_ZNK4asio5error6detail17addrinfo_category7messageB5cxx11Ei:
.LFB2420:
	.cfi_startproc
	pushq	%r12
	.cfi_def_cfa_offset 16
	.cfi_offset 12, -16
	movq	%rdi, %r12
	subq	$16, %rsp
	.cfi_def_cfa_offset 32
	movq	%fs:40, %rax
	movq	%rax, 8(%rsp)
	xorl	%eax, %eax
	leaq	16(%rdi), %rax
	movq	%rax, (%rdi)
	cmpl	$-8, %edx
	je	.L591
	cmpl	$-7, %edx
	je	.L592
	xorl	%edx, %edx
	movq	%rsp, %rsi
	movq	$19, (%rsp)
	call	_ZNSt7__cxx1112basic_stringIcSt11char_traitsIcESaIcEE9_M_createERmm@PLT
	movq	(%rsp), %rdx
	movdqa	.LC8(%rip), %xmm0
	movq	%rax, (%r12)
	movq	%rdx, 16(%r12)
	movl	$28530, %edx
	movw	%dx, 16(%rax)
	movb	$114, 18(%rax)
	movups	%xmm0, (%rax)
	movq	(%rsp), %rax
	movq	(%r12), %rdx
	movq	%rax, 8(%r12)
	movb	$0, (%rdx,%rax)
.L585:
	movq	8(%rsp), %rax
	subq	%fs:40, %rax
	jne	.L593
	addq	$16, %rsp
	.cfi_remember_state
	.cfi_def_cfa_offset 16
	movq	%r12, %rax
	popq	%r12
	.cfi_def_cfa_offset 8
	ret
	.p2align 4,,10
	.p2align 3
.L592:
	.cfi_restore_state
	xorl	%edx, %edx
	movq	%rsp, %rsi
	movq	$25, (%rsp)
	call	_ZNSt7__cxx1112basic_stringIcSt11char_traitsIcESaIcEE9_M_createERmm@PLT
	movq	(%rsp), %rdx
	movdqa	.LC7(%rip), %xmm0
	movabsq	$7310593918082512243, %rcx
	movq	%rax, (%r12)
	movq	%rdx, 16(%r12)
	movq	%rcx, 16(%rax)
	movb	$100, 24(%rax)
	movups	%xmm0, (%rax)
	movq	(%rsp), %rax
	movq	(%r12), %rdx
	movq	%rax, 8(%r12)
	movb	$0, (%rdx,%rax)
	jmp	.L585
	.p2align 4,,10
	.p2align 3
.L591:
	xorl	%edx, %edx
	movq	%rsp, %rsi
	movq	$17, (%rsp)
	call	_ZNSt7__cxx1112basic_stringIcSt11char_traitsIcESaIcEE9_M_createERmm@PLT
	movq	(%rsp), %rdx
	movdqa	.LC6(%rip), %xmm0
	movq	%rax, (%r12)
	movq	%rdx, 16(%r12)
	movb	$100, 16(%rax)
	movups	%xmm0, (%rax)
	movq	(%rsp), %rax
	movq	(%r12), %rdx
	movq	%rax, 8(%r12)
	movb	$0, (%rdx,%rax)
	jmp	.L585
.L593:
	call	__stack_chk_fail@PLT
	.cfi_endproc
.LFE2420:
	.size	_ZNK4asio5error6detail17addrinfo_category7messageB5cxx11Ei, .-_ZNK4asio5error6detail17addrinfo_category7messageB5cxx11Ei
	.section	.rodata._ZNK4asio5error6detail14netdb_category7messageB5cxx11Ei.str1.8,"aMS",@progbits,1
	.align 8
.LC9:
	.string	"The query is valid, but it does not have associated data"
	.section	.text._ZNK4asio5error6detail14netdb_category7messageB5cxx11Ei,"axG",@progbits,_ZNK4asio5error6detail14netdb_category7messageB5cxx11Ei,comdat
	.align 2
	.p2align 4
	.weak	_ZNK4asio5error6detail14netdb_category7messageB5cxx11Ei
	.type	_ZNK4asio5error6detail14netdb_category7messageB5cxx11Ei, @function
_ZNK4asio5error6detail14netdb_category7messageB5cxx11Ei:
.LFB2414:
	.cfi_startproc
	pushq	%r12
	.cfi_def_cfa_offset 16
	.cfi_offset 12, -16
	movq	%rdi, %r12
	subq	$16, %rsp
	.cfi_def_cfa_offset 32
	movq	%fs:40, %rax
	movq	%rax, 8(%rsp)
	xorl	%eax, %eax
	cmpl	$1, %edx
	je	.L602
	cmpl	$2, %edx
	je	.L603
	cmpl	$4, %edx
	je	.L604
	leaq	16(%rdi), %rax
	movq	%rax, (%rdi)
	cmpl	$3, %edx
	je	.L605
	xorl	%edx, %edx
	movq	%rsp, %rsi
	movq	$16, (%rsp)
	call	_ZNSt7__cxx1112basic_stringIcSt11char_traitsIcESaIcEE9_M_createERmm@PLT
	movq	(%rsp), %rdx
	movdqa	.LC16(%rip), %xmm0
	movq	%rax, (%r12)
	movq	%rdx, 16(%r12)
	movups	%xmm0, (%rax)
	movq	(%rsp), %rax
	movq	(%r12), %rdx
	movq	%rax, 8(%r12)
	movb	$0, (%rdx,%rax)
.L594:
	movq	8(%rsp), %rax
	subq	%fs:40, %rax
	jne	.L606
	addq	$16, %rsp
	.cfi_remember_state
	.cfi_def_cfa_offset 16
	movq	%r12, %rax
	popq	%r12
	.cfi_def_cfa_offset 8
	ret
	.p2align 4,,10
	.p2align 3
.L602:
	.cfi_restore_state
	leaq	16(%rdi), %rax
	movq	%rsp, %rsi
	xorl	%edx, %edx
	movq	$30, (%rsp)
	movq	%rax, (%rdi)
	call	_ZNSt7__cxx1112basic_stringIcSt11char_traitsIcESaIcEE9_M_createERmm@PLT
	movq	(%rsp), %rdx
	movl	$10597, %esi
	movdqa	.LC10(%rip), %xmm0
	movabsq	$8388361603773658465, %rcx
	movq	%rax, (%r12)
	movq	%rdx, 16(%r12)
	movq	%rcx, 16(%rax)
	movl	$1986622561, 24(%rax)
	movw	%si, 28(%rax)
	movups	%xmm0, (%rax)
	movq	(%rsp), %rax
	movq	(%r12), %rdx
	movq	%rax, 8(%r12)
	movb	$0, (%rdx,%rax)
	jmp	.L594
	.p2align 4,,10
	.p2align 3
.L605:
	xorl	%edx, %edx
	movq	%rsp, %rsi
	movq	$55, (%rsp)
	call	_ZNSt7__cxx1112basic_stringIcSt11char_traitsIcESaIcEE9_M_createERmm@PLT
	movq	(%rsp), %rdx
	movdqa	.LC13(%rip), %xmm0
	movq	%rax, (%r12)
	movq	%rdx, 16(%r12)
	movl	$30059, %edx
	movups	%xmm0, (%rax)
	movdqa	.LC14(%rip), %xmm0
	movl	$1869573152, 48(%rax)
	movups	%xmm0, 16(%rax)
	movdqa	.LC15(%rip), %xmm0
	movw	%dx, 52(%rax)
	movb	$112, 54(%rax)
	movups	%xmm0, 32(%rax)
	movq	(%rsp), %rax
	movq	(%r12), %rdx
	movq	%rax, 8(%r12)
	movb	$0, (%rdx,%rax)
	jmp	.L594
	.p2align 4,,10
	.p2align 3
.L603:
	leaq	16(%rdi), %rax
	xorl	%edx, %edx
	movq	%rsp, %rsi
	movq	$51, (%rsp)
	movq	%rax, (%rdi)
	call	_ZNSt7__cxx1112basic_stringIcSt11char_traitsIcESaIcEE9_M_createERmm@PLT
	movq	(%rsp), %rdx
	movl	$25972, %ecx
	movdqa	.LC10(%rip), %xmm0
	movq	%rax, (%r12)
	movq	%rdx, 16(%r12)
	movups	%xmm0, (%rax)
	movdqa	.LC11(%rip), %xmm0
	movw	%cx, 48(%rax)
	movups	%xmm0, 16(%rax)
	movdqa	.LC12(%rip), %xmm0
	movb	$114, 50(%rax)
	movups	%xmm0, 32(%rax)
	movq	(%rsp), %rax
	movq	(%r12), %rdx
	movq	%rax, 8(%r12)
	movb	$0, (%rdx,%rax)
	jmp	.L594
	.p2align 4,,10
	.p2align 3
.L604:
	leaq	.LC9(%rip), %rsi
	call	_ZNSt7__cxx1112basic_stringIcSt11char_traitsIcESaIcEEC2EPKcRKS3_.constprop.0
	jmp	.L594
.L606:
	call	__stack_chk_fail@PLT
	.cfi_endproc
.LFE2414:
	.size	_ZNK4asio5error6detail14netdb_category7messageB5cxx11Ei, .-_ZNK4asio5error6detail14netdb_category7messageB5cxx11Ei
	.section	.rodata._ZNK4asio5error6detail13misc_category7messageB5cxx11Ei.str1.1,"aMS",@progbits,1
.LC17:
	.string	"Element not found"
	.section	.text._ZNK4asio5error6detail13misc_category7messageB5cxx11Ei,"axG",@progbits,_ZNK4asio5error6detail13misc_category7messageB5cxx11Ei,comdat
	.align 2
	.p2align 4
	.weak	_ZNK4asio5error6detail13misc_category7messageB5cxx11Ei
	.type	_ZNK4asio5error6detail13misc_category7messageB5cxx11Ei, @function
_ZNK4asio5error6detail13misc_category7messageB5cxx11Ei:
.LFB2426:
	.cfi_startproc
	pushq	%r12
	.cfi_def_cfa_offset 16
	.cfi_offset 12, -16
	movq	%rdi, %r12
	subq	$16, %rsp
	.cfi_def_cfa_offset 32
	movq	%fs:40, %rax
	movq	%rax, 8(%rsp)
	xorl	%eax, %eax
	cmpl	$1, %edx
	je	.L615
	cmpl	$2, %edx
	je	.L616
	cmpl	$3, %edx
	je	.L617
	leaq	16(%rdi), %rax
	movq	%rax, (%rdi)
	cmpl	$4, %edx
	je	.L618
	movabsq	$8316298233121436513, %rcx
	movl	$28530, %edx
	movq	%rcx, 16(%rdi)
	movl	$1919230051, 8(%rax)
	movw	%dx, 12(%rax)
	movb	$114, 14(%rax)
	movq	$15, 8(%rdi)
	movb	$0, 31(%rdi)
.L607:
	movq	8(%rsp), %rax
	subq	%fs:40, %rax
	jne	.L619
	addq	$16, %rsp
	.cfi_remember_state
	.cfi_def_cfa_offset 16
	movq	%r12, %rax
	popq	%r12
	.cfi_def_cfa_offset 8
	ret
	.p2align 4,,10
	.p2align 3
.L615:
	.cfi_restore_state
	leaq	16(%rdi), %rax
	movl	$1852141679, 24(%rdi)
	movabsq	$2340011850872286273, %rsi
	movq	%rax, (%rdi)
	movq	%rsi, 16(%rdi)
	movq	$12, 8(%rdi)
	movb	$0, 28(%rdi)
	jmp	.L607
	.p2align 4,,10
	.p2align 3
.L618:
	xorl	%edx, %edx
	movq	%rsp, %rsi
	movq	$57, (%rsp)
	call	_ZNSt7__cxx1112basic_stringIcSt11char_traitsIcESaIcEE9_M_createERmm@PLT
	movq	(%rsp), %rdx
	movdqa	.LC18(%rip), %xmm0
	movabsq	$7310291504967217959, %rcx
	movq	%rax, (%r12)
	movq	%rdx, 16(%r12)
	movups	%xmm0, (%rax)
	movdqa	.LC19(%rip), %xmm0
	movq	%rcx, 48(%rax)
	movups	%xmm0, 16(%rax)
	movdqa	.LC20(%rip), %xmm0
	movb	$116, 56(%rax)
	movups	%xmm0, 32(%rax)
	movq	(%rsp), %rax
	movq	(%r12), %rdx
	movq	%rax, 8(%r12)
	movb	$0, (%rdx,%rax)
	jmp	.L607
	.p2align 4,,10
	.p2align 3
.L616:
	movabsq	$7358994418594246213, %rcx
	leaq	16(%rdi), %rax
	movb	$101, 26(%rdi)
	movq	%rcx, 16(%rdi)
	movl	$27753, %ecx
	movq	%rax, (%rdi)
	movw	%cx, 24(%rdi)
	movq	$11, 8(%rdi)
	movb	$0, 27(%rdi)
	jmp	.L607
	.p2align 4,,10
	.p2align 3
.L617:
	leaq	.LC17(%rip), %rsi
	call	_ZNSt7__cxx1112basic_stringIcSt11char_traitsIcESaIcEEC2EPKcRKS3_.constprop.0
	jmp	.L607
.L619:
	call	__stack_chk_fail@PLT
	.cfi_endproc
.LFE2426:
	.size	_ZNK4asio5error6detail13misc_category7messageB5cxx11Ei, .-_ZNK4asio5error6detail13misc_category7messageB5cxx11Ei
	.section	.text.unlikely._ZSt20__throw_bad_weak_ptrv,"axG",@progbits,_ZSt20__throw_bad_weak_ptrv,comdat
	.weak	_ZSt20__throw_bad_weak_ptrv
	.type	_ZSt20__throw_bad_weak_ptrv, @function
_ZSt20__throw_bad_weak_ptrv:
.LFB1733:
	.cfi_startproc
	pushq	%rax
	.cfi_def_cfa_offset 16
	popq	%rax
	.cfi_def_cfa_offset 8
	movl	$8, %edi
	pushq	%rax
	.cfi_def_cfa_offset 16
	call	__cxa_allocate_exception@PLT
	movq	_ZNSt12bad_weak_ptrD1Ev@GOTPCREL(%rip), %rdx
	movq	_ZTISt12bad_weak_ptr@GOTPCREL(%rip), %rsi
	movq	%rax, %rdi
	movq	_ZTVSt12bad_weak_ptr@GOTPCREL(%rip), %rax
	addq	$16, %rax
	movq	%rax, (%rdi)
	call	__cxa_throw@PLT
	.cfi_endproc
.LFE1733:
	.size	_ZSt20__throw_bad_weak_ptrv, .-_ZSt20__throw_bad_weak_ptrv
	.section	.text._ZN4asio6detail16thread_info_base8allocateEPS1_m,"axG",@progbits,_ZN4asio6detail16thread_info_base8allocateEPS1_m,comdat
	.p2align 4
	.weak	_ZN4asio6detail16thread_info_base8allocateEPS1_m
	.type	_ZN4asio6detail16thread_info_base8allocateEPS1_m, @function
_ZN4asio6detail16thread_info_base8allocateEPS1_m:
.LFB2165:
	.cfi_startproc
	pushq	%rbx
	.cfi_def_cfa_offset 16
	.cfi_offset 3, -16
	movq	%rsi, %rbx
	testq	%rdi, %rdi
	je	.L623
	movq	(%rdi), %rax
	testq	%rax, %rax
	je	.L623
	movq	$0, (%rdi)
	movzbl	(%rax), %ecx
	movq	%rcx, %rdx
	cmpq	%rsi, %rcx
	jb	.L624
	movb	%dl, (%rax,%rbx)
	popq	%rbx
	.cfi_remember_state
	.cfi_def_cfa_offset 8
	ret
	.p2align 4,,10
	.p2align 3
.L624:
	.cfi_restore_state
	movq	%rax, %rdi
	call	_ZdlPv@PLT
.L623:
	leaq	1(%rbx), %rdi
	call	_Znwm@PLT
	cmpq	$256, %rbx
	movl	$0, %edx
	cmovb	%rbx, %rdx
	movb	%dl, (%rax,%rbx)
	popq	%rbx
	.cfi_def_cfa_offset 8
	ret
	.cfi_endproc
.LFE2165:
	.size	_ZN4asio6detail16thread_info_base8allocateEPS1_m, .-_ZN4asio6detail16thread_info_base8allocateEPS1_m
	.section	.rodata._ZNSt12system_errorC2ESt10error_codePKc.str1.1,"aMS",@progbits,1
.LC21:
	.string	": "
	.section	.text._ZNSt12system_errorC2ESt10error_codePKc,"axG",@progbits,_ZNSt12system_errorC5ESt10error_codePKc,comdat
	.align 2
	.p2align 4
	.weak	_ZNSt12system_errorC2ESt10error_codePKc
	.type	_ZNSt12system_errorC2ESt10error_codePKc, @function
_ZNSt12system_errorC2ESt10error_codePKc:
.LFB2312:
	.cfi_startproc
	.cfi_personality 0x9b,DW.ref.__gxx_personality_v0
	.cfi_lsda 0x1b,.LLSDA2312
	pushq	%r14
	.cfi_def_cfa_offset 16
	.cfi_offset 14, -16
	movq	%rcx, %r14
	pushq	%r13
	.cfi_def_cfa_offset 24
	.cfi_offset 13, -24
	pushq	%r12
	.cfi_def_cfa_offset 32
	.cfi_offset 12, -32
	movq	%rsi, %r12
	pushq	%rbp
	.cfi_def_cfa_offset 40
	.cfi_offset 6, -40
	movq	%rdx, %rbp
	pushq	%rbx
	.cfi_def_cfa_offset 48
	.cfi_offset 3, -48
	movq	%rdi, %rbx
	subq	$112, %rsp
	.cfi_def_cfa_offset 160
	movq	%fs:40, %rax
	movq	%rax, 104(%rsp)
	xorl	%eax, %eax
	movq	(%rdx), %rax
	leaq	64(%rsp), %r13
	movl	%esi, %edx
	movq	%r13, %rdi
	movq	%rbp, %rsi
.LEHB3:
	call	*32(%rax)
.LEHE3:
	movl	$2, %r8d
	xorl	%edx, %edx
	xorl	%esi, %esi
	leaq	.LC21(%rip), %rcx
	movq	%r13, %rdi
.LEHB4:
	call	_ZNSt7__cxx1112basic_stringIcSt11char_traitsIcESaIcEE10_M_replaceEmmPKcm@PLT
.LEHE4:
	leaq	48(%rsp), %r13
	leaq	16(%rax), %rdx
	movq	%r13, 32(%rsp)
	movq	(%rax), %rcx
	cmpq	%rdx, %rcx
	je	.L656
	movq	%rcx, 32(%rsp)
	movq	16(%rax), %rcx
	movq	%rcx, 48(%rsp)
.L638:
	movq	8(%rax), %rcx
	movb	$0, 16(%rax)
	movq	%r14, %rdi
	movq	%rcx, 40(%rsp)
	movq	%rdx, (%rax)
	movq	$0, 8(%rax)
	call	strlen@PLT
	leaq	32(%rsp), %rdi
	movq	%r14, %rcx
	xorl	%edx, %edx
	movq	%rax, %r8
	xorl	%esi, %esi
.LEHB5:
	call	_ZNSt7__cxx1112basic_stringIcSt11char_traitsIcESaIcEE10_M_replaceEmmPKcm@PLT
.LEHE5:
	leaq	16(%rsp), %r14
	leaq	16(%rax), %rdx
	movq	%r14, (%rsp)
	movq	(%rax), %rcx
	cmpq	%rdx, %rcx
	je	.L657
	movq	%rcx, (%rsp)
	movq	16(%rax), %rcx
	movq	%rcx, 16(%rsp)
.L640:
	movq	8(%rax), %rcx
	movb	$0, 16(%rax)
	movq	%rsp, %rsi
	movq	%rbx, %rdi
	movq	%rcx, 8(%rsp)
	movq	%rdx, (%rax)
	movq	$0, 8(%rax)
.LEHB6:
	call	_ZNSt13runtime_errorC2ERKNSt7__cxx1112basic_stringIcSt11char_traitsIcESaIcEEE@PLT
.LEHE6:
	movq	(%rsp), %rdi
	cmpq	%r14, %rdi
	je	.L641
	movq	16(%rsp), %rax
	leaq	1(%rax), %rsi
	call	_ZdlPvm@PLT
.L641:
	movq	32(%rsp), %rdi
	cmpq	%r13, %rdi
	je	.L642
	movq	48(%rsp), %rax
	leaq	1(%rax), %rsi
	call	_ZdlPvm@PLT
.L642:
	movq	64(%rsp), %rdi
	leaq	80(%rsp), %rax
	cmpq	%rax, %rdi
	je	.L643
	movq	80(%rsp), %rax
	leaq	1(%rax), %rsi
	call	_ZdlPvm@PLT
.L643:
	movq	_ZTVSt12system_error@GOTPCREL(%rip), %rax
	movq	%r12, 16(%rbx)
	movq	%rbp, 24(%rbx)
	addq	$16, %rax
	movq	%rax, (%rbx)
	movq	104(%rsp), %rax
	subq	%fs:40, %rax
	jne	.L658
	addq	$112, %rsp
	.cfi_remember_state
	.cfi_def_cfa_offset 48
	popq	%rbx
	.cfi_def_cfa_offset 40
	popq	%rbp
	.cfi_def_cfa_offset 32
	popq	%r12
	.cfi_def_cfa_offset 24
	popq	%r13
	.cfi_def_cfa_offset 16
	popq	%r14
	.cfi_def_cfa_offset 8
	ret
	.p2align 4,,10
	.p2align 3
.L656:
	.cfi_restore_state
	movdqu	16(%rax), %xmm0
	movaps	%xmm0, 48(%rsp)
	jmp	.L638
	.p2align 4,,10
	.p2align 3
.L657:
	movdqu	16(%rax), %xmm1
	movaps	%xmm1, 16(%rsp)
	jmp	.L640
.L658:
	call	__stack_chk_fail@PLT
.L653:
	movq	%rax, %rbp
	jmp	.L644
.L651:
	movq	%rax, %rbp
	jmp	.L648
.L652:
	movq	%rax, %rbp
	jmp	.L646
.L644:
	movq	(%rsp), %rdi
	cmpq	%r14, %rdi
	je	.L646
	movq	16(%rsp), %rax
	leaq	1(%rax), %rsi
	call	_ZdlPvm@PLT
.L646:
	movq	32(%rsp), %rdi
	cmpq	%r13, %rdi
	je	.L648
	movq	48(%rsp), %rax
	leaq	1(%rax), %rsi
	call	_ZdlPvm@PLT
.L648:
	movq	64(%rsp), %rdi
	leaq	80(%rsp), %rax
	cmpq	%rax, %rdi
	je	.L649
	movq	80(%rsp), %rax
	leaq	1(%rax), %rsi
	call	_ZdlPvm@PLT
.L649:
	movq	%rbp, %rdi
.LEHB7:
	call	_Unwind_Resume@PLT
.LEHE7:
	.cfi_endproc
.LFE2312:
	.section	.gcc_except_table._ZNSt12system_errorC2ESt10error_codePKc,"aG",@progbits,_ZNSt12system_errorC5ESt10error_codePKc,comdat
.LLSDA2312:
	.byte	0xff
	.byte	0xff
	.byte	0x1
	.uleb128 .LLSDACSE2312-.LLSDACSB2312
.LLSDACSB2312:
	.uleb128 .LEHB3-.LFB2312
	.uleb128 .LEHE3-.LEHB3
	.uleb128 0
	.uleb128 0
	.uleb128 .LEHB4-.LFB2312
	.uleb128 .LEHE4-.LEHB4
	.uleb128 .L651-.LFB2312
	.uleb128 0
	.uleb128 .LEHB5-.LFB2312
	.uleb128 .LEHE5-.LEHB5
	.uleb128 .L652-.LFB2312
	.uleb128 0
	.uleb128 .LEHB6-.LFB2312
	.uleb128 .LEHE6-.LEHB6
	.uleb128 .L653-.LFB2312
	.uleb128 0
	.uleb128 .LEHB7-.LFB2312
	.uleb128 .LEHE7-.LEHB7
	.uleb128 0
	.uleb128 0
.LLSDACSE2312:
	.section	.text._ZNSt12system_errorC2ESt10error_codePKc,"axG",@progbits,_ZNSt12system_errorC5ESt10error_codePKc,comdat
	.size	_ZNSt12system_errorC2ESt10error_codePKc, .-_ZNSt12system_errorC2ESt10error_codePKc
	.weak	_ZNSt12system_errorC1ESt10error_codePKc
	.set	_ZNSt12system_errorC1ESt10error_codePKc,_ZNSt12system_errorC2ESt10error_codePKc
	.section	.text._ZN4asio15system_categoryEv,"axG",@progbits,_ZN4asio15system_categoryEv,comdat
	.p2align 4
	.weak	_ZN4asio15system_categoryEv
	.type	_ZN4asio15system_categoryEv, @function
_ZN4asio15system_categoryEv:
.LFB2377:
	.cfi_startproc
	pushq	%r12
	.cfi_def_cfa_offset 16
	.cfi_offset 12, -16
	pushq	%rbp
	.cfi_def_cfa_offset 24
	.cfi_offset 6, -24
	subq	$8, %rsp
	.cfi_def_cfa_offset 32
	movq	_ZGVZN4asio15system_categoryEvE8instance@GOTPCREL(%rip), %rbp
	movzbl	0(%rbp), %eax
	testb	%al, %al
	je	.L660
.L667:
	movq	_ZZN4asio15system_categoryEvE8instance@GOTPCREL(%rip), %r12
	addq	$8, %rsp
	.cfi_remember_state
	.cfi_def_cfa_offset 24
	popq	%rbp
	.cfi_def_cfa_offset 16
	movq	%r12, %rax
	popq	%r12
	.cfi_def_cfa_offset 8
	ret
	.p2align 4,,10
	.p2align 3
.L660:
	.cfi_restore_state
	movq	%rbp, %rdi
	call	__cxa_guard_acquire@PLT
	testl	%eax, %eax
	je	.L667
	movq	_ZZN4asio15system_categoryEvE8instance@GOTPCREL(%rip), %r12
	movq	_ZN4asio6detail15system_categoryD1Ev@GOTPCREL(%rip), %rdi
	leaq	__dso_handle(%rip), %rdx
	movq	%r12, %rsi
	call	__cxa_atexit@PLT
	movq	%rbp, %rdi
	call	__cxa_guard_release@PLT
	addq	$8, %rsp
	.cfi_def_cfa_offset 24
	movq	%r12, %rax
	popq	%rbp
	.cfi_def_cfa_offset 16
	popq	%r12
	.cfi_def_cfa_offset 8
	ret
	.cfi_endproc
.LFE2377:
	.size	_ZN4asio15system_categoryEv, .-_ZN4asio15system_categoryEv
	.section	.text._ZN4asio6detail31reactive_socket_connect_op_base10do_performEPNS0_10reactor_opE,"axG",@progbits,_ZN4asio6detail31reactive_socket_connect_op_base10do_performEPNS0_10reactor_opE,comdat
	.p2align 4
	.weak	_ZN4asio6detail31reactive_socket_connect_op_base10do_performEPNS0_10reactor_opE
	.type	_ZN4asio6detail31reactive_socket_connect_op_base10do_performEPNS0_10reactor_opE, @function
_ZN4asio6detail31reactive_socket_connect_op_base10do_performEPNS0_10reactor_opE:
.LFB3783:
	.cfi_startproc
	pushq	%r12
	.cfi_def_cfa_offset 16
	.cfi_offset 12, -16
	xorl	%edx, %edx
	movl	$1, %esi
	pushq	%rbp
	.cfi_def_cfa_offset 24
	.cfi_offset 6, -24
	pushq	%rbx
	.cfi_def_cfa_offset 32
	.cfi_offset 3, -32
	movq	%rdi, %rbx
	subq	$32, %rsp
	.cfi_def_cfa_offset 64
	movl	56(%rdi), %ebp
	movq	%fs:40, %rax
	movq	%rax, 24(%rsp)
	xorl	%eax, %eax
	leaq	16(%rsp), %rdi
	movl	$4, 20(%rsp)
	movl	%ebp, 16(%rsp)
	call	poll@PLT
	movl	%eax, %r8d
	xorl	%eax, %eax
	testl	%r8d, %r8d
	jne	.L679
.L668:
	movq	24(%rsp), %rcx
	subq	%fs:40, %rcx
	jne	.L680
	addq	$32, %rsp
	.cfi_remember_state
	.cfi_def_cfa_offset 32
	popq	%rbx
	.cfi_def_cfa_offset 24
	popq	%rbp
	.cfi_def_cfa_offset 16
	popq	%r12
	.cfi_def_cfa_offset 8
	ret
	.p2align 4,,10
	.p2align 3
.L679:
	.cfi_restore_state
	movl	$0, 8(%rsp)
	cmpl	$-1, %ebp
	je	.L681
	call	__errno_location@PLT
	movl	$4, %edx
	movl	%ebp, %edi
	leaq	8(%rsp), %rcx
	movl	$0, (%rax)
	leaq	12(%rsp), %r8
	movl	$1, %esi
	movq	%rax, %r12
	movl	$4, 12(%rsp)
	call	getsockopt@PLT
	movl	%eax, %ebp
	call	_ZN4asio15system_categoryEv@PLT
	movl	(%r12), %edx
	movq	%rax, 32(%rbx)
	movl	%edx, 24(%rbx)
	testl	%ebp, %ebp
	jne	.L671
	call	_ZNSt3_V215system_categoryEv@PLT
	movl	$0, 24(%rbx)
	movq	%rax, 32(%rbx)
	movl	8(%rsp), %eax
	testl	%eax, %eax
	jne	.L682
.L671:
	movl	$1, %eax
	jmp	.L668
	.p2align 4,,10
	.p2align 3
.L682:
	call	_ZN4asio15system_categoryEv@PLT
	movl	8(%rsp), %edx
	movq	%rax, 32(%rbx)
	movl	%edx, 24(%rbx)
	jmp	.L671
.L681:
	call	_ZN4asio15system_categoryEv@PLT
	movl	$9, 24(%rbx)
	movq	%rax, 32(%rbx)
	jmp	.L671
.L680:
	call	__stack_chk_fail@PLT
	.cfi_endproc
.LFE3783:
	.size	_ZN4asio6detail31reactive_socket_connect_op_base10do_performEPNS0_10reactor_opE, .-_ZN4asio6detail31reactive_socket_connect_op_base10do_performEPNS0_10reactor_opE
	.text
	.p2align 4
	.type	_ZN4asio6detail10socket_ops5closeEiRhbRSt10error_code.isra.0, @function
_ZN4asio6detail10socket_ops5closeEiRhbRSt10error_code.isra.0:
.LFB10368:
	.cfi_startproc
	pushq	%r14
	.cfi_def_cfa_offset 16
	.cfi_offset 14, -16
	pushq	%r13
	.cfi_def_cfa_offset 24
	.cfi_offset 13, -24
	pushq	%r12
	.cfi_def_cfa_offset 32
	.cfi_offset 12, -32
	pushq	%rbp
	.cfi_def_cfa_offset 40
	.cfi_offset 6, -40
	pushq	%rbx
	.cfi_def_cfa_offset 48
	.cfi_offset 3, -48
	movq	%rcx, %rbx
	subq	$16, %rsp
	.cfi_def_cfa_offset 64
	movq	%fs:40, %rax
	movq	%rax, 8(%rsp)
	xorl	%eax, %eax
	cmpl	$-1, %edi
	je	.L687
	movl	%edi, %ebp
	movq	%rsi, %r12
	movl	%edx, %r14d
	call	__errno_location@PLT
	movq	%rax, %r13
	testb	%r14b, %r14b
	je	.L686
	movzbl	(%r12), %eax
	testb	$8, %al
	jne	.L703
.L686:
	movl	$0, 0(%r13)
	movl	%ebp, %edi
	call	close@PLT
	movl	%eax, %r14d
	call	_ZN4asio15system_categoryEv@PLT
	movl	0(%r13), %edx
	movq	%rax, 8(%rbx)
	movl	%edx, (%rbx)
	testl	%r14d, %r14d
	jne	.L704
.L687:
	call	_ZNSt3_V215system_categoryEv@PLT
	movl	$0, (%rbx)
	movq	%rax, 8(%rbx)
.L683:
	movq	8(%rsp), %rax
	subq	%fs:40, %rax
	jne	.L705
	addq	$16, %rsp
	.cfi_remember_state
	.cfi_def_cfa_offset 48
	popq	%rbx
	.cfi_def_cfa_offset 40
	popq	%rbp
	.cfi_def_cfa_offset 32
	popq	%r12
	.cfi_def_cfa_offset 24
	popq	%r13
	.cfi_def_cfa_offset 16
	popq	%r14
	.cfi_def_cfa_offset 8
	ret
	.p2align 4,,10
	.p2align 3
.L704:
	.cfi_restore_state
	call	_ZN4asio15system_categoryEv@PLT
	cmpq	%rax, 8(%rbx)
	je	.L706
.L688:
	call	_ZN4asio15system_categoryEv@PLT
	cmpq	%rax, 8(%rbx)
	jne	.L683
	cmpl	$11, (%rbx)
	jne	.L683
.L691:
	movq	%rsp, %rdx
	movl	$21537, %esi
	movl	%ebp, %edi
	xorl	%eax, %eax
	movl	$0, (%rsp)
	call	ioctl@PLT
	andb	$-4, (%r12)
	movl	%ebp, %edi
	movl	$0, 0(%r13)
	call	close@PLT
	movl	%eax, %ebp
	call	_ZN4asio15system_categoryEv@PLT
	movl	0(%r13), %edx
	movq	%rax, 8(%rbx)
	movl	%edx, (%rbx)
	testl	%ebp, %ebp
	jne	.L683
	jmp	.L687
	.p2align 4,,10
	.p2align 3
.L703:
	orl	$8, %eax
	movq	%rsp, %rcx
	movl	$8, %r8d
	movl	%ebp, %edi
	movb	%al, (%r12)
	movl	$13, %edx
	movl	$1, %esi
	movl	$0, 0(%r13)
	movq	$0, (%rsp)
	call	setsockopt@PLT
	call	_ZN4asio15system_categoryEv@PLT
	jmp	.L686
	.p2align 4,,10
	.p2align 3
.L706:
	cmpl	$11, (%rbx)
	jne	.L688
	jmp	.L691
.L705:
	call	__stack_chk_fail@PLT
	.cfi_endproc
.LFE10368:
	.size	_ZN4asio6detail10socket_ops5closeEiRhbRSt10error_code.isra.0, .-_ZN4asio6detail10socket_ops5closeEiRhbRSt10error_code.isra.0
	.section	.text._ZN4asio6detail16service_registry14do_use_serviceERKNS_10io_service7service3keyEPFPS3_RS2_E,"axG",@progbits,_ZN4asio6detail16service_registry14do_use_serviceERKNS_10io_service7service3keyEPFPS3_RS2_E,comdat
	.align 2
	.p2align 4
	.weak	_ZN4asio6detail16service_registry14do_use_serviceERKNS_10io_service7service3keyEPFPS3_RS2_E
	.type	_ZN4asio6detail16service_registry14do_use_serviceERKNS_10io_service7service3keyEPFPS3_RS2_E, @function
_ZN4asio6detail16service_registry14do_use_serviceERKNS_10io_service7service3keyEPFPS3_RS2_E:
.LFB2761:
	.cfi_startproc
	pushq	%r15
	.cfi_def_cfa_offset 16
	.cfi_offset 15, -16
	pushq	%r14
	.cfi_def_cfa_offset 24
	.cfi_offset 14, -24
	movq	%rdx, %r14
	pushq	%r13
	.cfi_def_cfa_offset 32
	.cfi_offset 13, -32
	leaq	8(%rdi), %r13
	pushq	%r12
	.cfi_def_cfa_offset 40
	.cfi_offset 12, -40
	pushq	%rbp
	.cfi_def_cfa_offset 48
	.cfi_offset 6, -48
	movq	%rdi, %rbp
	movq	%r13, %rdi
	pushq	%rbx
	.cfi_def_cfa_offset 56
	.cfi_offset 3, -56
	movq	%rsi, %rbx
	subq	$8, %rsp
	.cfi_def_cfa_offset 64
	call	pthread_mutex_lock@PLT
	movq	56(%rbp), %r12
	testq	%r12, %r12
	je	.L708
	.p2align 4,,10
	.p2align 3
.L713:
	movq	16(%r12), %rax
	movq	8(%r12), %rdx
	testq	%rax, %rax
	je	.L709
	movq	8(%rbx), %rcx
	cmpq	%rcx, %rax
	jne	.L709
	testq	%rcx, %rcx
	jne	.L710
.L709:
	testq	%rdx, %rdx
	je	.L712
	movq	(%rbx), %rax
	testq	%rax, %rax
	je	.L712
	movq	8(%rdx), %rdi
	movq	8(%rax), %rsi
	cmpq	%rsi, %rdi
	je	.L710
	cmpb	$42, (%rdi)
	je	.L712
	call	strcmp@PLT
	testl	%eax, %eax
	jne	.L712
.L710:
	movq	%r13, %rdi
	call	pthread_mutex_unlock@PLT
	addq	$8, %rsp
	.cfi_remember_state
	.cfi_def_cfa_offset 56
	movq	%r12, %rax
	popq	%rbx
	.cfi_def_cfa_offset 48
	popq	%rbp
	.cfi_def_cfa_offset 40
	popq	%r12
	.cfi_def_cfa_offset 32
	popq	%r13
	.cfi_def_cfa_offset 24
	popq	%r14
	.cfi_def_cfa_offset 16
	popq	%r15
	.cfi_def_cfa_offset 8
	ret
	.p2align 4,,10
	.p2align 3
.L712:
	.cfi_restore_state
	movq	32(%r12), %r12
	testq	%r12, %r12
	jne	.L713
.L708:
	movq	%r13, %rdi
	call	pthread_mutex_unlock@PLT
	movq	48(%rbp), %rdi
	call	*%r14
	movdqu	(%rbx), %xmm0
	movq	%r13, %rdi
	movq	%rax, %r15
	movups	%xmm0, 8(%rax)
	call	pthread_mutex_lock@PLT
	movq	56(%rbp), %r14
	testq	%r14, %r14
	je	.L714
	movq	%r14, %r12
	.p2align 4,,10
	.p2align 3
.L719:
	movq	16(%r12), %rax
	movq	8(%r12), %rdx
	testq	%rax, %rax
	je	.L715
	movq	8(%rbx), %rcx
	cmpq	%rcx, %rax
	jne	.L715
	testq	%rcx, %rcx
	jne	.L716
.L715:
	testq	%rdx, %rdx
	je	.L718
	movq	(%rbx), %rax
	testq	%rax, %rax
	je	.L718
	movq	8(%rdx), %rdi
	movq	8(%rax), %rsi
	cmpq	%rsi, %rdi
	je	.L716
	cmpb	$42, (%rdi)
	je	.L718
	call	strcmp@PLT
	testl	%eax, %eax
	jne	.L718
.L716:
	movq	(%r15), %rax
	movq	%r15, %rdi
	call	*8(%rax)
	jmp	.L710
	.p2align 4,,10
	.p2align 3
.L718:
	movq	32(%r12), %r12
	testq	%r12, %r12
	jne	.L719
.L714:
	movq	%r14, 32(%r15)
	movq	%r15, %r12
	movq	%r15, 56(%rbp)
	jmp	.L710
	.cfi_endproc
.LFE2761:
	.size	_ZN4asio6detail16service_registry14do_use_serviceERKNS_10io_service7service3keyEPFPS3_RS2_E, .-_ZN4asio6detail16service_registry14do_use_serviceERKNS_10io_service7service3keyEPFPS3_RS2_E
	.section	.text._ZN4asio6detail13epoll_reactor3runEbRNS0_8op_queueINS0_25task_io_service_operationEEE,"axG",@progbits,_ZN4asio6detail13epoll_reactor3runEbRNS0_8op_queueINS0_25task_io_service_operationEEE,comdat
	.align 2
	.p2align 4
	.weak	_ZN4asio6detail13epoll_reactor3runEbRNS0_8op_queueINS0_25task_io_service_operationEEE
	.type	_ZN4asio6detail13epoll_reactor3runEbRNS0_8op_queueINS0_25task_io_service_operationEEE, @function
_ZN4asio6detail13epoll_reactor3runEbRNS0_8op_queueINS0_25task_io_service_operationEEE:
.LFB3295:
	.cfi_startproc
	.cfi_personality 0x9b,DW.ref.__gxx_personality_v0
	.cfi_lsda 0x1b,.LLSDA3295
	pushq	%r13
	.cfi_def_cfa_offset 16
	.cfi_offset 13, -16
	pushq	%r12
	.cfi_def_cfa_offset 24
	.cfi_offset 12, -24
	movq	%rdi, %r12
	pushq	%rbp
	.cfi_def_cfa_offset 32
	.cfi_offset 6, -32
	movq	%rdx, %rbp
	pushq	%rbx
	.cfi_def_cfa_offset 40
	.cfi_offset 3, -40
	movl	%esi, %ebx
	subq	$1640, %rsp
	.cfi_def_cfa_offset 1680
	movq	%fs:40, %rax
	movq	%rax, 1624(%rsp)
	xorl	%eax, %eax
	cmpl	$-1, 100(%rdi)
	je	.L761
	movzbl	%sil, %esi
	movl	%esi, %ecx
	negl	%ecx
.L762:
	movl	96(%r12), %edi
	leaq	80(%rsp), %rbx
	movl	$128, %edx
	movq	%rbx, %rsi
.LEHB8:
	call	epoll_wait@PLT
.LEHE8:
	cmpl	$-1, 100(%r12)
	movl	%eax, %edx
	sete	%dil
	testl	%eax, %eax
	jle	.L766
	subl	$1, %edx
	leaq	88(%r12), %rsi
	leaq	100(%r12), %r9
	movq	%rbx, %rax
	leaq	(%rdx,%rdx,2), %rdx
	movl	$1, %r10d
	leaq	92(%rsp,%rdx,4), %rcx
	jmp	.L770
	.p2align 4,,10
	.p2align 3
.L767:
	cmpq	%r9, %rdx
	je	.L786
	movl	(%rax), %r8d
	cmpq	$0, 8(%rbp)
	movq	$0, (%rdx)
	movl	%r8d, 16(%rdx)
	je	.L769
	movq	8(%rbp), %r8
	movq	%rdx, (%r8)
	movq	%rdx, 8(%rbp)
.L768:
	addq	$12, %rax
	cmpq	%rax, %rcx
	je	.L766
.L770:
	movq	4(%rax), %rdx
	cmpq	%rsi, %rdx
	jne	.L767
	cmpl	$-1, 100(%r12)
	cmove	%r10d, %edi
	addq	$12, %rax
	cmpq	%rax, %rcx
	jne	.L770
.L766:
	testb	%dil, %dil
	jne	.L802
.L760:
	movq	1624(%rsp), %rax
	subq	%fs:40, %rax
	jne	.L803
	addq	$1640, %rsp
	.cfi_remember_state
	.cfi_def_cfa_offset 40
	popq	%rbx
	.cfi_def_cfa_offset 32
	popq	%rbp
	.cfi_def_cfa_offset 24
	popq	%r12
	.cfi_def_cfa_offset 16
	popq	%r13
	.cfi_def_cfa_offset 8
	ret
	.p2align 4,,10
	.p2align 3
.L786:
	.cfi_restore_state
	movl	$1, %edi
	jmp	.L768
	.p2align 4,,10
	.p2align 3
.L769:
	movq	%rdx, %xmm0
	punpcklqdq	%xmm0, %xmm0
	movups	%xmm0, 0(%rbp)
	jmp	.L768
	.p2align 4,,10
	.p2align 3
.L802:
	leaq	48(%r12), %r13
	movq	%r13, %rdi
	call	pthread_mutex_lock@PLT
	movq	104(%r12), %rbx
	testq	%rbx, %rbx
	je	.L775
	.p2align 4,,10
	.p2align 3
.L772:
	movq	(%rbx), %rax
	movq	%rbp, %rsi
	movq	%rbx, %rdi
.LEHB9:
	call	*40(%rax)
	movq	8(%rbx), %rbx
	testq	%rbx, %rbx
	jne	.L772
.L775:
	movl	100(%r12), %edi
	cmpl	$-1, %edi
	je	.L774
	movq	104(%r12), %rbx
	pxor	%xmm0, %xmm0
	movaps	%xmm0, 16(%rsp)
	testq	%rbx, %rbx
	je	.L776
	movl	$300000000, %esi
	.p2align 4,,10
	.p2align 3
.L778:
	movq	(%rbx), %rax
	movq	%rbx, %rdi
	call	*32(%rax)
.LEHE9:
	movq	8(%rbx), %rbx
	movq	%rax, %rsi
	testq	%rbx, %rbx
	jne	.L778
	movabsq	$4835703278458516699, %rdx
	xorl	%r8d, %r8d
	movl	100(%r12), %edi
	imulq	%rdx
	movq	%rsi, %rax
	sarq	$63, %rax
	sarq	$18, %rdx
	subq	%rax, %rdx
	testq	%rsi, %rsi
	movl	$1, %eax
	movq	%rdx, 32(%rsp)
	sete	%r8b
	je	.L780
	imulq	$1000000, %rdx, %rdx
	subq	%rdx, %rsi
	imulq	$1000, %rsi, %rax
.L780:
	leaq	48(%rsp), %rcx
	leaq	16(%rsp), %rdx
	movl	%r8d, %esi
	movq	%rax, 40(%rsp)
	call	timerfd_settime@PLT
.L774:
	movq	%r13, %rdi
	call	pthread_mutex_unlock@PLT
	jmp	.L760
	.p2align 4,,10
	.p2align 3
.L761:
	leaq	48(%rdi), %r13
	movq	%r13, %rdi
	call	pthread_mutex_lock@PLT
	testb	%bl, %bl
	je	.L784
	movq	104(%r12), %rbx
	testq	%rbx, %rbx
	je	.L785
	movl	$300000, %esi
	.p2align 4,,10
	.p2align 3
.L765:
	movq	(%rbx), %rax
	movq	%rbx, %rdi
.LEHB10:
	call	*24(%rax)
.LEHE10:
	movq	8(%rbx), %rbx
	movq	%rax, %rsi
	testq	%rbx, %rbx
	jne	.L765
	movl	%eax, %ecx
.L763:
	movq	%r13, %rdi
	movl	%ecx, 12(%rsp)
	call	pthread_mutex_unlock@PLT
	movl	12(%rsp), %ecx
	jmp	.L762
.L784:
	xorl	%ecx, %ecx
	jmp	.L763
.L776:
	movq	$300, 32(%rsp)
	xorl	%r8d, %r8d
	xorl	%eax, %eax
	jmp	.L780
.L785:
	movl	$300000, %ecx
	jmp	.L763
.L803:
	call	__stack_chk_fail@PLT
.L788:
.L801:
	movq	%rax, %rbp
	jmp	.L782
.L789:
	jmp	.L801
.L782:
	movq	%r13, %rdi
	call	pthread_mutex_unlock@PLT
	movq	%rbp, %rdi
.LEHB11:
	call	_Unwind_Resume@PLT
.LEHE11:
	.cfi_endproc
.LFE3295:
	.section	.gcc_except_table._ZN4asio6detail13epoll_reactor3runEbRNS0_8op_queueINS0_25task_io_service_operationEEE,"aG",@progbits,_ZN4asio6detail13epoll_reactor3runEbRNS0_8op_queueINS0_25task_io_service_operationEEE,comdat
.LLSDA3295:
	.byte	0xff
	.byte	0xff
	.byte	0x1
	.uleb128 .LLSDACSE3295-.LLSDACSB3295
.LLSDACSB3295:
	.uleb128 .LEHB8-.LFB3295
	.uleb128 .LEHE8-.LEHB8
	.uleb128 0
	.uleb128 0
	.uleb128 .LEHB9-.LFB3295
	.uleb128 .LEHE9-.LEHB9
	.uleb128 .L789-.LFB3295
	.uleb128 0
	.uleb128 .LEHB10-.LFB3295
	.uleb128 .LEHE10-.LEHB10
	.uleb128 .L788-.LFB3295
	.uleb128 0
	.uleb128 .LEHB11-.LFB3295
	.uleb128 .LEHE11-.LEHB11
	.uleb128 0
	.uleb128 0
.LLSDACSE3295:
	.section	.text._ZN4asio6detail13epoll_reactor3runEbRNS0_8op_queueINS0_25task_io_service_operationEEE,"axG",@progbits,_ZN4asio6detail13epoll_reactor3runEbRNS0_8op_queueINS0_25task_io_service_operationEEE,comdat
	.size	_ZN4asio6detail13epoll_reactor3runEbRNS0_8op_queueINS0_25task_io_service_operationEEE, .-_ZN4asio6detail13epoll_reactor3runEbRNS0_8op_queueINS0_25task_io_service_operationEEE
	.section	.text._ZN4asio6detail15task_io_service12task_cleanupD2Ev,"axG",@progbits,_ZN4asio6detail15task_io_service12task_cleanupD5Ev,comdat
	.align 2
	.p2align 4
	.weak	_ZN4asio6detail15task_io_service12task_cleanupD2Ev
	.type	_ZN4asio6detail15task_io_service12task_cleanupD2Ev, @function
_ZN4asio6detail15task_io_service12task_cleanupD2Ev:
.LFB3318:
	.cfi_startproc
	pushq	%rbp
	.cfi_def_cfa_offset 16
	.cfi_offset 6, -16
	pushq	%rbx
	.cfi_def_cfa_offset 24
	.cfi_offset 3, -24
	movq	%rdi, %rbx
	subq	$8, %rsp
	.cfi_def_cfa_offset 32
	movq	16(%rdi), %rdx
	movq	24(%rdx), %rax
	testq	%rax, %rax
	jle	.L805
	movq	(%rdi), %rdx
	lock addq	%rax, 184(%rdx)
	movq	16(%rdi), %rdx
.L805:
	movq	8(%rbx), %rbp
	movq	$0, 24(%rdx)
	cmpb	$0, 8(%rbp)
	je	.L816
.L806:
	movq	(%rbx), %rax
	movq	8(%rdx), %rcx
	movb	$1, 176(%rax)
	testq	%rcx, %rcx
	je	.L807
	movq	200(%rax), %rsi
	testq	%rsi, %rsi
	je	.L808
	movq	%rcx, (%rsi)
.L809:
	movq	16(%rdx), %rcx
	pxor	%xmm0, %xmm0
	movq	%rcx, 200(%rax)
	movups	%xmm0, 8(%rdx)
.L807:
	movq	200(%rax), %rcx
	leaq	152(%rax), %rdx
	movq	$0, 152(%rax)
	testq	%rcx, %rcx
	je	.L810
	movq	%rdx, (%rcx)
	movq	%rdx, 200(%rax)
	addq	$8, %rsp
	.cfi_remember_state
	.cfi_def_cfa_offset 24
	popq	%rbx
	.cfi_def_cfa_offset 16
	popq	%rbp
	.cfi_def_cfa_offset 8
	ret
	.p2align 4,,10
	.p2align 3
.L808:
	.cfi_restore_state
	movq	%rcx, 192(%rax)
	jmp	.L809
	.p2align 4,,10
	.p2align 3
.L816:
	movq	0(%rbp), %rdi
	call	pthread_mutex_lock@PLT
	movb	$1, 8(%rbp)
	movq	16(%rbx), %rdx
	jmp	.L806
	.p2align 4,,10
	.p2align 3
.L810:
	movq	%rdx, %xmm0
	punpcklqdq	%xmm0, %xmm0
	movups	%xmm0, 192(%rax)
	addq	$8, %rsp
	.cfi_def_cfa_offset 24
	popq	%rbx
	.cfi_def_cfa_offset 16
	popq	%rbp
	.cfi_def_cfa_offset 8
	ret
	.cfi_endproc
.LFE3318:
	.size	_ZN4asio6detail15task_io_service12task_cleanupD2Ev, .-_ZN4asio6detail15task_io_service12task_cleanupD2Ev
	.weak	_ZN4asio6detail15task_io_service12task_cleanupD1Ev
	.set	_ZN4asio6detail15task_io_service12task_cleanupD1Ev,_ZN4asio6detail15task_io_service12task_cleanupD2Ev
	.section	.text._ZN4asio6detail15task_io_service12work_cleanupD2Ev,"axG",@progbits,_ZN4asio6detail15task_io_service12work_cleanupD5Ev,comdat
	.align 2
	.p2align 4
	.weak	_ZN4asio6detail15task_io_service12work_cleanupD2Ev
	.type	_ZN4asio6detail15task_io_service12work_cleanupD2Ev, @function
_ZN4asio6detail15task_io_service12work_cleanupD2Ev:
.LFB3321:
	.cfi_startproc
	pushq	%r12
	.cfi_def_cfa_offset 16
	.cfi_offset 12, -16
	pushq	%rbp
	.cfi_def_cfa_offset 24
	.cfi_offset 6, -24
	pushq	%rbx
	.cfi_def_cfa_offset 32
	.cfi_offset 3, -32
	movq	%rdi, %rbx
	subq	$32, %rsp
	.cfi_def_cfa_offset 64
	movq	%fs:40, %rax
	movq	%rax, 24(%rsp)
	movq	16(%rdi), %rax
	movq	24(%rax), %rdx
	cmpq	$1, %rdx
	jg	.L842
	jne	.L843
.L819:
	movq	8(%rax), %rdx
	movq	$0, 24(%rax)
	testq	%rdx, %rdx
	je	.L817
	movq	8(%rbx), %rbp
	cmpb	$0, 8(%rbp)
	je	.L844
.L841:
	movq	(%rbx), %rcx
	movq	200(%rcx), %rsi
	testq	%rsi, %rsi
	je	.L826
	movq	%rdx, (%rsi)
.L827:
	movq	16(%rax), %rdx
	pxor	%xmm0, %xmm0
	movq	%rdx, 200(%rcx)
	movups	%xmm0, 8(%rax)
.L817:
	movq	24(%rsp), %rax
	subq	%fs:40, %rax
	jne	.L845
	addq	$32, %rsp
	.cfi_remember_state
	.cfi_def_cfa_offset 32
	popq	%rbx
	.cfi_def_cfa_offset 24
	popq	%rbp
	.cfi_def_cfa_offset 16
	popq	%r12
	.cfi_def_cfa_offset 8
	ret
	.p2align 4,,10
	.p2align 3
.L843:
	.cfi_restore_state
	movq	(%rdi), %rbp
	lock subq	$1, 184(%rbp)
	je	.L820
.L840:
	movq	16(%rbx), %rax
	jmp	.L819
	.p2align 4,,10
	.p2align 3
.L844:
	movq	0(%rbp), %rdi
	call	pthread_mutex_lock@PLT
	movq	16(%rbx), %rax
	movb	$1, 8(%rbp)
	movq	8(%rax), %rdx
	testq	%rdx, %rdx
	je	.L817
	jmp	.L841
	.p2align 4,,10
	.p2align 3
.L842:
	movq	(%rdi), %rax
	subq	$1, %rdx
	lock addq	%rdx, 184(%rax)
	movq	16(%rdi), %rax
	jmp	.L819
	.p2align 4,,10
	.p2align 3
.L820:
	leaq	48(%rbp), %r12
	movq	%r12, %rdi
	call	pthread_mutex_lock@PLT
	movb	$1, 208(%rbp)
	leaq	88(%rbp), %rdi
	orq	$1, 136(%rbp)
	call	pthread_cond_broadcast@PLT
	cmpb	$0, 176(%rbp)
	jne	.L821
	movq	144(%rbp), %rax
	testq	%rax, %rax
	je	.L821
	leaq	88(%rax), %rdx
	movb	$1, 176(%rbp)
	movl	96(%rax), %edi
	leaq	12(%rsp), %rcx
	movq	%rdx, 16(%rsp)
	movl	88(%rax), %edx
	movl	$3, %esi
	movl	$-2147483639, 12(%rsp)
	call	epoll_ctl@PLT
.L821:
	movq	%r12, %rdi
	call	pthread_mutex_unlock@PLT
	jmp	.L840
	.p2align 4,,10
	.p2align 3
.L826:
	movq	%rdx, 192(%rcx)
	jmp	.L827
.L845:
	call	__stack_chk_fail@PLT
	.cfi_endproc
.LFE3321:
	.size	_ZN4asio6detail15task_io_service12work_cleanupD2Ev, .-_ZN4asio6detail15task_io_service12work_cleanupD2Ev
	.weak	_ZN4asio6detail15task_io_service12work_cleanupD1Ev
	.set	_ZN4asio6detail15task_io_service12work_cleanupD1Ev,_ZN4asio6detail15task_io_service12work_cleanupD2Ev
	.section	.text._ZN4asio6detail27task_io_service_thread_infoD2Ev,"axG",@progbits,_ZN4asio6detail27task_io_service_thread_infoD5Ev,comdat
	.align 2
	.p2align 4
	.weak	_ZN4asio6detail27task_io_service_thread_infoD2Ev
	.type	_ZN4asio6detail27task_io_service_thread_infoD2Ev, @function
_ZN4asio6detail27task_io_service_thread_infoD2Ev:
.LFB3340:
	.cfi_startproc
	.cfi_personality 0x9b,DW.ref.__gxx_personality_v0
	.cfi_lsda 0x1b,.LLSDA3340
	pushq	%r12
	.cfi_def_cfa_offset 16
	.cfi_offset 12, -16
	pushq	%rbp
	.cfi_def_cfa_offset 24
	.cfi_offset 6, -24
	pushq	%rbx
	.cfi_def_cfa_offset 32
	.cfi_offset 3, -32
	movq	%rdi, %rbx
	subq	$48, %rsp
	.cfi_def_cfa_offset 80
	movq	8(%rdi), %rsi
	movq	%fs:40, %rax
	movq	%rax, 40(%rsp)
	xorl	%eax, %eax
	testq	%rsi, %rsi
	movq	%rsi, 8(%rsp)
	je	.L847
	call	_ZNSt3_V215system_categoryEv@PLT
	leaq	16(%rsp), %r12
	movq	8(%rsp), %rsi
	movq	%rax, %rbp
	jmp	.L850
	.p2align 4,,10
	.p2align 3
.L848:
	movq	$0, (%rsi)
	movq	8(%rsi), %rax
	xorl	%ecx, %ecx
	movq	%r12, %rdx
	movl	$0, 16(%rsp)
	xorl	%edi, %edi
	movq	%rbp, 24(%rsp)
	call	*%rax
	movq	8(%rbx), %rsi
	testq	%rsi, %rsi
	je	.L847
.L850:
	movq	(%rsi), %rax
	movq	%rax, 8(%rbx)
	testq	%rax, %rax
	jne	.L848
	movq	$0, 16(%rbx)
	jmp	.L848
	.p2align 4,,10
	.p2align 3
.L847:
	movq	(%rbx), %rdi
	testq	%rdi, %rdi
	je	.L846
	movq	40(%rsp), %rax
	subq	%fs:40, %rax
	jne	.L865
	addq	$48, %rsp
	.cfi_remember_state
	.cfi_def_cfa_offset 32
	popq	%rbx
	.cfi_def_cfa_offset 24
	popq	%rbp
	.cfi_def_cfa_offset 16
	popq	%r12
	.cfi_def_cfa_offset 8
	jmp	_ZdlPv@PLT
	.p2align 4,,10
	.p2align 3
.L846:
	.cfi_restore_state
	movq	40(%rsp), %rax
	subq	%fs:40, %rax
	jne	.L865
	addq	$48, %rsp
	.cfi_remember_state
	.cfi_def_cfa_offset 32
	popq	%rbx
	.cfi_def_cfa_offset 24
	popq	%rbp
	.cfi_def_cfa_offset 16
	popq	%r12
	.cfi_def_cfa_offset 8
	ret
.L865:
	.cfi_restore_state
	call	__stack_chk_fail@PLT
	.cfi_endproc
.LFE3340:
	.section	.gcc_except_table._ZN4asio6detail27task_io_service_thread_infoD2Ev,"aG",@progbits,_ZN4asio6detail27task_io_service_thread_infoD5Ev,comdat
.LLSDA3340:
	.byte	0xff
	.byte	0xff
	.byte	0x1
	.uleb128 .LLSDACSE3340-.LLSDACSB3340
.LLSDACSB3340:
.LLSDACSE3340:
	.section	.text._ZN4asio6detail27task_io_service_thread_infoD2Ev,"axG",@progbits,_ZN4asio6detail27task_io_service_thread_infoD5Ev,comdat
	.size	_ZN4asio6detail27task_io_service_thread_infoD2Ev, .-_ZN4asio6detail27task_io_service_thread_infoD2Ev
	.weak	_ZN4asio6detail27task_io_service_thread_infoD1Ev
	.set	_ZN4asio6detail27task_io_service_thread_infoD1Ev,_ZN4asio6detail27task_io_service_thread_infoD2Ev
	.section	.text._ZN4asio6detail15task_io_service25post_immediate_completionEPNS0_25task_io_service_operationEb,"axG",@progbits,_ZN4asio6detail15task_io_service25post_immediate_completionEPNS0_25task_io_service_operationEb,comdat
	.align 2
	.p2align 4
	.weak	_ZN4asio6detail15task_io_service25post_immediate_completionEPNS0_25task_io_service_operationEb
	.type	_ZN4asio6detail15task_io_service25post_immediate_completionEPNS0_25task_io_service_operationEb, @function
_ZN4asio6detail15task_io_service25post_immediate_completionEPNS0_25task_io_service_operationEb:
.LFB3348:
	.cfi_startproc
	pushq	%r12
	.cfi_def_cfa_offset 16
	.cfi_offset 12, -16
	pushq	%rbp
	.cfi_def_cfa_offset 24
	.cfi_offset 6, -24
	movq	%rsi, %rbp
	pushq	%rbx
	.cfi_def_cfa_offset 32
	.cfi_offset 3, -32
	movq	%rdi, %rbx
	subq	$32, %rsp
	.cfi_def_cfa_offset 64
	movq	%fs:40, %rax
	movq	%rax, 24(%rsp)
	xorl	%eax, %eax
	cmpb	$0, 40(%rdi)
	jne	.L881
	testb	%dl, %dl
	je	.L867
.L881:
	data16	leaq	_ZN4asio6detail15keyword_tss_ptrINS0_10call_stackINS0_15task_io_serviceENS0_27task_io_service_thread_infoEE7contextEE6value_E@tlsgd(%rip), %rdi
	.value	0x6666
	rex64
	call	__tls_get_addr@PLT
	movq	(%rax), %rax
	testq	%rax, %rax
	jne	.L871
	jmp	.L867
	.p2align 4,,10
	.p2align 3
.L869:
	movq	16(%rax), %rax
	testq	%rax, %rax
	je	.L867
.L871:
	cmpq	(%rax), %rbx
	jne	.L869
	movq	8(%rax), %rax
	testq	%rax, %rax
	je	.L867
	addq	$1, 24(%rax)
	cmpq	$0, 16(%rax)
	movq	$0, 0(%rbp)
	je	.L872
	movq	16(%rax), %rdx
	movq	%rbp, (%rdx)
	movq	%rbp, 16(%rax)
.L866:
	movq	24(%rsp), %rax
	subq	%fs:40, %rax
	jne	.L893
	addq	$32, %rsp
	.cfi_remember_state
	.cfi_def_cfa_offset 32
	popq	%rbx
	.cfi_def_cfa_offset 24
	popq	%rbp
	.cfi_def_cfa_offset 16
	popq	%r12
	.cfi_def_cfa_offset 8
	ret
	.p2align 4,,10
	.p2align 3
.L867:
	.cfi_restore_state
	lock addq	$1, 184(%rbx)
	leaq	48(%rbx), %r12
	movq	%r12, %rdi
	call	pthread_mutex_lock@PLT
	cmpq	$0, 200(%rbx)
	movq	$0, 0(%rbp)
	je	.L874
	movq	200(%rbx), %rax
	movq	%rbp, (%rax)
	movq	%rbp, 200(%rbx)
.L875:
	movq	136(%rbx), %rax
	orq	$1, %rax
	movq	%rax, 136(%rbx)
	cmpq	$1, %rax
	je	.L876
	movq	%r12, %rdi
	call	pthread_mutex_unlock@PLT
	movq	24(%rsp), %rax
	subq	%fs:40, %rax
	jne	.L893
	addq	$32, %rsp
	.cfi_remember_state
	.cfi_def_cfa_offset 32
	leaq	88(%rbx), %rdi
	popq	%rbx
	.cfi_def_cfa_offset 24
	popq	%rbp
	.cfi_def_cfa_offset 16
	popq	%r12
	.cfi_def_cfa_offset 8
	jmp	pthread_cond_signal@PLT
	.p2align 4,,10
	.p2align 3
.L876:
	.cfi_restore_state
	cmpb	$0, 176(%rbx)
	jne	.L878
	movq	144(%rbx), %rax
	testq	%rax, %rax
	je	.L878
	leaq	88(%rax), %rdx
	movb	$1, 176(%rbx)
	movl	96(%rax), %edi
	leaq	12(%rsp), %rcx
	movq	%rdx, 16(%rsp)
	movl	88(%rax), %edx
	movl	$3, %esi
	movl	$-2147483639, 12(%rsp)
	call	epoll_ctl@PLT
.L878:
	movq	24(%rsp), %rax
	subq	%fs:40, %rax
	jne	.L893
	addq	$32, %rsp
	.cfi_remember_state
	.cfi_def_cfa_offset 32
	movq	%r12, %rdi
	popq	%rbx
	.cfi_def_cfa_offset 24
	popq	%rbp
	.cfi_def_cfa_offset 16
	popq	%r12
	.cfi_def_cfa_offset 8
	jmp	pthread_mutex_unlock@PLT
	.p2align 4,,10
	.p2align 3
.L874:
	.cfi_restore_state
	movq	%rbp, %xmm0
	punpcklqdq	%xmm0, %xmm0
	movups	%xmm0, 192(%rbx)
	jmp	.L875
	.p2align 4,,10
	.p2align 3
.L872:
	movq	%rbp, %xmm0
	punpcklqdq	%xmm0, %xmm0
	movups	%xmm0, 8(%rax)
	jmp	.L866
.L893:
	call	__stack_chk_fail@PLT
	.cfi_endproc
.LFE3348:
	.size	_ZN4asio6detail15task_io_service25post_immediate_completionEPNS0_25task_io_service_operationEb, .-_ZN4asio6detail15task_io_service25post_immediate_completionEPNS0_25task_io_service_operationEb
	.section	.text._ZN4asio6detail15task_io_service25post_deferred_completionsERNS0_8op_queueINS0_25task_io_service_operationEEE,"axG",@progbits,_ZN4asio6detail15task_io_service25post_deferred_completionsERNS0_8op_queueINS0_25task_io_service_operationEEE,comdat
	.align 2
	.p2align 4
	.weak	_ZN4asio6detail15task_io_service25post_deferred_completionsERNS0_8op_queueINS0_25task_io_service_operationEEE
	.type	_ZN4asio6detail15task_io_service25post_deferred_completionsERNS0_8op_queueINS0_25task_io_service_operationEEE, @function
_ZN4asio6detail15task_io_service25post_deferred_completionsERNS0_8op_queueINS0_25task_io_service_operationEEE:
.LFB3350:
	.cfi_startproc
	pushq	%r12
	.cfi_def_cfa_offset 16
	.cfi_offset 12, -16
	pushq	%rbp
	.cfi_def_cfa_offset 24
	.cfi_offset 6, -24
	pushq	%rbx
	.cfi_def_cfa_offset 32
	.cfi_offset 3, -32
	subq	$32, %rsp
	.cfi_def_cfa_offset 64
	movq	(%rsi), %r12
	movq	%fs:40, %rax
	movq	%rax, 24(%rsp)
	xorl	%eax, %eax
	testq	%r12, %r12
	je	.L894
	cmpb	$0, 40(%rdi)
	movq	%rdi, %rbx
	movq	%rsi, %rbp
	je	.L896
	data16	leaq	_ZN4asio6detail15keyword_tss_ptrINS0_10call_stackINS0_15task_io_serviceENS0_27task_io_service_thread_infoEE7contextEE6value_E@tlsgd(%rip), %rdi
	.value	0x6666
	rex64
	call	__tls_get_addr@PLT
	movq	(%rax), %rax
	testq	%rax, %rax
	jne	.L899
	jmp	.L896
	.p2align 4,,10
	.p2align 3
.L897:
	movq	16(%rax), %rax
	testq	%rax, %rax
	je	.L896
.L899:
	cmpq	(%rax), %rbx
	jne	.L897
	movq	8(%rax), %rax
	testq	%rax, %rax
	je	.L896
	movq	16(%rax), %rdx
	testq	%rdx, %rdx
	je	.L900
	movq	%r12, (%rdx)
.L901:
	movq	8(%rbp), %rdx
	pxor	%xmm0, %xmm0
	movq	%rdx, 16(%rax)
	movups	%xmm0, 0(%rbp)
.L894:
	movq	24(%rsp), %rax
	subq	%fs:40, %rax
	jne	.L927
	addq	$32, %rsp
	.cfi_remember_state
	.cfi_def_cfa_offset 32
	popq	%rbx
	.cfi_def_cfa_offset 24
	popq	%rbp
	.cfi_def_cfa_offset 16
	popq	%r12
	.cfi_def_cfa_offset 8
	ret
	.p2align 4,,10
	.p2align 3
.L896:
	.cfi_restore_state
	leaq	48(%rbx), %r12
	movq	%r12, %rdi
	call	pthread_mutex_lock@PLT
	movq	0(%rbp), %rax
	testq	%rax, %rax
	je	.L902
	movq	200(%rbx), %rdx
	testq	%rdx, %rdx
	je	.L903
	movq	%rax, (%rdx)
.L904:
	movq	8(%rbp), %rax
	pxor	%xmm0, %xmm0
	movq	%rax, 200(%rbx)
	movups	%xmm0, 0(%rbp)
.L902:
	movq	136(%rbx), %rax
	orq	$1, %rax
	movq	%rax, 136(%rbx)
	cmpq	$1, %rax
	je	.L905
	movq	%r12, %rdi
	call	pthread_mutex_unlock@PLT
	movq	24(%rsp), %rax
	subq	%fs:40, %rax
	jne	.L927
	addq	$32, %rsp
	.cfi_remember_state
	.cfi_def_cfa_offset 32
	leaq	88(%rbx), %rdi
	popq	%rbx
	.cfi_def_cfa_offset 24
	popq	%rbp
	.cfi_def_cfa_offset 16
	popq	%r12
	.cfi_def_cfa_offset 8
	jmp	pthread_cond_signal@PLT
	.p2align 4,,10
	.p2align 3
.L905:
	.cfi_restore_state
	cmpb	$0, 176(%rbx)
	jne	.L907
	movq	144(%rbx), %rax
	testq	%rax, %rax
	je	.L907
	leaq	88(%rax), %rdx
	movb	$1, 176(%rbx)
	movl	96(%rax), %edi
	leaq	12(%rsp), %rcx
	movq	%rdx, 16(%rsp)
	movl	88(%rax), %edx
	movl	$3, %esi
	movl	$-2147483639, 12(%rsp)
	call	epoll_ctl@PLT
.L907:
	movq	24(%rsp), %rax
	subq	%fs:40, %rax
	jne	.L927
	addq	$32, %rsp
	.cfi_remember_state
	.cfi_def_cfa_offset 32
	movq	%r12, %rdi
	popq	%rbx
	.cfi_def_cfa_offset 24
	popq	%rbp
	.cfi_def_cfa_offset 16
	popq	%r12
	.cfi_def_cfa_offset 8
	jmp	pthread_mutex_unlock@PLT
	.p2align 4,,10
	.p2align 3
.L900:
	.cfi_restore_state
	movq	%r12, 8(%rax)
	jmp	.L901
	.p2align 4,,10
	.p2align 3
.L903:
	movq	%rax, 192(%rbx)
	jmp	.L904
.L927:
	call	__stack_chk_fail@PLT
	.cfi_endproc
.LFE3350:
	.size	_ZN4asio6detail15task_io_service25post_deferred_completionsERNS0_8op_queueINS0_25task_io_service_operationEEE, .-_ZN4asio6detail15task_io_service25post_deferred_completionsERNS0_8op_queueINS0_25task_io_service_operationEEE
	.section	.text._ZN4asio6detail15task_io_service26wake_one_thread_and_unlockERNS0_11scoped_lockINS0_11posix_mutexEEE,"axG",@progbits,_ZN4asio6detail15task_io_service26wake_one_thread_and_unlockERNS0_11scoped_lockINS0_11posix_mutexEEE,comdat
	.align 2
	.p2align 4
	.weak	_ZN4asio6detail15task_io_service26wake_one_thread_and_unlockERNS0_11scoped_lockINS0_11posix_mutexEEE
	.type	_ZN4asio6detail15task_io_service26wake_one_thread_and_unlockERNS0_11scoped_lockINS0_11posix_mutexEEE, @function
_ZN4asio6detail15task_io_service26wake_one_thread_and_unlockERNS0_11scoped_lockINS0_11posix_mutexEEE:
.LFB3356:
	.cfi_startproc
	pushq	%rbp
	.cfi_def_cfa_offset 16
	.cfi_offset 6, -16
	movq	%rsi, %rbp
	pushq	%rbx
	.cfi_def_cfa_offset 24
	.cfi_offset 3, -24
	movq	%rdi, %rbx
	subq	$40, %rsp
	.cfi_def_cfa_offset 64
	movq	%fs:40, %rax
	movq	%rax, 24(%rsp)
	movq	136(%rdi), %rax
	orq	$1, %rax
	movq	%rax, 136(%rdi)
	cmpq	$1, %rax
	je	.L929
	cmpb	$0, 8(%rsi)
	jne	.L940
.L930:
	movq	24(%rsp), %rax
	subq	%fs:40, %rax
	jne	.L939
	addq	$40, %rsp
	.cfi_remember_state
	.cfi_def_cfa_offset 24
	leaq	88(%rbx), %rdi
	popq	%rbx
	.cfi_def_cfa_offset 16
	popq	%rbp
	.cfi_def_cfa_offset 8
	jmp	pthread_cond_signal@PLT
	.p2align 4,,10
	.p2align 3
.L929:
	.cfi_restore_state
	cmpb	$0, 176(%rdi)
	jne	.L932
	movq	144(%rdi), %rax
	testq	%rax, %rax
	je	.L932
	leaq	88(%rax), %rdx
	leaq	12(%rsp), %rcx
	movb	$1, 176(%rdi)
	movl	96(%rax), %edi
	movq	%rdx, 16(%rsp)
	movl	88(%rax), %edx
	movl	$3, %esi
	movl	$-2147483639, 12(%rsp)
	call	epoll_ctl@PLT
.L932:
	cmpb	$0, 8(%rbp)
	jne	.L941
.L928:
	movq	24(%rsp), %rax
	subq	%fs:40, %rax
	jne	.L939
	addq	$40, %rsp
	.cfi_remember_state
	.cfi_def_cfa_offset 24
	popq	%rbx
	.cfi_def_cfa_offset 16
	popq	%rbp
	.cfi_def_cfa_offset 8
	ret
	.p2align 4,,10
	.p2align 3
.L941:
	.cfi_restore_state
	movq	0(%rbp), %rdi
	call	pthread_mutex_unlock@PLT
	movb	$0, 8(%rbp)
	jmp	.L928
	.p2align 4,,10
	.p2align 3
.L940:
	movq	(%rsi), %rdi
	call	pthread_mutex_unlock@PLT
	movb	$0, 8(%rbp)
	jmp	.L930
.L939:
	call	__stack_chk_fail@PLT
	.cfi_endproc
.LFE3356:
	.size	_ZN4asio6detail15task_io_service26wake_one_thread_and_unlockERNS0_11scoped_lockINS0_11posix_mutexEEE, .-_ZN4asio6detail15task_io_service26wake_one_thread_and_unlockERNS0_11scoped_lockINS0_11posix_mutexEEE
	.section	.text._ZN4asio6detail13epoll_reactor32perform_io_cleanup_on_block_exitD2Ev,"axG",@progbits,_ZN4asio6detail13epoll_reactor32perform_io_cleanup_on_block_exitD5Ev,comdat
	.align 2
	.p2align 4
	.weak	_ZN4asio6detail13epoll_reactor32perform_io_cleanup_on_block_exitD2Ev
	.type	_ZN4asio6detail13epoll_reactor32perform_io_cleanup_on_block_exitD2Ev, @function
_ZN4asio6detail13epoll_reactor32perform_io_cleanup_on_block_exitD2Ev:
.LFB3310:
	.cfi_startproc
	.cfi_personality 0x9b,DW.ref.__gxx_personality_v0
	.cfi_lsda 0x1b,.LLSDA3310
	pushq	%r12
	.cfi_def_cfa_offset 16
	.cfi_offset 12, -16
	pushq	%rbp
	.cfi_def_cfa_offset 24
	.cfi_offset 6, -24
	pushq	%rbx
	.cfi_def_cfa_offset 32
	.cfi_offset 3, -32
	movq	%rdi, %rbx
	subq	$48, %rsp
	.cfi_def_cfa_offset 80
	movq	%fs:40, %rax
	movq	%rax, 40(%rsp)
	xorl	%eax, %eax
	cmpq	$0, 24(%rdi)
	je	.L943
	movq	8(%rdi), %r12
	testq	%r12, %r12
	je	.L942
	movq	(%rdi), %rax
	movq	40(%rax), %rbp
	cmpb	$0, 40(%rbp)
	je	.L945
	data16	leaq	_ZN4asio6detail15keyword_tss_ptrINS0_10call_stackINS0_15task_io_serviceENS0_27task_io_service_thread_infoEE7contextEE6value_E@tlsgd(%rip), %rdi
	.value	0x6666
	rex64
	call	__tls_get_addr@PLT
	movq	(%rax), %rax
	testq	%rax, %rax
	jne	.L948
	.p2align 4,,10
	.p2align 3
.L945:
	leaq	48(%rbp), %rdi
	movq	%rdi, 16(%rsp)
	call	pthread_mutex_lock@PLT
	movq	8(%rbx), %rax
	movb	$1, 24(%rsp)
	testq	%rax, %rax
	je	.L951
	movq	200(%rbp), %rdx
	testq	%rdx, %rdx
	je	.L952
	movq	%rax, (%rdx)
.L953:
	movq	16(%rbx), %rax
	pxor	%xmm0, %xmm0
	movq	%rax, 200(%rbp)
	movups	%xmm0, 8(%rbx)
.L951:
	leaq	16(%rsp), %r12
	movq	%rbp, %rdi
	movq	%r12, %rsi
	call	_ZN4asio6detail15task_io_service26wake_one_thread_and_unlockERNS0_11scoped_lockINS0_11posix_mutexEEE@PLT
	cmpb	$0, 24(%rsp)
	jne	.L985
.L956:
	movq	8(%rbx), %rsi
	testq	%rsi, %rsi
	je	.L942
	movq	%rsi, 8(%rsp)
	leaq	16(%rsp), %r12
	call	_ZNSt3_V215system_categoryEv@PLT
	movq	8(%rsp), %rsi
	movq	%rax, %rbp
	jmp	.L959
	.p2align 4,,10
	.p2align 3
.L957:
	movq	$0, (%rsi)
	movq	8(%rsi), %rax
	xorl	%ecx, %ecx
	movq	%r12, %rdx
	movl	$0, 16(%rsp)
	xorl	%edi, %edi
	movq	%rbp, 24(%rsp)
	call	*%rax
	movq	8(%rbx), %rsi
	testq	%rsi, %rsi
	je	.L942
.L959:
	movq	(%rsi), %rax
	movq	%rax, 8(%rbx)
	testq	%rax, %rax
	jne	.L957
	movq	$0, 16(%rbx)
	jmp	.L957
	.p2align 4,,10
	.p2align 3
.L946:
	movq	16(%rax), %rax
	testq	%rax, %rax
	je	.L945
.L948:
	cmpq	(%rax), %rbp
	jne	.L946
	movq	8(%rax), %rax
	testq	%rax, %rax
	je	.L945
	movq	16(%rax), %rdx
	testq	%rdx, %rdx
	je	.L949
	movq	%r12, (%rdx)
.L950:
	movq	16(%rbx), %rdx
	movq	%rdx, 16(%rax)
	.p2align 4,,10
	.p2align 3
.L942:
	movq	40(%rsp), %rax
	subq	%fs:40, %rax
	jne	.L986
	addq	$48, %rsp
	.cfi_remember_state
	.cfi_def_cfa_offset 32
	popq	%rbx
	.cfi_def_cfa_offset 24
	popq	%rbp
	.cfi_def_cfa_offset 16
	popq	%r12
	.cfi_def_cfa_offset 8
	ret
	.p2align 4,,10
	.p2align 3
.L943:
	.cfi_restore_state
	movq	(%rdi), %rax
	movq	40(%rax), %rax
	lock addq	$1, 184(%rax)
	jmp	.L956
.L985:
	movq	16(%rsp), %rdi
	call	pthread_mutex_unlock@PLT
	jmp	.L956
.L952:
	movq	%rax, 192(%rbp)
	jmp	.L953
.L949:
	movq	%r12, 8(%rax)
	jmp	.L950
.L986:
	call	__stack_chk_fail@PLT
	.cfi_endproc
.LFE3310:
	.section	.gcc_except_table._ZN4asio6detail13epoll_reactor32perform_io_cleanup_on_block_exitD2Ev,"aG",@progbits,_ZN4asio6detail13epoll_reactor32perform_io_cleanup_on_block_exitD5Ev,comdat
.LLSDA3310:
	.byte	0xff
	.byte	0xff
	.byte	0x1
	.uleb128 .LLSDACSE3310-.LLSDACSB3310
.LLSDACSB3310:
.LLSDACSE3310:
	.section	.text._ZN4asio6detail13epoll_reactor32perform_io_cleanup_on_block_exitD2Ev,"axG",@progbits,_ZN4asio6detail13epoll_reactor32perform_io_cleanup_on_block_exitD5Ev,comdat
	.size	_ZN4asio6detail13epoll_reactor32perform_io_cleanup_on_block_exitD2Ev, .-_ZN4asio6detail13epoll_reactor32perform_io_cleanup_on_block_exitD2Ev
	.weak	_ZN4asio6detail13epoll_reactor32perform_io_cleanup_on_block_exitD1Ev
	.set	_ZN4asio6detail13epoll_reactor32perform_io_cleanup_on_block_exitD1Ev,_ZN4asio6detail13epoll_reactor32perform_io_cleanup_on_block_exitD2Ev
	.section	.text._ZN4asio6detail13epoll_reactor21deregister_descriptorEiRPNS1_16descriptor_stateEb,"axG",@progbits,_ZN4asio6detail13epoll_reactor21deregister_descriptorEiRPNS1_16descriptor_stateEb,comdat
	.align 2
	.p2align 4
	.weak	_ZN4asio6detail13epoll_reactor21deregister_descriptorEiRPNS1_16descriptor_stateEb
	.type	_ZN4asio6detail13epoll_reactor21deregister_descriptorEiRPNS1_16descriptor_stateEb, @function
_ZN4asio6detail13epoll_reactor21deregister_descriptorEiRPNS1_16descriptor_stateEb:
.LFB3293:
	.cfi_startproc
	pushq	%r15
	.cfi_def_cfa_offset 16
	.cfi_offset 15, -16
	pushq	%r14
	.cfi_def_cfa_offset 24
	.cfi_offset 14, -24
	pushq	%r13
	.cfi_def_cfa_offset 32
	.cfi_offset 13, -32
	pushq	%r12
	.cfi_def_cfa_offset 40
	.cfi_offset 12, -40
	pushq	%rbp
	.cfi_def_cfa_offset 48
	.cfi_offset 6, -48
	pushq	%rbx
	.cfi_def_cfa_offset 56
	.cfi_offset 3, -56
	subq	$72, %rsp
	.cfi_def_cfa_offset 128
	movq	(%rdx), %r12
	movq	%rdi, 16(%rsp)
	movq	%fs:40, %rax
	movq	%rax, 56(%rsp)
	xorl	%eax, %eax
	testq	%r12, %r12
	je	.L987
	leaq	40(%r12), %rax
	movq	%rdx, %r15
	movl	%esi, %r13d
	movl	%ecx, %ebx
	movq	%rax, %rdi
	movq	%rax, 24(%rsp)
	call	pthread_mutex_lock@PLT
	movq	(%r15), %r11
	cmpb	$0, 144(%r11)
	jne	.L989
	testb	%bl, %bl
	je	.L1043
.L990:
	movq	$0, 8(%rsp)
	xorl	%r12d, %r12d
	movl	$0, 4(%rsp)
.L999:
	movslq	4(%rsp), %r10
	movq	%r10, %rax
	salq	$4, %rax
	movq	96(%rax,%r11), %rbx
	testq	%rbx, %rbx
	je	.L1016
	movq	_ZGVZN4asio15system_categoryEvE8instance@GOTPCREL(%rip), %r13
	movq	_ZZN4asio15system_categoryEvE8instance@GOTPCREL(%rip), %r14
	movq	%rax, %rbp
	movzbl	0(%r13), %eax
	testb	%al, %al
	je	.L1044
	.p2align 4,,10
	.p2align 3
.L994:
	movq	(%r15), %r11
	movl	$125, 24(%rbx)
	movq	%r14, 32(%rbx)
	leaq	(%r11,%rbp), %rdi
	movq	96(%rdi), %rax
	testq	%rax, %rax
	je	.L996
	movq	(%rax), %rdx
	movq	%rdx, 96(%rdi)
	testq	%rdx, %rdx
	je	.L1045
	movq	$0, (%rax)
	movq	$0, (%rbx)
	testq	%r12, %r12
	je	.L1046
.L1014:
	movq	%rbx, (%r12)
	testq	%rdx, %rdx
	je	.L991
.L998:
	movzbl	0(%r13), %eax
	movq	%rbx, %r12
	movq	%rdx, %rbx
	testb	%al, %al
	jne	.L994
.L1044:
	movq	%r13, %rdi
	call	__cxa_guard_acquire@PLT
	testl	%eax, %eax
	je	.L994
	movq	_ZN4asio6detail15system_categoryD1Ev@GOTPCREL(%rip), %rdi
	leaq	__dso_handle(%rip), %rdx
	movq	%r14, %rsi
	call	__cxa_atexit@PLT
	movq	%r13, %rdi
	call	__cxa_guard_release@PLT
	jmp	.L994
	.p2align 4,,10
	.p2align 3
.L1048:
	movl	$-1, 88(%r11)
	movq	24(%rsp), %rdi
	movb	$1, 144(%r11)
	call	pthread_mutex_unlock@PLT
	movq	16(%rsp), %r14
	movq	(%r15), %r12
	leaq	120(%r14), %r13
	movq	%r13, %rdi
	call	pthread_mutex_lock@PLT
	cmpq	160(%r14), %r12
	je	.L1047
.L1000:
	movq	32(%r12), %rax
	testq	%rax, %rax
	je	.L1001
	movq	24(%r12), %rdx
	movq	%rdx, 24(%rax)
.L1001:
	movq	24(%r12), %rax
	testq	%rax, %rax
	je	.L1002
	movq	32(%r12), %rdx
	movq	%rdx, 32(%rax)
.L1002:
	movq	16(%rsp), %r14
	movq	%r13, %rdi
	movq	168(%r14), %rax
	movq	$0, 32(%r12)
	movq	%rax, 24(%r12)
	movq	%r12, 168(%r14)
	call	pthread_mutex_unlock@PLT
	cmpq	$0, 8(%rsp)
	movq	$0, (%r15)
	je	.L987
	movq	40(%r14), %rbp
	cmpb	$0, 40(%rbp)
	je	.L1004
	data16	leaq	_ZN4asio6detail15keyword_tss_ptrINS0_10call_stackINS0_15task_io_serviceENS0_27task_io_service_thread_infoEE7contextEE6value_E@tlsgd(%rip), %rdi
	.value	0x6666
	rex64
	call	__tls_get_addr@PLT
	movq	(%rax), %rax
	testq	%rax, %rax
	jne	.L1007
	jmp	.L1004
	.p2align 4,,10
	.p2align 3
.L1005:
	movq	16(%rax), %rax
	testq	%rax, %rax
	je	.L1004
.L1007:
	cmpq	(%rax), %rbp
	jne	.L1005
	movq	8(%rax), %rax
	testq	%rax, %rax
	je	.L1004
	movq	16(%rax), %rdx
	movq	8(%rsp), %rcx
	testq	%rdx, %rdx
	je	.L1008
	movq	%rcx, (%rdx)
.L1009:
	movq	%rbx, 16(%rax)
	.p2align 4,,10
	.p2align 3
.L987:
	movq	56(%rsp), %rax
	subq	%fs:40, %rax
	jne	.L1042
	addq	$72, %rsp
	.cfi_remember_state
	.cfi_def_cfa_offset 56
	popq	%rbx
	.cfi_def_cfa_offset 48
	popq	%rbp
	.cfi_def_cfa_offset 40
	popq	%r12
	.cfi_def_cfa_offset 32
	popq	%r13
	.cfi_def_cfa_offset 24
	popq	%r14
	.cfi_def_cfa_offset 16
	popq	%r15
	.cfi_def_cfa_offset 8
	ret
	.p2align 4,,10
	.p2align 3
.L989:
	.cfi_restore_state
	movq	56(%rsp), %rax
	subq	%fs:40, %rax
	jne	.L1042
	movq	24(%rsp), %rdi
	addq	$72, %rsp
	.cfi_remember_state
	.cfi_def_cfa_offset 56
	popq	%rbx
	.cfi_def_cfa_offset 48
	popq	%rbp
	.cfi_def_cfa_offset 40
	popq	%r12
	.cfi_def_cfa_offset 32
	popq	%r13
	.cfi_def_cfa_offset 24
	popq	%r14
	.cfi_def_cfa_offset 16
	popq	%r15
	.cfi_def_cfa_offset 8
	jmp	pthread_mutex_unlock@PLT
	.p2align 4,,10
	.p2align 3
.L996:
	.cfi_restore_state
	movq	$0, (%rbx)
	testq	%r12, %r12
	je	.L1019
	movq	%rbx, (%r12)
.L991:
	addl	$1, 4(%rsp)
	movl	4(%rsp), %eax
	cmpl	$3, %eax
	je	.L1048
	movq	%rbx, %r12
	jmp	.L999
	.p2align 4,,10
	.p2align 3
.L1045:
	movq	$0, 104(%rdi)
	movq	$0, (%rax)
	movq	$0, (%rbx)
	testq	%r12, %r12
	jne	.L1014
	.p2align 4,,10
	.p2align 3
.L1019:
	movq	%rbx, 8(%rsp)
	jmp	.L991
	.p2align 4,,10
	.p2align 3
.L1046:
	movq	%rbx, 8(%rsp)
	jmp	.L998
	.p2align 4,,10
	.p2align 3
.L1004:
	leaq	48(%rbp), %rdi
	movq	%rdi, 32(%rsp)
	call	pthread_mutex_lock@PLT
	movq	200(%rbp), %rax
	movb	$1, 40(%rsp)
	testq	%rax, %rax
	je	.L1010
	movq	8(%rsp), %rcx
	movq	%rcx, (%rax)
.L1011:
	movq	%rbx, 200(%rbp)
	leaq	32(%rsp), %rsi
	movq	%rbp, %rdi
	call	_ZN4asio6detail15task_io_service26wake_one_thread_and_unlockERNS0_11scoped_lockINS0_11posix_mutexEEE@PLT
	cmpb	$0, 40(%rsp)
	je	.L987
	movq	32(%rsp), %rdi
	call	pthread_mutex_unlock@PLT
	jmp	.L987
	.p2align 4,,10
	.p2align 3
.L1016:
	movq	%r12, %rbx
	jmp	.L991
	.p2align 4,,10
	.p2align 3
.L1043:
	movq	16(%rsp), %rax
	leaq	32(%rsp), %rcx
	movl	%r13d, %edx
	movl	$2, %esi
	movl	$0, 32(%rsp)
	movq	$0, 36(%rsp)
	movl	96(%rax), %edi
	call	epoll_ctl@PLT
	movq	(%r15), %r11
	jmp	.L990
	.p2align 4,,10
	.p2align 3
.L1047:
	movq	24(%r12), %rax
	movq	16(%rsp), %rcx
	movq	%rax, 160(%rcx)
	jmp	.L1000
.L1010:
	movq	8(%rsp), %rax
	movq	%rax, 192(%rbp)
	jmp	.L1011
.L1008:
	movq	%rcx, 8(%rax)
	jmp	.L1009
.L1042:
	call	__stack_chk_fail@PLT
	.cfi_endproc
.LFE3293:
	.size	_ZN4asio6detail13epoll_reactor21deregister_descriptorEiRPNS1_16descriptor_stateEb, .-_ZN4asio6detail13epoll_reactor21deregister_descriptorEiRPNS1_16descriptor_stateEb
	.section	.text._ZN4asio6detail13epoll_reactor16descriptor_state11do_completeEPNS0_15task_io_serviceEPNS0_25task_io_service_operationERKSt10error_codem,"axG",@progbits,_ZN4asio6detail13epoll_reactor16descriptor_state11do_completeEPNS0_15task_io_serviceEPNS0_25task_io_service_operationERKSt10error_codem,comdat
	.align 2
	.p2align 4
	.weak	_ZN4asio6detail13epoll_reactor16descriptor_state11do_completeEPNS0_15task_io_serviceEPNS0_25task_io_service_operationERKSt10error_codem
	.type	_ZN4asio6detail13epoll_reactor16descriptor_state11do_completeEPNS0_15task_io_serviceEPNS0_25task_io_service_operationERKSt10error_codem, @function
_ZN4asio6detail13epoll_reactor16descriptor_state11do_completeEPNS0_15task_io_serviceEPNS0_25task_io_service_operationERKSt10error_codem:
.LFB3316:
	.cfi_startproc
	.cfi_personality 0x9b,DW.ref.__gxx_personality_v0
	.cfi_lsda 0x1b,.LLSDA3316
	pushq	%r15
	.cfi_def_cfa_offset 16
	.cfi_offset 15, -16
	pushq	%r14
	.cfi_def_cfa_offset 24
	.cfi_offset 14, -24
	pushq	%r13
	.cfi_def_cfa_offset 32
	.cfi_offset 13, -32
	pushq	%r12
	.cfi_def_cfa_offset 40
	.cfi_offset 12, -40
	pushq	%rbp
	.cfi_def_cfa_offset 48
	.cfi_offset 6, -48
	pushq	%rbx
	.cfi_def_cfa_offset 56
	.cfi_offset 3, -56
	subq	$88, %rsp
	.cfi_def_cfa_offset 144
	movq	%rdx, 8(%rsp)
	movq	%fs:40, %rax
	movq	%rax, 72(%rsp)
	xorl	%eax, %eax
	testq	%rdi, %rdi
	je	.L1049
	leaq	40(%rsi), %r15
	movq	%rsi, %rbp
	movq	%rdi, %r14
	movl	%ecx, %r13d
	movq	%r15, %rdi
	subq	$-128, %rbp
	call	pthread_mutex_lock@PLT
	movq	-48(%rbp), %rax
	movq	_ZZN4asio6detail13epoll_reactor16descriptor_state10perform_ioEjE4flag@GOTPCREL(%rip), %r12
	movq	$0, 40(%rsp)
	movq	$0, 48(%rsp)
	movq	%rax, 32(%rsp)
	leaq	-12(%r12), %rax
	movq	$0, 56(%rsp)
	movq	%rax, (%rsp)
.L1058:
	movl	8(%r12), %eax
	orl	$24, %eax
	testl	%r13d, %eax
	jne	.L1125
.L1052:
	subq	$4, %r12
	subq	$16, %rbp
	cmpq	%r12, (%rsp)
	jne	.L1058
	movq	40(%rsp), %rbp
	movq	%rbp, 56(%rsp)
	testq	%rbp, %rbp
	je	.L1059
	movq	0(%rbp), %rax
	movq	%rax, 40(%rsp)
	testq	%rax, %rax
	je	.L1126
.L1060:
	movq	$0, 0(%rbp)
.L1059:
	movq	%r15, %rdi
	call	pthread_mutex_unlock@PLT
	cmpq	$0, 56(%rsp)
	je	.L1061
	movq	40(%rsp), %rbx
	testq	%rbx, %rbx
	je	.L1062
	movq	32(%rsp), %rax
	movq	40(%rax), %r13
	cmpb	$0, 40(%r13)
	je	.L1063
	data16	leaq	_ZN4asio6detail15keyword_tss_ptrINS0_10call_stackINS0_15task_io_serviceENS0_27task_io_service_thread_infoEE7contextEE6value_E@tlsgd(%rip), %rdi
	.value	0x6666
	rex64
	call	__tls_get_addr@PLT
	movq	(%rax), %rax
	testq	%rax, %rax
	jne	.L1066
	jmp	.L1063
	.p2align 4,,10
	.p2align 3
.L1064:
	movq	16(%rax), %rax
	testq	%rax, %rax
	je	.L1063
.L1066:
	cmpq	(%rax), %r13
	jne	.L1064
	movq	8(%rax), %rax
	testq	%rax, %rax
	je	.L1063
	movq	16(%rax), %rdx
	testq	%rdx, %rdx
	je	.L1067
	movq	%rbx, (%rdx)
.L1068:
	movq	48(%rsp), %rdx
	movq	%rdx, 16(%rax)
	.p2align 4,,10
	.p2align 3
.L1062:
	testq	%rbp, %rbp
	je	.L1049
	movq	72(%rsp), %rax
	subq	%fs:40, %rax
	jne	.L1124
	movq	8(%rbp), %rax
	movq	8(%rsp), %rdx
	addq	$88, %rsp
	.cfi_remember_state
	.cfi_def_cfa_offset 56
	movq	%rbp, %rsi
	popq	%rbx
	.cfi_def_cfa_offset 48
	movq	%r14, %rdi
	popq	%rbp
	.cfi_def_cfa_offset 40
	xorl	%ecx, %ecx
	popq	%r12
	.cfi_def_cfa_offset 32
	popq	%r13
	.cfi_def_cfa_offset 24
	popq	%r14
	.cfi_def_cfa_offset 16
	popq	%r15
	.cfi_def_cfa_offset 8
.LEHB12:
	jmp	*%rax
.LEHE12:
	.p2align 4,,10
	.p2align 3
.L1049:
	.cfi_restore_state
	movq	72(%rsp), %rax
	subq	%fs:40, %rax
	jne	.L1124
	addq	$88, %rsp
	.cfi_remember_state
	.cfi_def_cfa_offset 56
	popq	%rbx
	.cfi_def_cfa_offset 48
	popq	%rbp
	.cfi_def_cfa_offset 40
	popq	%r12
	.cfi_def_cfa_offset 32
	popq	%r13
	.cfi_def_cfa_offset 24
	popq	%r14
	.cfi_def_cfa_offset 16
	popq	%r15
	.cfi_def_cfa_offset 8
	ret
	.p2align 4,,10
	.p2align 3
.L1125:
	.cfi_restore_state
	movq	0(%rbp), %rbx
	testq	%rbx, %rbx
	jne	.L1053
	jmp	.L1052
	.p2align 4,,10
	.p2align 3
.L1128:
	movq	%rbx, (%rdx)
	movq	%rbx, 48(%rsp)
.L1057:
	testq	%rax, %rax
	je	.L1052
	movq	%rax, %rbx
.L1053:
	movq	%rbx, %rdi
.LEHB13:
	call	*48(%rbx)
.LEHE13:
	testb	%al, %al
	je	.L1052
	movq	0(%rbp), %rdx
	xorl	%eax, %eax
	testq	%rdx, %rdx
	je	.L1054
	movq	(%rdx), %rax
	movq	%rax, 0(%rbp)
	testq	%rax, %rax
	je	.L1127
.L1055:
	movq	$0, (%rdx)
.L1054:
	movq	48(%rsp), %rdx
	movq	$0, (%rbx)
	testq	%rdx, %rdx
	jne	.L1128
	movq	%rbx, %xmm0
	punpcklqdq	%xmm0, %xmm0
	movups	%xmm0, 40(%rsp)
	jmp	.L1057
	.p2align 4,,10
	.p2align 3
.L1127:
	movq	$0, 8(%rbp)
	jmp	.L1055
	.p2align 4,,10
	.p2align 3
.L1061:
	movq	32(%rsp), %rax
	movq	40(%rax), %rax
	lock addq	$1, 184(%rax)
.L1073:
	movq	40(%rsp), %rsi
	testq	%rsi, %rsi
	movq	%rsi, (%rsp)
	je	.L1062
	call	_ZNSt3_V215system_categoryEv@PLT
	leaq	16(%rsp), %r12
	movq	(%rsp), %rsi
	movq	%rax, %rbx
	jmp	.L1076
	.p2align 4,,10
	.p2align 3
.L1074:
	movq	$0, (%rsi)
	movq	8(%rsi), %rax
	xorl	%ecx, %ecx
	movq	%r12, %rdx
	movl	$0, 16(%rsp)
	xorl	%edi, %edi
	movq	%rbx, 24(%rsp)
	call	*%rax
	movq	40(%rsp), %rsi
	testq	%rsi, %rsi
	je	.L1062
.L1076:
	movq	(%rsi), %rax
	movq	%rax, 40(%rsp)
	testq	%rax, %rax
	jne	.L1074
	movq	$0, 48(%rsp)
	jmp	.L1074
	.p2align 4,,10
	.p2align 3
.L1063:
	leaq	48(%r13), %rdi
	movq	%rdi, 16(%rsp)
	call	pthread_mutex_lock@PLT
	movq	40(%rsp), %rax
	movb	$1, 24(%rsp)
	testq	%rax, %rax
	je	.L1069
	movq	200(%r13), %rdx
	testq	%rdx, %rdx
	je	.L1070
	movq	%rax, (%rdx)
.L1071:
	movq	48(%rsp), %rax
	pxor	%xmm0, %xmm0
	movups	%xmm0, 40(%rsp)
	movq	%rax, 200(%r13)
.L1069:
	leaq	16(%rsp), %r12
	movq	%r13, %rdi
	movq	%r12, %rsi
	call	_ZN4asio6detail15task_io_service26wake_one_thread_and_unlockERNS0_11scoped_lockINS0_11posix_mutexEEE@PLT
	cmpb	$0, 24(%rsp)
	je	.L1073
	movq	16(%rsp), %rdi
	call	pthread_mutex_unlock@PLT
	jmp	.L1073
	.p2align 4,,10
	.p2align 3
.L1126:
	movq	$0, 48(%rsp)
	jmp	.L1060
.L1067:
	movq	%rbx, 8(%rax)
	jmp	.L1068
.L1070:
	movq	%rax, 192(%r13)
	jmp	.L1071
.L1124:
	call	__stack_chk_fail@PLT
.L1083:
	movq	%rax, %rbp
.L1077:
	movq	%r15, %rdi
	call	pthread_mutex_unlock@PLT
	leaq	32(%rsp), %rdi
	call	_ZN4asio6detail13epoll_reactor32perform_io_cleanup_on_block_exitD1Ev@PLT
	movq	%rbp, %rdi
.LEHB14:
	call	_Unwind_Resume@PLT
.LEHE14:
	.cfi_endproc
.LFE3316:
	.section	.gcc_except_table._ZN4asio6detail13epoll_reactor16descriptor_state11do_completeEPNS0_15task_io_serviceEPNS0_25task_io_service_operationERKSt10error_codem,"aG",@progbits,_ZN4asio6detail13epoll_reactor16descriptor_state11do_completeEPNS0_15task_io_serviceEPNS0_25task_io_service_operationERKSt10error_codem,comdat
.LLSDA3316:
	.byte	0xff
	.byte	0xff
	.byte	0x1
	.uleb128 .LLSDACSE3316-.LLSDACSB3316
.LLSDACSB3316:
	.uleb128 .LEHB12-.LFB3316
	.uleb128 .LEHE12-.LEHB12
	.uleb128 0
	.uleb128 0
	.uleb128 .LEHB13-.LFB3316
	.uleb128 .LEHE13-.LEHB13
	.uleb128 .L1083-.LFB3316
	.uleb128 0
	.uleb128 .LEHB14-.LFB3316
	.uleb128 .LEHE14-.LEHB14
	.uleb128 0
	.uleb128 0
.LLSDACSE3316:
	.section	.text._ZN4asio6detail13epoll_reactor16descriptor_state11do_completeEPNS0_15task_io_serviceEPNS0_25task_io_service_operationERKSt10error_codem,"axG",@progbits,_ZN4asio6detail13epoll_reactor16descriptor_state11do_completeEPNS0_15task_io_serviceEPNS0_25task_io_service_operationERKSt10error_codem,comdat
	.size	_ZN4asio6detail13epoll_reactor16descriptor_state11do_completeEPNS0_15task_io_serviceEPNS0_25task_io_service_operationERKSt10error_codem, .-_ZN4asio6detail13epoll_reactor16descriptor_state11do_completeEPNS0_15task_io_serviceEPNS0_25task_io_service_operationERKSt10error_codem
	.section	.text._ZN4asio6detail10socket_ops24translate_addrinfo_errorEi,"axG",@progbits,_ZN4asio6detail10socket_ops24translate_addrinfo_errorEi,comdat
	.p2align 4
	.weak	_ZN4asio6detail10socket_ops24translate_addrinfo_errorEi
	.type	_ZN4asio6detail10socket_ops24translate_addrinfo_errorEi, @function
_ZN4asio6detail10socket_ops24translate_addrinfo_errorEi:
.LFB3747:
	.cfi_startproc
	pushq	%rbp
	.cfi_def_cfa_offset 16
	.cfi_offset 6, -16
	addl	$10, %edi
	pushq	%rbx
	.cfi_def_cfa_offset 24
	.cfi_offset 3, -24
	subq	$8, %rsp
	.cfi_def_cfa_offset 32
	cmpl	$10, %edi
	ja	.L1130
	leaq	.L1132(%rip), %rdx
	movslq	(%rdx,%rdi,4), %rax
	addq	%rdx, %rax
	jmp	*%rax
	.section	.rodata._ZN4asio6detail10socket_ops24translate_addrinfo_errorEi,"aG",@progbits,_ZN4asio6detail10socket_ops24translate_addrinfo_errorEi,comdat
	.align 4
	.align 4
.L1132:
	.long	.L1140-.L1132
	.long	.L1134-.L1132
	.long	.L1139-.L1132
	.long	.L1138-.L1132
	.long	.L1137-.L1132
	.long	.L1134-.L1132
	.long	.L1136-.L1132
	.long	.L1135-.L1132
	.long	.L1134-.L1132
	.long	.L1133-.L1132
	.long	.L1131-.L1132
	.section	.text._ZN4asio6detail10socket_ops24translate_addrinfo_errorEi,"axG",@progbits,_ZN4asio6detail10socket_ops24translate_addrinfo_errorEi,comdat
	.p2align 4,,10
	.p2align 3
.L1134:
	movq	_ZGVZN4asio5error18get_netdb_categoryEvE8instance@GOTPCREL(%rip), %rbp
	movzbl	0(%rbp), %eax
	testb	%al, %al
	je	.L1148
.L1175:
	movq	_ZZN4asio5error18get_netdb_categoryEvE8instance@GOTPCREL(%rip), %rbx
.L1149:
	addq	$8, %rsp
	.cfi_remember_state
	.cfi_def_cfa_offset 24
	movq	%rbx, %rdx
	movl	$1, %eax
	popq	%rbx
	.cfi_def_cfa_offset 16
	popq	%rbp
	.cfi_def_cfa_offset 8
	ret
	.p2align 4,,10
	.p2align 3
.L1139:
	.cfi_restore_state
	movq	_ZGVZN4asio5error21get_addrinfo_categoryEvE8instance@GOTPCREL(%rip), %rbp
	movzbl	0(%rbp), %eax
	testb	%al, %al
	je	.L1151
.L1176:
	movq	_ZZN4asio5error21get_addrinfo_categoryEvE8instance@GOTPCREL(%rip), %rbx
.L1152:
	addq	$8, %rsp
	.cfi_remember_state
	.cfi_def_cfa_offset 24
	movq	%rbx, %rdx
	movl	$4294967288, %eax
	popq	%rbx
	.cfi_def_cfa_offset 16
	popq	%rbp
	.cfi_def_cfa_offset 8
	ret
	.p2align 4,,10
	.p2align 3
.L1138:
	.cfi_restore_state
	movq	_ZGVZN4asio5error21get_addrinfo_categoryEvE8instance@GOTPCREL(%rip), %rbp
	movzbl	0(%rbp), %eax
	testb	%al, %al
	je	.L1154
.L1177:
	movq	_ZZN4asio5error21get_addrinfo_categoryEvE8instance@GOTPCREL(%rip), %rbx
.L1155:
	addq	$8, %rsp
	.cfi_remember_state
	.cfi_def_cfa_offset 24
	movq	%rbx, %rdx
	movl	$4294967289, %eax
	popq	%rbx
	.cfi_def_cfa_offset 16
	popq	%rbp
	.cfi_def_cfa_offset 8
	ret
	.p2align 4,,10
	.p2align 3
.L1137:
	.cfi_restore_state
	call	_ZN4asio15system_categoryEv@PLT
	addq	$8, %rsp
	.cfi_remember_state
	.cfi_def_cfa_offset 24
	movq	%rax, %rdx
	popq	%rbx
	.cfi_def_cfa_offset 16
	movl	$97, %eax
	popq	%rbp
	.cfi_def_cfa_offset 8
	ret
	.p2align 4,,10
	.p2align 3
.L1136:
	.cfi_restore_state
	movq	_ZGVZN4asio5error18get_netdb_categoryEvE8instance@GOTPCREL(%rip), %rbp
	movzbl	0(%rbp), %eax
	testb	%al, %al
	je	.L1145
.L1174:
	movq	_ZZN4asio5error18get_netdb_categoryEvE8instance@GOTPCREL(%rip), %rbx
.L1146:
	addq	$8, %rsp
	.cfi_remember_state
	.cfi_def_cfa_offset 24
	movq	%rbx, %rdx
	movl	$3, %eax
	popq	%rbx
	.cfi_def_cfa_offset 16
	popq	%rbp
	.cfi_def_cfa_offset 8
	ret
	.p2align 4,,10
	.p2align 3
.L1135:
	.cfi_restore_state
	movq	_ZGVZN4asio5error18get_netdb_categoryEvE8instance@GOTPCREL(%rip), %rbp
	movzbl	0(%rbp), %eax
	testb	%al, %al
	je	.L1142
.L1173:
	movq	_ZZN4asio5error18get_netdb_categoryEvE8instance@GOTPCREL(%rip), %rbx
.L1143:
	addq	$8, %rsp
	.cfi_remember_state
	.cfi_def_cfa_offset 24
	movq	%rbx, %rdx
	movl	$2, %eax
	popq	%rbx
	.cfi_def_cfa_offset 16
	popq	%rbp
	.cfi_def_cfa_offset 8
	ret
	.p2align 4,,10
	.p2align 3
.L1133:
	.cfi_restore_state
	call	_ZN4asio15system_categoryEv@PLT
	addq	$8, %rsp
	.cfi_remember_state
	.cfi_def_cfa_offset 24
	movq	%rax, %rdx
	popq	%rbx
	.cfi_def_cfa_offset 16
	movl	$22, %eax
	popq	%rbp
	.cfi_def_cfa_offset 8
	ret
	.p2align 4,,10
	.p2align 3
.L1131:
	.cfi_restore_state
	call	_ZNSt3_V215system_categoryEv@PLT
	addq	$8, %rsp
	.cfi_remember_state
	.cfi_def_cfa_offset 24
	movq	%rax, %rdx
	popq	%rbx
	.cfi_def_cfa_offset 16
	xorl	%eax, %eax
	popq	%rbp
	.cfi_def_cfa_offset 8
	ret
	.p2align 4,,10
	.p2align 3
.L1140:
	.cfi_restore_state
	call	_ZN4asio15system_categoryEv@PLT
	addq	$8, %rsp
	.cfi_remember_state
	.cfi_def_cfa_offset 24
	movq	%rax, %rdx
	popq	%rbx
	.cfi_def_cfa_offset 16
	movl	$12, %eax
	popq	%rbp
	.cfi_def_cfa_offset 8
	ret
.L1130:
	.cfi_restore_state
	call	_ZN4asio15system_categoryEv@PLT
	movq	%rax, %rbx
	call	__errno_location@PLT
	movq	%rbx, %rdx
	movl	(%rax), %eax
	addq	$8, %rsp
	.cfi_remember_state
	.cfi_def_cfa_offset 24
	popq	%rbx
	.cfi_def_cfa_offset 16
	popq	%rbp
	.cfi_def_cfa_offset 8
	ret
	.p2align 4,,10
	.p2align 3
.L1148:
	.cfi_restore_state
	movq	%rbp, %rdi
	call	__cxa_guard_acquire@PLT
	testl	%eax, %eax
	je	.L1175
	movq	_ZZN4asio5error18get_netdb_categoryEvE8instance@GOTPCREL(%rip), %rbx
	movq	_ZN4asio5error6detail14netdb_categoryD1Ev@GOTPCREL(%rip), %rdi
	leaq	__dso_handle(%rip), %rdx
	movq	%rbx, %rsi
	call	__cxa_atexit@PLT
	movq	%rbp, %rdi
	call	__cxa_guard_release@PLT
	jmp	.L1149
	.p2align 4,,10
	.p2align 3
.L1142:
	movq	%rbp, %rdi
	call	__cxa_guard_acquire@PLT
	testl	%eax, %eax
	je	.L1173
	movq	_ZZN4asio5error18get_netdb_categoryEvE8instance@GOTPCREL(%rip), %rbx
	movq	_ZN4asio5error6detail14netdb_categoryD1Ev@GOTPCREL(%rip), %rdi
	leaq	__dso_handle(%rip), %rdx
	movq	%rbx, %rsi
	call	__cxa_atexit@PLT
	movq	%rbp, %rdi
	call	__cxa_guard_release@PLT
	jmp	.L1143
	.p2align 4,,10
	.p2align 3
.L1145:
	movq	%rbp, %rdi
	call	__cxa_guard_acquire@PLT
	testl	%eax, %eax
	je	.L1174
	movq	_ZZN4asio5error18get_netdb_categoryEvE8instance@GOTPCREL(%rip), %rbx
	movq	_ZN4asio5error6detail14netdb_categoryD1Ev@GOTPCREL(%rip), %rdi
	leaq	__dso_handle(%rip), %rdx
	movq	%rbx, %rsi
	call	__cxa_atexit@PLT
	movq	%rbp, %rdi
	call	__cxa_guard_release@PLT
	jmp	.L1146
	.p2align 4,,10
	.p2align 3
.L1154:
	movq	%rbp, %rdi
	call	__cxa_guard_acquire@PLT
	testl	%eax, %eax
	je	.L1177
	movq	_ZZN4asio5error21get_addrinfo_categoryEvE8instance@GOTPCREL(%rip), %rbx
	movq	_ZN4asio5error6detail17addrinfo_categoryD1Ev@GOTPCREL(%rip), %rdi
	leaq	__dso_handle(%rip), %rdx
	movq	%rbx, %rsi
	call	__cxa_atexit@PLT
	movq	%rbp, %rdi
	call	__cxa_guard_release@PLT
	jmp	.L1155
	.p2align 4,,10
	.p2align 3
.L1151:
	movq	%rbp, %rdi
	call	__cxa_guard_acquire@PLT
	testl	%eax, %eax
	je	.L1176
	movq	_ZZN4asio5error21get_addrinfo_categoryEvE8instance@GOTPCREL(%rip), %rbx
	movq	_ZN4asio5error6detail17addrinfo_categoryD1Ev@GOTPCREL(%rip), %rdi
	leaq	__dso_handle(%rip), %rdx
	movq	%rbx, %rsi
	call	__cxa_atexit@PLT
	movq	%rbp, %rdi
	call	__cxa_guard_release@PLT
	jmp	.L1152
	.cfi_endproc
.LFE3747:
	.size	_ZN4asio6detail10socket_ops24translate_addrinfo_errorEi, .-_ZN4asio6detail10socket_ops24translate_addrinfo_errorEi
	.section	.text._ZN4asio6detail13socket_holderD2Ev,"axG",@progbits,_ZN4asio6detail13socket_holderD5Ev,comdat
	.align 2
	.p2align 4
	.weak	_ZN4asio6detail13socket_holderD2Ev
	.type	_ZN4asio6detail13socket_holderD2Ev, @function
_ZN4asio6detail13socket_holderD2Ev:
.LFB3765:
	.cfi_startproc
	.cfi_personality 0x9b,DW.ref.__gxx_personality_v0
	.cfi_lsda 0x1b,.LLSDA3765
	pushq	%r13
	.cfi_def_cfa_offset 16
	.cfi_offset 13, -16
	pushq	%r12
	.cfi_def_cfa_offset 24
	.cfi_offset 12, -24
	pushq	%rbp
	.cfi_def_cfa_offset 32
	.cfi_offset 6, -32
	pushq	%rbx
	.cfi_def_cfa_offset 40
	.cfi_offset 3, -40
	subq	$24, %rsp
	.cfi_def_cfa_offset 64
	movl	(%rdi), %ebp
	movq	%fs:40, %rax
	movq	%rax, 8(%rsp)
	xorl	%eax, %eax
	cmpl	$-1, %ebp
	jne	.L1200
.L1178:
	movq	8(%rsp), %rax
	subq	%fs:40, %rax
	jne	.L1201
	addq	$24, %rsp
	.cfi_remember_state
	.cfi_def_cfa_offset 40
	popq	%rbx
	.cfi_def_cfa_offset 32
	popq	%rbp
	.cfi_def_cfa_offset 24
	popq	%r12
	.cfi_def_cfa_offset 16
	popq	%r13
	.cfi_def_cfa_offset 8
	ret
	.p2align 4,,10
	.p2align 3
.L1200:
	.cfi_restore_state
	call	__errno_location@PLT
	movl	%ebp, %edi
	movl	$0, (%rax)
	movq	%rax, %rbx
	call	close@PLT
	movl	%eax, %r12d
	call	_ZN4asio15system_categoryEv@PLT
	movq	%rax, %r13
	testl	%r12d, %r12d
	je	.L1178
	movl	(%rbx), %r12d
	call	_ZN4asio15system_categoryEv@PLT
	cmpl	$11, %r12d
	sete	%r12b
	cmpq	%rax, %r13
	jne	.L1182
	testb	%r12b, %r12b
	jne	.L1183
.L1182:
	call	_ZN4asio15system_categoryEv@PLT
	cmpq	%rax, %r13
	jne	.L1178
	testb	%r12b, %r12b
	je	.L1178
.L1183:
	leaq	4(%rsp), %rdx
	movl	$21537, %esi
	movl	%ebp, %edi
	xorl	%eax, %eax
	movl	$0, 4(%rsp)
	call	ioctl@PLT
	movl	$0, (%rbx)
	movl	%ebp, %edi
	call	close@PLT
	call	_ZN4asio15system_categoryEv@PLT
	jmp	.L1178
.L1201:
	call	__stack_chk_fail@PLT
	.cfi_endproc
.LFE3765:
	.section	.gcc_except_table._ZN4asio6detail13socket_holderD2Ev,"aG",@progbits,_ZN4asio6detail13socket_holderD5Ev,comdat
.LLSDA3765:
	.byte	0xff
	.byte	0xff
	.byte	0x1
	.uleb128 .LLSDACSE3765-.LLSDACSB3765
.LLSDACSB3765:
.LLSDACSE3765:
	.section	.text._ZN4asio6detail13socket_holderD2Ev,"axG",@progbits,_ZN4asio6detail13socket_holderD5Ev,comdat
	.size	_ZN4asio6detail13socket_holderD2Ev, .-_ZN4asio6detail13socket_holderD2Ev
	.weak	_ZN4asio6detail13socket_holderD1Ev
	.set	_ZN4asio6detail13socket_holderD1Ev,_ZN4asio6detail13socket_holderD2Ev
	.section	.text._ZN4asio6detail28reactive_socket_service_base7destroyERNS1_24base_implementation_typeE,"axG",@progbits,_ZN4asio6detail28reactive_socket_service_base7destroyERNS1_24base_implementation_typeE,comdat
	.align 2
	.p2align 4
	.weak	_ZN4asio6detail28reactive_socket_service_base7destroyERNS1_24base_implementation_typeE
	.type	_ZN4asio6detail28reactive_socket_service_base7destroyERNS1_24base_implementation_typeE, @function
_ZN4asio6detail28reactive_socket_service_base7destroyERNS1_24base_implementation_typeE:
.LFB3848:
	.cfi_startproc
	pushq	%rbx
	.cfi_def_cfa_offset 16
	.cfi_offset 3, -16
	movq	%rsi, %rbx
	subq	$32, %rsp
	.cfi_def_cfa_offset 48
	movl	(%rsi), %esi
	movq	%fs:40, %rax
	movq	%rax, 24(%rsp)
	xorl	%eax, %eax
	cmpl	$-1, %esi
	je	.L1202
	movzbl	4(%rbx), %ecx
	movq	(%rdi), %rdi
	leaq	8(%rbx), %rdx
	shrb	$6, %cl
	xorl	$1, %ecx
	andl	$1, %ecx
	call	_ZN4asio6detail13epoll_reactor21deregister_descriptorEiRPNS1_16descriptor_stateEb@PLT
	movl	$0, (%rsp)
	call	_ZNSt3_V215system_categoryEv@PLT
	movl	(%rbx), %edi
	movq	%rsp, %rcx
	leaq	4(%rbx), %rsi
	movl	$1, %edx
	movq	%rax, 8(%rsp)
	call	_ZN4asio6detail10socket_ops5closeEiRhbRSt10error_code.isra.0
.L1202:
	movq	24(%rsp), %rax
	subq	%fs:40, %rax
	jne	.L1209
	addq	$32, %rsp
	.cfi_remember_state
	.cfi_def_cfa_offset 16
	popq	%rbx
	.cfi_def_cfa_offset 8
	ret
.L1209:
	.cfi_restore_state
	call	__stack_chk_fail@PLT
	.cfi_endproc
.LFE3848:
	.size	_ZN4asio6detail28reactive_socket_service_base7destroyERNS1_24base_implementation_typeE, .-_ZN4asio6detail28reactive_socket_service_base7destroyERNS1_24base_implementation_typeE
	.section	.text._ZN4asio6detail28reactive_socket_service_base16start_connect_opERNS1_24base_implementation_typeEPNS0_10reactor_opEbPK8sockaddrm,"axG",@progbits,_ZN4asio6detail28reactive_socket_service_base16start_connect_opERNS1_24base_implementation_typeEPNS0_10reactor_opEbPK8sockaddrm,comdat
	.align 2
	.p2align 4
	.weak	_ZN4asio6detail28reactive_socket_service_base16start_connect_opERNS1_24base_implementation_typeEPNS0_10reactor_opEbPK8sockaddrm
	.type	_ZN4asio6detail28reactive_socket_service_base16start_connect_opERNS1_24base_implementation_typeEPNS0_10reactor_opEbPK8sockaddrm, @function
_ZN4asio6detail28reactive_socket_service_base16start_connect_opERNS1_24base_implementation_typeEPNS0_10reactor_opEbPK8sockaddrm:
.LFB3855:
	.cfi_startproc
	pushq	%r15
	.cfi_def_cfa_offset 16
	.cfi_offset 15, -16
	movq	%r9, %r15
	pushq	%r14
	.cfi_def_cfa_offset 24
	.cfi_offset 14, -24
	movq	%r8, %r14
	pushq	%r13
	.cfi_def_cfa_offset 32
	.cfi_offset 13, -32
	movq	%rdi, %r13
	pushq	%r12
	.cfi_def_cfa_offset 40
	.cfi_offset 12, -40
	movq	%rsi, %r12
	pushq	%rbp
	.cfi_def_cfa_offset 48
	.cfi_offset 6, -48
	movq	%rdx, %rbp
	pushq	%rbx
	.cfi_def_cfa_offset 56
	.cfi_offset 3, -56
	movl	%ecx, %ebx
	subq	$56, %rsp
	.cfi_def_cfa_offset 112
	movq	%fs:40, %rax
	movq	%rax, 40(%rsp)
	xorl	%eax, %eax
	testb	$3, 4(%rsi)
	jne	.L1211
	movl	(%rsi), %edi
	cmpl	$-1, %edi
	je	.L1235
	movl	%edi, (%rsp)
	call	__errno_location@PLT
	movl	(%rsp), %edi
	leaq	28(%rsp), %rdx
	movl	$21537, %esi
	movl	$0, (%rax)
	movq	%rax, 8(%rsp)
	xorl	%eax, %eax
	movl	$1, 28(%rsp)
	call	ioctl@PLT
	movl	%eax, (%rsp)
	call	_ZN4asio15system_categoryEv@PLT
	movq	8(%rsp), %rcx
	movl	(%rsp), %edx
	movl	(%rcx), %ecx
	movq	%rax, 32(%rbp)
	movl	%ecx, 24(%rbp)
	testl	%edx, %edx
	js	.L1213
	call	_ZNSt3_V215system_categoryEv@PLT
	movl	$0, 24(%rbp)
	movq	%rax, 32(%rbp)
	orb	$2, 4(%r12)
.L1211:
	movl	(%r12), %edi
	cmpl	$-1, %edi
	je	.L1236
	movl	%edi, 8(%rsp)
	call	__errno_location@PLT
	movl	8(%rsp), %edi
	movl	%r15d, %edx
	movq	%r14, %rsi
	movl	$0, (%rax)
	movq	%rax, (%rsp)
	call	connect@PLT
	movl	%eax, %r14d
	call	_ZN4asio15system_categoryEv@PLT
	movq	(%rsp), %rcx
	movl	(%rcx), %edx
	movq	%rax, 32(%rbp)
	movl	%edx, 24(%rbp)
	testl	%r14d, %r14d
	jne	.L1217
	call	_ZNSt3_V215system_categoryEv@PLT
	movl	$0, 24(%rbp)
	movq	%rax, 32(%rbp)
.L1213:
	movq	40(%rsp), %rax
	subq	%fs:40, %rax
	jne	.L1234
	movq	0(%r13), %rax
	movzbl	%bl, %edx
	movq	40(%rax), %rdi
.L1233:
	addq	$56, %rsp
	.cfi_remember_state
	.cfi_def_cfa_offset 56
	movq	%rbp, %rsi
	popq	%rbx
	.cfi_def_cfa_offset 48
	popq	%rbp
	.cfi_def_cfa_offset 40
	popq	%r12
	.cfi_def_cfa_offset 32
	popq	%r13
	.cfi_def_cfa_offset 24
	popq	%r14
	.cfi_def_cfa_offset 16
	popq	%r15
	.cfi_def_cfa_offset 8
	jmp	_ZN4asio6detail15task_io_service25post_immediate_completionEPNS0_25task_io_service_operationEb@PLT
	.p2align 4,,10
	.p2align 3
.L1217:
	.cfi_restore_state
	call	_ZN4asio15system_categoryEv@PLT
	cmpq	%rax, 32(%rbp)
	je	.L1237
.L1216:
	call	_ZN4asio15system_categoryEv@PLT
	cmpq	%rax, 32(%rbp)
	je	.L1238
.L1218:
	call	_ZN4asio15system_categoryEv@PLT
	cmpq	%rax, 32(%rbp)
	jne	.L1213
	cmpl	$11, 24(%rbp)
	jne	.L1213
.L1221:
	call	_ZNSt3_V215system_categoryEv@PLT
	movq	0(%r13), %r13
	movzbl	%bl, %r14d
	movl	$0, 24(%rbp)
	movq	%rax, 32(%rbp)
	movq	8(%r12), %rax
	testq	%rax, %rax
	je	.L1239
	leaq	40(%rax), %rbx
	movl	(%r12), %r15d
	movq	%rbx, %rdi
	call	pthread_mutex_lock@PLT
	movq	8(%r12), %rax
	cmpb	$0, 144(%rax)
	jne	.L1240
	cmpq	$0, 112(%rax)
	je	.L1241
.L1225:
	movq	120(%rax), %rdx
	movq	$0, 0(%rbp)
	testq	%rdx, %rdx
	je	.L1226
	movq	%rbp, (%rdx)
	movq	%rbp, 120(%rax)
.L1227:
	movq	40(%r13), %rax
	lock addq	$1, 184(%rax)
	movq	40(%rsp), %rax
	subq	%fs:40, %rax
	jne	.L1234
.L1228:
	addq	$56, %rsp
	.cfi_remember_state
	.cfi_def_cfa_offset 56
	movq	%rbx, %rdi
	popq	%rbx
	.cfi_def_cfa_offset 48
	popq	%rbp
	.cfi_def_cfa_offset 40
	popq	%r12
	.cfi_def_cfa_offset 32
	popq	%r13
	.cfi_def_cfa_offset 24
	popq	%r14
	.cfi_def_cfa_offset 16
	popq	%r15
	.cfi_def_cfa_offset 8
	jmp	pthread_mutex_unlock@PLT
	.p2align 4,,10
	.p2align 3
.L1238:
	.cfi_restore_state
	cmpl	$115, 24(%rbp)
	jne	.L1218
	jmp	.L1221
	.p2align 4,,10
	.p2align 3
.L1237:
	cmpl	$11, 24(%rbp)
	jne	.L1216
	call	_ZN4asio15system_categoryEv@PLT
	movl	$105, 24(%rbp)
	movq	%rax, 32(%rbp)
	jmp	.L1216
	.p2align 4,,10
	.p2align 3
.L1235:
	call	_ZN4asio15system_categoryEv@PLT
	movl	$9, 24(%rbp)
	movq	%rax, 32(%rbp)
	jmp	.L1213
.L1226:
	movq	%rbp, %xmm0
	punpcklqdq	%xmm0, %xmm0
	movups	%xmm0, 112(%rax)
	jmp	.L1227
.L1241:
	movl	92(%rax), %edx
	leaq	28(%rsp), %rcx
	movl	$3, %esi
	orl	$4, %edx
	movl	%edx, 92(%rax)
	movl	%edx, 28(%rsp)
	movl	%r15d, %edx
	movq	%rax, 32(%rsp)
	movl	96(%r13), %edi
	call	epoll_ctl@PLT
	movq	8(%r12), %rax
	jmp	.L1225
.L1239:
	call	_ZN4asio15system_categoryEv@PLT
	movl	$9, 24(%rbp)
	movq	%rax, 32(%rbp)
	movq	40(%rsp), %rax
	subq	%fs:40, %rax
	jne	.L1234
	movq	40(%r13), %rdi
	movl	%r14d, %edx
	jmp	.L1233
.L1240:
	movq	40(%r13), %rdi
	movl	%r14d, %edx
	movq	%rbp, %rsi
	call	_ZN4asio6detail15task_io_service25post_immediate_completionEPNS0_25task_io_service_operationEb@PLT
	movq	40(%rsp), %rax
	subq	%fs:40, %rax
	je	.L1228
.L1234:
	call	__stack_chk_fail@PLT
	.p2align 4,,10
	.p2align 3
.L1236:
	call	_ZN4asio15system_categoryEv@PLT
	movl	$9, 24(%rbp)
	movq	%rax, 32(%rbp)
	jmp	.L1216
	.cfi_endproc
.LFE3855:
	.size	_ZN4asio6detail28reactive_socket_service_base16start_connect_opERNS1_24base_implementation_typeEPNS0_10reactor_opEbPK8sockaddrm, .-_ZN4asio6detail28reactive_socket_service_base16start_connect_opERNS1_24base_implementation_typeEPNS0_10reactor_opEbPK8sockaddrm
	.section	.text._ZN4asio2ip7address11from_stringEPKcRSt10error_code,"axG",@progbits,_ZN4asio2ip7address11from_stringEPKcRSt10error_code,comdat
	.align 2
	.p2align 4
	.weak	_ZN4asio2ip7address11from_stringEPKcRSt10error_code
	.type	_ZN4asio2ip7address11from_stringEPKcRSt10error_code, @function
_ZN4asio2ip7address11from_stringEPKcRSt10error_code:
.LFB5838:
	.cfi_startproc
	pushq	%r15
	.cfi_def_cfa_offset 16
	.cfi_offset 15, -16
	pxor	%xmm0, %xmm0
	pushq	%r14
	.cfi_def_cfa_offset 24
	.cfi_offset 14, -24
	pushq	%r13
	.cfi_def_cfa_offset 32
	.cfi_offset 13, -32
	pushq	%r12
	.cfi_def_cfa_offset 40
	.cfi_offset 12, -40
	movq	%rdi, %r12
	pushq	%rbp
	.cfi_def_cfa_offset 48
	.cfi_offset 6, -48
	movq	%rsi, %rbp
	pushq	%rbx
	.cfi_def_cfa_offset 56
	.cfi_offset 3, -56
	movq	%rdx, %rbx
	subq	$168, %rsp
	.cfi_def_cfa_offset 224
	movq	%fs:40, %rax
	movq	%rax, 152(%rsp)
	xorl	%eax, %eax
	movups	%xmm0, 48(%rsp)
	movq	$0, 64(%rsp)
	call	__errno_location@PLT
	movl	$37, %esi
	movq	%rbp, %rdi
	movl	$0, (%rax)
	movq	%rax, %r13
	call	strchr@PLT
	testq	%rax, %rax
	je	.L1243
	movq	%rax, %r15
	movq	%rax, %r14
	subq	%rbp, %r15
	cmpq	$63, %r15
	jg	.L1275
	leaq	80(%rsp), %r8
	movl	$64, %ecx
	movq	%r15, %rdx
	movq	%rbp, %rsi
	movq	%r8, %rdi
	call	__memcpy_chk@PLT
	leaq	48(%rsp), %rdx
	movl	$10, %edi
	movb	$0, 80(%rsp,%r15)
	movq	%rax, %rsi
	call	inet_pton@PLT
	movl	%eax, %r15d
	call	_ZN4asio15system_categoryEv@PLT
	movq	%rax, %r8
	movl	0(%r13), %eax
	movq	%r8, 8(%rbx)
	movl	%eax, (%rbx)
	testl	%r15d, %r15d
	jle	.L1258
	movq	$0, 64(%rsp)
	movzbl	48(%rsp), %eax
	cmpb	$-2, %al
	je	.L1276
	cmpb	$-1, %al
	jne	.L1274
	movzbl	49(%rsp), %eax
	leaq	1(%r14), %r15
	andl	$15, %eax
	cmpb	$2, %al
	je	.L1248
.L1250:
	movl	$10, %edx
	xorl	%esi, %esi
	movq	%r15, %rdi
	call	strtol@PLT
	movslq	%eax, %rdx
	movl	(%rbx), %eax
.L1249:
	movdqu	48(%rsp), %xmm0
	movups	%xmm0, 16(%rsp)
	testl	%eax, %eax
	jne	.L1245
	movq	.LC22(%rip), %rax
	movq	%rdx, 24(%r12)
	movups	%xmm0, 56(%rsp)
	movq	%rax, (%r12)
	movups	%xmm0, 8(%r12)
.L1242:
	movq	152(%rsp), %rax
	subq	%fs:40, %rax
	jne	.L1277
	addq	$168, %rsp
	.cfi_remember_state
	.cfi_def_cfa_offset 56
	movq	%r12, %rax
	popq	%rbx
	.cfi_def_cfa_offset 48
	popq	%rbp
	.cfi_def_cfa_offset 40
	popq	%r12
	.cfi_def_cfa_offset 32
	popq	%r13
	.cfi_def_cfa_offset 24
	popq	%r14
	.cfi_def_cfa_offset 16
	popq	%r15
	.cfi_def_cfa_offset 8
	ret
	.p2align 4,,10
	.p2align 3
.L1243:
	.cfi_restore_state
	leaq	48(%rsp), %rdx
	movq	%rbp, %rsi
	movl	$10, %edi
	call	inet_pton@PLT
	movl	%eax, %r14d
	call	_ZN4asio15system_categoryEv@PLT
	xorl	%edx, %edx
	movq	%rax, %r8
	movl	0(%r13), %eax
	movq	%r8, 8(%rbx)
	movl	%eax, (%rbx)
	testl	%r14d, %r14d
	jg	.L1249
.L1258:
	testl	%eax, %eax
	jne	.L1245
.L1275:
	call	_ZN4asio15system_categoryEv@PLT
	movl	$22, (%rbx)
	movq	%rax, 8(%rbx)
.L1245:
	movl	$0, 0(%r13)
	movq	%rbp, %rsi
	leaq	12(%rsp), %rdx
	movl	$2, %edi
	movl	$0, 12(%rsp)
	call	inet_pton@PLT
	movl	%eax, %ebp
	call	_ZN4asio15system_categoryEv@PLT
	movq	%rax, %r8
	movl	0(%r13), %eax
	movq	%r8, 8(%rbx)
	movl	%eax, (%rbx)
	testl	%ebp, %ebp
	jle	.L1278
	movl	12(%rsp), %edx
	testl	%eax, %eax
	jne	.L1255
	pxor	%xmm0, %xmm0
	movl	%edx, 4(%r12)
	movl	$0, (%r12)
	movq	$0, 24(%r12)
	movups	%xmm0, 56(%rsp)
	movups	%xmm0, 8(%r12)
	jmp	.L1242
	.p2align 4,,10
	.p2align 3
.L1278:
	testl	%eax, %eax
	je	.L1279
.L1255:
	pxor	%xmm0, %xmm0
	movq	$0, (%r12)
	movq	$0, 24(%r12)
	movups	%xmm0, 8(%r12)
	jmp	.L1242
	.p2align 4,,10
	.p2align 3
.L1276:
	movzbl	49(%rsp), %eax
	andl	$-64, %eax
	cmpb	$-128, %al
	je	.L1248
.L1274:
	leaq	1(%r14), %r15
	jmp	.L1250
	.p2align 4,,10
	.p2align 3
.L1248:
	leaq	1(%r14), %r15
	movq	%r15, %rdi
	call	if_nametoindex@PLT
	movl	%eax, %edx
	movq	%rdx, 64(%rsp)
	testq	%rdx, %rdx
	je	.L1250
	movl	(%rbx), %eax
	jmp	.L1249
	.p2align 4,,10
	.p2align 3
.L1279:
	call	_ZN4asio15system_categoryEv@PLT
	movl	$22, (%rbx)
	movq	%rax, 8(%rbx)
	jmp	.L1255
.L1277:
	call	__stack_chk_fail@PLT
	.cfi_endproc
.LFE5838:
	.size	_ZN4asio2ip7address11from_stringEPKcRSt10error_code, .-_ZN4asio2ip7address11from_stringEPKcRSt10error_code
	.section	.text._ZN4asio6detail14strand_service16on_dispatch_exitD2Ev,"axG",@progbits,_ZN4asio6detail14strand_service16on_dispatch_exitD5Ev,comdat
	.align 2
	.p2align 4
	.weak	_ZN4asio6detail14strand_service16on_dispatch_exitD2Ev
	.type	_ZN4asio6detail14strand_service16on_dispatch_exitD2Ev, @function
_ZN4asio6detail14strand_service16on_dispatch_exitD2Ev:
.LFB6387:
	.cfi_startproc
	pushq	%rbp
	.cfi_def_cfa_offset 16
	.cfi_offset 6, -16
	pushq	%rbx
	.cfi_def_cfa_offset 24
	.cfi_offset 3, -24
	movq	%rdi, %rbx
	subq	$8, %rsp
	.cfi_def_cfa_offset 32
	movq	8(%rdi), %rax
	leaq	24(%rax), %rdi
	call	pthread_mutex_lock@PLT
	movq	8(%rbx), %rdi
	movq	72(%rdi), %rbp
	testq	%rbp, %rbp
	je	.L1287
	movq	96(%rdi), %rax
	testq	%rax, %rax
	je	.L1283
	movq	%rbp, (%rax)
	movq	88(%rdi), %rbp
.L1284:
	movq	80(%rdi), %rax
	pxor	%xmm0, %xmm0
	movups	%xmm0, 72(%rdi)
	movq	%rax, 96(%rdi)
.L1282:
	testq	%rbp, %rbp
	setne	64(%rdi)
	addq	$24, %rdi
	call	pthread_mutex_unlock@PLT
	testq	%rbp, %rbp
	jne	.L1288
	addq	$8, %rsp
	.cfi_remember_state
	.cfi_def_cfa_offset 24
	popq	%rbx
	.cfi_def_cfa_offset 16
	popq	%rbp
	.cfi_def_cfa_offset 8
	ret
	.p2align 4,,10
	.p2align 3
.L1283:
	.cfi_restore_state
	movq	%rbp, 88(%rdi)
	jmp	.L1284
	.p2align 4,,10
	.p2align 3
.L1288:
	movq	8(%rbx), %rsi
	movq	(%rbx), %rdi
	addq	$8, %rsp
	.cfi_remember_state
	.cfi_def_cfa_offset 24
	xorl	%edx, %edx
	popq	%rbx
	.cfi_def_cfa_offset 16
	popq	%rbp
	.cfi_def_cfa_offset 8
	jmp	_ZN4asio6detail15task_io_service25post_immediate_completionEPNS0_25task_io_service_operationEb@PLT
	.p2align 4,,10
	.p2align 3
.L1287:
	.cfi_restore_state
	movq	88(%rdi), %rbp
	jmp	.L1282
	.cfi_endproc
.LFE6387:
	.size	_ZN4asio6detail14strand_service16on_dispatch_exitD2Ev, .-_ZN4asio6detail14strand_service16on_dispatch_exitD2Ev
	.weak	_ZN4asio6detail14strand_service16on_dispatch_exitD1Ev
	.set	_ZN4asio6detail14strand_service16on_dispatch_exitD1Ev,_ZN4asio6detail14strand_service16on_dispatch_exitD2Ev
	.section	.text._ZN4asio6detail14strand_service11do_dispatchERPNS1_11strand_implEPNS0_25task_io_service_operationE,"axG",@progbits,_ZN4asio6detail14strand_service11do_dispatchERPNS1_11strand_implEPNS0_25task_io_service_operationE,comdat
	.align 2
	.p2align 4
	.weak	_ZN4asio6detail14strand_service11do_dispatchERPNS1_11strand_implEPNS0_25task_io_service_operationE
	.type	_ZN4asio6detail14strand_service11do_dispatchERPNS1_11strand_implEPNS0_25task_io_service_operationE, @function
_ZN4asio6detail14strand_service11do_dispatchERPNS1_11strand_implEPNS0_25task_io_service_operationE:
.LFB6404:
	.cfi_startproc
	pushq	%r14
	.cfi_def_cfa_offset 16
	.cfi_offset 14, -16
	pushq	%r13
	.cfi_def_cfa_offset 24
	.cfi_offset 13, -24
	movq	%rdi, %r13
	pushq	%r12
	.cfi_def_cfa_offset 32
	.cfi_offset 12, -32
	movq	%rsi, %r12
	pushq	%rbp
	.cfi_def_cfa_offset 40
	.cfi_offset 6, -40
	movq	%rdx, %rbp
	pushq	%rbx
	.cfi_def_cfa_offset 48
	.cfi_offset 3, -48
	movq	40(%rdi), %rbx
	data16	leaq	_ZN4asio6detail15keyword_tss_ptrINS0_10call_stackINS0_15task_io_serviceENS0_27task_io_service_thread_infoEE7contextEE6value_E@tlsgd(%rip), %rdi
	.value	0x6666
	rex64
	call	__tls_get_addr@PLT
	movq	(%rax), %rax
	testq	%rax, %rax
	jne	.L1294
	jmp	.L1290
	.p2align 4,,10
	.p2align 3
.L1291:
	movq	16(%rax), %rax
	testq	%rax, %rax
	je	.L1290
.L1294:
	cmpq	(%rax), %rbx
	jne	.L1291
	movq	8(%rax), %rbx
	movq	(%r12), %rax
	leaq	24(%rax), %rdi
	call	pthread_mutex_lock@PLT
	testq	%rbx, %rbx
	je	.L1293
	movq	(%r12), %rax
	cmpb	$0, 64(%rax)
	leaq	24(%rax), %rdi
	je	.L1310
.L1295:
	cmpq	$0, 80(%rax)
	movq	$0, 0(%rbp)
	je	.L1298
	movq	80(%rax), %rdx
	movq	%rbp, (%rdx)
	movq	%rbp, 80(%rax)
.L1299:
	call	pthread_mutex_unlock@PLT
	xorl	%r14d, %r14d
	popq	%rbx
	.cfi_remember_state
	.cfi_def_cfa_offset 40
	popq	%rbp
	.cfi_def_cfa_offset 32
	movl	%r14d, %eax
	popq	%r12
	.cfi_def_cfa_offset 24
	popq	%r13
	.cfi_def_cfa_offset 16
	popq	%r14
	.cfi_def_cfa_offset 8
	ret
	.p2align 4,,10
	.p2align 3
.L1290:
	.cfi_restore_state
	movq	(%r12), %rax
	leaq	24(%rax), %rdi
	call	pthread_mutex_lock@PLT
.L1293:
	movq	(%r12), %rax
	movzbl	64(%rax), %r14d
	leaq	24(%rax), %rdi
	testb	%r14b, %r14b
	jne	.L1295
	movb	$1, 64(%rax)
	call	pthread_mutex_unlock@PLT
	movq	(%r12), %rsi
	movq	$0, 0(%rbp)
	cmpq	$0, 96(%rsi)
	je	.L1300
	movq	96(%rsi), %rax
	movq	%rbp, (%rax)
	movq	%rbp, 96(%rsi)
.L1301:
	movq	40(%r13), %rdi
	xorl	%edx, %edx
	call	_ZN4asio6detail15task_io_service25post_immediate_completionEPNS0_25task_io_service_operationEb@PLT
	popq	%rbx
	.cfi_remember_state
	.cfi_def_cfa_offset 40
	movl	%r14d, %eax
	popq	%rbp
	.cfi_def_cfa_offset 32
	popq	%r12
	.cfi_def_cfa_offset 24
	popq	%r13
	.cfi_def_cfa_offset 16
	popq	%r14
	.cfi_def_cfa_offset 8
	ret
	.p2align 4,,10
	.p2align 3
.L1298:
	.cfi_restore_state
	movq	%rbp, %xmm0
	punpcklqdq	%xmm0, %xmm0
	movups	%xmm0, 72(%rax)
	jmp	.L1299
.L1300:
	movq	%rbp, %xmm0
	punpcklqdq	%xmm0, %xmm0
	movups	%xmm0, 88(%rsi)
	jmp	.L1301
	.p2align 4,,10
	.p2align 3
.L1310:
	movb	$1, 64(%rax)
	movl	$1, %r14d
	call	pthread_mutex_unlock@PLT
	popq	%rbx
	.cfi_def_cfa_offset 40
	movl	%r14d, %eax
	popq	%rbp
	.cfi_def_cfa_offset 32
	popq	%r12
	.cfi_def_cfa_offset 24
	popq	%r13
	.cfi_def_cfa_offset 16
	popq	%r14
	.cfi_def_cfa_offset 8
	ret
	.cfi_endproc
.LFE6404:
	.size	_ZN4asio6detail14strand_service11do_dispatchERPNS1_11strand_implEPNS0_25task_io_service_operationE, .-_ZN4asio6detail14strand_service11do_dispatchERPNS1_11strand_implEPNS0_25task_io_service_operationE
	.section	.text._ZN4asio2ip20basic_resolver_queryINS0_3tcpEED2Ev,"axG",@progbits,_ZN4asio2ip20basic_resolver_queryINS0_3tcpEED5Ev,comdat
	.align 2
	.p2align 4
	.weak	_ZN4asio2ip20basic_resolver_queryINS0_3tcpEED2Ev
	.type	_ZN4asio2ip20basic_resolver_queryINS0_3tcpEED2Ev, @function
_ZN4asio2ip20basic_resolver_queryINS0_3tcpEED2Ev:
.LFB7078:
	.cfi_startproc
	pushq	%rbx
	.cfi_def_cfa_offset 16
	.cfi_offset 3, -16
	movq	%rdi, %rbx
	movq	80(%rdi), %rdi
	leaq	96(%rbx), %rax
	cmpq	%rax, %rdi
	je	.L1312
	movq	96(%rbx), %rax
	leaq	1(%rax), %rsi
	call	_ZdlPvm@PLT
.L1312:
	movq	48(%rbx), %rdi
	leaq	64(%rbx), %rax
	cmpq	%rax, %rdi
	je	.L1311
	movq	64(%rbx), %rsi
	popq	%rbx
	.cfi_remember_state
	.cfi_def_cfa_offset 8
	addq	$1, %rsi
	jmp	_ZdlPvm@PLT
	.p2align 4,,10
	.p2align 3
.L1311:
	.cfi_restore_state
	popq	%rbx
	.cfi_def_cfa_offset 8
	ret
	.cfi_endproc
.LFE7078:
	.size	_ZN4asio2ip20basic_resolver_queryINS0_3tcpEED2Ev, .-_ZN4asio2ip20basic_resolver_queryINS0_3tcpEED2Ev
	.weak	_ZN4asio2ip20basic_resolver_queryINS0_3tcpEED1Ev
	.set	_ZN4asio2ip20basic_resolver_queryINS0_3tcpEED1Ev,_ZN4asio2ip20basic_resolver_queryINS0_3tcpEED2Ev
	.section	.text._ZNSt12__shared_ptrISt6vectorIN4asio2ip20basic_resolver_entryINS2_3tcpEEESaIS5_EELN9__gnu_cxx12_Lock_policyE2EEC2ERKSA_,"axG",@progbits,_ZNSt12__shared_ptrISt6vectorIN4asio2ip20basic_resolver_entryINS2_3tcpEEESaIS5_EELN9__gnu_cxx12_Lock_policyE2EEC5ERKSA_,comdat
	.align 2
	.p2align 4
	.weak	_ZNSt12__shared_ptrISt6vectorIN4asio2ip20basic_resolver_entryINS2_3tcpEEESaIS5_EELN9__gnu_cxx12_Lock_policyE2EEC2ERKSA_
	.type	_ZNSt12__shared_ptrISt6vectorIN4asio2ip20basic_resolver_entryINS2_3tcpEEESaIS5_EELN9__gnu_cxx12_Lock_policyE2EEC2ERKSA_, @function
_ZNSt12__shared_ptrISt6vectorIN4asio2ip20basic_resolver_entryINS2_3tcpEEESaIS5_EELN9__gnu_cxx12_Lock_policyE2EEC2ERKSA_:
.LFB7117:
	.cfi_startproc
	movq	(%rsi), %rax
	movq	%rax, (%rdi)
	movq	8(%rsi), %rax
	movq	%rax, 8(%rdi)
	testq	%rax, %rax
	je	.L1315
	cmpq	$0, _ZL28__gthrw___pthread_key_createPjPFvPvE@GOTPCREL(%rip)
	jne	.L1321
	addl	$1, 8(%rax)
.L1315:
	ret
	.p2align 4,,10
	.p2align 3
.L1321:
	lock addl	$1, 8(%rax)
	ret
	.cfi_endproc
.LFE7117:
	.size	_ZNSt12__shared_ptrISt6vectorIN4asio2ip20basic_resolver_entryINS2_3tcpEEESaIS5_EELN9__gnu_cxx12_Lock_policyE2EEC2ERKSA_, .-_ZNSt12__shared_ptrISt6vectorIN4asio2ip20basic_resolver_entryINS2_3tcpEEESaIS5_EELN9__gnu_cxx12_Lock_policyE2EEC2ERKSA_
	.weak	_ZNSt12__shared_ptrISt6vectorIN4asio2ip20basic_resolver_entryINS2_3tcpEEESaIS5_EELN9__gnu_cxx12_Lock_policyE2EEC1ERKSA_
	.set	_ZNSt12__shared_ptrISt6vectorIN4asio2ip20basic_resolver_entryINS2_3tcpEEESaIS5_EELN9__gnu_cxx12_Lock_policyE2EEC1ERKSA_,_ZNSt12__shared_ptrISt6vectorIN4asio2ip20basic_resolver_entryINS2_3tcpEEESaIS5_EELN9__gnu_cxx12_Lock_policyE2EEC2ERKSA_
	.section	.text.unlikely._ZN4asio6detail15throw_exceptionISt12system_errorEEvRKT_,"axG",@progbits,_ZN4asio6detail15throw_exceptionISt12system_errorEEvRKT_,comdat
	.weak	_ZN4asio6detail15throw_exceptionISt12system_errorEEvRKT_
	.type	_ZN4asio6detail15throw_exceptionISt12system_errorEEvRKT_, @function
_ZN4asio6detail15throw_exceptionISt12system_errorEEvRKT_:
.LFB7395:
	.cfi_startproc
	pushq	%rbp
	.cfi_def_cfa_offset 16
	.cfi_offset 6, -16
	pushq	%rbx
	.cfi_def_cfa_offset 24
	.cfi_offset 3, -24
	movq	%rdi, %rbx
	movl	$32, %edi
	pushq	%rax
	.cfi_def_cfa_offset 32
	call	__cxa_allocate_exception@PLT
	movq	%rbx, %rsi
	movq	%rax, %rdi
	movq	%rax, %rbp
	call	_ZNSt13runtime_errorC2ERKS_@PLT
	movq	_ZTVSt12system_error@GOTPCREL(%rip), %rax
	movups	16(%rbx), %xmm0
	movq	%rbp, %rdi
	movq	_ZNSt12system_errorD1Ev@GOTPCREL(%rip), %rdx
	movq	_ZTISt12system_error@GOTPCREL(%rip), %rsi
	addq	$16, %rax
	movups	%xmm0, 16(%rbp)
	movq	%rax, 0(%rbp)
	call	__cxa_throw@PLT
	.cfi_endproc
.LFE7395:
	.size	_ZN4asio6detail15throw_exceptionISt12system_errorEEvRKT_, .-_ZN4asio6detail15throw_exceptionISt12system_errorEEvRKT_
	.section	.text._ZN4asio6detail14do_throw_errorERKSt10error_code,"axG",@progbits,_ZN4asio6detail14do_throw_errorERKSt10error_code,comdat
	.p2align 4
	.weak	_ZN4asio6detail14do_throw_errorERKSt10error_code
	.type	_ZN4asio6detail14do_throw_errorERKSt10error_code, @function
_ZN4asio6detail14do_throw_errorERKSt10error_code:
.LFB2406:
	.cfi_startproc
	.cfi_personality 0x9b,DW.ref.__gxx_personality_v0
	.cfi_lsda 0x1b,.LLSDA2406
	pushq	%r13
	.cfi_def_cfa_offset 16
	.cfi_offset 13, -16
	pushq	%r12
	.cfi_def_cfa_offset 24
	.cfi_offset 12, -24
	pushq	%rbp
	.cfi_def_cfa_offset 32
	.cfi_offset 6, -32
	pushq	%rbx
	.cfi_def_cfa_offset 40
	.cfi_offset 3, -40
	subq	$88, %rsp
	.cfi_def_cfa_offset 128
	movq	8(%rdi), %rbx
	movl	(%rdi), %r12d
	movq	%fs:40, %rax
	movq	%rax, 72(%rsp)
	xorl	%eax, %eax
	leaq	32(%rsp), %rbp
	movq	%rsp, %r13
	movq	(%rbx), %rax
	movq	%rbx, %rsi
	movq	%rbp, %rdi
	movl	%r12d, %edx
.LEHB15:
	call	*32(%rax)
.LEHE15:
	movq	%rbp, %rsi
	movq	%r13, %rdi
.LEHB16:
	call	_ZNSt13runtime_errorC2ERKNSt7__cxx1112basic_stringIcSt11char_traitsIcESaIcEEE@PLT
.LEHE16:
	movq	32(%rsp), %rdi
	leaq	48(%rsp), %rax
	cmpq	%rax, %rdi
	je	.L1325
	movq	48(%rsp), %rax
	leaq	1(%rax), %rsi
	call	_ZdlPvm@PLT
.L1325:
	movq	_ZTVSt12system_error@GOTPCREL(%rip), %rax
	movq	%r13, %rdi
	movl	%r12d, 16(%rsp)
	movq	%rbx, 24(%rsp)
	addq	$16, %rax
	movq	%rax, (%rsp)
.LEHB17:
	call	_ZN4asio6detail15throw_exceptionISt12system_errorEEvRKT_@PLT
.LEHE17:
.L1331:
	movq	%rax, %rbp
	jmp	.L1326
.L1330:
	movq	%rax, %rbp
	jmp	.L1328
.L1326:
	movq	32(%rsp), %rdi
	leaq	48(%rsp), %rax
	cmpq	%rax, %rdi
	je	.L1333
	movq	48(%rsp), %rax
	leaq	1(%rax), %rsi
	call	_ZdlPvm@PLT
	jmp	.L1333
.L1328:
	movq	%r13, %rdi
	call	_ZNSt12system_errorD1Ev@PLT
.L1333:
	movq	%rbp, %rdi
.LEHB18:
	call	_Unwind_Resume@PLT
.LEHE18:
	.cfi_endproc
.LFE2406:
	.section	.gcc_except_table._ZN4asio6detail14do_throw_errorERKSt10error_code,"aG",@progbits,_ZN4asio6detail14do_throw_errorERKSt10error_code,comdat
.LLSDA2406:
	.byte	0xff
	.byte	0xff
	.byte	0x1
	.uleb128 .LLSDACSE2406-.LLSDACSB2406
.LLSDACSB2406:
	.uleb128 .LEHB15-.LFB2406
	.uleb128 .LEHE15-.LEHB15
	.uleb128 0
	.uleb128 0
	.uleb128 .LEHB16-.LFB2406
	.uleb128 .LEHE16-.LEHB16
	.uleb128 .L1331-.LFB2406
	.uleb128 0
	.uleb128 .LEHB17-.LFB2406
	.uleb128 .LEHE17-.LEHB17
	.uleb128 .L1330-.LFB2406
	.uleb128 0
	.uleb128 .LEHB18-.LFB2406
	.uleb128 .LEHE18-.LEHB18
	.uleb128 0
	.uleb128 0
.LLSDACSE2406:
	.section	.text._ZN4asio6detail14do_throw_errorERKSt10error_code,"axG",@progbits,_ZN4asio6detail14do_throw_errorERKSt10error_code,comdat
	.size	_ZN4asio6detail14do_throw_errorERKSt10error_code, .-_ZN4asio6detail14do_throw_errorERKSt10error_code
	.section	.text.asio_detail_posix_thread_function,"axG",@progbits,asio_detail_posix_thread_function,comdat
	.p2align 4
	.weak	asio_detail_posix_thread_function
	.type	asio_detail_posix_thread_function, @function
asio_detail_posix_thread_function:
.LFB6013:
	.cfi_startproc
	.cfi_personality 0x9b,DW.ref.__gxx_personality_v0
	.cfi_lsda 0x1b,.LLSDA6013
	pushq	%r15
	.cfi_def_cfa_offset 16
	.cfi_offset 15, -16
	pushq	%r14
	.cfi_def_cfa_offset 24
	.cfi_offset 14, -24
	movq	%rdi, %r14
	pushq	%r13
	.cfi_def_cfa_offset 32
	.cfi_offset 13, -32
	pushq	%r12
	.cfi_def_cfa_offset 40
	.cfi_offset 12, -40
	pushq	%rbp
	.cfi_def_cfa_offset 48
	.cfi_offset 6, -48
	pushq	%rbx
	.cfi_def_cfa_offset 56
	.cfi_offset 3, -56
	subq	$184, %rsp
	.cfi_def_cfa_offset 240
	movq	%fs:40, %rax
	movq	%rax, 168(%rsp)
	movq	(%rdi), %rax
	movq	16(%rax), %rax
	cmpq	_ZN4asio6detail12posix_thread4funcINS0_21resolver_service_base22work_io_service_runnerEE3runEv@GOTPCREL(%rip), %rax
	jne	.L1335
	movq	8(%rdi), %rbx
	movl	$0, 32(%rsp)
	call	_ZNSt3_V215system_categoryEv@PLT
	movq	%rax, 40(%rsp)
	movq	8(%rbx), %rbx
	movq	%rax, %r13
	leaq	48(%rbx), %rbp
	movq	184(%rbx), %rax
	testq	%rax, %rax
	je	.L1436
	pxor	%xmm0, %xmm0
	leaq	128(%rsp), %r12
	movq	$0, 144(%rsp)
	movaps	%xmm0, 128(%rsp)
	movq	$0, 152(%rsp)
	movq	%rbx, 64(%rsp)
	movq	%r12, 72(%rsp)
	data16	leaq	_ZN4asio6detail15keyword_tss_ptrINS0_10call_stackINS0_15task_io_serviceENS0_27task_io_service_thread_infoEE7contextEE6value_E@tlsgd(%rip), %rdi
	.value	0x6666
	rex64
	call	__tls_get_addr@PLT
	movq	%rbp, %rdi
	movq	%rbp, 48(%rsp)
	leaq	88(%rbx), %rbp
	movq	(%rax), %rdx
	movq	%rdx, 80(%rsp)
	leaq	64(%rsp), %rdx
	movq	%rdx, (%rax)
	call	pthread_mutex_lock@PLT
	movb	$1, 56(%rsp)
	.p2align 4,,10
	.p2align 3
.L1355:
	cmpb	$0, 208(%rbx)
	jne	.L1340
.L1442:
	movq	192(%rbx), %r15
	testq	%r15, %r15
	je	.L1342
	movq	(%r15), %rax
	leaq	152(%rbx), %rdx
	movq	%rax, 192(%rbx)
	testq	%rax, %rax
	je	.L1437
	movq	$0, (%r15)
	movzbl	40(%rbx), %eax
	cmpq	%rdx, %r15
	jne	.L1438
	movb	$1, 176(%rbx)
	xorl	%r15d, %r15d
	testb	%al, %al
	je	.L1439
	cmpb	$0, 56(%rsp)
	jne	.L1440
.L1347:
	leaq	48(%rsp), %rdx
	movq	144(%rbx), %rdi
	movl	%r15d, %esi
	movq	%rbx, 96(%rsp)
	movq	%rdx, 104(%rsp)
	leaq	136(%rsp), %rdx
	movq	%r12, 112(%rsp)
.LEHB19:
	call	_ZN4asio6detail13epoll_reactor3runEbRNS0_8op_queueINS0_25task_io_service_operationEEE@PLT
.LEHE19:
	movq	112(%rsp), %rdx
	movq	24(%rdx), %rax
	testq	%rax, %rax
	jle	.L1348
	movq	96(%rsp), %rdx
	lock addq	%rax, 184(%rdx)
	movq	112(%rsp), %rdx
.L1348:
	movq	104(%rsp), %r15
	movq	$0, 24(%rdx)
	cmpb	$0, 8(%r15)
	je	.L1441
.L1349:
	movq	96(%rsp), %rax
	movq	8(%rdx), %rcx
	movb	$1, 176(%rax)
	testq	%rcx, %rcx
	je	.L1350
	movq	200(%rax), %rsi
	testq	%rsi, %rsi
	je	.L1351
	movq	%rcx, (%rsi)
.L1352:
	movq	16(%rdx), %rcx
	pxor	%xmm0, %xmm0
	movq	%rcx, 200(%rax)
	movups	%xmm0, 8(%rdx)
.L1350:
	movq	200(%rax), %rcx
	leaq	152(%rax), %rdx
	movq	$0, 152(%rax)
	testq	%rcx, %rcx
	je	.L1353
	cmpb	$0, 208(%rbx)
	movq	%rdx, (%rcx)
	movq	%rdx, 200(%rax)
	je	.L1442
.L1340:
	cmpb	$0, 56(%rsp)
	jne	.L1443
.L1371:
	data16	leaq	_ZN4asio6detail15keyword_tss_ptrINS0_10call_stackINS0_15task_io_serviceENS0_27task_io_service_thread_infoEE7contextEE6value_E@tlsgd(%rip), %rdi
	.value	0x6666
	rex64
	call	__tls_get_addr@PLT
	movq	80(%rsp), %rdx
	leaq	96(%rsp), %rbx
	movq	136(%rsp), %rsi
	movq	%rdx, (%rax)
	testq	%rsi, %rsi
	jne	.L1375
.L1379:
	movq	128(%rsp), %rdi
	testq	%rdi, %rdi
	je	.L1338
	call	_ZdlPv@PLT
.L1338:
	movl	32(%rsp), %eax
	testl	%eax, %eax
	jne	.L1444
.L1385:
	movq	(%r14), %rax
	movq	%r14, %rdi
	call	*8(%rax)
	movq	168(%rsp), %rax
	subq	%fs:40, %rax
	jne	.L1445
	addq	$184, %rsp
	.cfi_remember_state
	.cfi_def_cfa_offset 56
	xorl	%eax, %eax
	popq	%rbx
	.cfi_def_cfa_offset 48
	popq	%rbp
	.cfi_def_cfa_offset 40
	popq	%r12
	.cfi_def_cfa_offset 32
	popq	%r13
	.cfi_def_cfa_offset 24
	popq	%r14
	.cfi_def_cfa_offset 16
	popq	%r15
	.cfi_def_cfa_offset 8
	ret
	.p2align 4,,10
	.p2align 3
.L1446:
	.cfi_restore_state
	movq	$0, 144(%rsp)
.L1378:
	movq	$0, (%rsi)
	movq	8(%rsi), %rax
	xorl	%ecx, %ecx
	movq	%rbx, %rdx
	movl	$0, 96(%rsp)
	xorl	%edi, %edi
	movq	%r13, 104(%rsp)
	call	*%rax
	movq	136(%rsp), %rsi
	testq	%rsi, %rsi
	je	.L1379
.L1375:
	movq	(%rsi), %rax
	movq	%rax, 136(%rsp)
	testq	%rax, %rax
	jne	.L1378
	jmp	.L1446
	.p2align 4,,10
	.p2align 3
.L1441:
	movq	(%r15), %rdi
	call	pthread_mutex_lock@PLT
	movb	$1, 8(%r15)
	movq	112(%rsp), %rdx
	jmp	.L1349
	.p2align 4,,10
	.p2align 3
.L1437:
	movq	$0, 200(%rbx)
	movq	$0, (%r15)
	cmpq	%rdx, %r15
	jne	.L1447
	cmpb	$0, 56(%rsp)
	movb	$0, 176(%rbx)
	movl	$1, %r15d
	je	.L1347
.L1440:
	movq	48(%rsp), %rdi
	call	pthread_mutex_unlock@PLT
	movb	$0, 56(%rsp)
	jmp	.L1347
	.p2align 4,,10
	.p2align 3
.L1353:
	movq	%rdx, %xmm0
	punpcklqdq	%xmm0, %xmm0
	movups	%xmm0, 192(%rax)
	jmp	.L1355
	.p2align 4,,10
	.p2align 3
.L1439:
	movq	136(%rbx), %rdx
	orq	$1, %rdx
	cmpb	$0, 56(%rsp)
	movq	%rdx, 136(%rbx)
	jne	.L1448
.L1346:
	xorl	%r15d, %r15d
	cmpq	$1, %rdx
	je	.L1347
	movq	%rbp, %rdi
	call	pthread_cond_signal@PLT
	jmp	.L1347
	.p2align 4,,10
	.p2align 3
.L1342:
	movq	136(%rbx), %rax
	andq	$-2, %rax
	.p2align 4,,10
	.p2align 3
.L1369:
	addq	$2, %rax
	movq	48(%rsp), %rsi
	movq	%rbp, %rdi
	movq	%rax, 136(%rbx)
.LEHB20:
	call	pthread_cond_wait@PLT
.LEHE20:
	movq	136(%rbx), %rax
	subq	$2, %rax
	movq	%rax, 136(%rbx)
	testb	$1, %al
	je	.L1369
	jmp	.L1355
	.p2align 4,,10
	.p2align 3
.L1351:
	movq	%rcx, 192(%rax)
	jmp	.L1352
	.p2align 4,,10
	.p2align 3
.L1448:
	movq	48(%rsp), %rdi
	movq	%rdx, (%rsp)
	call	pthread_mutex_unlock@PLT
	movb	$0, 56(%rsp)
	movq	(%rsp), %rdx
	jmp	.L1346
	.p2align 4,,10
	.p2align 3
.L1438:
	movl	16(%r15), %ecx
	testb	%al, %al
	je	.L1449
	cmpb	$0, 56(%rsp)
	leaq	48(%rsp), %rdx
	jne	.L1450
.L1356:
	movq	%rdx, 104(%rsp)
	movq	%r15, %rsi
	leaq	32(%rsp), %rdx
	movq	%rbx, %rdi
	movq	%rbx, 96(%rsp)
	movq	%r12, 112(%rsp)
.LEHB21:
	call	*8(%r15)
.LEHE21:
	movq	112(%rsp), %rax
	movq	24(%rax), %rdx
	cmpq	$1, %rdx
	jg	.L1451
	je	.L1358
	movq	96(%rsp), %r15
	lock subq	$1, 184(%r15)
	je	.L1359
.L1434:
	movq	112(%rsp), %rax
.L1358:
	movq	8(%rax), %rdx
	movq	$0, 24(%rax)
	testq	%rdx, %rdx
	je	.L1362
	movq	104(%rsp), %r15
	movq	96(%rsp), %rcx
	cmpb	$0, 8(%r15)
	je	.L1452
.L1390:
	movq	200(%rcx), %rsi
	testq	%rsi, %rsi
	je	.L1365
	movq	%rdx, (%rsi)
.L1366:
	movq	16(%rax), %rdx
	pxor	%xmm0, %xmm0
	movq	%rdx, 200(%rcx)
	movups	%xmm0, 8(%rax)
.L1362:
	cmpb	$0, 56(%rsp)
	jne	.L1355
	movq	48(%rsp), %rdi
	call	pthread_mutex_lock@PLT
	movb	$1, 56(%rsp)
	jmp	.L1355
	.p2align 4,,10
	.p2align 3
.L1451:
	movq	96(%rsp), %rax
	subq	$1, %rdx
	lock addq	%rdx, 184(%rax)
	movq	112(%rsp), %rax
	jmp	.L1358
.L1447:
	cmpb	$0, 56(%rsp)
	movl	16(%r15), %ecx
	leaq	48(%rsp), %rdx
	je	.L1356
.L1450:
	movq	48(%rsp), %rdi
	movq	%rdx, 8(%rsp)
	movq	%rcx, (%rsp)
	call	pthread_mutex_unlock@PLT
	movb	$0, 56(%rsp)
	movq	8(%rsp), %rdx
	movq	(%rsp), %rcx
	jmp	.L1356
.L1452:
	movq	(%r15), %rdi
	call	pthread_mutex_lock@PLT
	movq	112(%rsp), %rax
	movb	$1, 8(%r15)
	movq	8(%rax), %rdx
	testq	%rdx, %rdx
	je	.L1362
	movq	96(%rsp), %rcx
	jmp	.L1390
	.p2align 4,,10
	.p2align 3
.L1449:
	leaq	48(%rsp), %rdx
	movq	%rbx, %rdi
	movq	%rcx, 8(%rsp)
	movq	%rdx, %rsi
	movq	%rdx, (%rsp)
	call	_ZN4asio6detail15task_io_service26wake_one_thread_and_unlockERNS0_11scoped_lockINS0_11posix_mutexEEE@PLT
	movq	(%rsp), %rdx
	movq	8(%rsp), %rcx
	jmp	.L1356
.L1365:
	movq	%rdx, 192(%rcx)
	jmp	.L1366
.L1436:
	movq	%rbp, %rdi
	call	pthread_mutex_lock@PLT
	movb	$1, 208(%rbx)
	leaq	88(%rbx), %rdi
	orq	$1, 136(%rbx)
	call	pthread_cond_broadcast@PLT
	cmpb	$0, 176(%rbx)
	jne	.L1337
	movq	144(%rbx), %rax
	testq	%rax, %rax
	je	.L1337
	movb	$1, 176(%rbx)
	leaq	88(%rax), %rdx
	movl	$3, %esi
	leaq	128(%rsp), %rcx
	movq	%rdx, 132(%rsp)
	movl	88(%rax), %edx
	movl	$-2147483639, 128(%rsp)
	movl	96(%rax), %edi
	call	epoll_ctl@PLT
.L1337:
	movq	%rbp, %rdi
	call	pthread_mutex_unlock@PLT
	jmp	.L1338
.L1335:
.LEHB22:
	call	*%rax
	jmp	.L1385
.L1359:
	leaq	48(%r15), %r8
	movq	%r8, %rdi
	movq	%r8, (%rsp)
	call	pthread_mutex_lock@PLT
	orq	$1, 136(%r15)
	leaq	88(%r15), %rdi
	movb	$1, 208(%r15)
	call	pthread_cond_broadcast@PLT
	cmpb	$0, 176(%r15)
	movq	(%rsp), %r8
	jne	.L1360
	movq	144(%r15), %rax
	testq	%rax, %rax
	je	.L1360
	leaq	88(%rax), %rdx
	movb	$1, 176(%r15)
	movl	96(%rax), %edi
	leaq	20(%rsp), %rcx
	movq	%rdx, 24(%rsp)
	movl	88(%rax), %edx
	movl	$3, %esi
	movl	$-2147483639, 20(%rsp)
	call	epoll_ctl@PLT
	movq	(%rsp), %r8
.L1360:
	movq	%r8, %rdi
	call	pthread_mutex_unlock@PLT
	jmp	.L1434
	.p2align 4,,10
	.p2align 3
.L1443:
	movq	48(%rsp), %rdi
	call	pthread_mutex_unlock@PLT
	jmp	.L1371
.L1445:
	call	__stack_chk_fail@PLT
.L1444:
	leaq	32(%rsp), %rdi
	call	_ZN4asio6detail14do_throw_errorERKSt10error_code@PLT
.LEHE22:
.L1399:
	movq	%rax, %rbx
	jmp	.L1372
.L1397:
	movq	%rax, %rbx
	jmp	.L1373
.L1372:
	leaq	96(%rsp), %rdi
	call	_ZN4asio6detail15task_io_service12task_cleanupD1Ev@PLT
.L1373:
	cmpb	$0, 56(%rsp)
	je	.L1383
	movq	48(%rsp), %rdi
	call	pthread_mutex_unlock@PLT
.L1383:
	data16	leaq	_ZN4asio6detail15keyword_tss_ptrINS0_10call_stackINS0_15task_io_serviceENS0_27task_io_service_thread_infoEE7contextEE6value_E@tlsgd(%rip), %rdi
	.value	0x6666
	rex64
	call	__tls_get_addr@PLT
	movq	80(%rsp), %rdx
	movq	%r12, %rdi
	movq	%rdx, (%rax)
	call	_ZN4asio6detail27task_io_service_thread_infoD1Ev@PLT
.L1384:
	movq	(%r14), %rax
	movq	%r14, %rdi
	call	*8(%rax)
	movq	%rbx, %rdi
.LEHB23:
	call	_Unwind_Resume@PLT
.LEHE23:
.L1396:
	movq	%rax, %rbx
	jmp	.L1384
.L1398:
	movq	%rax, %rbx
.L1374:
	leaq	96(%rsp), %rdi
	call	_ZN4asio6detail15task_io_service12work_cleanupD1Ev@PLT
	jmp	.L1373
	.cfi_endproc
.LFE6013:
	.section	.gcc_except_table.asio_detail_posix_thread_function,"aG",@progbits,asio_detail_posix_thread_function,comdat
.LLSDA6013:
	.byte	0xff
	.byte	0xff
	.byte	0x1
	.uleb128 .LLSDACSE6013-.LLSDACSB6013
.LLSDACSB6013:
	.uleb128 .LEHB19-.LFB6013
	.uleb128 .LEHE19-.LEHB19
	.uleb128 .L1399-.LFB6013
	.uleb128 0
	.uleb128 .LEHB20-.LFB6013
	.uleb128 .LEHE20-.LEHB20
	.uleb128 .L1397-.LFB6013
	.uleb128 0
	.uleb128 .LEHB21-.LFB6013
	.uleb128 .LEHE21-.LEHB21
	.uleb128 .L1398-.LFB6013
	.uleb128 0
	.uleb128 .LEHB22-.LFB6013
	.uleb128 .LEHE22-.LEHB22
	.uleb128 .L1396-.LFB6013
	.uleb128 0
	.uleb128 .LEHB23-.LFB6013
	.uleb128 .LEHE23-.LEHB23
	.uleb128 0
	.uleb128 0
.LLSDACSE6013:
	.section	.text.asio_detail_posix_thread_function,"axG",@progbits,asio_detail_posix_thread_function,comdat
	.size	asio_detail_posix_thread_function, .-asio_detail_posix_thread_function
	.section	.text._ZN4asio6detail12posix_thread4funcINS0_21resolver_service_base22work_io_service_runnerEE3runEv,"axG",@progbits,_ZN4asio6detail12posix_thread4funcINS0_21resolver_service_base22work_io_service_runnerEE3runEv,comdat
	.align 2
	.p2align 4
	.weak	_ZN4asio6detail12posix_thread4funcINS0_21resolver_service_base22work_io_service_runnerEE3runEv
	.type	_ZN4asio6detail12posix_thread4funcINS0_21resolver_service_base22work_io_service_runnerEE3runEv, @function
_ZN4asio6detail12posix_thread4funcINS0_21resolver_service_base22work_io_service_runnerEE3runEv:
.LFB10284:
	.cfi_startproc
	.cfi_personality 0x9b,DW.ref.__gxx_personality_v0
	.cfi_lsda 0x1b,.LLSDA10284
	pushq	%r15
	.cfi_def_cfa_offset 16
	.cfi_offset 15, -16
	pushq	%r14
	.cfi_def_cfa_offset 24
	.cfi_offset 14, -24
	pushq	%r13
	.cfi_def_cfa_offset 32
	.cfi_offset 13, -32
	pushq	%r12
	.cfi_def_cfa_offset 40
	.cfi_offset 12, -40
	pushq	%rbp
	.cfi_def_cfa_offset 48
	.cfi_offset 6, -48
	pushq	%rbx
	.cfi_def_cfa_offset 56
	.cfi_offset 3, -56
	subq	$184, %rsp
	.cfi_def_cfa_offset 240
	movq	8(%rdi), %rbx
	movq	%fs:40, %rax
	movq	%rax, 168(%rsp)
	xorl	%eax, %eax
	movl	$0, 32(%rsp)
	call	_ZNSt3_V215system_categoryEv@PLT
	movq	8(%rbx), %rbx
	movq	%rax, 40(%rsp)
	movq	%rax, %r13
	leaq	48(%rbx), %rbp
	movq	184(%rbx), %rax
	testq	%rax, %rax
	je	.L1551
	pxor	%xmm0, %xmm0
	leaq	128(%rsp), %r12
	movq	$0, 144(%rsp)
	movaps	%xmm0, 128(%rsp)
	movq	$0, 152(%rsp)
	movq	%rbx, 64(%rsp)
	movq	%r12, 72(%rsp)
	data16	leaq	_ZN4asio6detail15keyword_tss_ptrINS0_10call_stackINS0_15task_io_serviceENS0_27task_io_service_thread_infoEE7contextEE6value_E@tlsgd(%rip), %rdi
	.value	0x6666
	rex64
	call	__tls_get_addr@PLT
	movq	%rbp, %rdi
	movq	%rbp, 48(%rsp)
	leaq	88(%rbx), %rbp
	movq	(%rax), %rdx
	movq	%rdx, 80(%rsp)
	leaq	64(%rsp), %rdx
	movq	%rdx, (%rax)
	call	pthread_mutex_lock@PLT
	movb	$1, 56(%rsp)
	.p2align 4,,10
	.p2align 3
.L1473:
	cmpb	$0, 208(%rbx)
	jne	.L1458
.L1557:
	movq	192(%rbx), %r14
	testq	%r14, %r14
	je	.L1460
	movq	(%r14), %rax
	leaq	152(%rbx), %rdx
	movq	%rax, 192(%rbx)
	testq	%rax, %rax
	je	.L1552
	movq	$0, (%r14)
	movzbl	40(%rbx), %eax
	cmpq	%rdx, %r14
	jne	.L1553
	movb	$1, 176(%rbx)
	xorl	%r14d, %r14d
	testb	%al, %al
	je	.L1554
	cmpb	$0, 56(%rsp)
	jne	.L1555
.L1465:
	movq	144(%rbx), %rdi
	leaq	48(%rsp), %r15
	movl	%r14d, %esi
	movq	%rbx, 96(%rsp)
	leaq	136(%rsp), %rdx
	movq	%r15, 104(%rsp)
	movq	%r12, 112(%rsp)
.LEHB24:
	call	_ZN4asio6detail13epoll_reactor3runEbRNS0_8op_queueINS0_25task_io_service_operationEEE@PLT
.LEHE24:
	movq	112(%rsp), %rdx
	movq	24(%rdx), %rax
	testq	%rax, %rax
	jle	.L1466
	movq	96(%rsp), %rdx
	lock addq	%rax, 184(%rdx)
	movq	112(%rsp), %rdx
.L1466:
	movq	104(%rsp), %r14
	movq	$0, 24(%rdx)
	cmpb	$0, 8(%r14)
	je	.L1556
.L1467:
	movq	96(%rsp), %rax
	movq	8(%rdx), %rcx
	movb	$1, 176(%rax)
	testq	%rcx, %rcx
	je	.L1468
	movq	200(%rax), %rsi
	testq	%rsi, %rsi
	je	.L1469
	movq	%rcx, (%rsi)
.L1470:
	movq	16(%rdx), %rcx
	pxor	%xmm0, %xmm0
	movq	%rcx, 200(%rax)
	movups	%xmm0, 8(%rdx)
.L1468:
	movq	200(%rax), %rcx
	leaq	152(%rax), %rdx
	movq	$0, 152(%rax)
	testq	%rcx, %rcx
	je	.L1471
	cmpb	$0, 208(%rbx)
	movq	%rdx, (%rcx)
	movq	%rdx, 200(%rax)
	je	.L1557
.L1458:
	cmpb	$0, 56(%rsp)
	jne	.L1558
.L1489:
	data16	leaq	_ZN4asio6detail15keyword_tss_ptrINS0_10call_stackINS0_15task_io_serviceENS0_27task_io_service_thread_infoEE7contextEE6value_E@tlsgd(%rip), %rdi
	.value	0x6666
	rex64
	call	__tls_get_addr@PLT
	movq	80(%rsp), %rdx
	leaq	96(%rsp), %rbx
	movq	136(%rsp), %rsi
	movq	%rdx, (%rax)
	testq	%rsi, %rsi
	jne	.L1493
	jmp	.L1497
	.p2align 4,,10
	.p2align 3
.L1496:
	movq	$0, (%rsi)
	movq	8(%rsi), %rax
	xorl	%ecx, %ecx
	movq	%rbx, %rdx
	movl	$0, 96(%rsp)
	xorl	%edi, %edi
	movq	%r13, 104(%rsp)
	call	*%rax
	movq	136(%rsp), %rsi
	testq	%rsi, %rsi
	je	.L1497
.L1493:
	movq	(%rsi), %rax
	movq	%rax, 136(%rsp)
	testq	%rax, %rax
	jne	.L1496
	movq	$0, 144(%rsp)
	jmp	.L1496
	.p2align 4,,10
	.p2align 3
.L1556:
	movq	(%r14), %rdi
	call	pthread_mutex_lock@PLT
	movb	$1, 8(%r14)
	movq	112(%rsp), %rdx
	jmp	.L1467
	.p2align 4,,10
	.p2align 3
.L1552:
	movq	$0, 200(%rbx)
	movq	$0, (%r14)
	cmpq	%rdx, %r14
	jne	.L1559
	cmpb	$0, 56(%rsp)
	movb	$0, 176(%rbx)
	movl	$1, %r14d
	je	.L1465
.L1555:
	movq	48(%rsp), %rdi
	call	pthread_mutex_unlock@PLT
	movb	$0, 56(%rsp)
	jmp	.L1465
	.p2align 4,,10
	.p2align 3
.L1471:
	movq	%rdx, %xmm0
	punpcklqdq	%xmm0, %xmm0
	movups	%xmm0, 192(%rax)
	jmp	.L1473
	.p2align 4,,10
	.p2align 3
.L1554:
	movq	136(%rbx), %r15
	orq	$1, %r15
	cmpb	$0, 56(%rsp)
	movq	%r15, 136(%rbx)
	jne	.L1560
.L1464:
	xorl	%r14d, %r14d
	cmpq	$1, %r15
	je	.L1465
	movq	%rbp, %rdi
	call	pthread_cond_signal@PLT
	jmp	.L1465
	.p2align 4,,10
	.p2align 3
.L1460:
	movq	136(%rbx), %rax
	andq	$-2, %rax
	.p2align 4,,10
	.p2align 3
.L1487:
	addq	$2, %rax
	movq	48(%rsp), %rsi
	movq	%rbp, %rdi
	movq	%rax, 136(%rbx)
.LEHB25:
	call	pthread_cond_wait@PLT
.LEHE25:
	movq	136(%rbx), %rax
	subq	$2, %rax
	movq	%rax, 136(%rbx)
	testb	$1, %al
	je	.L1487
	jmp	.L1473
	.p2align 4,,10
	.p2align 3
.L1469:
	movq	%rcx, 192(%rax)
	jmp	.L1470
	.p2align 4,,10
	.p2align 3
.L1560:
	movq	48(%rsp), %rdi
	call	pthread_mutex_unlock@PLT
	movb	$0, 56(%rsp)
	jmp	.L1464
	.p2align 4,,10
	.p2align 3
.L1553:
	movl	16(%r14), %ecx
	testb	%al, %al
	je	.L1561
	cmpb	$0, 56(%rsp)
	leaq	48(%rsp), %r15
	jne	.L1562
.L1474:
	movq	%rbx, 96(%rsp)
	leaq	32(%rsp), %rdx
	movq	%r14, %rsi
	movq	%rbx, %rdi
	movq	%r15, 104(%rsp)
	movq	%r12, 112(%rsp)
.LEHB26:
	call	*8(%r14)
.LEHE26:
	movq	112(%rsp), %rax
	movq	24(%rax), %rdx
	cmpq	$1, %rdx
	jg	.L1563
	je	.L1476
	movq	96(%rsp), %r14
	lock subq	$1, 184(%r14)
	je	.L1477
.L1549:
	movq	112(%rsp), %rax
.L1476:
	movq	8(%rax), %rdx
	movq	$0, 24(%rax)
	testq	%rdx, %rdx
	je	.L1480
	movq	104(%rsp), %r14
	movq	96(%rsp), %rcx
	cmpb	$0, 8(%r14)
	je	.L1564
.L1506:
	movq	200(%rcx), %rsi
	testq	%rsi, %rsi
	je	.L1483
	movq	%rdx, (%rsi)
.L1484:
	movq	16(%rax), %rdx
	pxor	%xmm0, %xmm0
	movq	%rdx, 200(%rcx)
	movups	%xmm0, 8(%rax)
.L1480:
	cmpb	$0, 56(%rsp)
	jne	.L1473
	movq	48(%rsp), %rdi
	call	pthread_mutex_lock@PLT
	movb	$1, 56(%rsp)
	jmp	.L1473
	.p2align 4,,10
	.p2align 3
.L1563:
	movq	96(%rsp), %rax
	subq	$1, %rdx
	lock addq	%rdx, 184(%rax)
	movq	112(%rsp), %rax
	jmp	.L1476
.L1559:
	cmpb	$0, 56(%rsp)
	movl	16(%r14), %ecx
	leaq	48(%rsp), %r15
	je	.L1474
.L1562:
	movq	48(%rsp), %rdi
	movq	%rcx, 8(%rsp)
	call	pthread_mutex_unlock@PLT
	movb	$0, 56(%rsp)
	movq	8(%rsp), %rcx
	jmp	.L1474
.L1497:
	movq	128(%rsp), %rdi
	testq	%rdi, %rdi
	je	.L1456
	call	_ZdlPv@PLT
.L1456:
	movl	32(%rsp), %eax
	testl	%eax, %eax
	jne	.L1565
	movq	168(%rsp), %rax
	subq	%fs:40, %rax
	jne	.L1566
	addq	$184, %rsp
	.cfi_remember_state
	.cfi_def_cfa_offset 56
	popq	%rbx
	.cfi_def_cfa_offset 48
	popq	%rbp
	.cfi_def_cfa_offset 40
	popq	%r12
	.cfi_def_cfa_offset 32
	popq	%r13
	.cfi_def_cfa_offset 24
	popq	%r14
	.cfi_def_cfa_offset 16
	popq	%r15
	.cfi_def_cfa_offset 8
	ret
.L1561:
	.cfi_restore_state
	leaq	48(%rsp), %r15
	movq	%rbx, %rdi
	movq	%rcx, 8(%rsp)
	movq	%r15, %rsi
	call	_ZN4asio6detail15task_io_service26wake_one_thread_and_unlockERNS0_11scoped_lockINS0_11posix_mutexEEE@PLT
	movq	8(%rsp), %rcx
	jmp	.L1474
.L1564:
	movq	(%r14), %rdi
	call	pthread_mutex_lock@PLT
	movq	112(%rsp), %rax
	movb	$1, 8(%r14)
	movq	8(%rax), %rdx
	testq	%rdx, %rdx
	je	.L1480
	movq	96(%rsp), %rcx
	jmp	.L1506
.L1483:
	movq	%rdx, 192(%rcx)
	jmp	.L1484
.L1551:
	movq	%rbp, %rdi
	call	pthread_mutex_lock@PLT
	movb	$1, 208(%rbx)
	leaq	88(%rbx), %rdi
	orq	$1, 136(%rbx)
	call	pthread_cond_broadcast@PLT
	cmpb	$0, 176(%rbx)
	jne	.L1455
	movq	144(%rbx), %rax
	testq	%rax, %rax
	je	.L1455
	movb	$1, 176(%rbx)
	leaq	88(%rax), %rdx
	movl	$3, %esi
	leaq	128(%rsp), %rcx
	movq	%rdx, 132(%rsp)
	movl	88(%rax), %edx
	movl	$-2147483639, 128(%rsp)
	movl	96(%rax), %edi
	call	epoll_ctl@PLT
.L1455:
	movq	%rbp, %rdi
	call	pthread_mutex_unlock@PLT
	jmp	.L1456
.L1477:
	leaq	48(%r14), %r15
	movq	%r15, %rdi
	call	pthread_mutex_lock@PLT
	orq	$1, 136(%r14)
	leaq	88(%r14), %rdi
	movb	$1, 208(%r14)
	call	pthread_cond_broadcast@PLT
	cmpb	$0, 176(%r14)
	jne	.L1478
	movq	144(%r14), %rax
	testq	%rax, %rax
	je	.L1478
	leaq	88(%rax), %rdx
	movb	$1, 176(%r14)
	movl	96(%rax), %edi
	leaq	20(%rsp), %rcx
	movq	%rdx, 24(%rsp)
	movl	88(%rax), %edx
	movl	$3, %esi
	movl	$-2147483639, 20(%rsp)
	call	epoll_ctl@PLT
.L1478:
	movq	%r15, %rdi
	call	pthread_mutex_unlock@PLT
	jmp	.L1549
	.p2align 4,,10
	.p2align 3
.L1558:
	movq	48(%rsp), %rdi
	call	pthread_mutex_unlock@PLT
	jmp	.L1489
.L1566:
	call	__stack_chk_fail@PLT
.L1565:
	leaq	32(%rsp), %rdi
.LEHB27:
	call	_ZN4asio6detail14do_throw_errorERKSt10error_code@PLT
.L1514:
	movq	%rax, %rbp
	jmp	.L1490
.L1513:
	movq	%rax, %rbp
	jmp	.L1492
.L1512:
	movq	%rax, %rbp
	jmp	.L1491
.L1490:
	leaq	96(%rsp), %rdi
	call	_ZN4asio6detail15task_io_service12task_cleanupD1Ev@PLT
.L1491:
	cmpb	$0, 56(%rsp)
	je	.L1501
	movq	48(%rsp), %rdi
	call	pthread_mutex_unlock@PLT
.L1501:
	data16	leaq	_ZN4asio6detail15keyword_tss_ptrINS0_10call_stackINS0_15task_io_serviceENS0_27task_io_service_thread_infoEE7contextEE6value_E@tlsgd(%rip), %rdi
	.value	0x6666
	rex64
	call	__tls_get_addr@PLT
	movq	80(%rsp), %rdx
	movq	%r12, %rdi
	movq	%rdx, (%rax)
	call	_ZN4asio6detail27task_io_service_thread_infoD1Ev@PLT
	movq	%rbp, %rdi
	call	_Unwind_Resume@PLT
.LEHE27:
.L1492:
	leaq	96(%rsp), %rdi
	call	_ZN4asio6detail15task_io_service12work_cleanupD1Ev@PLT
	jmp	.L1491
	.cfi_endproc
.LFE10284:
	.section	.gcc_except_table._ZN4asio6detail12posix_thread4funcINS0_21resolver_service_base22work_io_service_runnerEE3runEv,"aG",@progbits,_ZN4asio6detail12posix_thread4funcINS0_21resolver_service_base22work_io_service_runnerEE3runEv,comdat
.LLSDA10284:
	.byte	0xff
	.byte	0xff
	.byte	0x1
	.uleb128 .LLSDACSE10284-.LLSDACSB10284
.LLSDACSB10284:
	.uleb128 .LEHB24-.LFB10284
	.uleb128 .LEHE24-.LEHB24
	.uleb128 .L1514-.LFB10284
	.uleb128 0
	.uleb128 .LEHB25-.LFB10284
	.uleb128 .LEHE25-.LEHB25
	.uleb128 .L1512-.LFB10284
	.uleb128 0
	.uleb128 .LEHB26-.LFB10284
	.uleb128 .LEHE26-.LEHB26
	.uleb128 .L1513-.LFB10284
	.uleb128 0
	.uleb128 .LEHB27-.LFB10284
	.uleb128 .LEHE27-.LEHB27
	.uleb128 0
	.uleb128 0
.LLSDACSE10284:
	.section	.text._ZN4asio6detail12posix_thread4funcINS0_21resolver_service_base22work_io_service_runnerEE3runEv,"axG",@progbits,_ZN4asio6detail12posix_thread4funcINS0_21resolver_service_base22work_io_service_runnerEE3runEv,comdat
	.size	_ZN4asio6detail12posix_thread4funcINS0_21resolver_service_base22work_io_service_runnerEE3runEv, .-_ZN4asio6detail12posix_thread4funcINS0_21resolver_service_base22work_io_service_runnerEE3runEv
	.section	.text._ZN4asio6detail14do_throw_errorERKSt10error_codePKc,"axG",@progbits,_ZN4asio6detail14do_throw_errorERKSt10error_codePKc,comdat
	.p2align 4
	.weak	_ZN4asio6detail14do_throw_errorERKSt10error_codePKc
	.type	_ZN4asio6detail14do_throw_errorERKSt10error_codePKc, @function
_ZN4asio6detail14do_throw_errorERKSt10error_codePKc:
.LFB2407:
	.cfi_startproc
	.cfi_personality 0x9b,DW.ref.__gxx_personality_v0
	.cfi_lsda 0x1b,.LLSDA2407
	pushq	%r12
	.cfi_def_cfa_offset 16
	.cfi_offset 12, -16
	movq	%rsi, %rcx
	pushq	%rbp
	.cfi_def_cfa_offset 24
	.cfi_offset 6, -24
	subq	$56, %rsp
	.cfi_def_cfa_offset 80
	movl	(%rdi), %esi
	movq	8(%rdi), %rdx
	movq	%fs:40, %rax
	movq	%rax, 40(%rsp)
	xorl	%eax, %eax
	movq	%rsp, %rbp
	movq	%rbp, %rdi
.LEHB28:
	call	_ZNSt12system_errorC1ESt10error_codePKc@PLT
.LEHE28:
	movq	%rbp, %rdi
.LEHB29:
	call	_ZN4asio6detail15throw_exceptionISt12system_errorEEvRKT_@PLT
.LEHE29:
.L1570:
	movq	%rax, %r12
.L1568:
	movq	%rbp, %rdi
	call	_ZNSt12system_errorD1Ev@PLT
	movq	%r12, %rdi
.LEHB30:
	call	_Unwind_Resume@PLT
.LEHE30:
	.cfi_endproc
.LFE2407:
	.section	.gcc_except_table._ZN4asio6detail14do_throw_errorERKSt10error_codePKc,"aG",@progbits,_ZN4asio6detail14do_throw_errorERKSt10error_codePKc,comdat
.LLSDA2407:
	.byte	0xff
	.byte	0xff
	.byte	0x1
	.uleb128 .LLSDACSE2407-.LLSDACSB2407
.LLSDACSB2407:
	.uleb128 .LEHB28-.LFB2407
	.uleb128 .LEHE28-.LEHB28
	.uleb128 0
	.uleb128 0
	.uleb128 .LEHB29-.LFB2407
	.uleb128 .LEHE29-.LEHB29
	.uleb128 .L1570-.LFB2407
	.uleb128 0
	.uleb128 .LEHB30-.LFB2407
	.uleb128 .LEHE30-.LEHB30
	.uleb128 0
	.uleb128 0
.LLSDACSE2407:
	.section	.text._ZN4asio6detail14do_throw_errorERKSt10error_codePKc,"axG",@progbits,_ZN4asio6detail14do_throw_errorERKSt10error_codePKc,comdat
	.size	_ZN4asio6detail14do_throw_errorERKSt10error_codePKc, .-_ZN4asio6detail14do_throw_errorERKSt10error_codePKc
	.section	.rodata._ZN4asio6detail13epoll_reactor12fork_serviceENS_10io_service10fork_eventE.str1.1,"aMS",@progbits,1
.LC23:
	.string	"epoll"
.LC25:
	.string	"eventfd_select_interrupter"
.LC26:
	.string	"epoll re-registration"
	.section	.text._ZN4asio6detail13epoll_reactor12fork_serviceENS_10io_service10fork_eventE,"axG",@progbits,_ZN4asio6detail13epoll_reactor12fork_serviceENS_10io_service10fork_eventE,comdat
	.align 2
	.p2align 4
	.weak	_ZN4asio6detail13epoll_reactor12fork_serviceENS_10io_service10fork_eventE
	.type	_ZN4asio6detail13epoll_reactor12fork_serviceENS_10io_service10fork_eventE, @function
_ZN4asio6detail13epoll_reactor12fork_serviceENS_10io_service10fork_eventE:
.LFB3286:
	.cfi_startproc
	.cfi_personality 0x9b,DW.ref.__gxx_personality_v0
	.cfi_lsda 0x1b,.LLSDA3286
	pushq	%r15
	.cfi_def_cfa_offset 16
	.cfi_offset 15, -16
	pushq	%r14
	.cfi_def_cfa_offset 24
	.cfi_offset 14, -24
	pushq	%r13
	.cfi_def_cfa_offset 32
	.cfi_offset 13, -32
	pushq	%r12
	.cfi_def_cfa_offset 40
	.cfi_offset 12, -40
	pushq	%rbp
	.cfi_def_cfa_offset 48
	.cfi_offset 6, -48
	pushq	%rbx
	.cfi_def_cfa_offset 56
	.cfi_offset 3, -56
	subq	$104, %rsp
	.cfi_def_cfa_offset 160
	movq	%fs:40, %rax
	movq	%rax, 88(%rsp)
	xorl	%eax, %eax
	cmpl	$2, %esi
	je	.L1654
.L1572:
	movq	88(%rsp), %rax
	subq	%fs:40, %rax
	jne	.L1655
	addq	$104, %rsp
	.cfi_remember_state
	.cfi_def_cfa_offset 56
	popq	%rbx
	.cfi_def_cfa_offset 48
	popq	%rbp
	.cfi_def_cfa_offset 40
	popq	%r12
	.cfi_def_cfa_offset 32
	popq	%r13
	.cfi_def_cfa_offset 24
	popq	%r14
	.cfi_def_cfa_offset 16
	popq	%r15
	.cfi_def_cfa_offset 8
	ret
	.p2align 4,,10
	.p2align 3
.L1654:
	.cfi_restore_state
	movq	%rdi, %rbp
	movl	96(%rdi), %edi
	cmpl	$-1, %edi
	jne	.L1656
.L1574:
	movl	$-1, 96(%rbp)
	movl	$524288, %edi
	call	epoll_create1@PLT
	movl	%eax, %ebx
	cmpl	$-1, %eax
	je	.L1657
.L1575:
	movl	100(%rbp), %edi
	movl	%ebx, 96(%rbp)
	cmpl	$-1, %edi
	jne	.L1658
.L1578:
	movl	$-1, 100(%rbp)
	movl	$524288, %esi
	movl	$1, %edi
	call	timerfd_create@PLT
	movl	%eax, %ebx
	cmpl	$-1, %eax
	je	.L1659
.L1579:
	movl	92(%rbp), %r8d
	movl	88(%rbp), %edi
	movl	%ebx, 100(%rbp)
	leaq	88(%rbp), %rbx
	cmpl	$-1, %r8d
	je	.L1580
	cmpl	%edi, %r8d
	jne	.L1660
.L1581:
.LEHB31:
	call	close@PLT
.L1582:
	movq	.LC24(%rip), %rax
	movl	$526336, %esi
	xorl	%edi, %edi
	movq	%rax, 88(%rbp)
	call	eventfd@PLT
	movd	%eax, %xmm0
	movl	%eax, %edx
	pshufd	$0, %xmm0, %xmm0
	movq	%xmm0, 88(%rbp)
	cmpl	$-1, %eax
	je	.L1661
.L1583:
	movl	96(%rbp), %edi
	leaq	4(%rsp), %r12
	movl	$1, %esi
	movl	$-2147483639, 4(%rsp)
	movq	%r12, %rcx
	movq	%rbx, 8(%rsp)
	leaq	48(%rsp), %r14
	call	epoll_ctl@PLT
	movl	92(%rbp), %edi
	movl	$8, %edx
	movq	%r14, %rsi
	movq	$1, 48(%rsp)
	call	write@PLT
.LEHE31:
	movl	100(%rbp), %edx
	cmpl	$-1, %edx
	jne	.L1662
.L1588:
	movl	88(%rbp), %edx
	movl	96(%rbp), %edi
	movq	%r14, %rcx
	movl	$3, %esi
	movl	$-2147483639, 48(%rsp)
	movq	%rbx, 52(%rsp)
	call	epoll_ctl@PLT
.L1594:
	leaq	120(%rbp), %r13
	movq	%r13, %rdi
	call	pthread_mutex_lock@PLT
	movq	160(%rbp), %rbx
	testq	%rbx, %rbx
	jne	.L1595
	jmp	.L1598
	.p2align 4,,10
	.p2align 3
.L1596:
	movq	24(%rbx), %rbx
	testq	%rbx, %rbx
	je	.L1598
.L1595:
	movl	92(%rbx), %eax
	movl	88(%rbx), %edx
	movq	%r12, %rcx
	movl	$1, %esi
	movl	96(%rbp), %edi
	movq	%rbx, 8(%rsp)
	movl	%eax, 4(%rsp)
	call	epoll_ctl@PLT
	testl	%eax, %eax
	je	.L1596
	call	_ZN4asio15system_categoryEv@PLT
	movq	%rax, %r15
	call	__errno_location@PLT
	movq	%r15, 56(%rsp)
	movl	(%rax), %eax
	movl	%eax, 48(%rsp)
	testl	%eax, %eax
	je	.L1596
	leaq	.LC26(%rip), %rsi
	movq	%r14, %rdi
.LEHB32:
	call	_ZN4asio6detail14do_throw_errorERKSt10error_codePKc@PLT
.LEHE32:
	.p2align 4,,10
	.p2align 3
.L1660:
	movl	%r8d, %edi
.LEHB33:
	call	close@PLT
	movl	88(%rbp), %edi
.L1580:
	cmpl	$-1, %edi
	je	.L1582
	jmp	.L1581
	.p2align 4,,10
	.p2align 3
.L1662:
	movl	96(%rbp), %edi
	leaq	100(%rbp), %rax
	movq	%r12, %rcx
	movl	$1, %esi
	movl	$9, 4(%rsp)
	movq	%rax, 8(%rsp)
	call	epoll_ctl@PLT
	movl	100(%rbp), %edi
	cmpl	$-1, %edi
	je	.L1588
	movq	104(%rbp), %rbx
	pxor	%xmm0, %xmm0
	movaps	%xmm0, 16(%rsp)
	testq	%rbx, %rbx
	je	.L1589
	movl	$300000000, %esi
	.p2align 4,,10
	.p2align 3
.L1591:
	movq	(%rbx), %rax
	movq	%rbx, %rdi
	call	*32(%rax)
	movq	8(%rbx), %rbx
	movq	%rax, %rsi
	testq	%rbx, %rbx
	jne	.L1591
	movabsq	$4835703278458516699, %rdx
	xorl	%r8d, %r8d
	movl	100(%rbp), %edi
	imulq	%rdx
	movq	%rsi, %rax
	sarq	$63, %rax
	sarq	$18, %rdx
	subq	%rax, %rdx
	testq	%rsi, %rsi
	movl	$1, %eax
	movq	%rdx, 32(%rsp)
	sete	%r8b
	je	.L1593
	imulq	$1000000, %rdx, %rdx
	subq	%rdx, %rsi
	imulq	$1000, %rsi, %rax
.L1593:
	leaq	16(%rsp), %rdx
	movq	%r14, %rcx
	movl	%r8d, %esi
	movq	%rax, 40(%rsp)
	call	timerfd_settime@PLT
	jmp	.L1594
	.p2align 4,,10
	.p2align 3
.L1658:
	call	close@PLT
	jmp	.L1578
	.p2align 4,,10
	.p2align 3
.L1656:
	call	close@PLT
	jmp	.L1574
	.p2align 4,,10
	.p2align 3
.L1598:
	movq	%r13, %rdi
	call	pthread_mutex_unlock@PLT
	jmp	.L1572
	.p2align 4,,10
	.p2align 3
.L1659:
	call	__errno_location@PLT
	cmpl	$22, (%rax)
	jne	.L1579
	xorl	%esi, %esi
	movl	$1, %edi
	call	timerfd_create@PLT
	movl	%eax, %ebx
	cmpl	$-1, %eax
	je	.L1579
	movl	%eax, %edi
	movl	$1, %edx
	movl	$2, %esi
	xorl	%eax, %eax
	call	fcntl@PLT
	jmp	.L1579
	.p2align 4,,10
	.p2align 3
.L1657:
	call	__errno_location@PLT
	movq	%rax, %r13
	movl	(%rax), %eax
	subl	$22, %eax
	andl	$-17, %eax
	jne	.L1576
	movl	$20000, %edi
	call	epoll_create@PLT
	movl	%eax, %r12d
	cmpl	$-1, %eax
	je	.L1576
	movl	%eax, %edi
	movl	$1, %edx
	movl	$2, %esi
	xorl	%eax, %eax
	call	fcntl@PLT
	movl	%r12d, %ebx
	jmp	.L1575
	.p2align 4,,10
	.p2align 3
.L1661:
	call	__errno_location@PLT
	cmpl	$22, (%rax)
	movq	%rax, %r12
	je	.L1663
.L1585:
	leaq	80(%rsp), %rdi
	call	pipe@PLT
	testl	%eax, %eax
	je	.L1600
	call	_ZN4asio15system_categoryEv@PLT
	movq	%rax, %r8
	movl	(%r12), %eax
	movq	%r8, 56(%rsp)
	movl	%eax, 48(%rsp)
	testl	%eax, %eax
	jne	.L1664
.L1586:
	movl	88(%rbp), %edx
	jmp	.L1583
.L1576:
	call	_ZN4asio15system_categoryEv@PLT
	movq	%rax, %r8
	movl	0(%r13), %eax
	movq	%r8, 56(%rsp)
	movl	%eax, 48(%rsp)
	testl	%eax, %eax
	je	.L1575
	leaq	48(%rsp), %rdi
	leaq	.LC23(%rip), %rsi
	call	_ZN4asio6detail14do_throw_errorERKSt10error_codePKc@PLT
	.p2align 4,,10
	.p2align 3
.L1600:
	movl	80(%rsp), %edi
	movl	$2048, %edx
	movl	$4, %esi
	xorl	%eax, %eax
	movl	%edi, 88(%rbp)
	call	fcntl@PLT
	movl	88(%rbp), %edi
	movl	$1, %edx
	xorl	%eax, %eax
	movl	$2, %esi
	call	fcntl@PLT
	movl	84(%rsp), %edi
	movl	$2048, %edx
	xorl	%eax, %eax
	movl	$4, %esi
	movl	%edi, 92(%rbp)
	call	fcntl@PLT
	movl	92(%rbp), %edi
	movl	$1, %edx
	xorl	%eax, %eax
	movl	$2, %esi
	call	fcntl@PLT
	jmp	.L1586
.L1663:
	xorl	%edi, %edi
	xorl	%esi, %esi
	call	eventfd@PLT
	movd	%eax, %xmm0
	movl	%eax, %edi
	pshufd	$0, %xmm0, %xmm0
	movq	%xmm0, 88(%rbp)
	cmpl	$-1, %eax
	je	.L1585
	movl	$2048, %edx
	movl	$4, %esi
	xorl	%eax, %eax
	call	fcntl@PLT
	movl	88(%rbp), %edi
	movl	$1, %edx
	xorl	%eax, %eax
	movl	$2, %esi
	call	fcntl@PLT
	movl	88(%rbp), %edx
	cmpl	$-1, %edx
	jne	.L1583
	jmp	.L1585
	.p2align 4,,10
	.p2align 3
.L1589:
	movq	$300, 32(%rsp)
	xorl	%r8d, %r8d
	xorl	%eax, %eax
	jmp	.L1593
.L1655:
	call	__stack_chk_fail@PLT
.L1664:
	leaq	48(%rsp), %rdi
	leaq	.LC25(%rip), %rsi
	call	_ZN4asio6detail14do_throw_errorERKSt10error_codePKc@PLT
.L1604:
	movq	%rax, %rbp
.L1599:
	movq	%r13, %rdi
	call	pthread_mutex_unlock@PLT
	movq	%rbp, %rdi
	call	_Unwind_Resume@PLT
.LEHE33:
	.cfi_endproc
.LFE3286:
	.section	.gcc_except_table._ZN4asio6detail13epoll_reactor12fork_serviceENS_10io_service10fork_eventE,"aG",@progbits,_ZN4asio6detail13epoll_reactor12fork_serviceENS_10io_service10fork_eventE,comdat
.LLSDA3286:
	.byte	0xff
	.byte	0xff
	.byte	0x1
	.uleb128 .LLSDACSE3286-.LLSDACSB3286
.LLSDACSB3286:
	.uleb128 .LEHB31-.LFB3286
	.uleb128 .LEHE31-.LEHB31
	.uleb128 0
	.uleb128 0
	.uleb128 .LEHB32-.LFB3286
	.uleb128 .LEHE32-.LEHB32
	.uleb128 .L1604-.LFB3286
	.uleb128 0
	.uleb128 .LEHB33-.LFB3286
	.uleb128 .LEHE33-.LEHB33
	.uleb128 0
	.uleb128 0
.LLSDACSE3286:
	.section	.text._ZN4asio6detail13epoll_reactor12fork_serviceENS_10io_service10fork_eventE,"axG",@progbits,_ZN4asio6detail13epoll_reactor12fork_serviceENS_10io_service10fork_eventE,comdat
	.size	_ZN4asio6detail13epoll_reactor12fork_serviceENS_10io_service10fork_eventE, .-_ZN4asio6detail13epoll_reactor12fork_serviceENS_10io_service10fork_eventE
	.section	.rodata._ZN4asio6detail11posix_mutexC2Ev.str1.1,"aMS",@progbits,1
.LC27:
	.string	"mutex"
	.section	.text._ZN4asio6detail11posix_mutexC2Ev,"axG",@progbits,_ZN4asio6detail11posix_mutexC5Ev,comdat
	.align 2
	.p2align 4
	.weak	_ZN4asio6detail11posix_mutexC2Ev
	.type	_ZN4asio6detail11posix_mutexC2Ev, @function
_ZN4asio6detail11posix_mutexC2Ev:
.LFB2432:
	.cfi_startproc
	pushq	%r12
	.cfi_def_cfa_offset 16
	.cfi_offset 12, -16
	xorl	%esi, %esi
	pushq	%rbp
	.cfi_def_cfa_offset 24
	.cfi_offset 6, -24
	pushq	%rbx
	.cfi_def_cfa_offset 32
	.cfi_offset 3, -32
	subq	$32, %rsp
	.cfi_def_cfa_offset 64
	movq	%fs:40, %rax
	movq	%rax, 24(%rsp)
	xorl	%eax, %eax
	call	pthread_mutex_init@PLT
	movq	_ZGVZN4asio15system_categoryEvE8instance@GOTPCREL(%rip), %rbp
	movl	%eax, %ebx
	movzbl	0(%rbp), %eax
	testb	%al, %al
	je	.L1666
.L1675:
	movq	_ZZN4asio15system_categoryEvE8instance@GOTPCREL(%rip), %r12
.L1667:
	movl	%ebx, (%rsp)
	movq	%r12, 8(%rsp)
	testl	%ebx, %ebx
	jne	.L1676
	movq	24(%rsp), %rax
	subq	%fs:40, %rax
	jne	.L1677
	addq	$32, %rsp
	.cfi_remember_state
	.cfi_def_cfa_offset 32
	popq	%rbx
	.cfi_def_cfa_offset 24
	popq	%rbp
	.cfi_def_cfa_offset 16
	popq	%r12
	.cfi_def_cfa_offset 8
	ret
	.p2align 4,,10
	.p2align 3
.L1666:
	.cfi_restore_state
	movq	%rbp, %rdi
	call	__cxa_guard_acquire@PLT
	testl	%eax, %eax
	je	.L1675
	movq	_ZZN4asio15system_categoryEvE8instance@GOTPCREL(%rip), %r12
	movq	_ZN4asio6detail15system_categoryD1Ev@GOTPCREL(%rip), %rdi
	leaq	__dso_handle(%rip), %rdx
	movq	%r12, %rsi
	call	__cxa_atexit@PLT
	movq	%rbp, %rdi
	call	__cxa_guard_release@PLT
	jmp	.L1667
.L1676:
	movq	%rsp, %rdi
	leaq	.LC27(%rip), %rsi
	call	_ZN4asio6detail14do_throw_errorERKSt10error_codePKc@PLT
.L1677:
	call	__stack_chk_fail@PLT
	.cfi_endproc
.LFE2432:
	.size	_ZN4asio6detail11posix_mutexC2Ev, .-_ZN4asio6detail11posix_mutexC2Ev
	.weak	_ZN4asio6detail11posix_mutexC1Ev
	.set	_ZN4asio6detail11posix_mutexC1Ev,_ZN4asio6detail11posix_mutexC2Ev
	.section	.rodata._ZN4asio2ip16resolver_serviceINS0_3tcpEE12fork_serviceENS_10io_service10fork_eventE.str1.1,"aMS",@progbits,1
.LC28:
	.string	"thread"
	.section	.text._ZN4asio2ip16resolver_serviceINS0_3tcpEE12fork_serviceENS_10io_service10fork_eventE,"axG",@progbits,_ZN4asio2ip16resolver_serviceINS0_3tcpEE12fork_serviceENS_10io_service10fork_eventE,comdat
	.align 2
	.p2align 4
	.weak	_ZN4asio2ip16resolver_serviceINS0_3tcpEE12fork_serviceENS_10io_service10fork_eventE
	.type	_ZN4asio2ip16resolver_serviceINS0_3tcpEE12fork_serviceENS_10io_service10fork_eventE, @function
_ZN4asio2ip16resolver_serviceINS0_3tcpEE12fork_serviceENS_10io_service10fork_eventE:
.LFB10287:
	.cfi_startproc
	.cfi_personality 0x9b,DW.ref.__gxx_personality_v0
	.cfi_lsda 0x1b,.LLSDA10287
	pushq	%r13
	.cfi_def_cfa_offset 16
	.cfi_offset 13, -16
	pushq	%r12
	.cfi_def_cfa_offset 24
	.cfi_offset 12, -24
	pushq	%rbp
	.cfi_def_cfa_offset 32
	.cfi_offset 6, -32
	pushq	%rbx
	.cfi_def_cfa_offset 40
	.cfi_offset 3, -40
	subq	$40, %rsp
	.cfi_def_cfa_offset 80
	movq	%fs:40, %rax
	movq	%rax, 24(%rsp)
	xorl	%eax, %eax
	cmpq	$0, 112(%rdi)
	je	.L1678
	movq	88(%rdi), %rax
	movq	%rdi, %rbx
	movq	8(%rax), %rbp
	leaq	48(%rbp), %r12
	movq	%r12, %rdi
	testl	%esi, %esi
	je	.L1697
	call	pthread_mutex_lock@PLT
	movb	$0, 208(%rbp)
	movq	%r12, %rdi
	call	pthread_mutex_unlock@PLT
	movl	$16, %edi
	movq	88(%rbx), %r13
.LEHB34:
	call	_Znwm@PLT
.LEHE34:
	movl	$16, %edi
	movb	$0, 8(%rax)
	movq	%rax, %r12
.LEHB35:
	call	_Znwm@PLT
.LEHE35:
	movq	%rax, %rbp
	movq	_ZTVN4asio6detail12posix_thread4funcINS0_21resolver_service_base22work_io_service_runnerEEE@GOTPCREL(%rip), %rax
	xorl	%esi, %esi
	movq	%r12, %rdi
	movq	%r13, 8(%rbp)
	movq	asio_detail_posix_thread_function@GOTPCREL(%rip), %rdx
	movq	%rbp, %rcx
	addq	$16, %rax
	movq	%rax, 0(%rbp)
	call	pthread_create@PLT
	movl	%eax, %r13d
	testl	%eax, %eax
	jne	.L1698
	movq	112(%rbx), %rbp
	testq	%rbp, %rbp
	je	.L1685
	cmpb	$0, 8(%rbp)
	je	.L1699
.L1686:
	movl	$16, %esi
	movq	%rbp, %rdi
	call	_ZdlPvm@PLT
.L1685:
	movq	%r12, 112(%rbx)
.L1678:
	movq	24(%rsp), %rax
	subq	%fs:40, %rax
	jne	.L1700
	addq	$40, %rsp
	.cfi_remember_state
	.cfi_def_cfa_offset 40
	popq	%rbx
	.cfi_def_cfa_offset 32
	popq	%rbp
	.cfi_def_cfa_offset 24
	popq	%r12
	.cfi_def_cfa_offset 16
	popq	%r13
	.cfi_def_cfa_offset 8
	ret
	.p2align 4,,10
	.p2align 3
.L1697:
	.cfi_restore_state
	call	pthread_mutex_lock@PLT
	movb	$1, 208(%rbp)
	leaq	88(%rbp), %rdi
	orq	$1, 136(%rbp)
	call	pthread_cond_broadcast@PLT
	cmpb	$0, 176(%rbp)
	jne	.L1682
	movq	144(%rbp), %rax
	testq	%rax, %rax
	je	.L1682
	movb	$1, 176(%rbp)
	leaq	88(%rax), %rdx
	movq	%rsp, %rcx
	movl	$3, %esi
	movq	%rdx, 4(%rsp)
	movl	88(%rax), %edx
	movl	$-2147483639, (%rsp)
	movl	96(%rax), %edi
	call	epoll_ctl@PLT
.L1682:
	movq	%r12, %rdi
	call	pthread_mutex_unlock@PLT
	movq	112(%rbx), %rbx
	cmpb	$0, 8(%rbx)
	jne	.L1678
	movq	(%rbx), %rdi
	xorl	%esi, %esi
.LEHB36:
	call	pthread_join@PLT
.LEHE36:
	movb	$1, 8(%rbx)
	jmp	.L1678
	.p2align 4,,10
	.p2align 3
.L1699:
	movq	0(%rbp), %rdi
	call	pthread_detach@PLT
	jmp	.L1686
.L1700:
	call	__stack_chk_fail@PLT
.L1698:
	movq	%rbp, %rdi
	call	_ZN4asio6detail12posix_thread4funcINS0_21resolver_service_base22work_io_service_runnerEED0Ev@PLT
	call	_ZN4asio15system_categoryEv@PLT
	movq	%rsp, %rdi
	leaq	.LC28(%rip), %rsi
	movl	%r13d, (%rsp)
	movq	%rax, 8(%rsp)
.LEHB37:
	call	_ZN4asio6detail14do_throw_errorERKSt10error_codePKc@PLT
.LEHE37:
.L1689:
	movq	%rax, %rbp
.L1687:
	movq	%r12, %rdi
	movl	$16, %esi
	call	_ZdlPvm@PLT
	movq	%rbp, %rdi
.LEHB38:
	call	_Unwind_Resume@PLT
.LEHE38:
	.cfi_endproc
.LFE10287:
	.section	.gcc_except_table._ZN4asio2ip16resolver_serviceINS0_3tcpEE12fork_serviceENS_10io_service10fork_eventE,"aG",@progbits,_ZN4asio2ip16resolver_serviceINS0_3tcpEE12fork_serviceENS_10io_service10fork_eventE,comdat
.LLSDA10287:
	.byte	0xff
	.byte	0xff
	.byte	0x1
	.uleb128 .LLSDACSE10287-.LLSDACSB10287
.LLSDACSB10287:
	.uleb128 .LEHB34-.LFB10287
	.uleb128 .LEHE34-.LEHB34
	.uleb128 0
	.uleb128 0
	.uleb128 .LEHB35-.LFB10287
	.uleb128 .LEHE35-.LEHB35
	.uleb128 .L1689-.LFB10287
	.uleb128 0
	.uleb128 .LEHB36-.LFB10287
	.uleb128 .LEHE36-.LEHB36
	.uleb128 0
	.uleb128 0
	.uleb128 .LEHB37-.LFB10287
	.uleb128 .LEHE37-.LEHB37
	.uleb128 .L1689-.LFB10287
	.uleb128 0
	.uleb128 .LEHB38-.LFB10287
	.uleb128 .LEHE38-.LEHB38
	.uleb128 0
	.uleb128 0
.LLSDACSE10287:
	.section	.text._ZN4asio2ip16resolver_serviceINS0_3tcpEE12fork_serviceENS_10io_service10fork_eventE,"axG",@progbits,_ZN4asio2ip16resolver_serviceINS0_3tcpEE12fork_serviceENS_10io_service10fork_eventE,comdat
	.size	_ZN4asio2ip16resolver_serviceINS0_3tcpEE12fork_serviceENS_10io_service10fork_eventE, .-_ZN4asio2ip16resolver_serviceINS0_3tcpEE12fork_serviceENS_10io_service10fork_eventE
	.section	.text._ZN4asio6detail11object_poolINS0_13epoll_reactor16descriptor_stateEED2Ev,"axG",@progbits,_ZN4asio6detail11object_poolINS0_13epoll_reactor16descriptor_stateEED5Ev,comdat
	.align 2
	.p2align 4
	.weak	_ZN4asio6detail11object_poolINS0_13epoll_reactor16descriptor_stateEED2Ev
	.type	_ZN4asio6detail11object_poolINS0_13epoll_reactor16descriptor_stateEED2Ev, @function
_ZN4asio6detail11object_poolINS0_13epoll_reactor16descriptor_stateEED2Ev:
.LFB7460:
	.cfi_startproc
	.cfi_personality 0x9b,DW.ref.__gxx_personality_v0
	.cfi_lsda 0x1b,.LLSDA7460
	pushq	%r15
	.cfi_def_cfa_offset 16
	.cfi_offset 15, -16
	pushq	%r14
	.cfi_def_cfa_offset 24
	.cfi_offset 14, -24
	pushq	%r13
	.cfi_def_cfa_offset 32
	.cfi_offset 13, -32
	pushq	%r12
	.cfi_def_cfa_offset 40
	.cfi_offset 12, -40
	pushq	%rbp
	.cfi_def_cfa_offset 48
	.cfi_offset 6, -48
	pushq	%rbx
	.cfi_def_cfa_offset 56
	.cfi_offset 3, -56
	subq	$56, %rsp
	.cfi_def_cfa_offset 112
	movq	(%rdi), %r13
	movq	%rdi, 8(%rsp)
	movq	%fs:40, %rdx
	movq	%rdx, 40(%rsp)
	xorl	%edx, %edx
	testq	%r13, %r13
	je	.L1702
	leaq	16(%rsp), %rbp
	.p2align 4,,10
	.p2align 3
.L1708:
	movq	%r13, %r12
	movq	24(%r13), %r13
	leaq	128(%r12), %r15
	leaq	80(%r12), %r14
.L1707:
	movq	(%r15), %rsi
	testq	%rsi, %rsi
	movq	%rsi, (%rsp)
	je	.L1703
	call	_ZNSt3_V215system_categoryEv@PLT
	movq	(%rsp), %rsi
	movq	%rax, %rbx
	jmp	.L1706
	.p2align 4,,10
	.p2align 3
.L1704:
	movq	$0, (%rsi)
	movq	8(%rsi), %rax
	xorl	%ecx, %ecx
	movq	%rbp, %rdx
	movl	$0, 16(%rsp)
	xorl	%edi, %edi
	movq	%rbx, 24(%rsp)
	call	*%rax
	movq	(%r15), %rsi
	testq	%rsi, %rsi
	je	.L1703
.L1706:
	movq	(%rsi), %rax
	movq	%rax, (%r15)
	testq	%rax, %rax
	jne	.L1704
	movq	$0, 8(%r15)
	jmp	.L1704
	.p2align 4,,10
	.p2align 3
.L1703:
	subq	$16, %r15
	cmpq	%r14, %r15
	jne	.L1707
	leaq	40(%r12), %rdi
	call	pthread_mutex_destroy@PLT
	movl	$152, %esi
	movq	%r12, %rdi
	call	_ZdlPvm@PLT
	testq	%r13, %r13
	jne	.L1708
.L1702:
	movq	8(%rsp), %rax
	movq	8(%rax), %r13
	testq	%r13, %r13
	je	.L1701
	leaq	16(%rsp), %rbp
	.p2align 4,,10
	.p2align 3
.L1715:
	movq	%r13, %r12
	movq	24(%r13), %r13
	leaq	128(%r12), %r15
	leaq	80(%r12), %r14
.L1714:
	movq	(%r15), %rsi
	testq	%rsi, %rsi
	movq	%rsi, (%rsp)
	je	.L1710
	call	_ZNSt3_V215system_categoryEv@PLT
	movq	(%rsp), %rsi
	movq	%rax, %rbx
	jmp	.L1713
	.p2align 4,,10
	.p2align 3
.L1711:
	movq	$0, (%rsi)
	movq	8(%rsi), %rax
	xorl	%ecx, %ecx
	movq	%rbp, %rdx
	movl	$0, 16(%rsp)
	xorl	%edi, %edi
	movq	%rbx, 24(%rsp)
	call	*%rax
	movq	(%r15), %rsi
	testq	%rsi, %rsi
	je	.L1710
.L1713:
	movq	(%rsi), %rax
	movq	%rax, (%r15)
	testq	%rax, %rax
	jne	.L1711
	movq	$0, 8(%r15)
	jmp	.L1711
	.p2align 4,,10
	.p2align 3
.L1710:
	subq	$16, %r15
	cmpq	%r14, %r15
	jne	.L1714
	leaq	40(%r12), %rdi
	call	pthread_mutex_destroy@PLT
	movl	$152, %esi
	movq	%r12, %rdi
	call	_ZdlPvm@PLT
	testq	%r13, %r13
	jne	.L1715
.L1701:
	movq	40(%rsp), %rax
	subq	%fs:40, %rax
	jne	.L1748
	addq	$56, %rsp
	.cfi_remember_state
	.cfi_def_cfa_offset 56
	popq	%rbx
	.cfi_def_cfa_offset 48
	popq	%rbp
	.cfi_def_cfa_offset 40
	popq	%r12
	.cfi_def_cfa_offset 32
	popq	%r13
	.cfi_def_cfa_offset 24
	popq	%r14
	.cfi_def_cfa_offset 16
	popq	%r15
	.cfi_def_cfa_offset 8
	ret
.L1748:
	.cfi_restore_state
	call	__stack_chk_fail@PLT
	.cfi_endproc
.LFE7460:
	.section	.gcc_except_table._ZN4asio6detail11object_poolINS0_13epoll_reactor16descriptor_stateEED2Ev,"aG",@progbits,_ZN4asio6detail11object_poolINS0_13epoll_reactor16descriptor_stateEED5Ev,comdat
.LLSDA7460:
	.byte	0xff
	.byte	0xff
	.byte	0x1
	.uleb128 .LLSDACSE7460-.LLSDACSB7460
.LLSDACSB7460:
.LLSDACSE7460:
	.section	.text._ZN4asio6detail11object_poolINS0_13epoll_reactor16descriptor_stateEED2Ev,"axG",@progbits,_ZN4asio6detail11object_poolINS0_13epoll_reactor16descriptor_stateEED5Ev,comdat
	.size	_ZN4asio6detail11object_poolINS0_13epoll_reactor16descriptor_stateEED2Ev, .-_ZN4asio6detail11object_poolINS0_13epoll_reactor16descriptor_stateEED2Ev
	.weak	_ZN4asio6detail11object_poolINS0_13epoll_reactor16descriptor_stateEED1Ev
	.set	_ZN4asio6detail11object_poolINS0_13epoll_reactor16descriptor_stateEED1Ev,_ZN4asio6detail11object_poolINS0_13epoll_reactor16descriptor_stateEED2Ev
	.section	.text._ZN4asio6detail16service_registry6createINS0_13epoll_reactorEEEPNS_10io_service7serviceERS4_,"axG",@progbits,_ZN4asio6detail16service_registry6createINS0_13epoll_reactorEEEPNS_10io_service7serviceERS4_,comdat
	.align 2
	.p2align 4
	.weak	_ZN4asio6detail16service_registry6createINS0_13epoll_reactorEEEPNS_10io_service7serviceERS4_
	.type	_ZN4asio6detail16service_registry6createINS0_13epoll_reactorEEEPNS_10io_service7serviceERS4_, @function
_ZN4asio6detail16service_registry6createINS0_13epoll_reactorEEEPNS_10io_service7serviceERS4_:
.LFB8560:
	.cfi_startproc
	.cfi_personality 0x9b,DW.ref.__gxx_personality_v0
	.cfi_lsda 0x1b,.LLSDA8560
	pushq	%r15
	.cfi_def_cfa_offset 16
	.cfi_offset 15, -16
	pushq	%r14
	.cfi_def_cfa_offset 24
	.cfi_offset 14, -24
	pushq	%r13
	.cfi_def_cfa_offset 32
	.cfi_offset 13, -32
	pushq	%r12
	.cfi_def_cfa_offset 40
	.cfi_offset 12, -40
	pushq	%rbp
	.cfi_def_cfa_offset 48
	.cfi_offset 6, -48
	pushq	%rbx
	.cfi_def_cfa_offset 56
	.cfi_offset 3, -56
	movq	%rdi, %rbx
	movl	$176, %edi
	subq	$56, %rsp
	.cfi_def_cfa_offset 112
	movq	%fs:40, %rax
	movq	%rax, 40(%rsp)
	xorl	%eax, %eax
.LEHB39:
	call	_Znwm@PLT
.LEHE39:
	xorl	%esi, %esi
	movq	%rbx, 24(%rax)
	movq	%rax, %r12
	movq	$0, 8(%rax)
	leaq	48(%r12), %rbp
	movq	$0, 16(%rax)
	movq	%rbp, %rdi
	movq	$0, 32(%rax)
	movq	_ZTVN4asio6detail13epoll_reactorE@GOTPCREL(%rip), %rax
	addq	$16, %rax
	movq	%rax, (%r12)
	movq	8(%rbx), %rax
	movq	%rax, 40(%r12)
	call	pthread_mutex_init@PLT
	movl	%eax, %ebx
	call	_ZN4asio15system_categoryEv@PLT
	movl	%ebx, 16(%rsp)
	movq	%rax, 24(%rsp)
	testl	%ebx, %ebx
	jne	.L1807
	movl	$526336, %esi
	xorl	%edi, %edi
	leaq	88(%r12), %r13
	call	eventfd@PLT
	movd	%eax, %xmm0
	pshufd	$0, %xmm0, %xmm0
	movq	%xmm0, 88(%r12)
	cmpl	$-1, %eax
	je	.L1808
.L1752:
	movl	$524288, %edi
	call	epoll_create1@PLT
	movl	%eax, %ebx
	cmpl	$-1, %eax
	je	.L1809
.L1758:
	movl	$524288, %esi
	movl	$1, %edi
	movl	%ebx, 96(%r12)
	call	timerfd_create@PLT
	movl	%eax, %ebx
	cmpl	$-1, %eax
	je	.L1810
.L1761:
	leaq	120(%r12), %r14
	xorl	%esi, %esi
	movl	%ebx, 100(%r12)
	movq	%r14, %rdi
	movb	$0, 112(%r12)
	movq	$0, 104(%r12)
	call	pthread_mutex_init@PLT
	movl	%eax, %ebx
	call	_ZN4asio15system_categoryEv@PLT
	movl	%ebx, 16(%rsp)
	movq	%rax, 24(%rsp)
	testl	%ebx, %ebx
	jne	.L1811
	movq	%r13, 20(%rsp)
	movl	88(%r12), %edx
	leaq	16(%rsp), %r13
	pxor	%xmm0, %xmm0
	movl	96(%r12), %edi
	movl	$1, %esi
	movq	%r13, %rcx
	movl	$-2147483639, 16(%rsp)
	movups	%xmm0, 160(%r12)
	leaq	160(%r12), %r15
	call	epoll_ctl@PLT
	movl	92(%r12), %edi
	leaq	8(%rsp), %rsi
	movl	$8, %edx
	movq	$1, 8(%rsp)
.LEHB40:
	call	write@PLT
.LEHE40:
	movl	100(%r12), %edx
	cmpl	$-1, %edx
	je	.L1749
	movl	96(%r12), %edi
	leaq	100(%r12), %rax
	movq	%r13, %rcx
	movl	$1, %esi
	movl	$9, 16(%rsp)
	movq	%rax, 20(%rsp)
	call	epoll_ctl@PLT
.L1749:
	movq	40(%rsp), %rax
	subq	%fs:40, %rax
	jne	.L1812
	addq	$56, %rsp
	.cfi_remember_state
	.cfi_def_cfa_offset 56
	movq	%r12, %rax
	popq	%rbx
	.cfi_def_cfa_offset 48
	popq	%rbp
	.cfi_def_cfa_offset 40
	popq	%r12
	.cfi_def_cfa_offset 32
	popq	%r13
	.cfi_def_cfa_offset 24
	popq	%r14
	.cfi_def_cfa_offset 16
	popq	%r15
	.cfi_def_cfa_offset 8
	ret
	.p2align 4,,10
	.p2align 3
.L1809:
	.cfi_restore_state
	call	__errno_location@PLT
	movq	%rax, %r15
	movl	(%rax), %eax
	subl	$22, %eax
	andl	$-17, %eax
	jne	.L1759
	movl	$20000, %edi
	call	epoll_create@PLT
	movl	%eax, %r14d
	cmpl	$-1, %eax
	jne	.L1813
.L1759:
	call	_ZN4asio15system_categoryEv@PLT
	movq	%rax, %r8
	movl	(%r15), %eax
	movq	%r8, 24(%rsp)
	movl	%eax, 16(%rsp)
	testl	%eax, %eax
	je	.L1758
	leaq	16(%rsp), %rdi
	leaq	.LC23(%rip), %rsi
.LEHB41:
	call	_ZN4asio6detail14do_throw_errorERKSt10error_codePKc@PLT
.LEHE41:
	.p2align 4,,10
	.p2align 3
.L1808:
	call	__errno_location@PLT
	cmpl	$22, (%rax)
	movq	%rax, %rbx
	je	.L1814
.L1754:
	leaq	32(%rsp), %rdi
	call	pipe@PLT
	testl	%eax, %eax
	jne	.L1815
	movl	32(%rsp), %edi
	movl	$2048, %edx
	movl	$4, %esi
	xorl	%eax, %eax
	movl	%edi, 88(%r12)
.LEHB42:
	call	fcntl@PLT
	movl	88(%r12), %edi
	movl	$1, %edx
	movl	$2, %esi
	xorl	%eax, %eax
	call	fcntl@PLT
	movl	36(%rsp), %edi
	movl	$2048, %edx
	movl	$4, %esi
	xorl	%eax, %eax
	movl	%edi, 92(%r12)
	call	fcntl@PLT
	movl	92(%r12), %edi
	movl	$1, %edx
	movl	$2, %esi
	xorl	%eax, %eax
	call	fcntl@PLT
.LEHE42:
	jmp	.L1752
	.p2align 4,,10
	.p2align 3
.L1810:
	call	__errno_location@PLT
	cmpl	$22, (%rax)
	jne	.L1761
	xorl	%esi, %esi
	movl	$1, %edi
	call	timerfd_create@PLT
	movl	%eax, %r14d
	cmpl	$-1, %eax
	je	.L1761
	movl	%eax, %edi
	movl	$1, %edx
	movl	$2, %esi
	xorl	%eax, %eax
.LEHB43:
	call	fcntl@PLT
	movl	%r14d, %ebx
	jmp	.L1761
	.p2align 4,,10
	.p2align 3
.L1813:
	movl	%eax, %edi
	movl	$1, %edx
	movl	$2, %esi
	xorl	%eax, %eax
	call	fcntl@PLT
.LEHE43:
	movl	%r14d, %ebx
	jmp	.L1758
	.p2align 4,,10
	.p2align 3
.L1815:
	call	_ZN4asio15system_categoryEv@PLT
	movq	%rax, %r8
	movl	(%rbx), %eax
	movq	%r8, 24(%rsp)
	movl	%eax, 16(%rsp)
	testl	%eax, %eax
	je	.L1752
	leaq	16(%rsp), %rdi
	leaq	.LC25(%rip), %rsi
.LEHB44:
	call	_ZN4asio6detail14do_throw_errorERKSt10error_codePKc@PLT
	.p2align 4,,10
	.p2align 3
.L1814:
	xorl	%edi, %edi
	xorl	%esi, %esi
	call	eventfd@PLT
	movd	%eax, %xmm0
	movl	%eax, %edi
	pshufd	$0, %xmm0, %xmm0
	movq	%xmm0, 88(%r12)
	cmpl	$-1, %eax
	je	.L1754
	movl	$2048, %edx
	movl	$4, %esi
	xorl	%eax, %eax
	call	fcntl@PLT
	movl	88(%r12), %edi
	movl	$1, %edx
	movl	$2, %esi
	xorl	%eax, %eax
	call	fcntl@PLT
.LEHE44:
	cmpl	$-1, 88(%r12)
	jne	.L1752
	jmp	.L1754
.L1812:
	call	__stack_chk_fail@PLT
.L1811:
	leaq	16(%rsp), %rdi
	leaq	.LC27(%rip), %rsi
.LEHB45:
	call	_ZN4asio6detail14do_throw_errorERKSt10error_codePKc@PLT
.LEHE45:
.L1807:
	leaq	16(%rsp), %rdi
	leaq	.LC27(%rip), %rsi
.LEHB46:
	call	_ZN4asio6detail14do_throw_errorERKSt10error_codePKc@PLT
.LEHE46:
.L1777:
	movq	%rax, %rbx
	jmp	.L1770
.L1779:
	movq	%rax, %r13
.L1766:
	movq	%r15, %rdi
	movq	%r13, %rbx
	call	_ZN4asio6detail11object_poolINS0_13epoll_reactor16descriptor_stateEED1Ev@PLT
	movq	%r14, %rdi
	call	pthread_mutex_destroy@PLT
.L1767:
	movl	92(%r12), %r8d
	movl	88(%r12), %edi
	cmpl	$-1, %r8d
	je	.L1768
	cmpl	%r8d, %edi
	je	.L1768
	movl	%r8d, %edi
	call	close@PLT
	movl	88(%r12), %edi
.L1768:
	cmpl	$-1, %edi
	je	.L1770
	call	close@PLT
.L1770:
	movq	%rbp, %rdi
	movq	%rbx, %rbp
	call	pthread_mutex_destroy@PLT
.L1771:
	movq	%r12, %rdi
	movl	$176, %esi
	call	_ZdlPvm@PLT
	movq	%rbp, %rdi
.LEHB47:
	call	_Unwind_Resume@PLT
.LEHE47:
.L1778:
	movq	%rax, %rbx
	jmp	.L1767
.L1776:
	movq	%rax, %rbp
	jmp	.L1771
	.cfi_endproc
.LFE8560:
	.section	.gcc_except_table._ZN4asio6detail16service_registry6createINS0_13epoll_reactorEEEPNS_10io_service7serviceERS4_,"aG",@progbits,_ZN4asio6detail16service_registry6createINS0_13epoll_reactorEEEPNS_10io_service7serviceERS4_,comdat
.LLSDA8560:
	.byte	0xff
	.byte	0xff
	.byte	0x1
	.uleb128 .LLSDACSE8560-.LLSDACSB8560
.LLSDACSB8560:
	.uleb128 .LEHB39-.LFB8560
	.uleb128 .LEHE39-.LEHB39
	.uleb128 0
	.uleb128 0
	.uleb128 .LEHB40-.LFB8560
	.uleb128 .LEHE40-.LEHB40
	.uleb128 .L1779-.LFB8560
	.uleb128 0
	.uleb128 .LEHB41-.LFB8560
	.uleb128 .LEHE41-.LEHB41
	.uleb128 .L1778-.LFB8560
	.uleb128 0
	.uleb128 .LEHB42-.LFB8560
	.uleb128 .LEHE42-.LEHB42
	.uleb128 .L1777-.LFB8560
	.uleb128 0
	.uleb128 .LEHB43-.LFB8560
	.uleb128 .LEHE43-.LEHB43
	.uleb128 .L1778-.LFB8560
	.uleb128 0
	.uleb128 .LEHB44-.LFB8560
	.uleb128 .LEHE44-.LEHB44
	.uleb128 .L1777-.LFB8560
	.uleb128 0
	.uleb128 .LEHB45-.LFB8560
	.uleb128 .LEHE45-.LEHB45
	.uleb128 .L1778-.LFB8560
	.uleb128 0
	.uleb128 .LEHB46-.LFB8560
	.uleb128 .LEHE46-.LEHB46
	.uleb128 .L1776-.LFB8560
	.uleb128 0
	.uleb128 .LEHB47-.LFB8560
	.uleb128 .LEHE47-.LEHB47
	.uleb128 0
	.uleb128 0
.LLSDACSE8560:
	.section	.text._ZN4asio6detail16service_registry6createINS0_13epoll_reactorEEEPNS_10io_service7serviceERS4_,"axG",@progbits,_ZN4asio6detail16service_registry6createINS0_13epoll_reactorEEEPNS_10io_service7serviceERS4_,comdat
	.size	_ZN4asio6detail16service_registry6createINS0_13epoll_reactorEEEPNS_10io_service7serviceERS4_, .-_ZN4asio6detail16service_registry6createINS0_13epoll_reactorEEEPNS_10io_service7serviceERS4_
	.section	.text._ZN4asio6detail10scoped_ptrINS_10io_serviceEED2Ev,"axG",@progbits,_ZN4asio6detail10scoped_ptrINS_10io_serviceEED5Ev,comdat
	.align 2
	.p2align 4
	.weak	_ZN4asio6detail10scoped_ptrINS_10io_serviceEED2Ev
	.type	_ZN4asio6detail10scoped_ptrINS_10io_serviceEED2Ev, @function
_ZN4asio6detail10scoped_ptrINS_10io_serviceEED2Ev:
.LFB7647:
	.cfi_startproc
	.cfi_personality 0x9b,DW.ref.__gxx_personality_v0
	.cfi_lsda 0x1b,.LLSDA7647
	pushq	%r12
	.cfi_def_cfa_offset 16
	.cfi_offset 12, -16
	pushq	%rbp
	.cfi_def_cfa_offset 24
	.cfi_offset 6, -24
	pushq	%rbx
	.cfi_def_cfa_offset 32
	.cfi_offset 3, -32
	movq	(%rdi), %r12
	testq	%r12, %r12
	je	.L1816
	movq	(%r12), %rbp
	testq	%rbp, %rbp
	je	.L1818
	movq	56(%rbp), %rbx
	testq	%rbx, %rbx
	je	.L1819
	.p2align 4,,10
	.p2align 3
.L1820:
	movq	(%rbx), %rax
	movq	%rbx, %rdi
	call	*16(%rax)
	movq	32(%rbx), %rbx
	testq	%rbx, %rbx
	jne	.L1820
	movq	56(%rbp), %rbx
	testq	%rbx, %rbx
	je	.L1819
	.p2align 4,,10
	.p2align 3
.L1821:
	movq	%rbx, %rdi
	movq	32(%rbx), %rbx
	movq	(%rdi), %rax
	call	*8(%rax)
	movq	%rbx, 56(%rbp)
	testq	%rbx, %rbx
	jne	.L1821
.L1819:
	leaq	8(%rbp), %rdi
	call	pthread_mutex_destroy@PLT
	movl	$64, %esi
	movq	%rbp, %rdi
	call	_ZdlPvm@PLT
.L1818:
	popq	%rbx
	.cfi_remember_state
	.cfi_def_cfa_offset 24
	movq	%r12, %rdi
	popq	%rbp
	.cfi_def_cfa_offset 16
	movl	$16, %esi
	popq	%r12
	.cfi_def_cfa_offset 8
	jmp	_ZdlPvm@PLT
	.p2align 4,,10
	.p2align 3
.L1816:
	.cfi_restore_state
	popq	%rbx
	.cfi_def_cfa_offset 24
	popq	%rbp
	.cfi_def_cfa_offset 16
	popq	%r12
	.cfi_def_cfa_offset 8
	ret
	.cfi_endproc
.LFE7647:
	.section	.gcc_except_table._ZN4asio6detail10scoped_ptrINS_10io_serviceEED2Ev,"aG",@progbits,_ZN4asio6detail10scoped_ptrINS_10io_serviceEED5Ev,comdat
.LLSDA7647:
	.byte	0xff
	.byte	0xff
	.byte	0x1
	.uleb128 .LLSDACSE7647-.LLSDACSB7647
.LLSDACSB7647:
.LLSDACSE7647:
	.section	.text._ZN4asio6detail10scoped_ptrINS_10io_serviceEED2Ev,"axG",@progbits,_ZN4asio6detail10scoped_ptrINS_10io_serviceEED5Ev,comdat
	.size	_ZN4asio6detail10scoped_ptrINS_10io_serviceEED2Ev, .-_ZN4asio6detail10scoped_ptrINS_10io_serviceEED2Ev
	.weak	_ZN4asio6detail10scoped_ptrINS_10io_serviceEED1Ev
	.set	_ZN4asio6detail10scoped_ptrINS_10io_serviceEED1Ev,_ZN4asio6detail10scoped_ptrINS_10io_serviceEED2Ev
	.section	.text._ZNSt8functionIFvRKSt10shared_ptrIN7asiopal8ExecutorEEN4asio19basic_stream_socketINS6_2ip3tcpENS6_21stream_socket_serviceIS9_EEEERKSt10error_codeEEC2ERKSH_,"axG",@progbits,_ZNSt8functionIFvRKSt10shared_ptrIN7asiopal8ExecutorEEN4asio19basic_stream_socketINS6_2ip3tcpENS6_21stream_socket_serviceIS9_EEEERKSt10error_codeEEC5ERKSH_,comdat
	.align 2
	.p2align 4
	.weak	_ZNSt8functionIFvRKSt10shared_ptrIN7asiopal8ExecutorEEN4asio19basic_stream_socketINS6_2ip3tcpENS6_21stream_socket_serviceIS9_EEEERKSt10error_codeEEC2ERKSH_
	.type	_ZNSt8functionIFvRKSt10shared_ptrIN7asiopal8ExecutorEEN4asio19basic_stream_socketINS6_2ip3tcpENS6_21stream_socket_serviceIS9_EEEERKSt10error_codeEEC2ERKSH_, @function
_ZNSt8functionIFvRKSt10shared_ptrIN7asiopal8ExecutorEEN4asio19basic_stream_socketINS6_2ip3tcpENS6_21stream_socket_serviceIS9_EEEERKSt10error_codeEEC2ERKSH_:
.LFB7997:
	.cfi_startproc
	.cfi_personality 0x9b,DW.ref.__gxx_personality_v0
	.cfi_lsda 0x1b,.LLSDA7997
	movq	$0, 16(%rdi)
	movq	16(%rsi), %rax
	testq	%rax, %rax
	je	.L1846
	pushq	%r12
	.cfi_def_cfa_offset 16
	.cfi_offset 12, -16
	movl	$2, %edx
	pushq	%rbp
	.cfi_def_cfa_offset 24
	.cfi_offset 6, -24
	movq	%rdi, %rbp
	pushq	%rbx
	.cfi_def_cfa_offset 32
	.cfi_offset 3, -32
	movq	%rsi, %rbx
.LEHB48:
	call	*%rax
.LEHE48:
	movdqu	16(%rbx), %xmm0
	movups	%xmm0, 16(%rbp)
	popq	%rbx
	.cfi_def_cfa_offset 24
	popq	%rbp
	.cfi_def_cfa_offset 16
	popq	%r12
	.cfi_def_cfa_offset 8
	ret
	.p2align 4,,10
	.p2align 3
.L1846:
	.cfi_restore 3
	.cfi_restore 6
	.cfi_restore 12
	ret
.L1838:
	.cfi_def_cfa_offset 32
	.cfi_offset 3, -32
	.cfi_offset 6, -24
	.cfi_offset 12, -16
	movq	%rax, %r12
.L1836:
	movq	16(%rbp), %rax
	testq	%rax, %rax
	je	.L1837
	movl	$3, %edx
	movq	%rbp, %rsi
	movq	%rbp, %rdi
	call	*%rax
.L1837:
	movq	%r12, %rdi
.LEHB49:
	call	_Unwind_Resume@PLT
.LEHE49:
	.cfi_endproc
.LFE7997:
	.section	.gcc_except_table._ZNSt8functionIFvRKSt10shared_ptrIN7asiopal8ExecutorEEN4asio19basic_stream_socketINS6_2ip3tcpENS6_21stream_socket_serviceIS9_EEEERKSt10error_codeEEC2ERKSH_,"aG",@progbits,_ZNSt8functionIFvRKSt10shared_ptrIN7asiopal8ExecutorEEN4asio19basic_stream_socketINS6_2ip3tcpENS6_21stream_socket_serviceIS9_EEEERKSt10error_codeEEC5ERKSH_,comdat
.LLSDA7997:
	.byte	0xff
	.byte	0xff
	.byte	0x1
	.uleb128 .LLSDACSE7997-.LLSDACSB7997
.LLSDACSB7997:
	.uleb128 .LEHB48-.LFB7997
	.uleb128 .LEHE48-.LEHB48
	.uleb128 .L1838-.LFB7997
	.uleb128 0
	.uleb128 .LEHB49-.LFB7997
	.uleb128 .LEHE49-.LEHB49
	.uleb128 0
	.uleb128 0
.LLSDACSE7997:
	.section	.text._ZNSt8functionIFvRKSt10shared_ptrIN7asiopal8ExecutorEEN4asio19basic_stream_socketINS6_2ip3tcpENS6_21stream_socket_serviceIS9_EEEERKSt10error_codeEEC2ERKSH_,"axG",@progbits,_ZNSt8functionIFvRKSt10shared_ptrIN7asiopal8ExecutorEEN4asio19basic_stream_socketINS6_2ip3tcpENS6_21stream_socket_serviceIS9_EEEERKSt10error_codeEEC5ERKSH_,comdat
	.size	_ZNSt8functionIFvRKSt10shared_ptrIN7asiopal8ExecutorEEN4asio19basic_stream_socketINS6_2ip3tcpENS6_21stream_socket_serviceIS9_EEEERKSt10error_codeEEC2ERKSH_, .-_ZNSt8functionIFvRKSt10shared_ptrIN7asiopal8ExecutorEEN4asio19basic_stream_socketINS6_2ip3tcpENS6_21stream_socket_serviceIS9_EEEERKSt10error_codeEEC2ERKSH_
	.weak	_ZNSt8functionIFvRKSt10shared_ptrIN7asiopal8ExecutorEEN4asio19basic_stream_socketINS6_2ip3tcpENS6_21stream_socket_serviceIS9_EEEERKSt10error_codeEEC1ERKSH_
	.set	_ZNSt8functionIFvRKSt10shared_ptrIN7asiopal8ExecutorEEN4asio19basic_stream_socketINS6_2ip3tcpENS6_21stream_socket_serviceIS9_EEEERKSt10error_codeEEC1ERKSH_,_ZNSt8functionIFvRKSt10shared_ptrIN7asiopal8ExecutorEEN4asio19basic_stream_socketINS6_2ip3tcpENS6_21stream_socket_serviceIS9_EEEERKSt10error_codeEEC2ERKSH_
	.section	.text._ZNSt16_Sp_counted_baseILN9__gnu_cxx12_Lock_policyE2EE10_M_releaseEv,"axG",@progbits,_ZNSt16_Sp_counted_baseILN9__gnu_cxx12_Lock_policyE2EE10_M_releaseEv,comdat
	.align 2
	.p2align 4
	.weak	_ZNSt16_Sp_counted_baseILN9__gnu_cxx12_Lock_policyE2EE10_M_releaseEv
	.type	_ZNSt16_Sp_counted_baseILN9__gnu_cxx12_Lock_policyE2EE10_M_releaseEv, @function
_ZNSt16_Sp_counted_baseILN9__gnu_cxx12_Lock_policyE2EE10_M_releaseEv:
.LFB8283:
	.cfi_startproc
	pushq	%rbp
	.cfi_def_cfa_offset 16
	.cfi_offset 6, -16
	movq	%rdi, %rbp
	pushq	%rbx
	.cfi_def_cfa_offset 24
	.cfi_offset 3, -24
	subq	$8, %rsp
	.cfi_def_cfa_offset 32
	movq	_ZL28__gthrw___pthread_key_createPjPFvPvE@GOTPCREL(%rip), %rbx
	testq	%rbx, %rbx
	jne	.L1858
	movl	8(%rdi), %eax
	leal	-1(%rax), %edx
	movl	%edx, 8(%rdi)
.L1851:
	cmpl	$1, %eax
	je	.L1859
.L1849:
	addq	$8, %rsp
	.cfi_remember_state
	.cfi_def_cfa_offset 24
	popq	%rbx
	.cfi_def_cfa_offset 16
	popq	%rbp
	.cfi_def_cfa_offset 8
	ret
	.p2align 4,,10
	.p2align 3
.L1859:
	.cfi_restore_state
	movq	0(%rbp), %rax
	movq	%rbp, %rdi
	call	*16(%rax)
	testq	%rbx, %rbx
	jne	.L1860
	movl	12(%rbp), %eax
	leal	-1(%rax), %edx
	movl	%edx, 12(%rbp)
.L1855:
	cmpl	$1, %eax
	jne	.L1849
	movq	0(%rbp), %rax
	movq	%rbp, %rdi
	movq	24(%rax), %rax
	addq	$8, %rsp
	.cfi_remember_state
	.cfi_def_cfa_offset 24
	popq	%rbx
	.cfi_def_cfa_offset 16
	popq	%rbp
	.cfi_def_cfa_offset 8
	jmp	*%rax
	.p2align 4,,10
	.p2align 3
.L1858:
	.cfi_restore_state
	movl	$-1, %eax
	lock xaddl	%eax, 8(%rdi)
	jmp	.L1851
	.p2align 4,,10
	.p2align 3
.L1860:
	movl	$-1, %eax
	lock xaddl	%eax, 12(%rbp)
	jmp	.L1855
	.cfi_endproc
.LFE8283:
	.size	_ZNSt16_Sp_counted_baseILN9__gnu_cxx12_Lock_policyE2EE10_M_releaseEv, .-_ZNSt16_Sp_counted_baseILN9__gnu_cxx12_Lock_policyE2EE10_M_releaseEv
	.section	.text._ZN7openpal6LoggerD2Ev,"axG",@progbits,_ZN7openpal6LoggerD5Ev,comdat
	.align 2
	.p2align 4
	.weak	_ZN7openpal6LoggerD2Ev
	.type	_ZN7openpal6LoggerD2Ev, @function
_ZN7openpal6LoggerD2Ev:
.LFB6987:
	.cfi_startproc
	pushq	%r12
	.cfi_def_cfa_offset 16
	.cfi_offset 12, -16
	pushq	%rbp
	.cfi_def_cfa_offset 24
	.cfi_offset 6, -24
	pushq	%rbx
	.cfi_def_cfa_offset 32
	.cfi_offset 3, -32
	movq	24(%rdi), %rbp
	movq	%rdi, %rbx
	testq	%rbp, %rbp
	je	.L1863
	movq	_ZL28__gthrw___pthread_key_createPjPFvPvE@GOTPCREL(%rip), %r12
	testq	%r12, %r12
	jne	.L1871
	movl	8(%rbp), %eax
	leal	-1(%rax), %edx
	movl	%edx, 8(%rbp)
.L1865:
	cmpl	$1, %eax
	je	.L1872
.L1863:
	movq	8(%rbx), %rdi
	testq	%rdi, %rdi
	je	.L1861
	popq	%rbx
	.cfi_remember_state
	.cfi_def_cfa_offset 24
	popq	%rbp
	.cfi_def_cfa_offset 16
	popq	%r12
	.cfi_def_cfa_offset 8
	jmp	_ZNSt16_Sp_counted_baseILN9__gnu_cxx12_Lock_policyE2EE10_M_releaseEv@PLT
	.p2align 4,,10
	.p2align 3
.L1861:
	.cfi_restore_state
	popq	%rbx
	.cfi_remember_state
	.cfi_def_cfa_offset 24
	popq	%rbp
	.cfi_def_cfa_offset 16
	popq	%r12
	.cfi_def_cfa_offset 8
	ret
	.p2align 4,,10
	.p2align 3
.L1872:
	.cfi_restore_state
	movq	0(%rbp), %rax
	movq	%rbp, %rdi
	call	*16(%rax)
	testq	%r12, %r12
	jne	.L1873
	movl	12(%rbp), %eax
	leal	-1(%rax), %edx
	movl	%edx, 12(%rbp)
.L1868:
	cmpl	$1, %eax
	jne	.L1863
	movq	0(%rbp), %rax
	movq	%rbp, %rdi
	call	*24(%rax)
	jmp	.L1863
	.p2align 4,,10
	.p2align 3
.L1871:
	movl	$-1, %eax
	lock xaddl	%eax, 8(%rbp)
	jmp	.L1865
	.p2align 4,,10
	.p2align 3
.L1873:
	movl	$-1, %eax
	lock xaddl	%eax, 12(%rbp)
	jmp	.L1868
	.cfi_endproc
.LFE6987:
	.size	_ZN7openpal6LoggerD2Ev, .-_ZN7openpal6LoggerD2Ev
	.weak	_ZN7openpal6LoggerD1Ev
	.set	_ZN7openpal6LoggerD1Ev,_ZN7openpal6LoggerD2Ev
	.text
	.align 2
	.p2align 4
	.type	_ZZN7asiopal9TCPClient12BeginConnectERKSt8functionIFvRKSt10shared_ptrINS_8ExecutorEEN4asio19basic_stream_socketINS7_2ip3tcpENS7_21stream_socket_serviceISA_EEEERKSt10error_codeEEENUlSG_NS9_23basic_resolver_iteratorISA_EEE_D2Ev, @function
_ZZN7asiopal9TCPClient12BeginConnectERKSt8functionIFvRKSt10shared_ptrINS_8ExecutorEEN4asio19basic_stream_socketINS7_2ip3tcpENS7_21stream_socket_serviceISA_EEEERKSt10error_codeEEENUlSG_NS9_23basic_resolver_iteratorISA_EEE_D2Ev:
.LFB7072:
	.cfi_startproc
	.cfi_personality 0x9b,DW.ref.__gxx_personality_v0
	.cfi_lsda 0x1b,.LLSDA7072
	pushq	%rbx
	.cfi_def_cfa_offset 16
	.cfi_offset 3, -16
	movq	32(%rdi), %rax
	movq	%rdi, %rbx
	testq	%rax, %rax
	je	.L1875
	leaq	16(%rdi), %rdi
	movl	$3, %edx
	movq	%rdi, %rsi
	call	*%rax
.L1875:
	movq	8(%rbx), %rdi
	testq	%rdi, %rdi
	je	.L1874
	popq	%rbx
	.cfi_remember_state
	.cfi_def_cfa_offset 8
	jmp	_ZNSt16_Sp_counted_baseILN9__gnu_cxx12_Lock_policyE2EE10_M_releaseEv@PLT
	.p2align 4,,10
	.p2align 3
.L1874:
	.cfi_restore_state
	popq	%rbx
	.cfi_def_cfa_offset 8
	ret
	.cfi_endproc
.LFE7072:
	.section	.gcc_except_table,"a",@progbits
.LLSDA7072:
	.byte	0xff
	.byte	0xff
	.byte	0x1
	.uleb128 .LLSDACSE7072-.LLSDACSB7072
.LLSDACSB7072:
.LLSDACSE7072:
	.text
	.size	_ZZN7asiopal9TCPClient12BeginConnectERKSt8functionIFvRKSt10shared_ptrINS_8ExecutorEEN4asio19basic_stream_socketINS7_2ip3tcpENS7_21stream_socket_serviceISA_EEEERKSt10error_codeEEENUlSG_NS9_23basic_resolver_iteratorISA_EEE_D2Ev, .-_ZZN7asiopal9TCPClient12BeginConnectERKSt8functionIFvRKSt10shared_ptrINS_8ExecutorEEN4asio19basic_stream_socketINS7_2ip3tcpENS7_21stream_socket_serviceISA_EEEERKSt10error_codeEEENUlSG_NS9_23basic_resolver_iteratorISA_EEE_D2Ev
	.set	_ZZN7asiopal9TCPClient12BeginConnectERKSt8functionIFvRKSt10shared_ptrINS_8ExecutorEEN4asio19basic_stream_socketINS7_2ip3tcpENS7_21stream_socket_serviceISA_EEEERKSt10error_codeEEENUlSG_NS9_23basic_resolver_iteratorISA_EEE_D1Ev,_ZZN7asiopal9TCPClient12BeginConnectERKSt8functionIFvRKSt10shared_ptrINS_8ExecutorEEN4asio19basic_stream_socketINS7_2ip3tcpENS7_21stream_socket_serviceISA_EEEERKSt10error_codeEEENUlSG_NS9_23basic_resolver_iteratorISA_EEE_D2Ev
	.align 2
	.p2align 4
	.type	_ZZN7asiopal9TCPClient12BeginConnectERKSt8functionIFvRKSt10shared_ptrINS_8ExecutorEEN4asio19basic_stream_socketINS7_2ip3tcpENS7_21stream_socket_serviceISA_EEEERKSt10error_codeEEENUlSG_E0_D2Ev, @function
_ZZN7asiopal9TCPClient12BeginConnectERKSt8functionIFvRKSt10shared_ptrINS_8ExecutorEEN4asio19basic_stream_socketINS7_2ip3tcpENS7_21stream_socket_serviceISA_EEEERKSt10error_codeEEENUlSG_E0_D2Ev:
.LFB7088:
	.cfi_startproc
	.cfi_personality 0x9b,DW.ref.__gxx_personality_v0
	.cfi_lsda 0x1b,.LLSDA7088
	pushq	%rbx
	.cfi_def_cfa_offset 16
	.cfi_offset 3, -16
	movq	32(%rdi), %rax
	movq	%rdi, %rbx
	testq	%rax, %rax
	je	.L1882
	leaq	16(%rdi), %rdi
	movl	$3, %edx
	movq	%rdi, %rsi
	call	*%rax
.L1882:
	movq	8(%rbx), %rdi
	testq	%rdi, %rdi
	je	.L1881
	popq	%rbx
	.cfi_remember_state
	.cfi_def_cfa_offset 8
	jmp	_ZNSt16_Sp_counted_baseILN9__gnu_cxx12_Lock_policyE2EE10_M_releaseEv@PLT
	.p2align 4,,10
	.p2align 3
.L1881:
	.cfi_restore_state
	popq	%rbx
	.cfi_def_cfa_offset 8
	ret
	.cfi_endproc
.LFE7088:
	.section	.gcc_except_table
.LLSDA7088:
	.byte	0xff
	.byte	0xff
	.byte	0x1
	.uleb128 .LLSDACSE7088-.LLSDACSB7088
.LLSDACSB7088:
.LLSDACSE7088:
	.text
	.size	_ZZN7asiopal9TCPClient12BeginConnectERKSt8functionIFvRKSt10shared_ptrINS_8ExecutorEEN4asio19basic_stream_socketINS7_2ip3tcpENS7_21stream_socket_serviceISA_EEEERKSt10error_codeEEENUlSG_E0_D2Ev, .-_ZZN7asiopal9TCPClient12BeginConnectERKSt8functionIFvRKSt10shared_ptrINS_8ExecutorEEN4asio19basic_stream_socketINS7_2ip3tcpENS7_21stream_socket_serviceISA_EEEERKSt10error_codeEEENUlSG_E0_D2Ev
	.set	_ZZN7asiopal9TCPClient12BeginConnectERKSt8functionIFvRKSt10shared_ptrINS_8ExecutorEEN4asio19basic_stream_socketINS7_2ip3tcpENS7_21stream_socket_serviceISA_EEEERKSt10error_codeEEENUlSG_E0_D1Ev,_ZZN7asiopal9TCPClient12BeginConnectERKSt8functionIFvRKSt10shared_ptrINS_8ExecutorEEN4asio19basic_stream_socketINS7_2ip3tcpENS7_21stream_socket_serviceISA_EEEERKSt10error_codeEEENUlSG_E0_D2Ev
	.align 2
	.p2align 4
	.type	_ZZN7asiopal9TCPClient19HandleResolveResultERKSt8functionIFvRKSt10shared_ptrINS_8ExecutorEEN4asio19basic_stream_socketINS7_2ip3tcpENS7_21stream_socket_serviceISA_EEEERKSt10error_codeEERKNS9_23basic_resolver_iteratorISA_EESG_ENUlSG_SM_E_D2Ev, @function
_ZZN7asiopal9TCPClient19HandleResolveResultERKSt8functionIFvRKSt10shared_ptrINS_8ExecutorEEN4asio19basic_stream_socketINS7_2ip3tcpENS7_21stream_socket_serviceISA_EEEERKSt10error_codeEERKNS9_23basic_resolver_iteratorISA_EESG_ENUlSG_SM_E_D2Ev:
.LFB7102:
	.cfi_startproc
	.cfi_personality 0x9b,DW.ref.__gxx_personality_v0
	.cfi_lsda 0x1b,.LLSDA7102
	pushq	%rbx
	.cfi_def_cfa_offset 16
	.cfi_offset 3, -16
	movq	32(%rdi), %rax
	movq	%rdi, %rbx
	testq	%rax, %rax
	je	.L1889
	leaq	16(%rdi), %rdi
	movl	$3, %edx
	movq	%rdi, %rsi
	call	*%rax
.L1889:
	movq	8(%rbx), %rdi
	testq	%rdi, %rdi
	je	.L1888
	popq	%rbx
	.cfi_remember_state
	.cfi_def_cfa_offset 8
	jmp	_ZNSt16_Sp_counted_baseILN9__gnu_cxx12_Lock_policyE2EE10_M_releaseEv@PLT
	.p2align 4,,10
	.p2align 3
.L1888:
	.cfi_restore_state
	popq	%rbx
	.cfi_def_cfa_offset 8
	ret
	.cfi_endproc
.LFE7102:
	.section	.gcc_except_table
.LLSDA7102:
	.byte	0xff
	.byte	0xff
	.byte	0x1
	.uleb128 .LLSDACSE7102-.LLSDACSB7102
.LLSDACSB7102:
.LLSDACSE7102:
	.text
	.size	_ZZN7asiopal9TCPClient19HandleResolveResultERKSt8functionIFvRKSt10shared_ptrINS_8ExecutorEEN4asio19basic_stream_socketINS7_2ip3tcpENS7_21stream_socket_serviceISA_EEEERKSt10error_codeEERKNS9_23basic_resolver_iteratorISA_EESG_ENUlSG_SM_E_D2Ev, .-_ZZN7asiopal9TCPClient19HandleResolveResultERKSt8functionIFvRKSt10shared_ptrINS_8ExecutorEEN4asio19basic_stream_socketINS7_2ip3tcpENS7_21stream_socket_serviceISA_EEEERKSt10error_codeEERKNS9_23basic_resolver_iteratorISA_EESG_ENUlSG_SM_E_D2Ev
	.set	_ZZN7asiopal9TCPClient19HandleResolveResultERKSt8functionIFvRKSt10shared_ptrINS_8ExecutorEEN4asio19basic_stream_socketINS7_2ip3tcpENS7_21stream_socket_serviceISA_EEEERKSt10error_codeEERKNS9_23basic_resolver_iteratorISA_EESG_ENUlSG_SM_E_D1Ev,_ZZN7asiopal9TCPClient19HandleResolveResultERKSt8functionIFvRKSt10shared_ptrINS_8ExecutorEEN4asio19basic_stream_socketINS7_2ip3tcpENS7_21stream_socket_serviceISA_EEEERKSt10error_codeEERKNS9_23basic_resolver_iteratorISA_EESG_ENUlSG_SM_E_D2Ev
	.section	.text.unlikely
	.align 2
	.type	_ZZN7asiopal9TCPClient16PostConnectErrorERKSt8functionIFvRKSt10shared_ptrINS_8ExecutorEEN4asio19basic_stream_socketINS7_2ip3tcpENS7_21stream_socket_serviceISA_EEEERKSt10error_codeEESG_ENUlvE_D2Ev, @function
_ZZN7asiopal9TCPClient16PostConnectErrorERKSt8functionIFvRKSt10shared_ptrINS_8ExecutorEEN4asio19basic_stream_socketINS7_2ip3tcpENS7_21stream_socket_serviceISA_EEEERKSt10error_codeEESG_ENUlvE_D2Ev:
.LFB7138:
	.cfi_startproc
	.cfi_personality 0x9b,DW.ref.__gxx_personality_v0
	.cfi_lsda 0x1b,.LLSDA7138
	pushq	%rbx
	.cfi_def_cfa_offset 16
	.cfi_offset 3, -16
	movq	48(%rdi), %rax
	movq	%rdi, %rbx
	testq	%rax, %rax
	je	.L1896
	leaq	32(%rdi), %rdi
	movl	$3, %edx
	movq	%rdi, %rsi
	call	*%rax
.L1896:
	movq	8(%rbx), %rdi
	testq	%rdi, %rdi
	je	.L1895
	popq	%rbx
	.cfi_remember_state
	.cfi_def_cfa_offset 8
	jmp	_ZNSt16_Sp_counted_baseILN9__gnu_cxx12_Lock_policyE2EE10_M_releaseEv@PLT
.L1895:
	.cfi_restore_state
	popq	%rbx
	.cfi_def_cfa_offset 8
	ret
	.cfi_endproc
.LFE7138:
	.section	.gcc_except_table
.LLSDA7138:
	.byte	0xff
	.byte	0xff
	.byte	0x1
	.uleb128 .LLSDACSE7138-.LLSDACSB7138
.LLSDACSB7138:
.LLSDACSE7138:
	.section	.text.unlikely
	.size	_ZZN7asiopal9TCPClient16PostConnectErrorERKSt8functionIFvRKSt10shared_ptrINS_8ExecutorEEN4asio19basic_stream_socketINS7_2ip3tcpENS7_21stream_socket_serviceISA_EEEERKSt10error_codeEESG_ENUlvE_D2Ev, .-_ZZN7asiopal9TCPClient16PostConnectErrorERKSt8functionIFvRKSt10shared_ptrINS_8ExecutorEEN4asio19basic_stream_socketINS7_2ip3tcpENS7_21stream_socket_serviceISA_EEEERKSt10error_codeEESG_ENUlvE_D2Ev
	.set	_ZZN7asiopal9TCPClient16PostConnectErrorERKSt8functionIFvRKSt10shared_ptrINS_8ExecutorEEN4asio19basic_stream_socketINS7_2ip3tcpENS7_21stream_socket_serviceISA_EEEERKSt10error_codeEESG_ENUlvE_D1Ev,_ZZN7asiopal9TCPClient16PostConnectErrorERKSt8functionIFvRKSt10shared_ptrINS_8ExecutorEEN4asio19basic_stream_socketINS7_2ip3tcpENS7_21stream_socket_serviceISA_EEEERKSt10error_codeEESG_ENUlvE_D2Ev
	.align 2
.LCOLDB29:
	.text
.LHOTB29:
	.align 2
	.p2align 4
	.type	_ZZN7asiopal9TCPClient12BeginConnectERKSt8functionIFvRKSt10shared_ptrINS_8ExecutorEEN4asio19basic_stream_socketINS7_2ip3tcpENS7_21stream_socket_serviceISA_EEEERKSt10error_codeEEENUlSG_NS9_23basic_resolver_iteratorISA_EEE_C2EOSN_, @function
_ZZN7asiopal9TCPClient12BeginConnectERKSt8functionIFvRKSt10shared_ptrINS_8ExecutorEEN4asio19basic_stream_socketINS7_2ip3tcpENS7_21stream_socket_serviceISA_EEEERKSt10error_codeEEENUlSG_NS9_23basic_resolver_iteratorISA_EEE_C2EOSN_:
.LFB7075:
	.cfi_startproc
	.cfi_personality 0x9b,DW.ref.__gxx_personality_v0
	.cfi_lsda 0x1b,.LLSDA7075
	pushq	%rbp
	.cfi_def_cfa_offset 16
	.cfi_offset 6, -16
	pxor	%xmm0, %xmm0
	addq	$16, %rsi
	pushq	%rbx
	.cfi_def_cfa_offset 24
	.cfi_offset 3, -24
	movq	%rdi, %rbx
	leaq	16(%rdi), %rdi
	subq	$8, %rsp
	.cfi_def_cfa_offset 32
	movq	-16(%rsi), %rax
	movq	$0, -8(%rdi)
	movq	%rax, -16(%rdi)
	movq	-8(%rsi), %rax
	movups	%xmm0, -16(%rsi)
	movq	%rax, -8(%rdi)
.LEHB50:
	call	_ZNSt8functionIFvRKSt10shared_ptrIN7asiopal8ExecutorEEN4asio19basic_stream_socketINS6_2ip3tcpENS6_21stream_socket_serviceIS9_EEEERKSt10error_codeEEC1ERKSH_@PLT
.LEHE50:
	addq	$8, %rsp
	.cfi_remember_state
	.cfi_def_cfa_offset 24
	popq	%rbx
	.cfi_def_cfa_offset 16
	popq	%rbp
	.cfi_def_cfa_offset 8
	ret
.L1905:
	.cfi_restore_state
	movq	%rax, %rbp
	jmp	.L1903
	.section	.gcc_except_table
.LLSDA7075:
	.byte	0xff
	.byte	0xff
	.byte	0x1
	.uleb128 .LLSDACSE7075-.LLSDACSB7075
.LLSDACSB7075:
	.uleb128 .LEHB50-.LFB7075
	.uleb128 .LEHE50-.LEHB50
	.uleb128 .L1905-.LFB7075
	.uleb128 0
.LLSDACSE7075:
	.text
	.cfi_endproc
	.section	.text.unlikely
	.cfi_startproc
	.cfi_personality 0x9b,DW.ref.__gxx_personality_v0
	.cfi_lsda 0x1b,.LLSDAC7075
	.type	_ZZN7asiopal9TCPClient12BeginConnectERKSt8functionIFvRKSt10shared_ptrINS_8ExecutorEEN4asio19basic_stream_socketINS7_2ip3tcpENS7_21stream_socket_serviceISA_EEEERKSt10error_codeEEENUlSG_NS9_23basic_resolver_iteratorISA_EEE_C2EOSN_.cold, @function
_ZZN7asiopal9TCPClient12BeginConnectERKSt8functionIFvRKSt10shared_ptrINS_8ExecutorEEN4asio19basic_stream_socketINS7_2ip3tcpENS7_21stream_socket_serviceISA_EEEERKSt10error_codeEEENUlSG_NS9_23basic_resolver_iteratorISA_EEE_C2EOSN_.cold:
.LFSB7075:
.L1903:
	.cfi_def_cfa_offset 32
	.cfi_offset 3, -24
	.cfi_offset 6, -16
	movq	8(%rbx), %rdi
	testq	%rdi, %rdi
	je	.L1904
	call	_ZNSt16_Sp_counted_baseILN9__gnu_cxx12_Lock_policyE2EE10_M_releaseEv@PLT
.L1904:
	movq	%rbp, %rdi
.LEHB51:
	call	_Unwind_Resume@PLT
.LEHE51:
	.cfi_endproc
.LFE7075:
	.section	.gcc_except_table
.LLSDAC7075:
	.byte	0xff
	.byte	0xff
	.byte	0x1
	.uleb128 .LLSDACSEC7075-.LLSDACSBC7075
.LLSDACSBC7075:
	.uleb128 .LEHB51-.LCOLDB29
	.uleb128 .LEHE51-.LEHB51
	.uleb128 0
	.uleb128 0
.LLSDACSEC7075:
	.section	.text.unlikely
	.text
	.size	_ZZN7asiopal9TCPClient12BeginConnectERKSt8functionIFvRKSt10shared_ptrINS_8ExecutorEEN4asio19basic_stream_socketINS7_2ip3tcpENS7_21stream_socket_serviceISA_EEEERKSt10error_codeEEENUlSG_NS9_23basic_resolver_iteratorISA_EEE_C2EOSN_, .-_ZZN7asiopal9TCPClient12BeginConnectERKSt8functionIFvRKSt10shared_ptrINS_8ExecutorEEN4asio19basic_stream_socketINS7_2ip3tcpENS7_21stream_socket_serviceISA_EEEERKSt10error_codeEEENUlSG_NS9_23basic_resolver_iteratorISA_EEE_C2EOSN_
	.section	.text.unlikely
	.size	_ZZN7asiopal9TCPClient12BeginConnectERKSt8functionIFvRKSt10shared_ptrINS_8ExecutorEEN4asio19basic_stream_socketINS7_2ip3tcpENS7_21stream_socket_serviceISA_EEEERKSt10error_codeEEENUlSG_NS9_23basic_resolver_iteratorISA_EEE_C2EOSN_.cold, .-_ZZN7asiopal9TCPClient12BeginConnectERKSt8functionIFvRKSt10shared_ptrINS_8ExecutorEEN4asio19basic_stream_socketINS7_2ip3tcpENS7_21stream_socket_serviceISA_EEEERKSt10error_codeEEENUlSG_NS9_23basic_resolver_iteratorISA_EEE_C2EOSN_.cold
.LCOLDE29:
	.text
.LHOTE29:
	.set	_ZZN7asiopal9TCPClient12BeginConnectERKSt8functionIFvRKSt10shared_ptrINS_8ExecutorEEN4asio19basic_stream_socketINS7_2ip3tcpENS7_21stream_socket_serviceISA_EEEERKSt10error_codeEEENUlSG_NS9_23basic_resolver_iteratorISA_EEE_C1EOSN_,_ZZN7asiopal9TCPClient12BeginConnectERKSt8functionIFvRKSt10shared_ptrINS_8ExecutorEEN4asio19basic_stream_socketINS7_2ip3tcpENS7_21stream_socket_serviceISA_EEEERKSt10error_codeEEENUlSG_NS9_23basic_resolver_iteratorISA_EEE_C2EOSN_
	.section	.text.unlikely
	.align 2
.LCOLDB30:
	.text
.LHOTB30:
	.align 2
	.p2align 4
	.type	_ZZN7asiopal9TCPClient12BeginConnectERKSt8functionIFvRKSt10shared_ptrINS_8ExecutorEEN4asio19basic_stream_socketINS7_2ip3tcpENS7_21stream_socket_serviceISA_EEEERKSt10error_codeEEENUlSG_E0_C2EOSL_, @function
_ZZN7asiopal9TCPClient12BeginConnectERKSt8functionIFvRKSt10shared_ptrINS_8ExecutorEEN4asio19basic_stream_socketINS7_2ip3tcpENS7_21stream_socket_serviceISA_EEEERKSt10error_codeEEENUlSG_E0_C2EOSL_:
.LFB7091:
	.cfi_startproc
	.cfi_personality 0x9b,DW.ref.__gxx_personality_v0
	.cfi_lsda 0x1b,.LLSDA7091
	pushq	%rbp
	.cfi_def_cfa_offset 16
	.cfi_offset 6, -16
	pxor	%xmm0, %xmm0
	addq	$16, %rsi
	pushq	%rbx
	.cfi_def_cfa_offset 24
	.cfi_offset 3, -24
	movq	%rdi, %rbx
	leaq	16(%rdi), %rdi
	subq	$8, %rsp
	.cfi_def_cfa_offset 32
	movq	-16(%rsi), %rax
	movq	$0, -8(%rdi)
	movq	%rax, -16(%rdi)
	movq	-8(%rsi), %rax
	movups	%xmm0, -16(%rsi)
	movq	%rax, -8(%rdi)
.LEHB52:
	call	_ZNSt8functionIFvRKSt10shared_ptrIN7asiopal8ExecutorEEN4asio19basic_stream_socketINS6_2ip3tcpENS6_21stream_socket_serviceIS9_EEEERKSt10error_codeEEC1ERKSH_@PLT
.LEHE52:
	addq	$8, %rsp
	.cfi_remember_state
	.cfi_def_cfa_offset 24
	popq	%rbx
	.cfi_def_cfa_offset 16
	popq	%rbp
	.cfi_def_cfa_offset 8
	ret
.L1914:
	.cfi_restore_state
	movq	%rax, %rbp
	jmp	.L1912
	.section	.gcc_except_table
.LLSDA7091:
	.byte	0xff
	.byte	0xff
	.byte	0x1
	.uleb128 .LLSDACSE7091-.LLSDACSB7091
.LLSDACSB7091:
	.uleb128 .LEHB52-.LFB7091
	.uleb128 .LEHE52-.LEHB52
	.uleb128 .L1914-.LFB7091
	.uleb128 0
.LLSDACSE7091:
	.text
	.cfi_endproc
	.section	.text.unlikely
	.cfi_startproc
	.cfi_personality 0x9b,DW.ref.__gxx_personality_v0
	.cfi_lsda 0x1b,.LLSDAC7091
	.type	_ZZN7asiopal9TCPClient12BeginConnectERKSt8functionIFvRKSt10shared_ptrINS_8ExecutorEEN4asio19basic_stream_socketINS7_2ip3tcpENS7_21stream_socket_serviceISA_EEEERKSt10error_codeEEENUlSG_E0_C2EOSL_.cold, @function
_ZZN7asiopal9TCPClient12BeginConnectERKSt8functionIFvRKSt10shared_ptrINS_8ExecutorEEN4asio19basic_stream_socketINS7_2ip3tcpENS7_21stream_socket_serviceISA_EEEERKSt10error_codeEEENUlSG_E0_C2EOSL_.cold:
.LFSB7091:
.L1912:
	.cfi_def_cfa_offset 32
	.cfi_offset 3, -24
	.cfi_offset 6, -16
	movq	8(%rbx), %rdi
	testq	%rdi, %rdi
	je	.L1913
	call	_ZNSt16_Sp_counted_baseILN9__gnu_cxx12_Lock_policyE2EE10_M_releaseEv@PLT
.L1913:
	movq	%rbp, %rdi
.LEHB53:
	call	_Unwind_Resume@PLT
.LEHE53:
	.cfi_endproc
.LFE7091:
	.section	.gcc_except_table
.LLSDAC7091:
	.byte	0xff
	.byte	0xff
	.byte	0x1
	.uleb128 .LLSDACSEC7091-.LLSDACSBC7091
.LLSDACSBC7091:
	.uleb128 .LEHB53-.LCOLDB30
	.uleb128 .LEHE53-.LEHB53
	.uleb128 0
	.uleb128 0
.LLSDACSEC7091:
	.section	.text.unlikely
	.text
	.size	_ZZN7asiopal9TCPClient12BeginConnectERKSt8functionIFvRKSt10shared_ptrINS_8ExecutorEEN4asio19basic_stream_socketINS7_2ip3tcpENS7_21stream_socket_serviceISA_EEEERKSt10error_codeEEENUlSG_E0_C2EOSL_, .-_ZZN7asiopal9TCPClient12BeginConnectERKSt8functionIFvRKSt10shared_ptrINS_8ExecutorEEN4asio19basic_stream_socketINS7_2ip3tcpENS7_21stream_socket_serviceISA_EEEERKSt10error_codeEEENUlSG_E0_C2EOSL_
	.section	.text.unlikely
	.size	_ZZN7asiopal9TCPClient12BeginConnectERKSt8functionIFvRKSt10shared_ptrINS_8ExecutorEEN4asio19basic_stream_socketINS7_2ip3tcpENS7_21stream_socket_serviceISA_EEEERKSt10error_codeEEENUlSG_E0_C2EOSL_.cold, .-_ZZN7asiopal9TCPClient12BeginConnectERKSt8functionIFvRKSt10shared_ptrINS_8ExecutorEEN4asio19basic_stream_socketINS7_2ip3tcpENS7_21stream_socket_serviceISA_EEEERKSt10error_codeEEENUlSG_E0_C2EOSL_.cold
.LCOLDE30:
	.text
.LHOTE30:
	.set	_ZZN7asiopal9TCPClient12BeginConnectERKSt8functionIFvRKSt10shared_ptrINS_8ExecutorEEN4asio19basic_stream_socketINS7_2ip3tcpENS7_21stream_socket_serviceISA_EEEERKSt10error_codeEEENUlSG_E0_C1EOSL_,_ZZN7asiopal9TCPClient12BeginConnectERKSt8functionIFvRKSt10shared_ptrINS_8ExecutorEEN4asio19basic_stream_socketINS7_2ip3tcpENS7_21stream_socket_serviceISA_EEEERKSt10error_codeEEENUlSG_E0_C2EOSL_
	.section	.text.unlikely
	.align 2
.LCOLDB32:
	.text
.LHOTB32:
	.align 2
	.p2align 4
	.globl	_ZN7asiopal9TCPClient6CancelEv
	.type	_ZN7asiopal9TCPClient6CancelEv, @function
_ZN7asiopal9TCPClient6CancelEv:
.LFB7059:
	.cfi_startproc
	.cfi_personality 0x9b,DW.ref.__gxx_personality_v0
	.cfi_lsda 0x1b,.LLSDA7059
	pushq	%r15
	.cfi_def_cfa_offset 16
	.cfi_offset 15, -16
	pushq	%r14
	.cfi_def_cfa_offset 24
	.cfi_offset 14, -24
	pushq	%r13
	.cfi_def_cfa_offset 32
	.cfi_offset 13, -32
	pushq	%r12
	.cfi_def_cfa_offset 40
	.cfi_offset 12, -40
	pushq	%rbp
	.cfi_def_cfa_offset 48
	.cfi_offset 6, -48
	pushq	%rbx
	.cfi_def_cfa_offset 56
	.cfi_offset 3, -56
	subq	$88, %rsp
	.cfi_def_cfa_offset 144
	movq	%fs:40, %rax
	movq	%rax, 72(%rsp)
	xorl	%eax, %eax
	cmpb	$0, 17(%rdi)
	jne	.L1945
	movzbl	16(%rdi), %r12d
	movq	%rdi, %rbp
	testb	%r12b, %r12b
	jne	.L1971
.L1920:
	movq	72(%rsp), %rax
	subq	%fs:40, %rax
	jne	.L1972
	addq	$88, %rsp
	.cfi_remember_state
	.cfi_def_cfa_offset 56
	movl	%r12d, %eax
	popq	%rbx
	.cfi_def_cfa_offset 48
	popq	%rbp
	.cfi_def_cfa_offset 40
	popq	%r12
	.cfi_def_cfa_offset 32
	popq	%r13
	.cfi_def_cfa_offset 24
	popq	%r14
	.cfi_def_cfa_offset 16
	popq	%r15
	.cfi_def_cfa_offset 8
	ret
	.p2align 4,,10
	.p2align 3
.L1971:
	.cfi_restore_state
	cmpl	$-1, 136(%rdi)
	je	.L1973
	movq	144(%rdi), %r14
	testq	%r14, %r14
	je	.L1923
	movq	160(%rdi), %rax
	movq	40(%rax), %rax
	movq	%rax, 16(%rsp)
	leaq	40(%r14), %rax
	movq	%rax, %rdi
	movq	%rax, 24(%rsp)
	call	pthread_mutex_lock@PLT
	pxor	%xmm0, %xmm0
	movl	$0, 8(%rsp)
	movq	144(%rbp), %rdi
	movaps	%xmm0, 32(%rsp)
.L1934:
	movslq	8(%rsp), %r9
	movq	%r9, %rax
	salq	$4, %rax
	movq	96(%rax,%rdi), %rbx
	testq	%rbx, %rbx
	je	.L1925
	movq	_ZGVZN4asio15system_categoryEvE8instance@GOTPCREL(%rip), %r13
	movq	_ZZN4asio15system_categoryEvE8instance@GOTPCREL(%rip), %r14
	movq	%rax, %r15
	jmp	.L1926
	.p2align 4,,10
	.p2align 3
.L1928:
	movq	144(%rbp), %rdi
	movl	$125, 24(%rbx)
	xorl	%eax, %eax
	movq	%r14, 32(%rbx)
	leaq	(%rdi,%r15), %rcx
	movq	96(%rcx), %rdx
	testq	%rdx, %rdx
	je	.L1930
	movq	(%rdx), %rax
	movq	%rax, 96(%rcx)
	testq	%rax, %rax
	je	.L1974
.L1931:
	movq	$0, (%rdx)
.L1930:
	movq	40(%rsp), %rdx
	movq	$0, (%rbx)
	testq	%rdx, %rdx
	je	.L1932
	movq	%rbx, (%rdx)
	movq	%rbx, 40(%rsp)
	testq	%rax, %rax
	je	.L1925
.L1975:
	movq	%rax, %rbx
.L1926:
	movzbl	0(%r13), %eax
	testb	%al, %al
	jne	.L1928
	movq	%r13, %rdi
	call	__cxa_guard_acquire@PLT
	testl	%eax, %eax
	je	.L1928
	movq	_ZN4asio6detail15system_categoryD1Ev@GOTPCREL(%rip), %rdi
	leaq	__dso_handle(%rip), %rdx
	movq	%r14, %rsi
	call	__cxa_atexit@PLT
	movq	%r13, %rdi
	call	__cxa_guard_release@PLT
	jmp	.L1928
	.p2align 4,,10
	.p2align 3
.L1973:
	call	_ZN4asio15system_categoryEv@PLT
.L1923:
	movl	$24, %edi
.LEHB54:
	call	_Znwm@PLT
.LEHE54:
	movq	.LC31(%rip), %rdx
	movq	240(%rbp), %rdi
	movq	$0, 16(%rax)
	movq	$0, 232(%rbp)
	movq	%rdx, 8(%rax)
	movq	_ZTVSt19_Sp_counted_deleterIPvN4asio6detail10socket_ops12noop_deleterESaIvELN9__gnu_cxx12_Lock_policyE2EE@GOTPCREL(%rip), %rdx
	movq	%rax, 240(%rbp)
	addq	$16, %rdx
