	.file	"TCPServer.cpp"
	.text
	.section	.rodata._ZNK4asio6detail15system_category4nameEv.str1.1,"aMS",@progbits,1
.LC0:
	.string	"asio.system"
	.section	.text._ZNK4asio6detail15system_category4nameEv,"axG",@progbits,_ZNK4asio6detail15system_category4nameEv,comdat
	.align 2
	.p2align 4
	.weak	_ZNK4asio6detail15system_category4nameEv
	.type	_ZNK4asio6detail15system_category4nameEv, @function
_ZNK4asio6detail15system_category4nameEv:
.LFB2384:
	.cfi_startproc
	leaq	.LC0(%rip), %rax
	ret
	.cfi_endproc
.LFE2384:
	.size	_ZNK4asio6detail15system_category4nameEv, .-_ZNK4asio6detail15system_category4nameEv
	.section	.rodata._ZNK4asio5error6detail14netdb_category4nameEv.str1.1,"aMS",@progbits,1
.LC1:
	.string	"asio.netdb"
	.section	.text._ZNK4asio5error6detail14netdb_category4nameEv,"axG",@progbits,_ZNK4asio5error6detail14netdb_category4nameEv,comdat
	.align 2
	.p2align 4
	.weak	_ZNK4asio5error6detail14netdb_category4nameEv
	.type	_ZNK4asio5error6detail14netdb_category4nameEv, @function
_ZNK4asio5error6detail14netdb_category4nameEv:
.LFB2424:
	.cfi_startproc
	leaq	.LC1(%rip), %rax
	ret
	.cfi_endproc
.LFE2424:
	.size	_ZNK4asio5error6detail14netdb_category4nameEv, .-_ZNK4asio5error6detail14netdb_category4nameEv
	.section	.rodata._ZNK4asio5error6detail17addrinfo_category4nameEv.str1.1,"aMS",@progbits,1
.LC2:
	.string	"asio.addrinfo"
	.section	.text._ZNK4asio5error6detail17addrinfo_category4nameEv,"axG",@progbits,_ZNK4asio5error6detail17addrinfo_category4nameEv,comdat
	.align 2
	.p2align 4
	.weak	_ZNK4asio5error6detail17addrinfo_category4nameEv
	.type	_ZNK4asio5error6detail17addrinfo_category4nameEv, @function
_ZNK4asio5error6detail17addrinfo_category4nameEv:
.LFB2430:
	.cfi_startproc
	leaq	.LC2(%rip), %rax
	ret
	.cfi_endproc
.LFE2430:
	.size	_ZNK4asio5error6detail17addrinfo_category4nameEv, .-_ZNK4asio5error6detail17addrinfo_category4nameEv
	.section	.rodata._ZNK4asio5error6detail13misc_category4nameEv.str1.1,"aMS",@progbits,1
.LC3:
	.string	"asio.misc"
	.section	.text._ZNK4asio5error6detail13misc_category4nameEv,"axG",@progbits,_ZNK4asio5error6detail13misc_category4nameEv,comdat
	.align 2
	.p2align 4
	.weak	_ZNK4asio5error6detail13misc_category4nameEv
	.type	_ZNK4asio5error6detail13misc_category4nameEv, @function
_ZNK4asio5error6detail13misc_category4nameEv:
.LFB2436:
	.cfi_startproc
	leaq	.LC3(%rip), %rax
	ret
	.cfi_endproc
.LFE2436:
	.size	_ZNK4asio5error6detail13misc_category4nameEv, .-_ZNK4asio5error6detail13misc_category4nameEv
	.section	.text._ZN4asio10io_service7service12fork_serviceENS0_10fork_eventE,"axG",@progbits,_ZN4asio10io_service7service12fork_serviceENS0_10fork_eventE,comdat
	.align 2
	.p2align 4
	.weak	_ZN4asio10io_service7service12fork_serviceENS0_10fork_eventE
	.type	_ZN4asio10io_service7service12fork_serviceENS0_10fork_eventE, @function
_ZN4asio10io_service7service12fork_serviceENS0_10fork_eventE:
.LFB3416:
	.cfi_startproc
	ret
	.cfi_endproc
.LFE3416:
	.size	_ZN4asio10io_service7service12fork_serviceENS0_10fork_eventE, .-_ZN4asio10io_service7service12fork_serviceENS0_10fork_eventE
	.section	.text._ZNKSt5ctypeIcE8do_widenEc,"axG",@progbits,_ZNKSt5ctypeIcE8do_widenEc,comdat
	.align 2
	.p2align 4
	.weak	_ZNKSt5ctypeIcE8do_widenEc
	.type	_ZNKSt5ctypeIcE8do_widenEc, @function
_ZNKSt5ctypeIcE8do_widenEc:
.LFB4602:
	.cfi_startproc
	movl	%esi, %eax
	ret
	.cfi_endproc
.LFE4602:
	.size	_ZNKSt5ctypeIcE8do_widenEc, .-_ZNKSt5ctypeIcE8do_widenEc
	.section	.text._ZN4asio21stream_socket_serviceINS_2ip3tcpEED2Ev,"axG",@progbits,_ZN4asio21stream_socket_serviceINS_2ip3tcpEED5Ev,comdat
	.align 2
	.p2align 4
	.weak	_ZN4asio21stream_socket_serviceINS_2ip3tcpEED2Ev
	.type	_ZN4asio21stream_socket_serviceINS_2ip3tcpEED2Ev, @function
_ZN4asio21stream_socket_serviceINS_2ip3tcpEED2Ev:
.LFB9346:
	.cfi_startproc
	ret
	.cfi_endproc
.LFE9346:
	.size	_ZN4asio21stream_socket_serviceINS_2ip3tcpEED2Ev, .-_ZN4asio21stream_socket_serviceINS_2ip3tcpEED2Ev
	.weak	_ZN4asio21stream_socket_serviceINS_2ip3tcpEED1Ev
	.set	_ZN4asio21stream_socket_serviceINS_2ip3tcpEED1Ev,_ZN4asio21stream_socket_serviceINS_2ip3tcpEED2Ev
	.section	.text._ZN4asio23socket_acceptor_serviceINS_2ip3tcpEED2Ev,"axG",@progbits,_ZN4asio23socket_acceptor_serviceINS_2ip3tcpEED5Ev,comdat
	.align 2
	.p2align 4
	.weak	_ZN4asio23socket_acceptor_serviceINS_2ip3tcpEED2Ev
	.type	_ZN4asio23socket_acceptor_serviceINS_2ip3tcpEED2Ev, @function
_ZN4asio23socket_acceptor_serviceINS_2ip3tcpEED2Ev:
.LFB9350:
	.cfi_startproc
	ret
	.cfi_endproc
.LFE9350:
	.size	_ZN4asio23socket_acceptor_serviceINS_2ip3tcpEED2Ev, .-_ZN4asio23socket_acceptor_serviceINS_2ip3tcpEED2Ev
	.weak	_ZN4asio23socket_acceptor_serviceINS_2ip3tcpEED1Ev
	.set	_ZN4asio23socket_acceptor_serviceINS_2ip3tcpEED1Ev,_ZN4asio23socket_acceptor_serviceINS_2ip3tcpEED2Ev
	.section	.text._ZN4asio6detail7tss_ptrINS0_10call_stackINS0_15task_io_serviceENS0_27task_io_service_thread_infoEE7contextEED2Ev,"axG",@progbits,_ZN4asio6detail7tss_ptrINS0_10call_stackINS0_15task_io_serviceENS0_27task_io_service_thread_infoEE7contextEED5Ev,comdat
	.align 2
	.p2align 4
	.weak	_ZN4asio6detail7tss_ptrINS0_10call_stackINS0_15task_io_serviceENS0_27task_io_service_thread_infoEE7contextEED2Ev
	.type	_ZN4asio6detail7tss_ptrINS0_10call_stackINS0_15task_io_serviceENS0_27task_io_service_thread_infoEE7contextEED2Ev, @function
_ZN4asio6detail7tss_ptrINS0_10call_stackINS0_15task_io_serviceENS0_27task_io_service_thread_infoEE7contextEED2Ev:
.LFB9423:
	.cfi_startproc
	ret
	.cfi_endproc
.LFE9423:
	.size	_ZN4asio6detail7tss_ptrINS0_10call_stackINS0_15task_io_serviceENS0_27task_io_service_thread_infoEE7contextEED2Ev, .-_ZN4asio6detail7tss_ptrINS0_10call_stackINS0_15task_io_serviceENS0_27task_io_service_thread_infoEE7contextEED2Ev
	.weak	_ZN4asio6detail7tss_ptrINS0_10call_stackINS0_15task_io_serviceENS0_27task_io_service_thread_infoEE7contextEED1Ev
	.set	_ZN4asio6detail7tss_ptrINS0_10call_stackINS0_15task_io_serviceENS0_27task_io_service_thread_infoEE7contextEED1Ev,_ZN4asio6detail7tss_ptrINS0_10call_stackINS0_15task_io_serviceENS0_27task_io_service_thread_infoEE7contextEED2Ev
	.section	.text._ZN4asio6detail10service_idINS0_13epoll_reactorEED2Ev,"axG",@progbits,_ZN4asio6detail10service_idINS0_13epoll_reactorEED5Ev,comdat
	.align 2
	.p2align 4
	.weak	_ZN4asio6detail10service_idINS0_13epoll_reactorEED2Ev
	.type	_ZN4asio6detail10service_idINS0_13epoll_reactorEED2Ev, @function
_ZN4asio6detail10service_idINS0_13epoll_reactorEED2Ev:
.LFB9426:
	.cfi_startproc
	ret
	.cfi_endproc
.LFE9426:
	.size	_ZN4asio6detail10service_idINS0_13epoll_reactorEED2Ev, .-_ZN4asio6detail10service_idINS0_13epoll_reactorEED2Ev
	.weak	_ZN4asio6detail10service_idINS0_13epoll_reactorEED1Ev
	.set	_ZN4asio6detail10service_idINS0_13epoll_reactorEED1Ev,_ZN4asio6detail10service_idINS0_13epoll_reactorEED2Ev
	.section	.text._ZN4asio6detail10service_idINS0_15task_io_serviceEED2Ev,"axG",@progbits,_ZN4asio6detail10service_idINS0_15task_io_serviceEED5Ev,comdat
	.align 2
	.p2align 4
	.weak	_ZN4asio6detail10service_idINS0_15task_io_serviceEED2Ev
	.type	_ZN4asio6detail10service_idINS0_15task_io_serviceEED2Ev, @function
_ZN4asio6detail10service_idINS0_15task_io_serviceEED2Ev:
.LFB9429:
	.cfi_startproc
	ret
	.cfi_endproc
.LFE9429:
	.size	_ZN4asio6detail10service_idINS0_15task_io_serviceEED2Ev, .-_ZN4asio6detail10service_idINS0_15task_io_serviceEED2Ev
	.weak	_ZN4asio6detail10service_idINS0_15task_io_serviceEED1Ev
	.set	_ZN4asio6detail10service_idINS0_15task_io_serviceEED1Ev,_ZN4asio6detail10service_idINS0_15task_io_serviceEED2Ev
	.section	.text._ZN4asio6detail7tss_ptrINS0_10call_stackINS0_14strand_service11strand_implEhE7contextEED2Ev,"axG",@progbits,_ZN4asio6detail7tss_ptrINS0_10call_stackINS0_14strand_service11strand_implEhE7contextEED5Ev,comdat
	.align 2
	.p2align 4
	.weak	_ZN4asio6detail7tss_ptrINS0_10call_stackINS0_14strand_service11strand_implEhE7contextEED2Ev
	.type	_ZN4asio6detail7tss_ptrINS0_10call_stackINS0_14strand_service11strand_implEhE7contextEED2Ev, @function
_ZN4asio6detail7tss_ptrINS0_10call_stackINS0_14strand_service11strand_implEhE7contextEED2Ev:
.LFB9432:
	.cfi_startproc
	ret
	.cfi_endproc
.LFE9432:
	.size	_ZN4asio6detail7tss_ptrINS0_10call_stackINS0_14strand_service11strand_implEhE7contextEED2Ev, .-_ZN4asio6detail7tss_ptrINS0_10call_stackINS0_14strand_service11strand_implEhE7contextEED2Ev
	.weak	_ZN4asio6detail7tss_ptrINS0_10call_stackINS0_14strand_service11strand_implEhE7contextEED1Ev
	.set	_ZN4asio6detail7tss_ptrINS0_10call_stackINS0_14strand_service11strand_implEhE7contextEED1Ev,_ZN4asio6detail7tss_ptrINS0_10call_stackINS0_14strand_service11strand_implEhE7contextEED2Ev
	.section	.text._ZN4asio6detail10service_idINS0_14strand_serviceEED2Ev,"axG",@progbits,_ZN4asio6detail10service_idINS0_14strand_serviceEED5Ev,comdat
	.align 2
	.p2align 4
	.weak	_ZN4asio6detail10service_idINS0_14strand_serviceEED2Ev
	.type	_ZN4asio6detail10service_idINS0_14strand_serviceEED2Ev, @function
_ZN4asio6detail10service_idINS0_14strand_serviceEED2Ev:
.LFB9435:
	.cfi_startproc
	ret
	.cfi_endproc
.LFE9435:
	.size	_ZN4asio6detail10service_idINS0_14strand_serviceEED2Ev, .-_ZN4asio6detail10service_idINS0_14strand_serviceEED2Ev
	.weak	_ZN4asio6detail10service_idINS0_14strand_serviceEED1Ev
	.set	_ZN4asio6detail10service_idINS0_14strand_serviceEED1Ev,_ZN4asio6detail10service_idINS0_14strand_serviceEED2Ev
	.section	.text._ZN4asio6detail10service_idINS_23socket_acceptor_serviceINS_2ip3tcpEEEED2Ev,"axG",@progbits,_ZN4asio6detail10service_idINS_23socket_acceptor_serviceINS_2ip3tcpEEEED5Ev,comdat
	.align 2
	.p2align 4
	.weak	_ZN4asio6detail10service_idINS_23socket_acceptor_serviceINS_2ip3tcpEEEED2Ev
	.type	_ZN4asio6detail10service_idINS_23socket_acceptor_serviceINS_2ip3tcpEEEED2Ev, @function
_ZN4asio6detail10service_idINS_23socket_acceptor_serviceINS_2ip3tcpEEEED2Ev:
.LFB9438:
	.cfi_startproc
	ret
	.cfi_endproc
.LFE9438:
	.size	_ZN4asio6detail10service_idINS_23socket_acceptor_serviceINS_2ip3tcpEEEED2Ev, .-_ZN4asio6detail10service_idINS_23socket_acceptor_serviceINS_2ip3tcpEEEED2Ev
	.weak	_ZN4asio6detail10service_idINS_23socket_acceptor_serviceINS_2ip3tcpEEEED1Ev
	.set	_ZN4asio6detail10service_idINS_23socket_acceptor_serviceINS_2ip3tcpEEEED1Ev,_ZN4asio6detail10service_idINS_23socket_acceptor_serviceINS_2ip3tcpEEEED2Ev
	.section	.text._ZN4asio6detail10service_idINS_21stream_socket_serviceINS_2ip3tcpEEEED2Ev,"axG",@progbits,_ZN4asio6detail10service_idINS_21stream_socket_serviceINS_2ip3tcpEEEED5Ev,comdat
	.align 2
	.p2align 4
	.weak	_ZN4asio6detail10service_idINS_21stream_socket_serviceINS_2ip3tcpEEEED2Ev
	.type	_ZN4asio6detail10service_idINS_21stream_socket_serviceINS_2ip3tcpEEEED2Ev, @function
_ZN4asio6detail10service_idINS_21stream_socket_serviceINS_2ip3tcpEEEED2Ev:
.LFB9441:
	.cfi_startproc
	ret
	.cfi_endproc
.LFE9441:
	.size	_ZN4asio6detail10service_idINS_21stream_socket_serviceINS_2ip3tcpEEEED2Ev, .-_ZN4asio6detail10service_idINS_21stream_socket_serviceINS_2ip3tcpEEEED2Ev
	.weak	_ZN4asio6detail10service_idINS_21stream_socket_serviceINS_2ip3tcpEEEED1Ev
	.set	_ZN4asio6detail10service_idINS_21stream_socket_serviceINS_2ip3tcpEEEED1Ev,_ZN4asio6detail10service_idINS_21stream_socket_serviceINS_2ip3tcpEEEED2Ev
	.section	.text._ZN4asio21stream_socket_serviceINS_2ip3tcpEE16shutdown_serviceEv,"axG",@progbits,_ZN4asio21stream_socket_serviceINS_2ip3tcpEE16shutdown_serviceEv,comdat
	.align 2
	.p2align 4
	.weak	_ZN4asio21stream_socket_serviceINS_2ip3tcpEE16shutdown_serviceEv
	.type	_ZN4asio21stream_socket_serviceINS_2ip3tcpEE16shutdown_serviceEv, @function
_ZN4asio21stream_socket_serviceINS_2ip3tcpEE16shutdown_serviceEv:
.LFB9479:
	.cfi_startproc
	ret
	.cfi_endproc
.LFE9479:
	.size	_ZN4asio21stream_socket_serviceINS_2ip3tcpEE16shutdown_serviceEv, .-_ZN4asio21stream_socket_serviceINS_2ip3tcpEE16shutdown_serviceEv
	.section	.text._ZN4asio23socket_acceptor_serviceINS_2ip3tcpEE16shutdown_serviceEv,"axG",@progbits,_ZN4asio23socket_acceptor_serviceINS_2ip3tcpEE16shutdown_serviceEv,comdat
	.align 2
	.p2align 4
	.weak	_ZN4asio23socket_acceptor_serviceINS_2ip3tcpEE16shutdown_serviceEv
	.type	_ZN4asio23socket_acceptor_serviceINS_2ip3tcpEE16shutdown_serviceEv, @function
_ZN4asio23socket_acceptor_serviceINS_2ip3tcpEE16shutdown_serviceEv:
.LFB9480:
	.cfi_startproc
	ret
	.cfi_endproc
.LFE9480:
	.size	_ZN4asio23socket_acceptor_serviceINS_2ip3tcpEE16shutdown_serviceEv, .-_ZN4asio23socket_acceptor_serviceINS_2ip3tcpEE16shutdown_serviceEv
	.section	.text._ZN4asio23socket_acceptor_serviceINS_2ip3tcpEED0Ev,"axG",@progbits,_ZN4asio23socket_acceptor_serviceINS_2ip3tcpEED5Ev,comdat
	.align 2
	.p2align 4
	.weak	_ZN4asio23socket_acceptor_serviceINS_2ip3tcpEED0Ev
	.type	_ZN4asio23socket_acceptor_serviceINS_2ip3tcpEED0Ev, @function
_ZN4asio23socket_acceptor_serviceINS_2ip3tcpEED0Ev:
.LFB9352:
	.cfi_startproc
	movl	$48, %esi
	jmp	_ZdlPvm@PLT
	.cfi_endproc
.LFE9352:
	.size	_ZN4asio23socket_acceptor_serviceINS_2ip3tcpEED0Ev, .-_ZN4asio23socket_acceptor_serviceINS_2ip3tcpEED0Ev
	.section	.text._ZN4asio21stream_socket_serviceINS_2ip3tcpEED0Ev,"axG",@progbits,_ZN4asio21stream_socket_serviceINS_2ip3tcpEED5Ev,comdat
	.align 2
	.p2align 4
	.weak	_ZN4asio21stream_socket_serviceINS_2ip3tcpEED0Ev
	.type	_ZN4asio21stream_socket_serviceINS_2ip3tcpEED0Ev, @function
_ZN4asio21stream_socket_serviceINS_2ip3tcpEED0Ev:
.LFB9348:
	.cfi_startproc
	movl	$48, %esi
	jmp	_ZdlPvm@PLT
	.cfi_endproc
.LFE9348:
	.size	_ZN4asio21stream_socket_serviceINS_2ip3tcpEED0Ev, .-_ZN4asio21stream_socket_serviceINS_2ip3tcpEED0Ev
	.section	.text._ZN4asio6detail15system_categoryD2Ev,"axG",@progbits,_ZN4asio6detail15system_categoryD5Ev,comdat
	.align 2
	.p2align 4
	.weak	_ZN4asio6detail15system_categoryD2Ev
	.type	_ZN4asio6detail15system_categoryD2Ev, @function
_ZN4asio6detail15system_categoryD2Ev:
.LFB9402:
	.cfi_startproc
	movq	_ZTVN4asio6detail15system_categoryE@GOTPCREL(%rip), %rax
	addq	$16, %rax
	movq	%rax, (%rdi)
	jmp	_ZNSt3_V214error_categoryD2Ev@PLT
	.cfi_endproc
.LFE9402:
	.size	_ZN4asio6detail15system_categoryD2Ev, .-_ZN4asio6detail15system_categoryD2Ev
	.weak	_ZN4asio6detail15system_categoryD1Ev
	.set	_ZN4asio6detail15system_categoryD1Ev,_ZN4asio6detail15system_categoryD2Ev
	.section	.text._ZN4asio6detail15system_categoryD0Ev,"axG",@progbits,_ZN4asio6detail15system_categoryD5Ev,comdat
	.align 2
	.p2align 4
	.weak	_ZN4asio6detail15system_categoryD0Ev
	.type	_ZN4asio6detail15system_categoryD0Ev, @function
_ZN4asio6detail15system_categoryD0Ev:
.LFB9404:
	.cfi_startproc
	movq	_ZTVN4asio6detail15system_categoryE@GOTPCREL(%rip), %rax
	pushq	%rbp
	.cfi_def_cfa_offset 16
	.cfi_offset 6, -16
	movq	%rdi, %rbp
	addq	$16, %rax
	movq	%rax, (%rdi)
	call	_ZNSt3_V214error_categoryD2Ev@PLT
	movq	%rbp, %rdi
	movl	$8, %esi
	popq	%rbp
	.cfi_def_cfa_offset 8
	jmp	_ZdlPvm@PLT
	.cfi_endproc
.LFE9404:
	.size	_ZN4asio6detail15system_categoryD0Ev, .-_ZN4asio6detail15system_categoryD0Ev
	.section	.text._ZN4asio5error6detail13misc_categoryD2Ev,"axG",@progbits,_ZN4asio5error6detail13misc_categoryD5Ev,comdat
	.align 2
	.p2align 4
	.weak	_ZN4asio5error6detail13misc_categoryD2Ev
	.type	_ZN4asio5error6detail13misc_categoryD2Ev, @function
_ZN4asio5error6detail13misc_categoryD2Ev:
.LFB9382:
	.cfi_startproc
	movq	_ZTVN4asio5error6detail13misc_categoryE@GOTPCREL(%rip), %rax
	addq	$16, %rax
	movq	%rax, (%rdi)
	jmp	_ZNSt3_V214error_categoryD2Ev@PLT
	.cfi_endproc
.LFE9382:
	.size	_ZN4asio5error6detail13misc_categoryD2Ev, .-_ZN4asio5error6detail13misc_categoryD2Ev
	.weak	_ZN4asio5error6detail13misc_categoryD1Ev
	.set	_ZN4asio5error6detail13misc_categoryD1Ev,_ZN4asio5error6detail13misc_categoryD2Ev
	.section	.text._ZN4asio5error6detail13misc_categoryD0Ev,"axG",@progbits,_ZN4asio5error6detail13misc_categoryD5Ev,comdat
	.align 2
	.p2align 4
	.weak	_ZN4asio5error6detail13misc_categoryD0Ev
	.type	_ZN4asio5error6detail13misc_categoryD0Ev, @function
_ZN4asio5error6detail13misc_categoryD0Ev:
.LFB9384:
	.cfi_startproc
	movq	_ZTVN4asio5error6detail13misc_categoryE@GOTPCREL(%rip), %rax
	pushq	%rbp
	.cfi_def_cfa_offset 16
	.cfi_offset 6, -16
	movq	%rdi, %rbp
	addq	$16, %rax
	movq	%rax, (%rdi)
	call	_ZNSt3_V214error_categoryD2Ev@PLT
	movq	%rbp, %rdi
	movl	$8, %esi
	popq	%rbp
	.cfi_def_cfa_offset 8
	jmp	_ZdlPvm@PLT
	.cfi_endproc
.LFE9384:
	.size	_ZN4asio5error6detail13misc_categoryD0Ev, .-_ZN4asio5error6detail13misc_categoryD0Ev
	.section	.text._ZN4asio5error6detail14netdb_categoryD2Ev,"axG",@progbits,_ZN4asio5error6detail14netdb_categoryD5Ev,comdat
	.align 2
	.p2align 4
	.weak	_ZN4asio5error6detail14netdb_categoryD2Ev
	.type	_ZN4asio5error6detail14netdb_categoryD2Ev, @function
_ZN4asio5error6detail14netdb_categoryD2Ev:
.LFB9390:
	.cfi_startproc
	movq	_ZTVN4asio5error6detail14netdb_categoryE@GOTPCREL(%rip), %rax
	addq	$16, %rax
	movq	%rax, (%rdi)
	jmp	_ZNSt3_V214error_categoryD2Ev@PLT
	.cfi_endproc
.LFE9390:
	.size	_ZN4asio5error6detail14netdb_categoryD2Ev, .-_ZN4asio5error6detail14netdb_categoryD2Ev
	.weak	_ZN4asio5error6detail14netdb_categoryD1Ev
	.set	_ZN4asio5error6detail14netdb_categoryD1Ev,_ZN4asio5error6detail14netdb_categoryD2Ev
	.section	.text._ZN4asio5error6detail14netdb_categoryD0Ev,"axG",@progbits,_ZN4asio5error6detail14netdb_categoryD5Ev,comdat
	.align 2
	.p2align 4
	.weak	_ZN4asio5error6detail14netdb_categoryD0Ev
	.type	_ZN4asio5error6detail14netdb_categoryD0Ev, @function
_ZN4asio5error6detail14netdb_categoryD0Ev:
.LFB9392:
	.cfi_startproc
	movq	_ZTVN4asio5error6detail14netdb_categoryE@GOTPCREL(%rip), %rax
	pushq	%rbp
	.cfi_def_cfa_offset 16
	.cfi_offset 6, -16
	movq	%rdi, %rbp
	addq	$16, %rax
	movq	%rax, (%rdi)
	call	_ZNSt3_V214error_categoryD2Ev@PLT
	movq	%rbp, %rdi
	movl	$8, %esi
	popq	%rbp
	.cfi_def_cfa_offset 8
	jmp	_ZdlPvm@PLT
	.cfi_endproc
.LFE9392:
	.size	_ZN4asio5error6detail14netdb_categoryD0Ev, .-_ZN4asio5error6detail14netdb_categoryD0Ev
	.section	.text._ZN4asio5error6detail17addrinfo_categoryD2Ev,"axG",@progbits,_ZN4asio5error6detail17addrinfo_categoryD5Ev,comdat
	.align 2
	.p2align 4
	.weak	_ZN4asio5error6detail17addrinfo_categoryD2Ev
	.type	_ZN4asio5error6detail17addrinfo_categoryD2Ev, @function
_ZN4asio5error6detail17addrinfo_categoryD2Ev:
.LFB9386:
	.cfi_startproc
	movq	_ZTVN4asio5error6detail17addrinfo_categoryE@GOTPCREL(%rip), %rax
	addq	$16, %rax
	movq	%rax, (%rdi)
	jmp	_ZNSt3_V214error_categoryD2Ev@PLT
	.cfi_endproc
.LFE9386:
	.size	_ZN4asio5error6detail17addrinfo_categoryD2Ev, .-_ZN4asio5error6detail17addrinfo_categoryD2Ev
	.weak	_ZN4asio5error6detail17addrinfo_categoryD1Ev
	.set	_ZN4asio5error6detail17addrinfo_categoryD1Ev,_ZN4asio5error6detail17addrinfo_categoryD2Ev
	.section	.text._ZN4asio5error6detail17addrinfo_categoryD0Ev,"axG",@progbits,_ZN4asio5error6detail17addrinfo_categoryD5Ev,comdat
	.align 2
	.p2align 4
	.weak	_ZN4asio5error6detail17addrinfo_categoryD0Ev
	.type	_ZN4asio5error6detail17addrinfo_categoryD0Ev, @function
_ZN4asio5error6detail17addrinfo_categoryD0Ev:
.LFB9388:
	.cfi_startproc
	movq	_ZTVN4asio5error6detail17addrinfo_categoryE@GOTPCREL(%rip), %rax
	pushq	%rbp
	.cfi_def_cfa_offset 16
	.cfi_offset 6, -16
	movq	%rdi, %rbp
	addq	$16, %rax
	movq	%rax, (%rdi)
	call	_ZNSt3_V214error_categoryD2Ev@PLT
	movq	%rbp, %rdi
	movl	$8, %esi
	popq	%rbp
	.cfi_def_cfa_offset 8
	jmp	_ZdlPvm@PLT
	.cfi_endproc
.LFE9388:
	.size	_ZN4asio5error6detail17addrinfo_categoryD0Ev, .-_ZN4asio5error6detail17addrinfo_categoryD0Ev
	.section	.text.unlikely,"ax",@progbits
	.type	_ZN4asio6detail15throw_exceptionISt8bad_castEEvRKT_.isra.0, @function
_ZN4asio6detail15throw_exceptionISt8bad_castEEvRKT_.isra.0:
.LFB9557:
	.cfi_startproc
	pushq	%rax
	.cfi_def_cfa_offset 16
	popq	%rax
	.cfi_def_cfa_offset 8
	movl	$8, %edi
	pushq	%rax
	.cfi_def_cfa_offset 16
	call	__cxa_allocate_exception@PLT
	movq	_ZNSt8bad_castD1Ev@GOTPCREL(%rip), %rdx
	movq	_ZTISt8bad_cast@GOTPCREL(%rip), %rsi
	movq	%rax, %rdi
	movq	_ZTVSt8bad_cast@GOTPCREL(%rip), %rax
	addq	$16, %rax
	movq	%rax, (%rdi)
	call	__cxa_throw@PLT
	.cfi_endproc
.LFE9557:
	.size	_ZN4asio6detail15throw_exceptionISt8bad_castEEvRKT_.isra.0, .-_ZN4asio6detail15throw_exceptionISt8bad_castEEvRKT_.isra.0
	.section	.text._ZN4asio6detail13epoll_reactorD2Ev,"axG",@progbits,_ZN4asio6detail13epoll_reactorD5Ev,comdat
	.align 2
	.p2align 4
	.weak	_ZN4asio6detail13epoll_reactorD2Ev
	.type	_ZN4asio6detail13epoll_reactorD2Ev, @function
_ZN4asio6detail13epoll_reactorD2Ev:
.LFB3293:
	.cfi_startproc
	.cfi_personality 0x9b,DW.ref.__gxx_personality_v0
	.cfi_lsda 0x1b,.LLSDA3293
	pushq	%r15
	.cfi_def_cfa_offset 16
	.cfi_offset 15, -16
	pushq	%r14
	.cfi_def_cfa_offset 24
	.cfi_offset 14, -24
	pushq	%r13
	.cfi_def_cfa_offset 32
	.cfi_offset 13, -32
	pushq	%r12
	.cfi_def_cfa_offset 40
	.cfi_offset 12, -40
	pushq	%rbp
	.cfi_def_cfa_offset 48
	.cfi_offset 6, -48
	pushq	%rbx
	.cfi_def_cfa_offset 56
	.cfi_offset 3, -56
	subq	$56, %rsp
	.cfi_def_cfa_offset 112
	movq	%rdi, 8(%rsp)
	movq	%fs:40, %rax
	movq	%rax, 40(%rsp)
	movq	_ZTVN4asio6detail13epoll_reactorE@GOTPCREL(%rip), %rax
	addq	$16, %rax
	movq	%rax, (%rdi)
	movl	96(%rdi), %edi
	cmpl	$-1, %edi
	je	.L36
	call	close@PLT
.L36:
	movq	8(%rsp), %rax
	movl	100(%rax), %edi
	cmpl	$-1, %edi
	je	.L37
	call	close@PLT
.L37:
	movq	8(%rsp), %rax
	leaq	16(%rsp), %rbp
	movq	160(%rax), %r13
	testq	%r13, %r13
	je	.L48
	.p2align 4,,10
	.p2align 3
.L38:
	movq	%r13, %r12
	movq	24(%r13), %r13
	leaq	128(%r12), %r15
	leaq	80(%r12), %r14
.L43:
	movq	(%r15), %rsi
	testq	%rsi, %rsi
	je	.L45
	movq	%rsi, (%rsp)
	call	_ZNSt3_V215system_categoryEv@PLT
	movq	(%rsp), %rsi
	movq	%rax, %rbx
	jmp	.L47
	.p2align 4,,10
	.p2align 3
.L44:
	movq	$0, (%rsi)
	movq	8(%rsi), %rax
	xorl	%ecx, %ecx
	movq	%rbp, %rdx
	movl	$0, 16(%rsp)
	xorl	%edi, %edi
	movq	%rbx, 24(%rsp)
	call	*%rax
	movq	(%r15), %rsi
	testq	%rsi, %rsi
	je	.L45
.L47:
	movq	(%rsi), %rax
	movq	%rax, (%r15)
	testq	%rax, %rax
	jne	.L44
	movq	$0, 8(%r15)
	jmp	.L44
	.p2align 4,,10
	.p2align 3
.L45:
	subq	$16, %r15
	cmpq	%r14, %r15
	jne	.L43
	leaq	40(%r12), %rdi
	call	pthread_mutex_destroy@PLT
	movl	$152, %esi
	movq	%r12, %rdi
	call	_ZdlPvm@PLT
	testq	%r13, %r13
	jne	.L38
.L48:
	movq	8(%rsp), %rax
	movq	168(%rax), %r13
	testq	%r13, %r13
	je	.L39
	leaq	16(%rsp), %rbp
	.p2align 4,,10
	.p2align 3
.L40:
	movq	%r13, %r12
	movq	24(%r13), %r13
	leaq	128(%r12), %r15
	leaq	80(%r12), %r14
.L53:
	movq	(%r15), %rsi
	testq	%rsi, %rsi
	je	.L55
	movq	%rsi, (%rsp)
	call	_ZNSt3_V215system_categoryEv@PLT
	movq	(%rsp), %rsi
	movq	%rax, %rbx
	jmp	.L57
	.p2align 4,,10
	.p2align 3
.L54:
	movq	$0, (%rsi)
	movq	8(%rsi), %rax
	xorl	%ecx, %ecx
	movq	%rbp, %rdx
	movl	$0, 16(%rsp)
	xorl	%edi, %edi
	movq	%rbx, 24(%rsp)
	call	*%rax
	movq	(%r15), %rsi
	testq	%rsi, %rsi
	je	.L55
.L57:
	movq	(%rsi), %rax
	movq	%rax, (%r15)
	testq	%rax, %rax
	jne	.L54
	movq	$0, 8(%r15)
	jmp	.L54
	.p2align 4,,10
	.p2align 3
.L55:
	subq	$16, %r15
	cmpq	%r14, %r15
	jne	.L53
	leaq	40(%r12), %rdi
	call	pthread_mutex_destroy@PLT
	movl	$152, %esi
	movq	%r12, %rdi
	call	_ZdlPvm@PLT
	testq	%r13, %r13
	jne	.L40
.L39:
	movq	8(%rsp), %rbx
	leaq	120(%rbx), %rdi
	call	pthread_mutex_destroy@PLT
	movl	92(%rbx), %r8d
	cmpl	$-1, %r8d
	je	.L98
	movq	8(%rsp), %rbx
	movl	88(%rbx), %edi
	cmpl	%edi, %r8d
	jne	.L99
.L59:
	call	close@PLT
.L60:
	movq	40(%rsp), %rax
	subq	%fs:40, %rax
	jne	.L100
	movq	8(%rsp), %rdi
	addq	$56, %rsp
	.cfi_remember_state
	.cfi_def_cfa_offset 56
	popq	%rbx
	.cfi_def_cfa_offset 48
	popq	%rbp
	.cfi_def_cfa_offset 40
	addq	$48, %rdi
	popq	%r12
	.cfi_def_cfa_offset 32
	popq	%r13
	.cfi_def_cfa_offset 24
	popq	%r14
	.cfi_def_cfa_offset 16
	popq	%r15
	.cfi_def_cfa_offset 8
	jmp	pthread_mutex_destroy@PLT
.L99:
	.cfi_restore_state
	movl	%r8d, %edi
	call	close@PLT
	movl	88(%rbx), %edi
.L58:
	cmpl	$-1, %edi
	je	.L60
	jmp	.L59
.L98:
	movq	8(%rsp), %rax
	movl	88(%rax), %edi
	jmp	.L58
.L100:
	call	__stack_chk_fail@PLT
	.cfi_endproc
.LFE3293:
	.globl	__gxx_personality_v0
	.section	.gcc_except_table._ZN4asio6detail13epoll_reactorD2Ev,"aG",@progbits,_ZN4asio6detail13epoll_reactorD5Ev,comdat
.LLSDA3293:
	.byte	0xff
	.byte	0xff
	.byte	0x1
	.uleb128 .LLSDACSE3293-.LLSDACSB3293
.LLSDACSB3293:
.LLSDACSE3293:
	.section	.text._ZN4asio6detail13epoll_reactorD2Ev,"axG",@progbits,_ZN4asio6detail13epoll_reactorD5Ev,comdat
	.size	_ZN4asio6detail13epoll_reactorD2Ev, .-_ZN4asio6detail13epoll_reactorD2Ev
	.weak	_ZN4asio6detail13epoll_reactorD1Ev
	.set	_ZN4asio6detail13epoll_reactorD1Ev,_ZN4asio6detail13epoll_reactorD2Ev
	.section	.text._ZN4asio6detail13epoll_reactorD0Ev,"axG",@progbits,_ZN4asio6detail13epoll_reactorD5Ev,comdat
	.align 2
	.p2align 4
	.weak	_ZN4asio6detail13epoll_reactorD0Ev
	.type	_ZN4asio6detail13epoll_reactorD0Ev, @function
_ZN4asio6detail13epoll_reactorD0Ev:
.LFB3295:
	.cfi_startproc
	.cfi_personality 0x9b,DW.ref.__gxx_personality_v0
	.cfi_lsda 0x1b,.LLSDA3295
	pushq	%r15
	.cfi_def_cfa_offset 16
	.cfi_offset 15, -16
	pushq	%r14
	.cfi_def_cfa_offset 24
	.cfi_offset 14, -24
	pushq	%r13
	.cfi_def_cfa_offset 32
	.cfi_offset 13, -32
	pushq	%r12
	.cfi_def_cfa_offset 40
	.cfi_offset 12, -40
	pushq	%rbp
	.cfi_def_cfa_offset 48
	.cfi_offset 6, -48
	pushq	%rbx
	.cfi_def_cfa_offset 56
	.cfi_offset 3, -56
	subq	$56, %rsp
	.cfi_def_cfa_offset 112
	movq	%rdi, 8(%rsp)
	movq	%fs:40, %rax
	movq	%rax, 40(%rsp)
	movq	_ZTVN4asio6detail13epoll_reactorE@GOTPCREL(%rip), %rax
	addq	$16, %rax
	movq	%rax, (%rdi)
	movl	96(%rdi), %edi
	cmpl	$-1, %edi
	je	.L102
	call	close@PLT
.L102:
	movq	8(%rsp), %rax
	movl	100(%rax), %edi
	cmpl	$-1, %edi
	je	.L103
	call	close@PLT
.L103:
	movq	8(%rsp), %rax
	leaq	16(%rsp), %rbp
	movq	160(%rax), %r13
	testq	%r13, %r13
	je	.L114
	.p2align 4,,10
	.p2align 3
.L104:
	movq	%r13, %r12
	movq	24(%r13), %r13
	leaq	144(%r12), %r15
	leaq	96(%r12), %r14
.L109:
	movq	-16(%r15), %rsi
	subq	$16, %r15
	testq	%rsi, %rsi
	je	.L111
	movq	%rsi, (%rsp)
	call	_ZNSt3_V215system_categoryEv@PLT
	movq	(%rsp), %rsi
	movq	%rax, %rbx
	jmp	.L113
	.p2align 4,,10
	.p2align 3
.L110:
	movq	$0, (%rsi)
	movq	8(%rsi), %rax
	xorl	%ecx, %ecx
	movq	%rbp, %rdx
	movl	$0, 16(%rsp)
	xorl	%edi, %edi
	movq	%rbx, 24(%rsp)
	call	*%rax
	movq	(%r15), %rsi
	testq	%rsi, %rsi
	je	.L111
.L113:
	movq	(%rsi), %rax
	movq	%rax, (%r15)
	testq	%rax, %rax
	jne	.L110
	movq	$0, 8(%r15)
	jmp	.L110
	.p2align 4,,10
	.p2align 3
.L111:
	cmpq	%r14, %r15
	jne	.L109
	leaq	40(%r12), %rdi
	call	pthread_mutex_destroy@PLT
	movl	$152, %esi
	movq	%r12, %rdi
	call	_ZdlPvm@PLT
	testq	%r13, %r13
	jne	.L104
.L114:
	movq	8(%rsp), %rax
	movq	168(%rax), %r13
	testq	%r13, %r13
	je	.L105
	leaq	16(%rsp), %rbp
	.p2align 4,,10
	.p2align 3
.L106:
	movq	%r13, %r12
	movq	24(%r13), %r13
	leaq	128(%r12), %r15
	leaq	80(%r12), %r14
.L119:
	movq	(%r15), %rsi
	testq	%rsi, %rsi
	je	.L121
	movq	%rsi, (%rsp)
	call	_ZNSt3_V215system_categoryEv@PLT
	movq	(%rsp), %rsi
	movq	%rax, %rbx
	jmp	.L123
	.p2align 4,,10
	.p2align 3
.L120:
	movq	$0, (%rsi)
	movq	8(%rsi), %rax
	xorl	%ecx, %ecx
	movq	%rbp, %rdx
	movl	$0, 16(%rsp)
	xorl	%edi, %edi
	movq	%rbx, 24(%rsp)
	call	*%rax
	movq	(%r15), %rsi
	testq	%rsi, %rsi
	je	.L121
.L123:
	movq	(%rsi), %rax
	movq	%rax, (%r15)
	testq	%rax, %rax
	jne	.L120
	movq	$0, 8(%r15)
	jmp	.L120
	.p2align 4,,10
	.p2align 3
.L121:
	subq	$16, %r15
	cmpq	%r14, %r15
	jne	.L119
	leaq	40(%r12), %rdi
	call	pthread_mutex_destroy@PLT
	movl	$152, %esi
	movq	%r12, %rdi
	call	_ZdlPvm@PLT
	testq	%r13, %r13
	jne	.L106
.L105:
	movq	8(%rsp), %rbx
	leaq	120(%rbx), %rdi
	call	pthread_mutex_destroy@PLT
	movl	92(%rbx), %r8d
	cmpl	$-1, %r8d
	je	.L164
	movq	8(%rsp), %rbx
	movl	88(%rbx), %edi
	cmpl	%edi, %r8d
	jne	.L165
.L125:
	call	close@PLT
.L126:
	movq	8(%rsp), %rax
	leaq	48(%rax), %rdi
	call	pthread_mutex_destroy@PLT
	movq	40(%rsp), %rax
	subq	%fs:40, %rax
	jne	.L166
	movq	8(%rsp), %rdi
	addq	$56, %rsp
	.cfi_remember_state
	.cfi_def_cfa_offset 56
	movl	$176, %esi
	popq	%rbx
	.cfi_def_cfa_offset 48
	popq	%rbp
	.cfi_def_cfa_offset 40
	popq	%r12
	.cfi_def_cfa_offset 32
	popq	%r13
	.cfi_def_cfa_offset 24
	popq	%r14
	.cfi_def_cfa_offset 16
	popq	%r15
	.cfi_def_cfa_offset 8
	jmp	_ZdlPvm@PLT
.L165:
	.cfi_restore_state
	movl	%r8d, %edi
	call	close@PLT
	movl	88(%rbx), %edi
.L124:
	cmpl	$-1, %edi
	je	.L126
	jmp	.L125
.L164:
	movq	8(%rsp), %rax
	movl	88(%rax), %edi
	jmp	.L124
.L166:
	call	__stack_chk_fail@PLT
	.cfi_endproc
.LFE3295:
	.section	.gcc_except_table._ZN4asio6detail13epoll_reactorD0Ev,"aG",@progbits,_ZN4asio6detail13epoll_reactorD5Ev,comdat
.LLSDA3295:
	.byte	0xff
	.byte	0xff
	.byte	0x1
	.uleb128 .LLSDACSE3295-.LLSDACSB3295
.LLSDACSB3295:
.LLSDACSE3295:
	.section	.text._ZN4asio6detail13epoll_reactorD0Ev,"axG",@progbits,_ZN4asio6detail13epoll_reactorD5Ev,comdat
	.size	_ZN4asio6detail13epoll_reactorD0Ev, .-_ZN4asio6detail13epoll_reactorD0Ev
	.section	.text._ZN4asio6detail13epoll_reactor16shutdown_serviceEv,"axG",@progbits,_ZN4asio6detail13epoll_reactor16shutdown_serviceEv,comdat
	.align 2
	.p2align 4
	.weak	_ZN4asio6detail13epoll_reactor16shutdown_serviceEv
	.type	_ZN4asio6detail13epoll_reactor16shutdown_serviceEv, @function
_ZN4asio6detail13epoll_reactor16shutdown_serviceEv:
.LFB3296:
	.cfi_startproc
	.cfi_personality 0x9b,DW.ref.__gxx_personality_v0
	.cfi_lsda 0x1b,.LLSDA3296
	pushq	%r13
	.cfi_def_cfa_offset 16
	.cfi_offset 13, -16
	pushq	%r12
	.cfi_def_cfa_offset 24
	.cfi_offset 12, -24
	pushq	%rbp
	.cfi_def_cfa_offset 32
	.cfi_offset 6, -32
	leaq	48(%rdi), %rbp
	pushq	%rbx
	.cfi_def_cfa_offset 40
	.cfi_offset 3, -40
	movq	%rdi, %rbx
	movq	%rbp, %rdi
	subq	$72, %rsp
	.cfi_def_cfa_offset 112
	movq	%fs:40, %rax
	movq	%rax, 56(%rsp)
	xorl	%eax, %eax
	call	pthread_mutex_lock@PLT
	movb	$1, 112(%rbx)
	movq	%rbp, %rdi
	call	pthread_mutex_unlock@PLT
	movq	160(%rbx), %rax
	pxor	%xmm0, %xmm0
	movaps	%xmm0, 16(%rsp)
	testq	%rax, %rax
	je	.L242
	xorl	%esi, %esi
	xorl	%edx, %edx
	xorl	%r8d, %r8d
	xorl	%ebp, %ebp
	pxor	%xmm0, %xmm0
	jmp	.L168
	.p2align 4,,10
	.p2align 3
.L172:
	movq	%rcx, (%rdx)
.L173:
	movq	104(%rax), %rdx
	movl	$1, %esi
	movups	%xmm0, 96(%rax)
.L171:
	movq	112(%rax), %rcx
	testq	%rcx, %rcx
	je	.L174
	testq	%rdx, %rdx
	je	.L243
	movq	%rcx, (%rdx)
.L176:
	movq	120(%rax), %rdx
	movl	$1, %esi
	movups	%xmm0, 112(%rax)
.L174:
	movq	128(%rax), %rcx
	testq	%rcx, %rcx
	je	.L177
	testq	%rdx, %rdx
	je	.L244
	movq	%rcx, (%rdx)
.L179:
	movq	136(%rax), %rdx
	movl	$1, %esi
	movups	%xmm0, 128(%rax)
.L177:
	movq	24(%rax), %rcx
	movb	$1, 144(%rax)
	movq	%rcx, 160(%rbx)
	movq	32(%rax), %rcx
	testq	%rcx, %rcx
	je	.L180
	movq	24(%rax), %rdi
	movq	%rdi, 24(%rcx)
.L180:
	movq	24(%rax), %rcx
	testq	%rcx, %rcx
	je	.L181
	movq	32(%rax), %rdi
	movq	%rdi, 32(%rcx)
.L181:
	movq	168(%rbx), %rcx
	movq	$0, 32(%rax)
	movq	%rcx, 24(%rax)
	movq	%rax, 168(%rbx)
	movq	160(%rbx), %rax
	testq	%rax, %rax
	je	.L245
.L168:
	movq	96(%rax), %rcx
	testq	%rcx, %rcx
	je	.L171
	testq	%rdx, %rdx
	jne	.L172
	movq	%rcx, %rbp
	movl	$1, %r8d
	jmp	.L173
	.p2align 4,,10
	.p2align 3
.L244:
	movq	%rcx, %rbp
	movl	$1, %r8d
	jmp	.L179
	.p2align 4,,10
	.p2align 3
.L243:
	movq	%rcx, %rbp
	movl	$1, %r8d
	jmp	.L176
	.p2align 4,,10
	.p2align 3
.L245:
	testb	%r8b, %r8b
	je	.L199
	movq	%rbp, 16(%rsp)
.L184:
	testb	%sil, %sil
	je	.L185
	movq	%rdx, 24(%rsp)
.L185:
	movq	104(%rbx), %rbx
	testq	%rbx, %rbx
	je	.L186
.L170:
	leaq	16(%rsp), %rbp
	.p2align 4,,10
	.p2align 3
.L187:
	movq	(%rbx), %rax
	movq	%rbp, %rsi
	movq	%rbx, %rdi
.LEHB0:
	call	*48(%rax)
.LEHE0:
	movq	8(%rbx), %rbx
	testq	%rbx, %rbx
	jne	.L187
	movq	16(%rsp), %rbp
.L186:
	testq	%rbp, %rbp
	je	.L167
	pxor	%xmm0, %xmm0
	leaq	32(%rsp), %rbx
	movaps	%xmm0, 16(%rsp)
	call	_ZNSt3_V215system_categoryEv@PLT
	movq	%rax, %r12
	.p2align 4,,10
	.p2align 3
.L188:
	movq	%rbp, %rsi
	movq	0(%rbp), %rbp
	xorl	%ecx, %ecx
	xorl	%edi, %edi
	movq	$0, (%rsi)
	movq	8(%rsi), %rax
	movq	%rbx, %rdx
	movl	$0, 32(%rsp)
	movq	%r12, 40(%rsp)
	call	*%rax
	testq	%rbp, %rbp
	jne	.L188
	movq	16(%rsp), %rsi
	testq	%rsi, %rsi
	movq	%rsi, 8(%rsp)
	je	.L167
	call	_ZNSt3_V215system_categoryEv@PLT
	movq	8(%rsp), %rsi
	movq	%rax, %rbp
	jmp	.L193
	.p2align 4,,10
	.p2align 3
.L190:
	movq	$0, (%rsi)
	movq	8(%rsi), %rax
	xorl	%ecx, %ecx
	movq	%rbx, %rdx
	movl	$0, 32(%rsp)
	xorl	%edi, %edi
	movq	%rbp, 40(%rsp)
	call	*%rax
	movq	16(%rsp), %rsi
	testq	%rsi, %rsi
	je	.L167
.L193:
	movq	(%rsi), %rax
	movq	%rax, 16(%rsp)
	testq	%rax, %rax
	jne	.L190
	movq	$0, 24(%rsp)
	jmp	.L190
.L242:
	movq	104(%rbx), %rbx
	testq	%rbx, %rbx
	jne	.L170
	.p2align 4,,10
	.p2align 3
.L167:
	movq	56(%rsp), %rax
	subq	%fs:40, %rax
	jne	.L246
	addq	$72, %rsp
	.cfi_remember_state
	.cfi_def_cfa_offset 40
	popq	%rbx
	.cfi_def_cfa_offset 32
	popq	%rbp
	.cfi_def_cfa_offset 24
	popq	%r12
	.cfi_def_cfa_offset 16
	popq	%r13
	.cfi_def_cfa_offset 8
	ret
.L199:
	.cfi_restore_state
	xorl	%ebp, %ebp
	jmp	.L184
.L246:
	call	__stack_chk_fail@PLT
.L200:
	movq	%rax, %r12
	leaq	32(%rsp), %rbx
.L194:
	movq	16(%rsp), %rbp
	testq	%rbp, %rbp
	jne	.L247
	movq	%r12, %rdi
.LEHB1:
	call	_Unwind_Resume@PLT
.LEHE1:
.L247:
	movq	0(%rbp), %rax
	movq	%rax, 16(%rsp)
	testq	%rax, %rax
	jne	.L196
	movq	$0, 24(%rsp)
.L196:
	movq	$0, 0(%rbp)
	movq	8(%rbp), %r13
	movl	$0, 32(%rsp)
	call	_ZNSt3_V215system_categoryEv@PLT
	xorl	%ecx, %ecx
	movq	%rbx, %rdx
	movq	%rbp, %rsi
	movq	%rax, 40(%rsp)
	xorl	%edi, %edi
	call	*%r13
	jmp	.L194
	.cfi_endproc
.LFE3296:
	.section	.gcc_except_table._ZN4asio6detail13epoll_reactor16shutdown_serviceEv,"aG",@progbits,_ZN4asio6detail13epoll_reactor16shutdown_serviceEv,comdat
.LLSDA3296:
	.byte	0xff
	.byte	0xff
	.byte	0x1
	.uleb128 .LLSDACSE3296-.LLSDACSB3296
.LLSDACSB3296:
	.uleb128 .LEHB0-.LFB3296
	.uleb128 .LEHE0-.LEHB0
	.uleb128 .L200-.LFB3296
	.uleb128 0
	.uleb128 .LEHB1-.LFB3296
	.uleb128 .LEHE1-.LEHB1
	.uleb128 0
	.uleb128 0
.LLSDACSE3296:
	.section	.text._ZN4asio6detail13epoll_reactor16shutdown_serviceEv,"axG",@progbits,_ZN4asio6detail13epoll_reactor16shutdown_serviceEv,comdat
	.size	_ZN4asio6detail13epoll_reactor16shutdown_serviceEv, .-_ZN4asio6detail13epoll_reactor16shutdown_serviceEv
	.section	.rodata._ZNK4asio6detail15system_category7messageB5cxx11Ei.str1.8,"aMS",@progbits,1
	.align 8
.LC4:
	.string	"basic_string::_M_construct null not valid"
	.section	.text._ZNK4asio6detail15system_category7messageB5cxx11Ei,"axG",@progbits,_ZNK4asio6detail15system_category7messageB5cxx11Ei,comdat
	.align 2
	.p2align 4
	.weak	_ZNK4asio6detail15system_category7messageB5cxx11Ei
	.type	_ZNK4asio6detail15system_category7messageB5cxx11Ei, @function
_ZNK4asio6detail15system_category7messageB5cxx11Ei:
.LFB2385:
	.cfi_startproc
	pushq	%r14
	.cfi_def_cfa_offset 16
	.cfi_offset 14, -16
	pushq	%r13
	.cfi_def_cfa_offset 24
	.cfi_offset 13, -24
	pushq	%r12
	.cfi_def_cfa_offset 32
	.cfi_offset 12, -32
	movq	%rdi, %r12
	pushq	%rbp
	.cfi_def_cfa_offset 40
	.cfi_offset 6, -40
	leaq	16(%rdi), %rbp
	subq	$296, %rsp
	.cfi_def_cfa_offset 336
	movq	%fs:40, %rax
	movq	%rax, 280(%rsp)
	xorl	%eax, %eax
	cmpl	$125, %edx
	je	.L263
	pxor	%xmm0, %xmm0
	movl	%edx, %edi
	leaq	16(%rsp), %rsi
	movl	$256, %edx
	movups	%xmm0, 16(%rsp)
	movups	%xmm0, 32(%rsp)
	movups	%xmm0, 48(%rsp)
	movups	%xmm0, 64(%rsp)
	movups	%xmm0, 80(%rsp)
	movups	%xmm0, 96(%rsp)
	movups	%xmm0, 112(%rsp)
	movups	%xmm0, 128(%rsp)
	movups	%xmm0, 144(%rsp)
	movups	%xmm0, 160(%rsp)
	movups	%xmm0, 176(%rsp)
	movups	%xmm0, 192(%rsp)
	movups	%xmm0, 208(%rsp)
	movups	%xmm0, 224(%rsp)
	movups	%xmm0, 240(%rsp)
	movups	%xmm0, 256(%rsp)
	call	strerror_r@PLT
	movq	%rbp, (%r12)
	movq	%rax, %r13
	testq	%rax, %rax
	je	.L251
	movq	%rax, %rdi
	call	strlen@PLT
	movq	%rax, 8(%rsp)
	movq	%rax, %r14
	cmpq	$15, %rax
	ja	.L264
	cmpq	$1, %rax
	jne	.L255
	movzbl	0(%r13), %edx
	movb	%dl, 16(%r12)
.L256:
	movq	%rax, 8(%r12)
	movb	$0, 0(%rbp,%rax)
.L248:
	movq	280(%rsp), %rax
	subq	%fs:40, %rax
	jne	.L265
	addq	$296, %rsp
	.cfi_remember_state
	.cfi_def_cfa_offset 40
	movq	%r12, %rax
	popq	%rbp
	.cfi_def_cfa_offset 32
	popq	%r12
	.cfi_def_cfa_offset 24
	popq	%r13
	.cfi_def_cfa_offset 16
	popq	%r14
	.cfi_def_cfa_offset 8
	ret
	.p2align 4,,10
	.p2align 3
.L264:
	.cfi_restore_state
	leaq	8(%rsp), %rsi
	xorl	%edx, %edx
	movq	%r12, %rdi
	call	_ZNSt7__cxx1112basic_stringIcSt11char_traitsIcESaIcEE9_M_createERmm@PLT
	movq	%rax, (%r12)
	movq	%rax, %rbp
	movq	8(%rsp), %rax
	movq	%rax, 16(%r12)
.L254:
	movq	%rbp, %rdi
	movq	%r14, %rdx
	movq	%r13, %rsi
	call	memcpy@PLT
	movq	8(%rsp), %rax
	movq	(%r12), %rbp
	jmp	.L256
	.p2align 4,,10
	.p2align 3
.L263:
	movq	%rbp, (%rdi)
	xorl	%edx, %edx
	leaq	8(%rsp), %rsi
	movq	$18, 8(%rsp)
	call	_ZNSt7__cxx1112basic_stringIcSt11char_traitsIcESaIcEE9_M_createERmm@PLT
	movq	8(%rsp), %rdx
	movdqa	.LC5(%rip), %xmm0
	movq	%rax, (%r12)
	movq	%rdx, 16(%r12)
	movl	$11876, %edx
	movw	%dx, 16(%rax)
	movups	%xmm0, (%rax)
	movq	8(%rsp), %rax
	movq	(%r12), %rdx
	movq	%rax, 8(%r12)
	movb	$0, (%rdx,%rax)
	jmp	.L248
	.p2align 4,,10
	.p2align 3
.L255:
	testq	%rax, %rax
	je	.L256
	jmp	.L254
.L251:
	leaq	.LC4(%rip), %rdi
	call	_ZSt19__throw_logic_errorPKc@PLT
.L265:
	call	__stack_chk_fail@PLT
	.cfi_endproc
.LFE2385:
	.size	_ZNK4asio6detail15system_category7messageB5cxx11Ei, .-_ZNK4asio6detail15system_category7messageB5cxx11Ei
	.section	.text._ZNK4asio5error6detail17addrinfo_category7messageB5cxx11Ei,"axG",@progbits,_ZNK4asio5error6detail17addrinfo_category7messageB5cxx11Ei,comdat
	.align 2
	.p2align 4
	.weak	_ZNK4asio5error6detail17addrinfo_category7messageB5cxx11Ei
	.type	_ZNK4asio5error6detail17addrinfo_category7messageB5cxx11Ei, @function
_ZNK4asio5error6detail17addrinfo_category7messageB5cxx11Ei:
.LFB2431:
	.cfi_startproc
	pushq	%r12
	.cfi_def_cfa_offset 16
	.cfi_offset 12, -16
	movq	%rdi, %r12
	subq	$16, %rsp
	.cfi_def_cfa_offset 32
	movq	%fs:40, %rax
	movq	%rax, 8(%rsp)
	xorl	%eax, %eax
	leaq	16(%rdi), %rax
	movq	%rax, (%rdi)
	cmpl	$-8, %edx
	je	.L272
	cmpl	$-7, %edx
	je	.L273
	xorl	%edx, %edx
	movq	%rsp, %rsi
	movq	$19, (%rsp)
	call	_ZNSt7__cxx1112basic_stringIcSt11char_traitsIcESaIcEE9_M_createERmm@PLT
	movq	(%rsp), %rdx
	movdqa	.LC8(%rip), %xmm0
	movq	%rax, (%r12)
	movq	%rdx, 16(%r12)
	movl	$28530, %edx
	movw	%dx, 16(%rax)
	movb	$114, 18(%rax)
	movups	%xmm0, (%rax)
	movq	(%rsp), %rax
	movq	(%r12), %rdx
	movq	%rax, 8(%r12)
	movb	$0, (%rdx,%rax)
.L266:
	movq	8(%rsp), %rax
	subq	%fs:40, %rax
	jne	.L274
	addq	$16, %rsp
	.cfi_remember_state
	.cfi_def_cfa_offset 16
	movq	%r12, %rax
	popq	%r12
	.cfi_def_cfa_offset 8
	ret
	.p2align 4,,10
	.p2align 3
.L273:
	.cfi_restore_state
	xorl	%edx, %edx
	movq	%rsp, %rsi
	movq	$25, (%rsp)
	call	_ZNSt7__cxx1112basic_stringIcSt11char_traitsIcESaIcEE9_M_createERmm@PLT
	movq	(%rsp), %rdx
	movdqa	.LC7(%rip), %xmm0
	movabsq	$7310593918082512243, %rcx
	movq	%rax, (%r12)
	movq	%rdx, 16(%r12)
	movq	%rcx, 16(%rax)
	movb	$100, 24(%rax)
	movups	%xmm0, (%rax)
	movq	(%rsp), %rax
	movq	(%r12), %rdx
	movq	%rax, 8(%r12)
	movb	$0, (%rdx,%rax)
	jmp	.L266
	.p2align 4,,10
	.p2align 3
.L272:
	xorl	%edx, %edx
	movq	%rsp, %rsi
	movq	$17, (%rsp)
	call	_ZNSt7__cxx1112basic_stringIcSt11char_traitsIcESaIcEE9_M_createERmm@PLT
	movq	(%rsp), %rdx
	movdqa	.LC6(%rip), %xmm0
	movq	%rax, (%r12)
	movq	%rdx, 16(%r12)
	movb	$100, 16(%rax)
	movups	%xmm0, (%rax)
	movq	(%rsp), %rax
	movq	(%r12), %rdx
	movq	%rax, 8(%r12)
	movb	$0, (%rdx,%rax)
	jmp	.L266
.L274:
	call	__stack_chk_fail@PLT
	.cfi_endproc
.LFE2431:
	.size	_ZNK4asio5error6detail17addrinfo_category7messageB5cxx11Ei, .-_ZNK4asio5error6detail17addrinfo_category7messageB5cxx11Ei
	.section	.text.unlikely
	.align 2
	.type	_ZN4asio6detail17rewrapped_handlerINS0_7binder1INS0_15wrapped_handlerINS_10io_service6strandEZN7asiopal9TCPServer11StartAcceptEvEUlSt10error_codeE_NS0_26is_continuation_if_runningEEES8_EES9_ED2Ev, @function
_ZN4asio6detail17rewrapped_handlerINS0_7binder1INS0_15wrapped_handlerINS_10io_service6strandEZN7asiopal9TCPServer11StartAcceptEvEUlSt10error_codeE_NS0_26is_continuation_if_runningEEES8_EES9_ED2Ev:
.LFB9181:
	.cfi_startproc
	pushq	%r12
	.cfi_def_cfa_offset 16
	.cfi_offset 12, -16
	pushq	%rbp
	.cfi_def_cfa_offset 24
	.cfi_offset 6, -24
	pushq	%rbx
	.cfi_def_cfa_offset 32
	.cfi_offset 3, -32
	movq	40(%rdi), %rbp
	movq	%rdi, %rbx
	testq	%rbp, %rbp
	je	.L277
	movq	_ZL28__gthrw___pthread_key_createPjPFvPvE@GOTPCREL(%rip), %r12
	testq	%r12, %r12
	je	.L278
	orl	$-1, %eax
	lock xaddl	%eax, 8(%rbp)
	jmp	.L279
.L278:
	movl	8(%rbp), %eax
	leal	-1(%rax), %edx
	movl	%edx, 8(%rbp)
.L279:
	decl	%eax
	jne	.L277
	movq	0(%rbp), %rax
	movq	%rbp, %rdi
	call	*16(%rax)
	testq	%r12, %r12
	je	.L281
	orl	$-1, %eax
	lock xaddl	%eax, 12(%rbp)
	jmp	.L282
.L281:
	movl	12(%rbp), %eax
	leal	-1(%rax), %edx
	movl	%edx, 12(%rbp)
.L282:
	decl	%eax
	jne	.L277
	movq	0(%rbp), %rax
	movq	%rbp, %rdi
	call	*24(%rax)
.L277:
	movq	8(%rbx), %rbp
	testq	%rbp, %rbp
	je	.L275
	movq	_ZL28__gthrw___pthread_key_createPjPFvPvE@GOTPCREL(%rip), %rbx
	testq	%rbx, %rbx
	je	.L285
	orl	$-1, %eax
	lock xaddl	%eax, 8(%rbp)
	jmp	.L286
.L285:
	movl	8(%rbp), %eax
	leal	-1(%rax), %edx
	movl	%edx, 8(%rbp)
.L286:
	decl	%eax
	jne	.L275
	movq	0(%rbp), %rax
	movq	%rbp, %rdi
	call	*16(%rax)
	testq	%rbx, %rbx
	je	.L288
	orl	$-1, %eax
	lock xaddl	%eax, 12(%rbp)
	jmp	.L289
.L288:
	movl	12(%rbp), %eax
	leal	-1(%rax), %edx
	movl	%edx, 12(%rbp)
.L289:
	decl	%eax
	jne	.L275
	movq	0(%rbp), %rax
	popq	%rbx
	.cfi_remember_state
	.cfi_def_cfa_offset 24
	movq	%rbp, %rdi
	popq	%rbp
	.cfi_def_cfa_offset 16
	popq	%r12
	.cfi_def_cfa_offset 8
	movq	24(%rax), %rax
	jmp	*%rax
.L275:
	.cfi_restore_state
	popq	%rbx
	.cfi_def_cfa_offset 24
	popq	%rbp
	.cfi_def_cfa_offset 16
	popq	%r12
	.cfi_def_cfa_offset 8
	ret
	.cfi_endproc
.LFE9181:
	.size	_ZN4asio6detail17rewrapped_handlerINS0_7binder1INS0_15wrapped_handlerINS_10io_service6strandEZN7asiopal9TCPServer11StartAcceptEvEUlSt10error_codeE_NS0_26is_continuation_if_runningEEES8_EES9_ED2Ev, .-_ZN4asio6detail17rewrapped_handlerINS0_7binder1INS0_15wrapped_handlerINS_10io_service6strandEZN7asiopal9TCPServer11StartAcceptEvEUlSt10error_codeE_NS0_26is_continuation_if_runningEEES8_EES9_ED2Ev
	.set	_ZN4asio6detail17rewrapped_handlerINS0_7binder1INS0_15wrapped_handlerINS_10io_service6strandEZN7asiopal9TCPServer11StartAcceptEvEUlSt10error_codeE_NS0_26is_continuation_if_runningEEES8_EES9_ED1Ev,_ZN4asio6detail17rewrapped_handlerINS0_7binder1INS0_15wrapped_handlerINS_10io_service6strandEZN7asiopal9TCPServer11StartAcceptEvEUlSt10error_codeE_NS0_26is_continuation_if_runningEEES8_EES9_ED2Ev
	.section	.text._ZNK4asio5error6detail14netdb_category7messageB5cxx11Ei,"axG",@progbits,_ZNK4asio5error6detail14netdb_category7messageB5cxx11Ei,comdat
	.align 2
	.p2align 4
	.weak	_ZNK4asio5error6detail14netdb_category7messageB5cxx11Ei
	.type	_ZNK4asio5error6detail14netdb_category7messageB5cxx11Ei, @function
_ZNK4asio5error6detail14netdb_category7messageB5cxx11Ei:
.LFB2425:
	.cfi_startproc
	pushq	%r12
	.cfi_def_cfa_offset 16
	.cfi_offset 12, -16
	movq	%rdi, %r12
	subq	$16, %rsp
	.cfi_def_cfa_offset 32
	movq	%fs:40, %rax
	movq	%rax, 8(%rsp)
	xorl	%eax, %eax
	leaq	16(%rdi), %rax
	movq	%rax, (%rdi)
	cmpl	$1, %edx
	je	.L299
	cmpl	$2, %edx
	je	.L300
	cmpl	$4, %edx
	je	.L301
	cmpl	$3, %edx
	je	.L302
	xorl	%edx, %edx
	movq	%rsp, %rsi
	movq	$16, (%rsp)
	call	_ZNSt7__cxx1112basic_stringIcSt11char_traitsIcESaIcEE9_M_createERmm@PLT
	movq	(%rsp), %rdx
	movdqa	.LC18(%rip), %xmm0
	movq	%rax, (%r12)
	movq	%rdx, 16(%r12)
	movups	%xmm0, (%rax)
	movq	(%rsp), %rax
	movq	(%r12), %rdx
	movq	%rax, 8(%r12)
	movb	$0, (%rdx,%rax)
.L291:
	movq	8(%rsp), %rax
	subq	%fs:40, %rax
	jne	.L303
	addq	$16, %rsp
	.cfi_remember_state
	.cfi_def_cfa_offset 16
	movq	%r12, %rax
	popq	%r12
	.cfi_def_cfa_offset 8
	ret
	.p2align 4,,10
	.p2align 3
.L299:
	.cfi_restore_state
	movq	%rsp, %rsi
	xorl	%edx, %edx
	movq	$30, (%rsp)
	call	_ZNSt7__cxx1112basic_stringIcSt11char_traitsIcESaIcEE9_M_createERmm@PLT
	movq	(%rsp), %rdx
	movl	$10597, %esi
	movdqa	.LC9(%rip), %xmm0
	movabsq	$8388361603773658465, %rcx
	movq	%rax, (%r12)
	movq	%rdx, 16(%r12)
	movq	%rcx, 16(%rax)
	movl	$1986622561, 24(%rax)
	movw	%si, 28(%rax)
	movups	%xmm0, (%rax)
	movq	(%rsp), %rax
	movq	(%r12), %rdx
	movq	%rax, 8(%r12)
	movb	$0, (%rdx,%rax)
	jmp	.L291
	.p2align 4,,10
	.p2align 3
.L302:
	xorl	%edx, %edx
	movq	%rsp, %rsi
	movq	$55, (%rsp)
	call	_ZNSt7__cxx1112basic_stringIcSt11char_traitsIcESaIcEE9_M_createERmm@PLT
	movq	(%rsp), %rdx
	movdqa	.LC15(%rip), %xmm0
	movq	%rax, (%r12)
	movq	%rdx, 16(%r12)
	movl	$30059, %edx
	movups	%xmm0, (%rax)
	movdqa	.LC16(%rip), %xmm0
	movl	$1869573152, 48(%rax)
	movups	%xmm0, 16(%rax)
	movdqa	.LC17(%rip), %xmm0
	movw	%dx, 52(%rax)
	movb	$112, 54(%rax)
	movups	%xmm0, 32(%rax)
	movq	(%rsp), %rax
	movq	(%r12), %rdx
	movq	%rax, 8(%r12)
	movb	$0, (%rdx,%rax)
	jmp	.L291
	.p2align 4,,10
	.p2align 3
.L300:
	xorl	%edx, %edx
	movq	%rsp, %rsi
	movq	$51, (%rsp)
	call	_ZNSt7__cxx1112basic_stringIcSt11char_traitsIcESaIcEE9_M_createERmm@PLT
	movq	(%rsp), %rdx
	movl	$25972, %ecx
	movdqa	.LC9(%rip), %xmm0
	movq	%rax, (%r12)
	movq	%rdx, 16(%r12)
	movups	%xmm0, (%rax)
	movdqa	.LC10(%rip), %xmm0
	movw	%cx, 48(%rax)
	movups	%xmm0, 16(%rax)
	movdqa	.LC11(%rip), %xmm0
	movb	$114, 50(%rax)
	movups	%xmm0, 32(%rax)
	movq	(%rsp), %rax
	movq	(%r12), %rdx
	movq	%rax, 8(%r12)
	movb	$0, (%rdx,%rax)
	jmp	.L291
	.p2align 4,,10
	.p2align 3
.L301:
	xorl	%edx, %edx
	movq	%rsp, %rsi
	movq	$56, (%rsp)
	call	_ZNSt7__cxx1112basic_stringIcSt11char_traitsIcESaIcEE9_M_createERmm@PLT
	movq	(%rsp), %rdx
	movdqa	.LC12(%rip), %xmm0
	movabsq	$7022344801645520244, %rcx
	movq	%rax, (%r12)
	movq	%rdx, 16(%r12)
	movups	%xmm0, (%rax)
	movdqa	.LC13(%rip), %xmm0
	movq	%rcx, 48(%rax)
	movups	%xmm0, 16(%rax)
	movdqa	.LC14(%rip), %xmm0
	movups	%xmm0, 32(%rax)
	movq	(%rsp), %rax
	movq	(%r12), %rdx
	movq	%rax, 8(%r12)
	movb	$0, (%rdx,%rax)
	jmp	.L291
.L303:
	call	__stack_chk_fail@PLT
	.cfi_endproc
.LFE2425:
	.size	_ZNK4asio5error6detail14netdb_category7messageB5cxx11Ei, .-_ZNK4asio5error6detail14netdb_category7messageB5cxx11Ei
	.section	.text._ZNK4asio5error6detail13misc_category7messageB5cxx11Ei,"axG",@progbits,_ZNK4asio5error6detail13misc_category7messageB5cxx11Ei,comdat
	.align 2
	.p2align 4
	.weak	_ZNK4asio5error6detail13misc_category7messageB5cxx11Ei
	.type	_ZNK4asio5error6detail13misc_category7messageB5cxx11Ei, @function
_ZNK4asio5error6detail13misc_category7messageB5cxx11Ei:
.LFB2437:
	.cfi_startproc
	pushq	%r12
	.cfi_def_cfa_offset 16
	.cfi_offset 12, -16
	movq	%rdi, %r12
	subq	$16, %rsp
	.cfi_def_cfa_offset 32
	movq	%fs:40, %rax
	movq	%rax, 8(%rsp)
	xorl	%eax, %eax
	leaq	16(%rdi), %rax
	movq	%rax, (%rdi)
	cmpl	$1, %edx
	je	.L312
	cmpl	$2, %edx
	je	.L313
	cmpl	$3, %edx
	je	.L314
	cmpl	$4, %edx
	je	.L315
	movabsq	$8316298233121436513, %rcx
	movl	$28530, %edx
	movq	%rcx, 16(%rdi)
	movl	$1919230051, 8(%rax)
	movw	%dx, 12(%rax)
	movb	$114, 14(%rax)
	movq	$15, 8(%rdi)
	movb	$0, 31(%rdi)
.L304:
	movq	8(%rsp), %rax
	subq	%fs:40, %rax
	jne	.L316
	addq	$16, %rsp
	.cfi_remember_state
	.cfi_def_cfa_offset 16
	movq	%r12, %rax
	popq	%r12
	.cfi_def_cfa_offset 8
	ret
	.p2align 4,,10
	.p2align 3
.L312:
	.cfi_restore_state
	movabsq	$2340011850872286273, %rcx
	movq	%rcx, 16(%rdi)
	movl	$1852141679, 8(%rax)
	movq	$12, 8(%rdi)
	movb	$0, 28(%rdi)
	jmp	.L304
	.p2align 4,,10
	.p2align 3
.L315:
	movq	%rsp, %rsi
	xorl	%edx, %edx
	movq	$57, (%rsp)
	call	_ZNSt7__cxx1112basic_stringIcSt11char_traitsIcESaIcEE9_M_createERmm@PLT
	movq	(%rsp), %rdx
	movdqa	.LC20(%rip), %xmm0
	movabsq	$7310291504967217959, %rsi
	movq	%rax, (%r12)
	movq	%rdx, 16(%r12)
	movups	%xmm0, (%rax)
	movdqa	.LC21(%rip), %xmm0
	movq	%rsi, 48(%rax)
	movups	%xmm0, 16(%rax)
	movdqa	.LC22(%rip), %xmm0
	movb	$116, 56(%rax)
	movups	%xmm0, 32(%rax)
	movq	(%rsp), %rax
	movq	(%r12), %rdx
	movq	%rax, 8(%r12)
	movb	$0, (%rdx,%rax)
	jmp	.L304
	.p2align 4,,10
	.p2align 3
.L313:
	movabsq	$7358994418594246213, %rcx
	movq	%rcx, 16(%rdi)
	movl	$27753, %ecx
	movw	%cx, 8(%rax)
	movb	$101, 10(%rax)
	movq	$11, 8(%rdi)
	movb	$0, 27(%rdi)
	jmp	.L304
	.p2align 4,,10
	.p2align 3
.L314:
	xorl	%edx, %edx
	movq	%rsp, %rsi
	movq	$17, (%rsp)
	call	_ZNSt7__cxx1112basic_stringIcSt11char_traitsIcESaIcEE9_M_createERmm@PLT
	movq	(%rsp), %rdx
	movdqa	.LC19(%rip), %xmm0
	movq	%rax, (%r12)
	movq	%rdx, 16(%r12)
	movb	$100, 16(%rax)
	movups	%xmm0, (%rax)
	movq	(%rsp), %rax
	movq	(%r12), %rdx
	movq	%rax, 8(%r12)
	movb	$0, (%rdx,%rax)
	jmp	.L304
.L316:
	call	__stack_chk_fail@PLT
	.cfi_endproc
.LFE2437:
	.size	_ZNK4asio5error6detail13misc_category7messageB5cxx11Ei, .-_ZNK4asio5error6detail13misc_category7messageB5cxx11Ei
	.section	.text.unlikely
	.align 2
	.type	_ZN4asio6detail18completion_handlerINS0_7binder1IZN7asiopal9TCPServer11StartAcceptEvEUlSt10error_codeE_S5_EEE3ptr5resetEv, @function
_ZN4asio6detail18completion_handlerINS0_7binder1IZN7asiopal9TCPServer11StartAcceptEvEUlSt10error_codeE_S5_EEE3ptr5resetEv:
.LFB9332:
	.cfi_startproc
	pushq	%r12
	.cfi_def_cfa_offset 16
	.cfi_offset 12, -16
	pushq	%rbp
	.cfi_def_cfa_offset 24
	.cfi_offset 6, -24
	pushq	%rbx
	.cfi_def_cfa_offset 32
	.cfi_offset 3, -32
	movq	16(%rdi), %rax
	movq	%rdi, %rbx
	testq	%rax, %rax
	je	.L318
	movq	32(%rax), %rbp
	testq	%rbp, %rbp
	je	.L320
	movq	_ZL28__gthrw___pthread_key_createPjPFvPvE@GOTPCREL(%rip), %r12
	testq	%r12, %r12
	je	.L321
	orl	$-1, %eax
	lock xaddl	%eax, 8(%rbp)
	jmp	.L322
.L321:
	movl	8(%rbp), %eax
	leal	-1(%rax), %edx
	movl	%edx, 8(%rbp)
.L322:
	decl	%eax
	jne	.L320
	movq	0(%rbp), %rax
	movq	%rbp, %rdi
	call	*16(%rax)
	testq	%r12, %r12
	je	.L324
	orl	$-1, %eax
	lock xaddl	%eax, 12(%rbp)
	jmp	.L325
.L324:
	movl	12(%rbp), %eax
	leal	-1(%rax), %edx
	movl	%edx, 12(%rbp)
.L325:
	decl	%eax
	jne	.L320
	movq	0(%rbp), %rax
	movq	%rbp, %rdi
	call	*24(%rax)
.L320:
	movq	$0, 16(%rbx)
.L318:
	movq	8(%rbx), %rbp
	testq	%rbp, %rbp
	je	.L317
	data16	leaq	_ZN4asio6detail15keyword_tss_ptrINS0_10call_stackINS0_15task_io_serviceENS0_27task_io_service_thread_infoEE7contextEE6value_E@tlsgd(%rip), %rdi
	.value	0x6666
	rex64
	call	__tls_get_addr@PLT
	movq	(%rax), %rax
	testq	%rax, %rax
	je	.L327
	movq	8(%rax), %rax
	testq	%rax, %rax
	je	.L327
	cmpq	$0, (%rax)
	jne	.L327
	movb	56(%rbp), %dl
	movb	%dl, 0(%rbp)
	movq	%rbp, (%rax)
	jmp	.L328
.L327:
	movq	%rbp, %rdi
	call	_ZdlPv@PLT
.L328:
	movq	$0, 8(%rbx)
.L317:
	popq	%rbx
	.cfi_def_cfa_offset 24
	popq	%rbp
	.cfi_def_cfa_offset 16
	popq	%r12
	.cfi_def_cfa_offset 8
	ret
	.cfi_endproc
.LFE9332:
	.size	_ZN4asio6detail18completion_handlerINS0_7binder1IZN7asiopal9TCPServer11StartAcceptEvEUlSt10error_codeE_S5_EEE3ptr5resetEv, .-_ZN4asio6detail18completion_handlerINS0_7binder1IZN7asiopal9TCPServer11StartAcceptEvEUlSt10error_codeE_S5_EEE3ptr5resetEv
	.align 2
	.type	_ZN4asio6detail25reactive_socket_accept_opINS_12basic_socketINS_2ip3tcpENS_21stream_socket_serviceIS4_EEEES4_NS0_15wrapped_handlerINS_10io_service6strandEZN7asiopal9TCPServer11StartAcceptEvEUlSt10error_codeE_NS0_26is_continuation_if_runningEEEE3ptr5resetEv, @function
_ZN4asio6detail25reactive_socket_accept_opINS_12basic_socketINS_2ip3tcpENS_21stream_socket_serviceIS4_EEEES4_NS0_15wrapped_handlerINS_10io_service6strandEZN7asiopal9TCPServer11StartAcceptEvEUlSt10error_codeE_NS0_26is_continuation_if_runningEEEE3ptr5resetEv:
.LFB8862:
	.cfi_startproc
	pushq	%r12
	.cfi_def_cfa_offset 16
	.cfi_offset 12, -16
	pushq	%rbp
	.cfi_def_cfa_offset 24
	.cfi_offset 6, -24
	pushq	%rbx
	.cfi_def_cfa_offset 32
	.cfi_offset 3, -32
	movq	16(%rdi), %rax
	movq	%rdi, %rbx
	testq	%rax, %rax
	je	.L343
	movq	112(%rax), %rbp
	testq	%rbp, %rbp
	je	.L345
	movq	_ZL28__gthrw___pthread_key_createPjPFvPvE@GOTPCREL(%rip), %r12
	testq	%r12, %r12
	je	.L346
	orl	$-1, %eax
	lock xaddl	%eax, 8(%rbp)
	jmp	.L347
.L346:
	movl	8(%rbp), %eax
	leal	-1(%rax), %edx
	movl	%edx, 8(%rbp)
.L347:
	decl	%eax
	jne	.L345
	movq	0(%rbp), %rax
	movq	%rbp, %rdi
	call	*16(%rax)
	testq	%r12, %r12
	je	.L349
	orl	$-1, %eax
	lock xaddl	%eax, 12(%rbp)
	jmp	.L350
.L349:
	movl	12(%rbp), %eax
	leal	-1(%rax), %edx
	movl	%edx, 12(%rbp)
.L350:
	decl	%eax
	jne	.L345
	movq	0(%rbp), %rax
	movq	%rbp, %rdi
	call	*24(%rax)
.L345:
	movq	$0, 16(%rbx)
.L343:
	movq	8(%rbx), %rbp
	testq	%rbp, %rbp
	je	.L342
	data16	leaq	_ZN4asio6detail15keyword_tss_ptrINS0_10call_stackINS0_15task_io_serviceENS0_27task_io_service_thread_infoEE7contextEE6value_E@tlsgd(%rip), %rdi
	.value	0x6666
	rex64
	call	__tls_get_addr@PLT
	movq	(%rax), %rax
	testq	%rax, %rax
	je	.L352
	movq	8(%rax), %rax
	testq	%rax, %rax
	je	.L352
	cmpq	$0, (%rax)
	jne	.L352
	movb	120(%rbp), %dl
	movb	%dl, 0(%rbp)
	movq	%rbp, (%rax)
	jmp	.L353
.L352:
	movq	%rbp, %rdi
	call	_ZdlPv@PLT
.L353:
	movq	$0, 8(%rbx)
.L342:
	popq	%rbx
	.cfi_def_cfa_offset 24
	popq	%rbp
	.cfi_def_cfa_offset 16
	popq	%r12
	.cfi_def_cfa_offset 8
	ret
	.cfi_endproc
.LFE8862:
	.size	_ZN4asio6detail25reactive_socket_accept_opINS_12basic_socketINS_2ip3tcpENS_21stream_socket_serviceIS4_EEEES4_NS0_15wrapped_handlerINS_10io_service6strandEZN7asiopal9TCPServer11StartAcceptEvEUlSt10error_codeE_NS0_26is_continuation_if_runningEEEE3ptr5resetEv, .-_ZN4asio6detail25reactive_socket_accept_opINS_12basic_socketINS_2ip3tcpENS_21stream_socket_serviceIS4_EEEES4_NS0_15wrapped_handlerINS_10io_service6strandEZN7asiopal9TCPServer11StartAcceptEvEUlSt10error_codeE_NS0_26is_continuation_if_runningEEEE3ptr5resetEv
	.align 2
	.type	_ZN4asio6detail18completion_handlerINS0_17rewrapped_handlerINS0_7binder1INS0_15wrapped_handlerINS_10io_service6strandEZN7asiopal9TCPServer11StartAcceptEvEUlSt10error_codeE_NS0_26is_continuation_if_runningEEES9_EESA_EEE3ptr5resetEv, @function
_ZN4asio6detail18completion_handlerINS0_17rewrapped_handlerINS0_7binder1INS0_15wrapped_handlerINS_10io_service6strandEZN7asiopal9TCPServer11StartAcceptEvEUlSt10error_codeE_NS0_26is_continuation_if_runningEEES9_EESA_EEE3ptr5resetEv:
.LFB9286:
	.cfi_startproc
	pushq	%r13
	.cfi_def_cfa_offset 16
	.cfi_offset 13, -16
	pushq	%r12
	.cfi_def_cfa_offset 24
	.cfi_offset 12, -24
	pushq	%rbp
	.cfi_def_cfa_offset 32
	.cfi_offset 6, -32
	pushq	%rbx
	.cfi_def_cfa_offset 40
	.cfi_offset 3, -40
	movq	%rdi, %rbx
	pushq	%rdx
	.cfi_def_cfa_offset 48
	movq	16(%rdi), %r12
	testq	%r12, %r12
	je	.L368
	movq	64(%r12), %rbp
	testq	%rbp, %rbp
	je	.L370
	movq	_ZL28__gthrw___pthread_key_createPjPFvPvE@GOTPCREL(%rip), %r13
	testq	%r13, %r13
	je	.L371
	orl	$-1, %eax
	lock xaddl	%eax, 8(%rbp)
	jmp	.L372
.L371:
	movl	8(%rbp), %eax
	leal	-1(%rax), %edx
	movl	%edx, 8(%rbp)
.L372:
	decl	%eax
	jne	.L370
	movq	0(%rbp), %rax
	movq	%rbp, %rdi
	call	*16(%rax)
	testq	%r13, %r13
	je	.L374
	orl	$-1, %eax
	lock xaddl	%eax, 12(%rbp)
	jmp	.L375
.L374:
	movl	12(%rbp), %eax
	leal	-1(%rax), %edx
	movl	%edx, 12(%rbp)
.L375:
	decl	%eax
	jne	.L370
	movq	0(%rbp), %rax
	movq	%rbp, %rdi
	call	*24(%rax)
.L370:
	movq	32(%r12), %rbp
	testq	%rbp, %rbp
	je	.L377
	movq	_ZL28__gthrw___pthread_key_createPjPFvPvE@GOTPCREL(%rip), %r12
	testq	%r12, %r12
	je	.L378
	orl	$-1, %eax
	lock xaddl	%eax, 8(%rbp)
	jmp	.L379
.L378:
	movl	8(%rbp), %eax
	leal	-1(%rax), %edx
	movl	%edx, 8(%rbp)
.L379:
	decl	%eax
	jne	.L377
	movq	0(%rbp), %rax
	movq	%rbp, %rdi
	call	*16(%rax)
	testq	%r12, %r12
	je	.L381
	orl	$-1, %eax
	lock xaddl	%eax, 12(%rbp)
	jmp	.L382
.L381:
	movl	12(%rbp), %eax
	leal	-1(%rax), %edx
	movl	%edx, 12(%rbp)
.L382:
	decl	%eax
	jne	.L377
	movq	0(%rbp), %rax
	movq	%rbp, %rdi
	call	*24(%rax)
.L377:
	movq	$0, 16(%rbx)
.L368:
	movq	8(%rbx), %rbp
	testq	%rbp, %rbp
	je	.L367
	data16	leaq	_ZN4asio6detail15keyword_tss_ptrINS0_10call_stackINS0_15task_io_serviceENS0_27task_io_service_thread_infoEE7contextEE6value_E@tlsgd(%rip), %rdi
	.value	0x6666
	rex64
	call	__tls_get_addr@PLT
	movq	(%rax), %rax
	testq	%rax, %rax
	je	.L384
	movq	8(%rax), %rax
	testq	%rax, %rax
	je	.L384
	cmpq	$0, (%rax)
	jne	.L384
	movb	88(%rbp), %dl
	movb	%dl, 0(%rbp)
	movq	%rbp, (%rax)
	jmp	.L385
.L384:
	movq	%rbp, %rdi
	call	_ZdlPv@PLT
.L385:
	movq	$0, 8(%rbx)
.L367:
	popq	%rax
	.cfi_def_cfa_offset 40
	popq	%rbx
	.cfi_def_cfa_offset 32
	popq	%rbp
	.cfi_def_cfa_offset 24
	popq	%r12
	.cfi_def_cfa_offset 16
	popq	%r13
	.cfi_def_cfa_offset 8
	ret
	.cfi_endproc
.LFE9286:
	.size	_ZN4asio6detail18completion_handlerINS0_17rewrapped_handlerINS0_7binder1INS0_15wrapped_handlerINS_10io_service6strandEZN7asiopal9TCPServer11StartAcceptEvEUlSt10error_codeE_NS0_26is_continuation_if_runningEEES9_EESA_EEE3ptr5resetEv, .-_ZN4asio6detail18completion_handlerINS0_17rewrapped_handlerINS0_7binder1INS0_15wrapped_handlerINS_10io_service6strandEZN7asiopal9TCPServer11StartAcceptEvEUlSt10error_codeE_NS0_26is_continuation_if_runningEEES9_EESA_EEE3ptr5resetEv
	.section	.text.unlikely._ZSt20__throw_bad_weak_ptrv,"axG",@progbits,_ZSt20__throw_bad_weak_ptrv,comdat
	.weak	_ZSt20__throw_bad_weak_ptrv
	.type	_ZSt20__throw_bad_weak_ptrv, @function
_ZSt20__throw_bad_weak_ptrv:
.LFB1744:
	.cfi_startproc
	pushq	%rax
	.cfi_def_cfa_offset 16
	popq	%rax
	.cfi_def_cfa_offset 8
	movl	$8, %edi
	pushq	%rax
	.cfi_def_cfa_offset 16
	call	__cxa_allocate_exception@PLT
	movq	_ZNSt12bad_weak_ptrD1Ev@GOTPCREL(%rip), %rdx
	movq	_ZTISt12bad_weak_ptr@GOTPCREL(%rip), %rsi
	movq	%rax, %rdi
	movq	_ZTVSt12bad_weak_ptr@GOTPCREL(%rip), %rax
	addq	$16, %rax
	movq	%rax, (%rdi)
	call	__cxa_throw@PLT
	.cfi_endproc
.LFE1744:
	.size	_ZSt20__throw_bad_weak_ptrv, .-_ZSt20__throw_bad_weak_ptrv
	.section	.rodata._ZNSt12system_errorC2ESt10error_codePKc.str1.1,"aMS",@progbits,1
.LC23:
	.string	": "
	.section	.text._ZNSt12system_errorC2ESt10error_codePKc,"axG",@progbits,_ZNSt12system_errorC5ESt10error_codePKc,comdat
	.align 2
	.p2align 4
	.weak	_ZNSt12system_errorC2ESt10error_codePKc
	.type	_ZNSt12system_errorC2ESt10error_codePKc, @function
_ZNSt12system_errorC2ESt10error_codePKc:
.LFB2323:
	.cfi_startproc
	.cfi_personality 0x9b,DW.ref.__gxx_personality_v0
	.cfi_lsda 0x1b,.LLSDA2323
	pushq	%r14
	.cfi_def_cfa_offset 16
	.cfi_offset 14, -16
	movq	%rcx, %r14
	pushq	%r13
	.cfi_def_cfa_offset 24
	.cfi_offset 13, -24
	pushq	%r12
	.cfi_def_cfa_offset 32
	.cfi_offset 12, -32
	movq	%rsi, %r12
	pushq	%rbp
	.cfi_def_cfa_offset 40
	.cfi_offset 6, -40
	movq	%rdx, %rbp
	pushq	%rbx
	.cfi_def_cfa_offset 48
	.cfi_offset 3, -48
	movq	%rdi, %rbx
	subq	$112, %rsp
	.cfi_def_cfa_offset 160
	movq	%fs:40, %rax
	movq	%rax, 104(%rsp)
	xorl	%eax, %eax
	movq	(%rdx), %rax
	leaq	64(%rsp), %r13
	movl	%esi, %edx
	movq	%r13, %rdi
	movq	%rbp, %rsi
.LEHB2:
	call	*32(%rax)
.LEHE2:
	movl	$2, %r8d
	xorl	%edx, %edx
	xorl	%esi, %esi
	leaq	.LC23(%rip), %rcx
	movq	%r13, %rdi
.LEHB3:
	call	_ZNSt7__cxx1112basic_stringIcSt11char_traitsIcESaIcEE10_M_replaceEmmPKcm@PLT
.LEHE3:
	leaq	48(%rsp), %r13
	leaq	16(%rax), %rdx
	movq	%r13, 32(%rsp)
	movq	(%rax), %rcx
	cmpq	%rdx, %rcx
	je	.L421
	movq	%rcx, 32(%rsp)
	movq	16(%rax), %rcx
	movq	%rcx, 48(%rsp)
.L403:
	movq	8(%rax), %rcx
	movb	$0, 16(%rax)
	movq	%r14, %rdi
	movq	%rcx, 40(%rsp)
	movq	%rdx, (%rax)
	movq	$0, 8(%rax)
	call	strlen@PLT
	leaq	32(%rsp), %rdi
	movq	%r14, %rcx
	xorl	%edx, %edx
	movq	%rax, %r8
	xorl	%esi, %esi
.LEHB4:
	call	_ZNSt7__cxx1112basic_stringIcSt11char_traitsIcESaIcEE10_M_replaceEmmPKcm@PLT
.LEHE4:
	leaq	16(%rsp), %r14
	leaq	16(%rax), %rdx
	movq	%r14, (%rsp)
	movq	(%rax), %rcx
	cmpq	%rdx, %rcx
	je	.L422
	movq	%rcx, (%rsp)
	movq	16(%rax), %rcx
	movq	%rcx, 16(%rsp)
.L405:
	movq	8(%rax), %rcx
	movb	$0, 16(%rax)
	movq	%rsp, %rsi
	movq	%rbx, %rdi
	movq	%rcx, 8(%rsp)
	movq	%rdx, (%rax)
	movq	$0, 8(%rax)
.LEHB5:
	call	_ZNSt13runtime_errorC2ERKNSt7__cxx1112basic_stringIcSt11char_traitsIcESaIcEEE@PLT
.LEHE5:
	movq	(%rsp), %rdi
	cmpq	%r14, %rdi
	je	.L406
	movq	16(%rsp), %rax
	leaq	1(%rax), %rsi
	call	_ZdlPvm@PLT
.L406:
	movq	32(%rsp), %rdi
	cmpq	%r13, %rdi
	je	.L407
	movq	48(%rsp), %rax
	leaq	1(%rax), %rsi
	call	_ZdlPvm@PLT
.L407:
	movq	64(%rsp), %rdi
	leaq	80(%rsp), %rax
	cmpq	%rax, %rdi
	je	.L408
	movq	80(%rsp), %rax
	leaq	1(%rax), %rsi
	call	_ZdlPvm@PLT
.L408:
	movq	_ZTVSt12system_error@GOTPCREL(%rip), %rax
	movq	%r12, 16(%rbx)
	movq	%rbp, 24(%rbx)
	addq	$16, %rax
	movq	%rax, (%rbx)
	movq	104(%rsp), %rax
	subq	%fs:40, %rax
	jne	.L423
	addq	$112, %rsp
	.cfi_remember_state
	.cfi_def_cfa_offset 48
	popq	%rbx
	.cfi_def_cfa_offset 40
	popq	%rbp
	.cfi_def_cfa_offset 32
	popq	%r12
	.cfi_def_cfa_offset 24
	popq	%r13
	.cfi_def_cfa_offset 16
	popq	%r14
	.cfi_def_cfa_offset 8
	ret
	.p2align 4,,10
	.p2align 3
.L421:
	.cfi_restore_state
	movdqu	16(%rax), %xmm0
	movaps	%xmm0, 48(%rsp)
	jmp	.L403
	.p2align 4,,10
	.p2align 3
.L422:
	movdqu	16(%rax), %xmm1
	movaps	%xmm1, 16(%rsp)
	jmp	.L405
.L423:
	call	__stack_chk_fail@PLT
.L418:
	movq	%rax, %rbp
	jmp	.L409
.L416:
	movq	%rax, %rbp
	jmp	.L413
.L417:
	movq	%rax, %rbp
	jmp	.L411
.L409:
	movq	(%rsp), %rdi
	cmpq	%r14, %rdi
	je	.L411
	movq	16(%rsp), %rax
	leaq	1(%rax), %rsi
	call	_ZdlPvm@PLT
.L411:
	movq	32(%rsp), %rdi
	cmpq	%r13, %rdi
	je	.L413
	movq	48(%rsp), %rax
	leaq	1(%rax), %rsi
	call	_ZdlPvm@PLT
.L413:
	movq	64(%rsp), %rdi
	leaq	80(%rsp), %rax
	cmpq	%rax, %rdi
	je	.L414
	movq	80(%rsp), %rax
	leaq	1(%rax), %rsi
	call	_ZdlPvm@PLT
.L414:
	movq	%rbp, %rdi
.LEHB6:
	call	_Unwind_Resume@PLT
.LEHE6:
	.cfi_endproc
.LFE2323:
	.section	.gcc_except_table._ZNSt12system_errorC2ESt10error_codePKc,"aG",@progbits,_ZNSt12system_errorC5ESt10error_codePKc,comdat
.LLSDA2323:
	.byte	0xff
	.byte	0xff
	.byte	0x1
	.uleb128 .LLSDACSE2323-.LLSDACSB2323
.LLSDACSB2323:
	.uleb128 .LEHB2-.LFB2323
	.uleb128 .LEHE2-.LEHB2
	.uleb128 0
	.uleb128 0
	.uleb128 .LEHB3-.LFB2323
	.uleb128 .LEHE3-.LEHB3
	.uleb128 .L416-.LFB2323
	.uleb128 0
	.uleb128 .LEHB4-.LFB2323
	.uleb128 .LEHE4-.LEHB4
	.uleb128 .L417-.LFB2323
	.uleb128 0
	.uleb128 .LEHB5-.LFB2323
	.uleb128 .LEHE5-.LEHB5
	.uleb128 .L418-.LFB2323
	.uleb128 0
	.uleb128 .LEHB6-.LFB2323
	.uleb128 .LEHE6-.LEHB6
	.uleb128 0
	.uleb128 0
.LLSDACSE2323:
	.section	.text._ZNSt12system_errorC2ESt10error_codePKc,"axG",@progbits,_ZNSt12system_errorC5ESt10error_codePKc,comdat
	.size	_ZNSt12system_errorC2ESt10error_codePKc, .-_ZNSt12system_errorC2ESt10error_codePKc
	.weak	_ZNSt12system_errorC1ESt10error_codePKc
	.set	_ZNSt12system_errorC1ESt10error_codePKc,_ZNSt12system_errorC2ESt10error_codePKc
	.section	.text._ZN4asio15system_categoryEv,"axG",@progbits,_ZN4asio15system_categoryEv,comdat
	.p2align 4
	.weak	_ZN4asio15system_categoryEv
	.type	_ZN4asio15system_categoryEv, @function
_ZN4asio15system_categoryEv:
.LFB2388:
	.cfi_startproc
	pushq	%r12
	.cfi_def_cfa_offset 16
	.cfi_offset 12, -16
	pushq	%rbp
	.cfi_def_cfa_offset 24
	.cfi_offset 6, -24
	subq	$8, %rsp
	.cfi_def_cfa_offset 32
	movq	_ZGVZN4asio15system_categoryEvE8instance@GOTPCREL(%rip), %rbp
	movzbl	0(%rbp), %eax
	testb	%al, %al
	je	.L425
.L432:
	movq	_ZZN4asio15system_categoryEvE8instance@GOTPCREL(%rip), %r12
	addq	$8, %rsp
	.cfi_remember_state
	.cfi_def_cfa_offset 24
	popq	%rbp
	.cfi_def_cfa_offset 16
	movq	%r12, %rax
	popq	%r12
	.cfi_def_cfa_offset 8
	ret
	.p2align 4,,10
	.p2align 3
.L425:
	.cfi_restore_state
	movq	%rbp, %rdi
	call	__cxa_guard_acquire@PLT
	testl	%eax, %eax
	je	.L432
	movq	_ZZN4asio15system_categoryEvE8instance@GOTPCREL(%rip), %r12
	movq	_ZN4asio6detail15system_categoryD1Ev@GOTPCREL(%rip), %rdi
	leaq	__dso_handle(%rip), %rdx
	movq	%r12, %rsi
	call	__cxa_atexit@PLT
	movq	%rbp, %rdi
	call	__cxa_guard_release@PLT
	addq	$8, %rsp
	.cfi_def_cfa_offset 24
	movq	%r12, %rax
	popq	%rbp
	.cfi_def_cfa_offset 16
	popq	%r12
	.cfi_def_cfa_offset 8
	ret
	.cfi_endproc
.LFE2388:
	.size	_ZN4asio15system_categoryEv, .-_ZN4asio15system_categoryEv
	.section	.rodata.str1.8,"aMS",@progbits,1
	.align 8
.LC24:
	.string	"/home/master/projects/Procont_EE/utils/dnp3_src/cpp/libs/src/asiopal/TCPServer.cpp(57)"
	.section	.text.unlikely
	.align 2
.LCOLDB25:
	.text
.LHOTB25:
	.align 2
	.p2align 4
	.globl	_ZN7asiopal9TCPServer8ShutdownEv
	.type	_ZN7asiopal9TCPServer8ShutdownEv, @function
_ZN7asiopal9TCPServer8ShutdownEv:
.LFB7061:
	.cfi_startproc
	.cfi_personality 0x9b,DW.ref.__gxx_personality_v0
	.cfi_lsda 0x1b,.LLSDA7061
	pushq	%r15
	.cfi_def_cfa_offset 16
	.cfi_offset 15, -16
	movq	%rdi, %r15
	pushq	%r14
	.cfi_def_cfa_offset 24
	.cfi_offset 14, -24
	pushq	%r13
	.cfi_def_cfa_offset 32
	.cfi_offset 13, -32
	pushq	%r12
	.cfi_def_cfa_offset 40
	.cfi_offset 12, -40
	pushq	%rbp
	.cfi_def_cfa_offset 48
	.cfi_offset 6, -48
	pushq	%rbx
	.cfi_def_cfa_offset 56
	.cfi_offset 3, -56
	subq	$104, %rsp
	.cfi_def_cfa_offset 160
	movl	104(%rdi), %r12d
	movq	%fs:40, %rax
	movq	%rax, 88(%rsp)
	xorl	%eax, %eax
	cmpl	$-1, %r12d
	jne	.L434
.L464:
	movl	$-1, 104(%r15)
	movb	$0, 108(%r15)
.L433:
	movq	88(%rsp), %rax
	subq	%fs:40, %rax
	jne	.L540
	addq	$104, %rsp
	.cfi_remember_state
	.cfi_def_cfa_offset 56
	popq	%rbx
	.cfi_def_cfa_offset 48
	popq	%rbp
	.cfi_def_cfa_offset 40
	popq	%r12
	.cfi_def_cfa_offset 32
	popq	%r13
	.cfi_def_cfa_offset 24
	popq	%r14
	.cfi_def_cfa_offset 16
	popq	%r15
	.cfi_def_cfa_offset 8
	ret
	.p2align 4,,10
	.p2align 3
.L434:
	.cfi_restore_state
	movq	112(%rdi), %rbp
	testq	%rbp, %rbp
	je	.L436
	movq	128(%rdi), %rax
	movzbl	108(%rdi), %ebx
	movq	40(%rax), %rax
	movq	%rax, 16(%rsp)
	leaq	40(%rbp), %rax
	movq	%rax, %rdi
	movq	%rax, 24(%rsp)
	call	pthread_mutex_lock@PLT
	movq	112(%r15), %r11
	cmpb	$0, 144(%r11)
	jne	.L437
	andl	$64, %ebx
	jne	.L541
.L438:
	movq	$0, 8(%rsp)
	xorl	%ebp, %ebp
	movl	$0, 4(%rsp)
.L447:
	movslq	4(%rsp), %r10
	movq	%r10, %rax
	salq	$4, %rax
	movq	96(%rax,%r11), %rbx
	testq	%rbx, %rbx
	je	.L483
	movq	_ZGVZN4asio15system_categoryEvE8instance@GOTPCREL(%rip), %r14
	movq	_ZZN4asio15system_categoryEvE8instance@GOTPCREL(%rip), %r12
	movq	%rax, %r13
	movzbl	(%r14), %eax
	testb	%al, %al
	je	.L542
	.p2align 4,,10
	.p2align 3
.L442:
	movq	112(%r15), %r11
	movl	$125, 24(%rbx)
	movq	%r12, 32(%rbx)
	leaq	(%r11,%r13), %rdi
	movq	96(%rdi), %rax
	testq	%rax, %rax
	je	.L444
	movq	(%rax), %rdx
	movq	%rdx, 96(%rdi)
	testq	%rdx, %rdx
	je	.L543
	movq	$0, (%rax)
	movq	$0, (%rbx)
	testq	%rbp, %rbp
	je	.L544
.L481:
	movq	%rbx, 0(%rbp)
	testq	%rdx, %rdx
	je	.L439
.L446:
	movzbl	(%r14), %eax
	movq	%rbx, %rbp
	movq	%rdx, %rbx
	testb	%al, %al
	jne	.L442
.L542:
	movq	%r14, %rdi
	call	__cxa_guard_acquire@PLT
	testl	%eax, %eax
	je	.L442
	movq	_ZN4asio6detail15system_categoryD1Ev@GOTPCREL(%rip), %rdi
	leaq	__dso_handle(%rip), %rdx
	movq	%r12, %rsi
	call	__cxa_atexit@PLT
	movq	%r14, %rdi
	call	__cxa_guard_release@PLT
	jmp	.L442
	.p2align 4,,10
	.p2align 3
.L437:
	movq	24(%rsp), %rdi
	call	pthread_mutex_unlock@PLT
.L458:
	movl	104(%r15), %r12d
	cmpl	$-1, %r12d
	je	.L464
.L436:
	call	__errno_location@PLT
	movl	%r12d, %edi
	movl	$0, (%rax)
	movq	%rax, %rbx
.LEHB7:
	call	close@PLT
	movq	_ZGVZN4asio15system_categoryEvE8instance@GOTPCREL(%rip), %r14
	movl	%eax, %ebp
	movzbl	(%r14), %eax
	testb	%al, %al
	je	.L545
.L466:
	testl	%ebp, %ebp
	je	.L464
	movl	(%rbx), %r13d
	movzbl	(%r14), %eax
	testb	%al, %al
	je	.L546
.L469:
	cmpl	$11, %r13d
	je	.L471
	movzbl	(%r14), %eax
	testb	%al, %al
	je	.L547
.L472:
	movl	$-1, 104(%r15)
	movb	$0, 108(%r15)
	testl	%r13d, %r13d
	je	.L433
	addq	$24, %r15
	leaq	36(%rsp), %r12
	movl	$2, 36(%rsp)
	movq	%r12, %rsi
	movq	%r15, %rdi
	call	_ZNK7openpal6Logger9IsEnabledERKNS_10LogFiltersE@PLT
	testb	%al, %al
	je	.L433
	movq	_ZZN4asio15system_categoryEvE8instance@GOTPCREL(%rip), %rsi
	leaq	48(%rsp), %rdi
	movl	%r13d, %edx
	call	_ZNK4asio6detail15system_category7messageB5cxx11Ei@PLT
.LEHE7:
	movq	48(%rsp), %rcx
	movq	%r12, %rsi
	movq	%r15, %rdi
	leaq	.LC24(%rip), %rdx
	movl	$2, 36(%rsp)
.LEHB8:
	call	_ZN7openpal6Logger3LogERKNS_10LogFiltersEPKcS5_@PLT
.LEHE8:
	movq	48(%rsp), %rdi
	leaq	64(%rsp), %rax
	cmpq	%rax, %rdi
	je	.L433
	movq	64(%rsp), %rax
	leaq	1(%rax), %rsi
	call	_ZdlPvm@PLT
	jmp	.L433
	.p2align 4,,10
	.p2align 3
.L545:
	movq	%r14, %rdi
	call	__cxa_guard_acquire@PLT
	testl	%eax, %eax
	je	.L466
	movq	_ZZN4asio15system_categoryEvE8instance@GOTPCREL(%rip), %rsi
	movq	_ZN4asio6detail15system_categoryD1Ev@GOTPCREL(%rip), %rdi
	leaq	__dso_handle(%rip), %rdx
	call	__cxa_atexit@PLT
	movq	%r14, %rdi
	call	__cxa_guard_release@PLT
	jmp	.L466
	.p2align 4,,10
	.p2align 3
.L546:
	movq	%r14, %rdi
	call	__cxa_guard_acquire@PLT
	testl	%eax, %eax
	je	.L469
	movq	_ZZN4asio15system_categoryEvE8instance@GOTPCREL(%rip), %rsi
	movq	_ZN4asio6detail15system_categoryD1Ev@GOTPCREL(%rip), %rdi
	leaq	__dso_handle(%rip), %rdx
	call	__cxa_atexit@PLT
	movq	%r14, %rdi
	call	__cxa_guard_release@PLT
	jmp	.L469
	.p2align 4,,10
	.p2align 3
.L444:
	movq	$0, (%rbx)
	testq	%rbp, %rbp
	je	.L486
	movq	%rbx, 0(%rbp)
.L439:
	addl	$1, 4(%rsp)
	movl	4(%rsp), %eax
	cmpl	$3, %eax
	je	.L548
.L485:
	movq	%rbx, %rbp
	jmp	.L447
	.p2align 4,,10
	.p2align 3
.L543:
	movq	$0, 104(%rdi)
	movq	$0, (%rax)
	movq	$0, (%rbx)
	testq	%rbp, %rbp
	jne	.L481
	.p2align 4,,10
	.p2align 3
.L486:
	addl	$1, 4(%rsp)
	movl	4(%rsp), %eax
	movq	%rbx, 8(%rsp)
	cmpl	$3, %eax
	jne	.L485
.L548:
	movl	$-1, 88(%r11)
	movq	24(%rsp), %rdi
	movb	$1, 144(%r11)
	call	pthread_mutex_unlock@PLT
	movq	16(%rsp), %r14
	movq	112(%r15), %rbp
	leaq	120(%r14), %r12
	movq	%r12, %rdi
	call	pthread_mutex_lock@PLT
	cmpq	160(%r14), %rbp
	je	.L549
.L448:
	movq	32(%rbp), %rax
	testq	%rax, %rax
	je	.L449
	movq	24(%rbp), %rdx
	movq	%rdx, 24(%rax)
.L449:
	movq	24(%rbp), %rax
	testq	%rax, %rax
	je	.L450
	movq	32(%rbp), %rdx
	movq	%rdx, 32(%rax)
.L450:
	movq	16(%rsp), %r14
	movq	%r12, %rdi
	movq	168(%r14), %rax
	movq	$0, 32(%rbp)
	movq	%rax, 24(%rbp)
	movq	%rbp, 168(%r14)
	call	pthread_mutex_unlock@PLT
	cmpq	$0, 8(%rsp)
	movq	$0, 112(%r15)
	je	.L458
	movq	40(%r14), %rbp
	cmpb	$0, 40(%rbp)
	je	.L452
	data16	leaq	_ZN4asio6detail15keyword_tss_ptrINS0_10call_stackINS0_15task_io_serviceENS0_27task_io_service_thread_infoEE7contextEE6value_E@tlsgd(%rip), %rdi
	.value	0x6666
	rex64
	call	__tls_get_addr@PLT
	movq	(%rax), %rax
	testq	%rax, %rax
	jne	.L455
	jmp	.L452
	.p2align 4,,10
	.p2align 3
.L453:
	movq	16(%rax), %rax
	testq	%rax, %rax
	je	.L452
.L455:
	cmpq	(%rax), %rbp
	jne	.L453
	movq	8(%rax), %rax
	testq	%rax, %rax
	je	.L452
	movq	16(%rax), %rdx
	movq	8(%rsp), %rcx
	testq	%rdx, %rdx
	je	.L456
	movq	%rcx, (%rdx)
.L457:
	movq	%rbx, 16(%rax)
	jmp	.L458
	.p2align 4,,10
	.p2align 3
.L544:
	movq	%rbx, 8(%rsp)
	jmp	.L446
	.p2align 4,,10
	.p2align 3
.L452:
	leaq	48(%rbp), %r12
	movq	%r12, %rdi
	call	pthread_mutex_lock@PLT
	movq	200(%rbp), %rax
	testq	%rax, %rax
	je	.L459
	movq	8(%rsp), %rcx
	movq	%rcx, (%rax)
.L460:
	movq	136(%rbp), %rax
	movq	%rbx, 200(%rbp)
	orq	$1, %rax
	movq	%rax, 136(%rbp)
	cmpq	$1, %rax
	je	.L461
	movq	%r12, %rdi
	call	pthread_mutex_unlock@PLT
	leaq	88(%rbp), %rdi
	call	pthread_cond_signal@PLT
	jmp	.L458
.L461:
	cmpb	$0, 176(%rbp)
	jne	.L463
	movq	144(%rbp), %rax
	testq	%rax, %rax
	je	.L463
	movb	$1, 176(%rbp)
	leaq	88(%rax), %rdx
	leaq	36(%rsp), %rcx
	movl	$3, %esi
	movq	%rdx, 40(%rsp)
	movl	88(%rax), %edx
	movl	$-2147483639, 36(%rsp)
	movl	96(%rax), %edi
	call	epoll_ctl@PLT
.L463:
	movq	%r12, %rdi
	call	pthread_mutex_unlock@PLT
	jmp	.L458
	.p2align 4,,10
	.p2align 3
.L547:
	movq	%r14, %rdi
	call	__cxa_guard_acquire@PLT
	testl	%eax, %eax
	je	.L472
	movq	_ZZN4asio15system_categoryEvE8instance@GOTPCREL(%rip), %rsi
	movq	_ZN4asio6detail15system_categoryD1Ev@GOTPCREL(%rip), %rdi
	leaq	__dso_handle(%rip), %rdx
	call	__cxa_atexit@PLT
	movq	%r14, %rdi
	call	__cxa_guard_release@PLT
	jmp	.L472
	.p2align 4,,10
	.p2align 3
.L483:
	movq	%rbp, %rbx
	jmp	.L439
	.p2align 4,,10
	.p2align 3
.L541:
	movq	16(%rsp), %rax
	movl	$0, 36(%rsp)
	leaq	36(%rsp), %rcx
	movl	%r12d, %edx
	movq	$0, 40(%rsp)
	movl	$2, %esi
	movl	96(%rax), %edi
	call	epoll_ctl@PLT
	movq	112(%r15), %r11
	jmp	.L438
	.p2align 4,,10
	.p2align 3
.L549:
	movq	24(%rbp), %rax
	movq	16(%rsp), %rcx
	movq	%rax, 160(%rcx)
	jmp	.L448
	.p2align 4,,10
	.p2align 3
.L471:
	leaq	36(%rsp), %rdx
	movl	$21537, %esi
	movl	%r12d, %edi
	xorl	%eax, %eax
	movl	$0, 36(%rsp)
	call	ioctl@PLT
	andb	$-4, 108(%r15)
	movl	%r12d, %edi
	movl	$0, (%rbx)
.LEHB9:
	call	close@PLT
.LEHE9:
	movl	%eax, %ebp
	movzbl	(%r14), %eax
	testb	%al, %al
	je	.L550
.L474:
	movl	(%rbx), %r13d
	testl	%ebp, %ebp
	jne	.L472
	jmp	.L464
	.p2align 4,,10
	.p2align 3
.L459:
	movq	8(%rsp), %rax
	movq	%rax, 192(%rbp)
	jmp	.L460
.L550:
	movq	%r14, %rdi
	call	__cxa_guard_acquire@PLT
	testl	%eax, %eax
	je	.L474
	movq	_ZZN4asio15system_categoryEvE8instance@GOTPCREL(%rip), %rsi
	movq	_ZN4asio6detail15system_categoryD1Ev@GOTPCREL(%rip), %rdi
	leaq	__dso_handle(%rip), %rdx
	call	__cxa_atexit@PLT
	movq	%r14, %rdi
	call	__cxa_guard_release@PLT
	jmp	.L474
.L456:
	movq	%rcx, 8(%rax)
	jmp	.L457
.L540:
	call	__stack_chk_fail@PLT
.L487:
	movq	%rax, %rbp
	jmp	.L479
	.section	.gcc_except_table,"a",@progbits
.LLSDA7061:
	.byte	0xff
	.byte	0xff
	.byte	0x1
	.uleb128 .LLSDACSE7061-.LLSDACSB7061
.LLSDACSB7061:
	.uleb128 .LEHB7-.LFB7061
	.uleb128 .LEHE7-.LEHB7
	.uleb128 0
	.uleb128 0
	.uleb128 .LEHB8-.LFB7061
	.uleb128 .LEHE8-.LEHB8
	.uleb128 .L487-.LFB7061
	.uleb128 0
	.uleb128 .LEHB9-.LFB7061
	.uleb128 .LEHE9-.LEHB9
	.uleb128 0
	.uleb128 0
.LLSDACSE7061:
	.text
	.cfi_endproc
	.section	.text.unlikely
	.cfi_startproc
	.cfi_personality 0x9b,DW.ref.__gxx_personality_v0
	.cfi_lsda 0x1b,.LLSDAC7061
	.type	_ZN7asiopal9TCPServer8ShutdownEv.cold, @function
_ZN7asiopal9TCPServer8ShutdownEv.cold:
.LFSB7061:
.L479:
	.cfi_def_cfa_offset 160
	.cfi_offset 3, -56
	.cfi_offset 6, -48
	.cfi_offset 12, -40
	.cfi_offset 13, -32
	.cfi_offset 14, -24
	.cfi_offset 15, -16
	movq	48(%rsp), %rdi
	leaq	64(%rsp), %rax
	cmpq	%rax, %rdi
	je	.L480
	movq	64(%rsp), %rax
	leaq	1(%rax), %rsi
	call	_ZdlPvm@PLT
.L480:
	movq	%rbp, %rdi
.LEHB10:
	call	_Unwind_Resume@PLT
.LEHE10:
	.cfi_endproc
.LFE7061:
	.section	.gcc_except_table
.LLSDAC7061:
	.byte	0xff
	.byte	0xff
	.byte	0x1
	.uleb128 .LLSDACSEC7061-.LLSDACSBC7061
.LLSDACSBC7061:
	.uleb128 .LEHB10-.LCOLDB25
	.uleb128 .LEHE10-.LEHB10
	.uleb128 0
	.uleb128 0
.LLSDACSEC7061:
	.section	.text.unlikely
	.text
	.size	_ZN7asiopal9TCPServer8ShutdownEv, .-_ZN7asiopal9TCPServer8ShutdownEv
	.section	.text.unlikely
	.size	_ZN7asiopal9TCPServer8ShutdownEv.cold, .-_ZN7asiopal9TCPServer8ShutdownEv.cold
.LCOLDE25:
	.text
.LHOTE25:
	.section	.text._ZN4asio6detail13epoll_reactor32perform_io_cleanup_on_block_exitD2Ev,"axG",@progbits,_ZN4asio6detail13epoll_reactor32perform_io_cleanup_on_block_exitD5Ev,comdat
	.align 2
	.p2align 4
	.weak	_ZN4asio6detail13epoll_reactor32perform_io_cleanup_on_block_exitD2Ev
	.type	_ZN4asio6detail13epoll_reactor32perform_io_cleanup_on_block_exitD2Ev, @function
_ZN4asio6detail13epoll_reactor32perform_io_cleanup_on_block_exitD2Ev:
.LFB3321:
	.cfi_startproc
	.cfi_personality 0x9b,DW.ref.__gxx_personality_v0
	.cfi_lsda 0x1b,.LLSDA3321
	pushq	%r13
	.cfi_def_cfa_offset 16
	.cfi_offset 13, -16
	pushq	%r12
	.cfi_def_cfa_offset 24
	.cfi_offset 12, -24
	pushq	%rbp
	.cfi_def_cfa_offset 32
	.cfi_offset 6, -32
	pushq	%rbx
	.cfi_def_cfa_offset 40
	.cfi_offset 3, -40
	movq	%rdi, %rbx
	subq	$56, %rsp
	.cfi_def_cfa_offset 96
	movq	%fs:40, %rax
	movq	%rax, 40(%rsp)
	xorl	%eax, %eax
	cmpq	$0, 24(%rdi)
	je	.L552
	movq	8(%rdi), %r12
	testq	%r12, %r12
	je	.L551
	movq	(%rdi), %rax
	movq	40(%rax), %rbp
	cmpb	$0, 40(%rbp)
	je	.L554
	data16	leaq	_ZN4asio6detail15keyword_tss_ptrINS0_10call_stackINS0_15task_io_serviceENS0_27task_io_service_thread_infoEE7contextEE6value_E@tlsgd(%rip), %rdi
	.value	0x6666
	rex64
	call	__tls_get_addr@PLT
	movq	(%rax), %rax
	testq	%rax, %rax
	jne	.L557
	.p2align 4,,10
	.p2align 3
.L554:
	leaq	48(%rbp), %r13
	movq	%r13, %rdi
	call	pthread_mutex_lock@PLT
	movq	8(%rbx), %rax
	testq	%rax, %rax
	je	.L560
	movq	200(%rbp), %rdx
	testq	%rdx, %rdx
	je	.L561
	movq	%rax, (%rdx)
.L562:
	movq	16(%rbx), %rax
	pxor	%xmm0, %xmm0
	movq	%rax, 200(%rbp)
	movups	%xmm0, 8(%rbx)
.L560:
	movq	136(%rbp), %rax
	orq	$1, %rax
	movq	%rax, 136(%rbp)
	cmpq	$1, %rax
	je	.L563
	movq	%r13, %rdi
	call	pthread_mutex_unlock@PLT
	leaq	88(%rbp), %rdi
	call	pthread_cond_signal@PLT
.L567:
	movq	8(%rbx), %rsi
	testq	%rsi, %rsi
	je	.L551
	movq	%rsi, 8(%rsp)
	leaq	16(%rsp), %r12
	call	_ZNSt3_V215system_categoryEv@PLT
	movq	8(%rsp), %rsi
	movq	%rax, %rbp
	jmp	.L570
	.p2align 4,,10
	.p2align 3
.L568:
	movq	$0, (%rsi)
	movq	8(%rsi), %rax
	xorl	%ecx, %ecx
	movq	%r12, %rdx
	movl	$0, 16(%rsp)
	xorl	%edi, %edi
	movq	%rbp, 24(%rsp)
	call	*%rax
	movq	8(%rbx), %rsi
	testq	%rsi, %rsi
	je	.L551
.L570:
	movq	(%rsi), %rax
	movq	%rax, 8(%rbx)
	testq	%rax, %rax
	jne	.L568
	movq	$0, 16(%rbx)
	jmp	.L568
	.p2align 4,,10
	.p2align 3
.L555:
	movq	16(%rax), %rax
	testq	%rax, %rax
	je	.L554
.L557:
	cmpq	(%rax), %rbp
	jne	.L555
	movq	8(%rax), %rax
	testq	%rax, %rax
	je	.L554
	movq	16(%rax), %rdx
	testq	%rdx, %rdx
	je	.L558
	movq	%r12, (%rdx)
.L559:
	movq	16(%rbx), %rdx
	movq	%rdx, 16(%rax)
	.p2align 4,,10
	.p2align 3
.L551:
	movq	40(%rsp), %rax
	subq	%fs:40, %rax
	jne	.L599
	addq	$56, %rsp
	.cfi_remember_state
	.cfi_def_cfa_offset 40
	popq	%rbx
	.cfi_def_cfa_offset 32
	popq	%rbp
	.cfi_def_cfa_offset 24
	popq	%r12
	.cfi_def_cfa_offset 16
	popq	%r13
	.cfi_def_cfa_offset 8
	ret
	.p2align 4,,10
	.p2align 3
.L552:
	.cfi_restore_state
	movq	(%rdi), %rax
	movq	40(%rax), %rax
	lock addq	$1, 184(%rax)
	jmp	.L567
	.p2align 4,,10
	.p2align 3
.L563:
	cmpb	$0, 176(%rbp)
	jne	.L565
	movq	144(%rbp), %rax
	testq	%rax, %rax
	je	.L565
	movb	$1, 176(%rbp)
	leaq	88(%rax), %rdx
	leaq	16(%rsp), %r12
	movl	$3, %esi
	movq	%rdx, 20(%rsp)
	movl	88(%rax), %edx
	movq	%r12, %rcx
	movl	$-2147483639, 16(%rsp)
	movl	96(%rax), %edi
	call	epoll_ctl@PLT
.L565:
	movq	%r13, %rdi
	call	pthread_mutex_unlock@PLT
	jmp	.L567
.L561:
	movq	%rax, 192(%rbp)
	jmp	.L562
.L558:
	movq	%r12, 8(%rax)
	jmp	.L559
.L599:
	call	__stack_chk_fail@PLT
	.cfi_endproc
.LFE3321:
	.section	.gcc_except_table
.LLSDA3321:
	.byte	0xff
	.byte	0xff
	.byte	0x1
	.uleb128 .LLSDACSE3321-.LLSDACSB3321
.LLSDACSB3321:
.LLSDACSE3321:
	.section	.text._ZN4asio6detail13epoll_reactor32perform_io_cleanup_on_block_exitD2Ev,"axG",@progbits,_ZN4asio6detail13epoll_reactor32perform_io_cleanup_on_block_exitD5Ev,comdat
	.size	_ZN4asio6detail13epoll_reactor32perform_io_cleanup_on_block_exitD2Ev, .-_ZN4asio6detail13epoll_reactor32perform_io_cleanup_on_block_exitD2Ev
	.weak	_ZN4asio6detail13epoll_reactor32perform_io_cleanup_on_block_exitD1Ev
	.set	_ZN4asio6detail13epoll_reactor32perform_io_cleanup_on_block_exitD1Ev,_ZN4asio6detail13epoll_reactor32perform_io_cleanup_on_block_exitD2Ev
	.section	.text._ZN4asio6detail13epoll_reactor16descriptor_state11do_completeEPNS0_15task_io_serviceEPNS0_25task_io_service_operationERKSt10error_codem,"axG",@progbits,_ZN4asio6detail13epoll_reactor16descriptor_state11do_completeEPNS0_15task_io_serviceEPNS0_25task_io_service_operationERKSt10error_codem,comdat
	.align 2
	.p2align 4
	.weak	_ZN4asio6detail13epoll_reactor16descriptor_state11do_completeEPNS0_15task_io_serviceEPNS0_25task_io_service_operationERKSt10error_codem
	.type	_ZN4asio6detail13epoll_reactor16descriptor_state11do_completeEPNS0_15task_io_serviceEPNS0_25task_io_service_operationERKSt10error_codem, @function
_ZN4asio6detail13epoll_reactor16descriptor_state11do_completeEPNS0_15task_io_serviceEPNS0_25task_io_service_operationERKSt10error_codem:
.LFB3327:
	.cfi_startproc
	.cfi_personality 0x9b,DW.ref.__gxx_personality_v0
	.cfi_lsda 0x1b,.LLSDA3327
	pushq	%r15
	.cfi_def_cfa_offset 16
	.cfi_offset 15, -16
	pushq	%r14
	.cfi_def_cfa_offset 24
	.cfi_offset 14, -24
	pushq	%r13
	.cfi_def_cfa_offset 32
	.cfi_offset 13, -32
	pushq	%r12
	.cfi_def_cfa_offset 40
	.cfi_offset 12, -40
	pushq	%rbp
	.cfi_def_cfa_offset 48
	.cfi_offset 6, -48
	pushq	%rbx
	.cfi_def_cfa_offset 56
	.cfi_offset 3, -56
	subq	$88, %rsp
	.cfi_def_cfa_offset 144
	movq	%rdx, 8(%rsp)
	movq	%fs:40, %rax
	movq	%rax, 72(%rsp)
	xorl	%eax, %eax
	testq	%rdi, %rdi
	je	.L600
	leaq	40(%rsi), %r15
	movq	%rsi, %rbp
	movq	%rdi, %r14
	movl	%ecx, %r13d
	movq	%r15, %rdi
	subq	$-128, %rbp
	call	pthread_mutex_lock@PLT
	movq	-48(%rbp), %rax
	movq	_ZZN4asio6detail13epoll_reactor16descriptor_state10perform_ioEjE4flag@GOTPCREL(%rip), %r12
	movq	$0, 40(%rsp)
	movq	$0, 48(%rsp)
	movq	%rax, 32(%rsp)
	leaq	-12(%r12), %rax
	movq	$0, 56(%rsp)
	movq	%rax, (%rsp)
.L609:
	movl	8(%r12), %eax
	orl	$24, %eax
	testl	%r13d, %eax
	jne	.L681
.L603:
	subq	$4, %r12
	subq	$16, %rbp
	cmpq	%r12, (%rsp)
	jne	.L609
	movq	40(%rsp), %rbp
	movq	%rbp, 56(%rsp)
	testq	%rbp, %rbp
	je	.L610
	movq	0(%rbp), %rax
	movq	%rax, 40(%rsp)
	testq	%rax, %rax
	je	.L682
.L611:
	movq	$0, 0(%rbp)
.L610:
	movq	%r15, %rdi
	call	pthread_mutex_unlock@PLT
	cmpq	$0, 56(%rsp)
	je	.L612
	movq	40(%rsp), %r12
	testq	%r12, %r12
	je	.L613
	movq	32(%rsp), %rax
	movq	40(%rax), %rbx
	cmpb	$0, 40(%rbx)
	je	.L614
	data16	leaq	_ZN4asio6detail15keyword_tss_ptrINS0_10call_stackINS0_15task_io_serviceENS0_27task_io_service_thread_infoEE7contextEE6value_E@tlsgd(%rip), %rdi
	.value	0x6666
	rex64
	call	__tls_get_addr@PLT
	movq	(%rax), %rax
	testq	%rax, %rax
	jne	.L617
	jmp	.L614
	.p2align 4,,10
	.p2align 3
.L615:
	movq	16(%rax), %rax
	testq	%rax, %rax
	je	.L614
.L617:
	cmpq	(%rax), %rbx
	jne	.L615
	movq	8(%rax), %rax
	testq	%rax, %rax
	je	.L614
	movq	16(%rax), %rdx
	testq	%rdx, %rdx
	je	.L618
	movq	%r12, (%rdx)
.L619:
	movq	48(%rsp), %rdx
	movq	%rdx, 16(%rax)
	.p2align 4,,10
	.p2align 3
.L613:
	testq	%rbp, %rbp
	je	.L600
	movq	72(%rsp), %rax
	subq	%fs:40, %rax
	jne	.L680
	movq	8(%rbp), %rax
	movq	8(%rsp), %rdx
	addq	$88, %rsp
	.cfi_remember_state
	.cfi_def_cfa_offset 56
	movq	%rbp, %rsi
	popq	%rbx
	.cfi_def_cfa_offset 48
	movq	%r14, %rdi
	popq	%rbp
	.cfi_def_cfa_offset 40
	xorl	%ecx, %ecx
	popq	%r12
	.cfi_def_cfa_offset 32
	popq	%r13
	.cfi_def_cfa_offset 24
	popq	%r14
	.cfi_def_cfa_offset 16
	popq	%r15
	.cfi_def_cfa_offset 8
.LEHB11:
	jmp	*%rax
.LEHE11:
	.p2align 4,,10
	.p2align 3
.L600:
	.cfi_restore_state
	movq	72(%rsp), %rax
	subq	%fs:40, %rax
	jne	.L680
	addq	$88, %rsp
	.cfi_remember_state
	.cfi_def_cfa_offset 56
	popq	%rbx
	.cfi_def_cfa_offset 48
	popq	%rbp
	.cfi_def_cfa_offset 40
	popq	%r12
	.cfi_def_cfa_offset 32
	popq	%r13
	.cfi_def_cfa_offset 24
	popq	%r14
	.cfi_def_cfa_offset 16
	popq	%r15
	.cfi_def_cfa_offset 8
	ret
	.p2align 4,,10
	.p2align 3
.L681:
	.cfi_restore_state
	movq	0(%rbp), %rbx
	testq	%rbx, %rbx
	jne	.L604
	jmp	.L603
	.p2align 4,,10
	.p2align 3
.L684:
	movq	%rbx, (%rdx)
	movq	%rbx, 48(%rsp)
.L608:
	testq	%rax, %rax
	je	.L603
	movq	%rax, %rbx
.L604:
	movq	%rbx, %rdi
.LEHB12:
	call	*48(%rbx)
.LEHE12:
	testb	%al, %al
	je	.L603
	movq	0(%rbp), %rdx
	xorl	%eax, %eax
	testq	%rdx, %rdx
	je	.L605
	movq	(%rdx), %rax
	movq	%rax, 0(%rbp)
	testq	%rax, %rax
	je	.L683
.L606:
	movq	$0, (%rdx)
.L605:
	movq	48(%rsp), %rdx
	movq	$0, (%rbx)
	testq	%rdx, %rdx
	jne	.L684
	movq	%rbx, %xmm0
	punpcklqdq	%xmm0, %xmm0
	movups	%xmm0, 40(%rsp)
	jmp	.L608
	.p2align 4,,10
	.p2align 3
.L683:
	movq	$0, 8(%rbp)
	jmp	.L606
	.p2align 4,,10
	.p2align 3
.L612:
	movq	32(%rsp), %rax
	movq	40(%rax), %rax
	lock addq	$1, 184(%rax)
.L626:
	movq	40(%rsp), %rsi
	testq	%rsi, %rsi
	movq	%rsi, (%rsp)
	je	.L613
	call	_ZNSt3_V215system_categoryEv@PLT
	leaq	16(%rsp), %r12
	movq	(%rsp), %rsi
	movq	%rax, %rbx
	jmp	.L629
	.p2align 4,,10
	.p2align 3
.L627:
	movq	$0, (%rsi)
	movq	8(%rsi), %rax
	xorl	%ecx, %ecx
	movq	%r12, %rdx
	movl	$0, 16(%rsp)
	xorl	%edi, %edi
	movq	%rbx, 24(%rsp)
	call	*%rax
	movq	40(%rsp), %rsi
	testq	%rsi, %rsi
	je	.L613
.L629:
	movq	(%rsi), %rax
	movq	%rax, 40(%rsp)
	testq	%rax, %rax
	jne	.L627
	movq	$0, 48(%rsp)
	jmp	.L627
	.p2align 4,,10
	.p2align 3
.L614:
	leaq	48(%rbx), %r13
	movq	%r13, %rdi
	call	pthread_mutex_lock@PLT
	movq	40(%rsp), %rax
	testq	%rax, %rax
	je	.L620
	movq	200(%rbx), %rdx
	testq	%rdx, %rdx
	je	.L621
	movq	%rax, (%rdx)
.L622:
	movq	48(%rsp), %rax
	pxor	%xmm0, %xmm0
	movups	%xmm0, 40(%rsp)
	movq	%rax, 200(%rbx)
.L620:
	movq	136(%rbx), %rax
	orq	$1, %rax
	movq	%rax, 136(%rbx)
	cmpq	$1, %rax
	je	.L623
	movq	%r13, %rdi
	call	pthread_mutex_unlock@PLT
	leaq	88(%rbx), %rdi
	call	pthread_cond_signal@PLT
	jmp	.L626
	.p2align 4,,10
	.p2align 3
.L682:
	movq	$0, 48(%rsp)
	jmp	.L611
	.p2align 4,,10
	.p2align 3
.L623:
	cmpb	$0, 176(%rbx)
	jne	.L625
	movq	144(%rbx), %rax
	testq	%rax, %rax
	je	.L625
	movb	$1, 176(%rbx)
	leaq	88(%rax), %rdx
	leaq	16(%rsp), %r12
	movl	$3, %esi
	movq	%rdx, 20(%rsp)
	movl	88(%rax), %edx
	movq	%r12, %rcx
	movl	$-2147483639, 16(%rsp)
	movl	96(%rax), %edi
	call	epoll_ctl@PLT
.L625:
	movq	%r13, %rdi
	call	pthread_mutex_unlock@PLT
	jmp	.L626
.L618:
	movq	%r12, 8(%rax)
	jmp	.L619
.L621:
	movq	%rax, 192(%rbx)
	jmp	.L622
.L680:
	call	__stack_chk_fail@PLT
.L636:
	movq	%rax, %rbp
.L630:
	movq	%r15, %rdi
	call	pthread_mutex_unlock@PLT
	leaq	32(%rsp), %rdi
	call	_ZN4asio6detail13epoll_reactor32perform_io_cleanup_on_block_exitD1Ev@PLT
	movq	%rbp, %rdi
.LEHB13:
	call	_Unwind_Resume@PLT
.LEHE13:
	.cfi_endproc
.LFE3327:
	.section	.gcc_except_table
.LLSDA3327:
	.byte	0xff
	.byte	0xff
	.byte	0x1
	.uleb128 .LLSDACSE3327-.LLSDACSB3327
.LLSDACSB3327:
	.uleb128 .LEHB11-.LFB3327
	.uleb128 .LEHE11-.LEHB11
	.uleb128 0
	.uleb128 0
	.uleb128 .LEHB12-.LFB3327
	.uleb128 .LEHE12-.LEHB12
	.uleb128 .L636-.LFB3327
	.uleb128 0
	.uleb128 .LEHB13-.LFB3327
	.uleb128 .LEHE13-.LEHB13
	.uleb128 0
	.uleb128 0
.LLSDACSE3327:
	.section	.text._ZN4asio6detail13epoll_reactor16descriptor_state11do_completeEPNS0_15task_io_serviceEPNS0_25task_io_service_operationERKSt10error_codem,"axG",@progbits,_ZN4asio6detail13epoll_reactor16descriptor_state11do_completeEPNS0_15task_io_serviceEPNS0_25task_io_service_operationERKSt10error_codem,comdat
	.size	_ZN4asio6detail13epoll_reactor16descriptor_state11do_completeEPNS0_15task_io_serviceEPNS0_25task_io_service_operationERKSt10error_codem, .-_ZN4asio6detail13epoll_reactor16descriptor_state11do_completeEPNS0_15task_io_serviceEPNS0_25task_io_service_operationERKSt10error_codem
	.section	.text._ZN4asio6detail13socket_holderD2Ev,"axG",@progbits,_ZN4asio6detail13socket_holderD5Ev,comdat
	.align 2
	.p2align 4
	.weak	_ZN4asio6detail13socket_holderD2Ev
	.type	_ZN4asio6detail13socket_holderD2Ev, @function
_ZN4asio6detail13socket_holderD2Ev:
.LFB3776:
	.cfi_startproc
	.cfi_personality 0x9b,DW.ref.__gxx_personality_v0
	.cfi_lsda 0x1b,.LLSDA3776
	pushq	%r13
	.cfi_def_cfa_offset 16
	.cfi_offset 13, -16
	pushq	%r12
	.cfi_def_cfa_offset 24
	.cfi_offset 12, -24
	pushq	%rbp
	.cfi_def_cfa_offset 32
	.cfi_offset 6, -32
	pushq	%rbx
	.cfi_def_cfa_offset 40
	.cfi_offset 3, -40
	subq	$24, %rsp
	.cfi_def_cfa_offset 64
	movl	(%rdi), %ebp
	movq	%fs:40, %rax
	movq	%rax, 8(%rsp)
	xorl	%eax, %eax
	cmpl	$-1, %ebp
	jne	.L719
.L685:
	movq	8(%rsp), %rax
	subq	%fs:40, %rax
	jne	.L718
	addq	$24, %rsp
	.cfi_remember_state
	.cfi_def_cfa_offset 40
	popq	%rbx
	.cfi_def_cfa_offset 32
	popq	%rbp
	.cfi_def_cfa_offset 24
	popq	%r12
	.cfi_def_cfa_offset 16
	popq	%r13
	.cfi_def_cfa_offset 8
	ret
	.p2align 4,,10
	.p2align 3
.L719:
	.cfi_restore_state
	call	__errno_location@PLT
	movl	%ebp, %edi
	movl	$0, (%rax)
	movq	%rax, %rbx
	call	close@PLT
	movq	_ZGVZN4asio15system_categoryEvE8instance@GOTPCREL(%rip), %r13
	movl	%eax, %r12d
	movzbl	0(%r13), %eax
	testb	%al, %al
	je	.L720
.L688:
	testl	%r12d, %r12d
	je	.L685
	movl	(%rbx), %r12d
	movzbl	0(%r13), %eax
	testb	%al, %al
	je	.L721
.L693:
	cmpl	$11, %r12d
	je	.L695
	movzbl	0(%r13), %eax
	testb	%al, %al
	jne	.L685
	movq	%r13, %rdi
	call	__cxa_guard_acquire@PLT
	testl	%eax, %eax
	je	.L685
	movq	_ZZN4asio15system_categoryEvE8instance@GOTPCREL(%rip), %rsi
	movq	_ZN4asio6detail15system_categoryD1Ev@GOTPCREL(%rip), %rdi
	leaq	__dso_handle(%rip), %rdx
	call	__cxa_atexit@PLT
	movq	8(%rsp), %rax
	subq	%fs:40, %rax
	jne	.L718
	addq	$24, %rsp
	.cfi_remember_state
	.cfi_def_cfa_offset 40
	movq	%r13, %rdi
	popq	%rbx
	.cfi_def_cfa_offset 32
	popq	%rbp
	.cfi_def_cfa_offset 24
	popq	%r12
	.cfi_def_cfa_offset 16
	popq	%r13
	.cfi_def_cfa_offset 8
	jmp	__cxa_guard_release@PLT
	.p2align 4,,10
	.p2align 3
.L720:
	.cfi_restore_state
	movq	%r13, %rdi
	call	__cxa_guard_acquire@PLT
	testl	%eax, %eax
	je	.L688
	movq	_ZZN4asio15system_categoryEvE8instance@GOTPCREL(%rip), %rsi
	movq	_ZN4asio6detail15system_categoryD1Ev@GOTPCREL(%rip), %rdi
	leaq	__dso_handle(%rip), %rdx
	call	__cxa_atexit@PLT
	movq	%r13, %rdi
	call	__cxa_guard_release@PLT
	jmp	.L688
	.p2align 4,,10
	.p2align 3
.L721:
	movq	%r13, %rdi
	call	__cxa_guard_acquire@PLT
	testl	%eax, %eax
	je	.L693
	movq	_ZZN4asio15system_categoryEvE8instance@GOTPCREL(%rip), %rsi
	movq	_ZN4asio6detail15system_categoryD1Ev@GOTPCREL(%rip), %rdi
	leaq	__dso_handle(%rip), %rdx
	call	__cxa_atexit@PLT
	movq	%r13, %rdi
	call	__cxa_guard_release@PLT
	jmp	.L693
	.p2align 4,,10
	.p2align 3
.L695:
	leaq	4(%rsp), %rdx
	movl	$21537, %esi
	movl	%ebp, %edi
	xorl	%eax, %eax
	movl	$0, 4(%rsp)
	call	ioctl@PLT
	movl	$0, (%rbx)
	movl	%ebp, %edi
	call	close@PLT
	movzbl	0(%r13), %eax
	testb	%al, %al
	jne	.L685
	movq	%r13, %rdi
	call	__cxa_guard_acquire@PLT
	testl	%eax, %eax
	je	.L685
	movq	_ZZN4asio15system_categoryEvE8instance@GOTPCREL(%rip), %rsi
	movq	_ZN4asio6detail15system_categoryD1Ev@GOTPCREL(%rip), %rdi
	leaq	__dso_handle(%rip), %rdx
	call	__cxa_atexit@PLT
	movq	%r13, %rdi
	call	__cxa_guard_release@PLT
	jmp	.L685
.L718:
	call	__stack_chk_fail@PLT
	.cfi_endproc
.LFE3776:
	.section	.gcc_except_table
.LLSDA3776:
	.byte	0xff
	.byte	0xff
	.byte	0x1
	.uleb128 .LLSDACSE3776-.LLSDACSB3776
.LLSDACSB3776:
.LLSDACSE3776:
	.section	.text._ZN4asio6detail13socket_holderD2Ev,"axG",@progbits,_ZN4asio6detail13socket_holderD5Ev,comdat
	.size	_ZN4asio6detail13socket_holderD2Ev, .-_ZN4asio6detail13socket_holderD2Ev
	.weak	_ZN4asio6detail13socket_holderD1Ev
	.set	_ZN4asio6detail13socket_holderD1Ev,_ZN4asio6detail13socket_holderD2Ev
	.section	.text._ZN4asio6detail28reactive_socket_service_base7destroyERNS1_24base_implementation_typeE,"axG",@progbits,_ZN4asio6detail28reactive_socket_service_base7destroyERNS1_24base_implementation_typeE,comdat
	.align 2
	.p2align 4
	.weak	_ZN4asio6detail28reactive_socket_service_base7destroyERNS1_24base_implementation_typeE
	.type	_ZN4asio6detail28reactive_socket_service_base7destroyERNS1_24base_implementation_typeE, @function
_ZN4asio6detail28reactive_socket_service_base7destroyERNS1_24base_implementation_typeE:
.LFB3859:
	.cfi_startproc
	pushq	%r15
	.cfi_def_cfa_offset 16
	.cfi_offset 15, -16
	pushq	%r14
	.cfi_def_cfa_offset 24
	.cfi_offset 14, -24
	pushq	%r13
	.cfi_def_cfa_offset 32
	.cfi_offset 13, -32
	pushq	%r12
	.cfi_def_cfa_offset 40
	.cfi_offset 12, -40
	pushq	%rbp
	.cfi_def_cfa_offset 48
	.cfi_offset 6, -48
	pushq	%rbx
	.cfi_def_cfa_offset 56
	.cfi_offset 3, -56
	subq	$72, %rsp
	.cfi_def_cfa_offset 128
	movl	(%rsi), %r12d
	movq	%fs:40, %rax
	movq	%rax, 56(%rsp)
	xorl	%eax, %eax
	cmpl	$-1, %r12d
	jne	.L830
.L722:
	movq	56(%rsp), %rax
	subq	%fs:40, %rax
	jne	.L829
	addq	$72, %rsp
	.cfi_remember_state
	.cfi_def_cfa_offset 56
	popq	%rbx
	.cfi_def_cfa_offset 48
	popq	%rbp
	.cfi_def_cfa_offset 40
	popq	%r12
	.cfi_def_cfa_offset 32
	popq	%r13
	.cfi_def_cfa_offset 24
	popq	%r14
	.cfi_def_cfa_offset 16
	popq	%r15
	.cfi_def_cfa_offset 8
	ret
	.p2align 4,,10
	.p2align 3
.L830:
	.cfi_restore_state
	movq	8(%rsi), %rbp
	movq	%rsi, %r15
	testq	%rbp, %rbp
	je	.L752
	movq	(%rdi), %rax
	movzbl	4(%rsi), %ebx
	movq	%rax, 16(%rsp)
	leaq	40(%rbp), %rax
	movq	%rax, %rdi
	movq	%rax, 24(%rsp)
	call	pthread_mutex_lock@PLT
	movq	8(%r15), %r11
	cmpb	$0, 144(%r11)
	jne	.L725
	andl	$64, %ebx
	jne	.L831
.L726:
	movq	$0, 8(%rsp)
	xorl	%ebp, %ebp
	movl	$0, 4(%rsp)
.L735:
	movslq	4(%rsp), %r10
	movq	%r10, %rax
	salq	$4, %rax
	movq	96(%rax,%r11), %rbx
	testq	%rbx, %rbx
	je	.L772
	movq	_ZGVZN4asio15system_categoryEvE8instance@GOTPCREL(%rip), %r14
	movq	_ZZN4asio15system_categoryEvE8instance@GOTPCREL(%rip), %r12
	movq	%rax, %r13
	movzbl	(%r14), %eax
	testb	%al, %al
	je	.L832
	.p2align 4,,10
	.p2align 3
.L730:
	movq	8(%r15), %r11
	movl	$125, 24(%rbx)
	movq	%r12, 32(%rbx)
	leaq	(%r11,%r13), %rdi
	movq	96(%rdi), %rax
	testq	%rax, %rax
	je	.L732
	movq	(%rax), %rdx
	movq	%rdx, 96(%rdi)
	testq	%rdx, %rdx
	je	.L833
	movq	$0, (%rax)
	movq	$0, (%rbx)
	testq	%rbp, %rbp
	je	.L834
.L770:
	movq	%rbx, 0(%rbp)
	testq	%rdx, %rdx
	je	.L727
.L734:
	movzbl	(%r14), %eax
	movq	%rbx, %rbp
	movq	%rdx, %rbx
	testb	%al, %al
	jne	.L730
.L832:
	movq	%r14, %rdi
	call	__cxa_guard_acquire@PLT
	testl	%eax, %eax
	je	.L730
	movq	_ZN4asio6detail15system_categoryD1Ev@GOTPCREL(%rip), %rdi
	leaq	__dso_handle(%rip), %rdx
	movq	%r12, %rsi
	call	__cxa_atexit@PLT
	movq	%r14, %rdi
	call	__cxa_guard_release@PLT
	jmp	.L730
	.p2align 4,,10
	.p2align 3
.L725:
	movq	24(%rsp), %rdi
	call	pthread_mutex_unlock@PLT
.L828:
	movl	(%r15), %r12d
	cmpl	$-1, %r12d
	je	.L722
.L752:
	call	__errno_location@PLT
	movzbl	4(%r15), %ebp
	movq	%rax, %rbx
	testb	$8, %bpl
	jne	.L826
	movq	_ZGVZN4asio15system_categoryEvE8instance@GOTPCREL(%rip), %r14
.L754:
	movl	$0, (%rbx)
	movl	%r12d, %edi
	call	close@PLT
	movl	%eax, %ebp
	movzbl	(%r14), %eax
	testb	%al, %al
	je	.L835
.L759:
	testl	%ebp, %ebp
	je	.L722
	movl	(%rbx), %ebp
	movzbl	(%r14), %eax
	testb	%al, %al
	je	.L836
.L763:
	cmpl	$11, %ebp
	je	.L765
	movzbl	(%r14), %eax
	testb	%al, %al
	jne	.L722
	movq	%r14, %rdi
	call	__cxa_guard_acquire@PLT
	testl	%eax, %eax
	je	.L722
	movq	_ZZN4asio15system_categoryEvE8instance@GOTPCREL(%rip), %rsi
	movq	_ZN4asio6detail15system_categoryD1Ev@GOTPCREL(%rip), %rdi
	leaq	__dso_handle(%rip), %rdx
	call	__cxa_atexit@PLT
	movq	56(%rsp), %rax
	subq	%fs:40, %rax
	jne	.L829
	addq	$72, %rsp
	.cfi_remember_state
	.cfi_def_cfa_offset 56
	movq	%r14, %rdi
	popq	%rbx
	.cfi_def_cfa_offset 48
	popq	%rbp
	.cfi_def_cfa_offset 40
	popq	%r12
	.cfi_def_cfa_offset 32
	popq	%r13
	.cfi_def_cfa_offset 24
	popq	%r14
	.cfi_def_cfa_offset 16
	popq	%r15
	.cfi_def_cfa_offset 8
	jmp	__cxa_guard_release@PLT
	.p2align 4,,10
	.p2align 3
.L732:
	.cfi_restore_state
	movq	$0, (%rbx)
	testq	%rbp, %rbp
	je	.L775
	movq	%rbx, 0(%rbp)
.L727:
	addl	$1, 4(%rsp)
	movl	4(%rsp), %eax
	cmpl	$3, %eax
	je	.L837
.L774:
	movq	%rbx, %rbp
	jmp	.L735
	.p2align 4,,10
	.p2align 3
.L833:
	movq	$0, 104(%rdi)
	movq	$0, (%rax)
	movq	$0, (%rbx)
	testq	%rbp, %rbp
	jne	.L770
	.p2align 4,,10
	.p2align 3
.L775:
	addl	$1, 4(%rsp)
	movl	4(%rsp), %eax
	movq	%rbx, 8(%rsp)
	cmpl	$3, %eax
	jne	.L774
.L837:
	movl	$-1, 88(%r11)
	movq	24(%rsp), %rdi
	movb	$1, 144(%r11)
	call	pthread_mutex_unlock@PLT
	movq	16(%rsp), %r14
	movq	8(%r15), %rbp
	leaq	120(%r14), %r12
	movq	%r12, %rdi
	call	pthread_mutex_lock@PLT
	cmpq	160(%r14), %rbp
	je	.L838
.L736:
	movq	32(%rbp), %rax
	testq	%rax, %rax
	je	.L737
	movq	24(%rbp), %rdx
	movq	%rdx, 24(%rax)
.L737:
	movq	24(%rbp), %rax
	testq	%rax, %rax
	je	.L738
	movq	32(%rbp), %rdx
	movq	%rdx, 32(%rax)
.L738:
	movq	16(%rsp), %r14
	movq	%r12, %rdi
	movq	168(%r14), %rax
	movq	$0, 32(%rbp)
	movq	%rax, 24(%rbp)
	movq	%rbp, 168(%r14)
	call	pthread_mutex_unlock@PLT
	cmpq	$0, 8(%rsp)
	movq	$0, 8(%r15)
	je	.L828
	movq	40(%r14), %rbp
	cmpb	$0, 40(%rbp)
	je	.L740
	data16	leaq	_ZN4asio6detail15keyword_tss_ptrINS0_10call_stackINS0_15task_io_serviceENS0_27task_io_service_thread_infoEE7contextEE6value_E@tlsgd(%rip), %rdi
	.value	0x6666
	rex64
	call	__tls_get_addr@PLT
	movq	(%rax), %rax
	testq	%rax, %rax
	jne	.L743
	jmp	.L740
	.p2align 4,,10
	.p2align 3
.L741:
	movq	16(%rax), %rax
	testq	%rax, %rax
	je	.L740
.L743:
	cmpq	(%rax), %rbp
	jne	.L741
	movq	8(%rax), %rax
	testq	%rax, %rax
	je	.L740
	movq	16(%rax), %rdx
	movq	8(%rsp), %rcx
	testq	%rdx, %rdx
	je	.L744
	movq	%rcx, (%rdx)
.L745:
	movq	%rbx, 16(%rax)
	jmp	.L828
	.p2align 4,,10
	.p2align 3
.L834:
	movq	%rbx, 8(%rsp)
	jmp	.L734
	.p2align 4,,10
	.p2align 3
.L835:
	movq	%r14, %rdi
	call	__cxa_guard_acquire@PLT
	testl	%eax, %eax
	je	.L759
	movq	_ZZN4asio15system_categoryEvE8instance@GOTPCREL(%rip), %rsi
	movq	_ZN4asio6detail15system_categoryD1Ev@GOTPCREL(%rip), %rdi
	leaq	__dso_handle(%rip), %rdx
	call	__cxa_atexit@PLT
	movq	%r14, %rdi
	call	__cxa_guard_release@PLT
	jmp	.L759
	.p2align 4,,10
	.p2align 3
.L826:
	orl	$8, %ebp
	leaq	40(%rsp), %rcx
	movl	$13, %edx
	movl	%r12d, %edi
	movb	%bpl, 4(%r15)
	movl	$8, %r8d
	movl	$1, %esi
	movl	$0, (%rax)
	movq	$0, 40(%rsp)
	call	setsockopt@PLT
	movq	_ZGVZN4asio15system_categoryEvE8instance@GOTPCREL(%rip), %r14
	movzbl	(%r14), %eax
	testb	%al, %al
	jne	.L754
	movq	%r14, %rdi
	call	__cxa_guard_acquire@PLT
	testl	%eax, %eax
	je	.L754
	movq	_ZZN4asio15system_categoryEvE8instance@GOTPCREL(%rip), %rsi
	movq	_ZN4asio6detail15system_categoryD1Ev@GOTPCREL(%rip), %rdi
	leaq	__dso_handle(%rip), %rdx
	call	__cxa_atexit@PLT
	movq	%r14, %rdi
	call	__cxa_guard_release@PLT
	jmp	.L754
	.p2align 4,,10
	.p2align 3
.L740:
	leaq	48(%rbp), %r12
	movq	%r12, %rdi
	call	pthread_mutex_lock@PLT
	movq	200(%rbp), %rax
	testq	%rax, %rax
	je	.L747
	movq	8(%rsp), %rcx
	movq	%rcx, (%rax)
.L748:
	movq	136(%rbp), %rax
	movq	%rbx, 200(%rbp)
	orq	$1, %rax
	movq	%rax, 136(%rbp)
	cmpq	$1, %rax
	je	.L749
	movq	%r12, %rdi
	call	pthread_mutex_unlock@PLT
	leaq	88(%rbp), %rdi
	call	pthread_cond_signal@PLT
	jmp	.L828
.L749:
	cmpb	$0, 176(%rbp)
	jne	.L751
	movq	144(%rbp), %rax
	testq	%rax, %rax
	je	.L751
	movb	$1, 176(%rbp)
	leaq	88(%rax), %rdx
	leaq	40(%rsp), %rcx
	movl	$3, %esi
	movq	%rdx, 44(%rsp)
	movl	88(%rax), %edx
	movl	$-2147483639, 40(%rsp)
	movl	96(%rax), %edi
	call	epoll_ctl@PLT
.L751:
	movq	%r12, %rdi
	call	pthread_mutex_unlock@PLT
	jmp	.L828
	.p2align 4,,10
	.p2align 3
.L772:
	movq	%rbp, %rbx
	jmp	.L727
	.p2align 4,,10
	.p2align 3
.L831:
	movq	16(%rsp), %rax
	movl	$0, 40(%rsp)
	leaq	40(%rsp), %rcx
	movl	%r12d, %edx
	movq	$0, 44(%rsp)
	movl	$2, %esi
	movl	96(%rax), %edi
	call	epoll_ctl@PLT
	movq	8(%r15), %r11
	jmp	.L726
	.p2align 4,,10
	.p2align 3
.L838:
	movq	24(%rbp), %rax
	movq	16(%rsp), %rcx
	movq	%rax, 160(%rcx)
	jmp	.L736
.L836:
	movq	%r14, %rdi
	call	__cxa_guard_acquire@PLT
	testl	%eax, %eax
	je	.L763
	movq	_ZZN4asio15system_categoryEvE8instance@GOTPCREL(%rip), %rsi
	movq	_ZN4asio6detail15system_categoryD1Ev@GOTPCREL(%rip), %rdi
	leaq	__dso_handle(%rip), %rdx
	call	__cxa_atexit@PLT
	movq	%r14, %rdi
	call	__cxa_guard_release@PLT
	jmp	.L763
.L765:
	leaq	40(%rsp), %rdx
	movl	$21537, %esi
	movl	%r12d, %edi
	xorl	%eax, %eax
	movl	$0, 40(%rsp)
	call	ioctl@PLT
	andb	$-4, 4(%r15)
	movl	%r12d, %edi
	movl	$0, (%rbx)
	call	close@PLT
	movzbl	(%r14), %eax
	testb	%al, %al
	jne	.L722
	movq	%r14, %rdi
	call	__cxa_guard_acquire@PLT
	testl	%eax, %eax
	je	.L722
	movq	_ZZN4asio15system_categoryEvE8instance@GOTPCREL(%rip), %rsi
	movq	_ZN4asio6detail15system_categoryD1Ev@GOTPCREL(%rip), %rdi
	leaq	__dso_handle(%rip), %rdx
	call	__cxa_atexit@PLT
	movq	%r14, %rdi
	call	__cxa_guard_release@PLT
	jmp	.L722
.L747:
	movq	8(%rsp), %rax
	movq	%rax, 192(%rbp)
	jmp	.L748
.L744:
	movq	%rcx, 8(%rax)
	jmp	.L745
.L829:
	call	__stack_chk_fail@PLT
	.cfi_endproc
.LFE3859:
	.size	_ZN4asio6detail28reactive_socket_service_base7destroyERNS1_24base_implementation_typeE, .-_ZN4asio6detail28reactive_socket_service_base7destroyERNS1_24base_implementation_typeE
	.section	.text._ZN4asio6detail14strand_service16on_dispatch_exitD2Ev,"axG",@progbits,_ZN4asio6detail14strand_service16on_dispatch_exitD5Ev,comdat
	.align 2
	.p2align 4
	.weak	_ZN4asio6detail14strand_service16on_dispatch_exitD2Ev
	.type	_ZN4asio6detail14strand_service16on_dispatch_exitD2Ev, @function
_ZN4asio6detail14strand_service16on_dispatch_exitD2Ev:
.LFB6398:
	.cfi_startproc
	pushq	%r12
	.cfi_def_cfa_offset 16
	.cfi_offset 12, -16
	pushq	%rbp
	.cfi_def_cfa_offset 24
	.cfi_offset 6, -24
	pushq	%rbx
	.cfi_def_cfa_offset 32
	.cfi_offset 3, -32
	movq	%rdi, %rbx
	subq	$32, %rsp
	.cfi_def_cfa_offset 64
	movq	%fs:40, %rax
	movq	%rax, 24(%rsp)
	movq	8(%rdi), %rax
	leaq	24(%rax), %rdi
	call	pthread_mutex_lock@PLT
	movq	8(%rbx), %rdi
	movq	72(%rdi), %rbp
	testq	%rbp, %rbp
	je	.L872
	movq	96(%rdi), %rax
	testq	%rax, %rax
	je	.L842
	movq	%rbp, (%rax)
	movq	88(%rdi), %rbp
.L843:
	movq	80(%rdi), %rax
	pxor	%xmm0, %xmm0
	movups	%xmm0, 72(%rdi)
	movq	%rax, 96(%rdi)
.L841:
	testq	%rbp, %rbp
	setne	64(%rdi)
	addq	$24, %rdi
	call	pthread_mutex_unlock@PLT
	testq	%rbp, %rbp
	jne	.L873
.L839:
	movq	24(%rsp), %rax
	subq	%fs:40, %rax
	jne	.L871
	addq	$32, %rsp
	.cfi_remember_state
	.cfi_def_cfa_offset 32
	popq	%rbx
	.cfi_def_cfa_offset 24
	popq	%rbp
	.cfi_def_cfa_offset 16
	popq	%r12
	.cfi_def_cfa_offset 8
	ret
	.p2align 4,,10
	.p2align 3
.L842:
	.cfi_restore_state
	movq	%rbp, 88(%rdi)
	jmp	.L843
	.p2align 4,,10
	.p2align 3
.L873:
	movq	(%rbx), %rbp
	movq	8(%rbx), %rbx
	cmpb	$0, 40(%rbp)
	je	.L845
	data16	leaq	_ZN4asio6detail15keyword_tss_ptrINS0_10call_stackINS0_15task_io_serviceENS0_27task_io_service_thread_infoEE7contextEE6value_E@tlsgd(%rip), %rdi
	.value	0x6666
	rex64
	call	__tls_get_addr@PLT
	movq	(%rax), %rax
	testq	%rax, %rax
	jne	.L848
	jmp	.L845
	.p2align 4,,10
	.p2align 3
.L846:
	movq	16(%rax), %rax
	testq	%rax, %rax
	je	.L845
.L848:
	cmpq	(%rax), %rbp
	jne	.L846
	movq	8(%rax), %rax
	testq	%rax, %rax
	je	.L845
	addq	$1, 24(%rax)
	cmpq	$0, 16(%rax)
	movq	$0, (%rbx)
	je	.L849
	movq	16(%rax), %rdx
	movq	%rbx, (%rdx)
	movq	%rbx, 16(%rax)
	jmp	.L839
	.p2align 4,,10
	.p2align 3
.L845:
	lock addq	$1, 184(%rbp)
	leaq	48(%rbp), %r12
	movq	%r12, %rdi
	call	pthread_mutex_lock@PLT
	cmpq	$0, 200(%rbp)
	movq	$0, (%rbx)
	je	.L850
	movq	200(%rbp), %rax
	movq	%rbx, (%rax)
	movq	%rbx, 200(%rbp)
.L851:
	movq	136(%rbp), %rax
	orq	$1, %rax
	movq	%rax, 136(%rbp)
	cmpq	$1, %rax
	je	.L852
	movq	%r12, %rdi
	call	pthread_mutex_unlock@PLT
	movq	24(%rsp), %rax
	subq	%fs:40, %rax
	jne	.L871
	addq	$32, %rsp
	.cfi_remember_state
	.cfi_def_cfa_offset 32
	leaq	88(%rbp), %rdi
	popq	%rbx
	.cfi_def_cfa_offset 24
	popq	%rbp
	.cfi_def_cfa_offset 16
	popq	%r12
	.cfi_def_cfa_offset 8
	jmp	pthread_cond_signal@PLT
	.p2align 4,,10
	.p2align 3
.L872:
	.cfi_restore_state
	movq	88(%rdi), %rbp
	jmp	.L841
	.p2align 4,,10
	.p2align 3
.L850:
	movq	%rbx, %xmm0
	punpcklqdq	%xmm0, %xmm0
	movups	%xmm0, 192(%rbp)
	jmp	.L851
	.p2align 4,,10
	.p2align 3
.L852:
	cmpb	$0, 176(%rbp)
	jne	.L854
	movq	144(%rbp), %rax
	testq	%rax, %rax
	je	.L854
	leaq	88(%rax), %rdx
	movb	$1, 176(%rbp)
	movl	96(%rax), %edi
	leaq	12(%rsp), %rcx
	movq	%rdx, 16(%rsp)
	movl	88(%rax), %edx
	movl	$3, %esi
	movl	$-2147483639, 12(%rsp)
	call	epoll_ctl@PLT
.L854:
	movq	24(%rsp), %rax
	subq	%fs:40, %rax
	jne	.L871
	addq	$32, %rsp
	.cfi_remember_state
	.cfi_def_cfa_offset 32
	movq	%r12, %rdi
	popq	%rbx
	.cfi_def_cfa_offset 24
	popq	%rbp
	.cfi_def_cfa_offset 16
	popq	%r12
	.cfi_def_cfa_offset 8
	jmp	pthread_mutex_unlock@PLT
	.p2align 4,,10
	.p2align 3
.L849:
	.cfi_restore_state
	movq	%rbx, %xmm0
	punpcklqdq	%xmm0, %xmm0
	movups	%xmm0, 8(%rax)
	jmp	.L839
.L871:
	call	__stack_chk_fail@PLT
	.cfi_endproc
.LFE6398:
	.size	_ZN4asio6detail14strand_service16on_dispatch_exitD2Ev, .-_ZN4asio6detail14strand_service16on_dispatch_exitD2Ev
	.weak	_ZN4asio6detail14strand_service16on_dispatch_exitD1Ev
	.set	_ZN4asio6detail14strand_service16on_dispatch_exitD1Ev,_ZN4asio6detail14strand_service16on_dispatch_exitD2Ev
	.section	.text.unlikely._ZN4asio6detail15throw_exceptionISt12system_errorEEvRKT_,"axG",@progbits,_ZN4asio6detail15throw_exceptionISt12system_errorEEvRKT_,comdat
	.weak	_ZN4asio6detail15throw_exceptionISt12system_errorEEvRKT_
	.type	_ZN4asio6detail15throw_exceptionISt12system_errorEEvRKT_, @function
_ZN4asio6detail15throw_exceptionISt12system_errorEEvRKT_:
.LFB7345:
	.cfi_startproc
	pushq	%rbp
	.cfi_def_cfa_offset 16
	.cfi_offset 6, -16
	pushq	%rbx
	.cfi_def_cfa_offset 24
	.cfi_offset 3, -24
	movq	%rdi, %rbx
	movl	$32, %edi
	pushq	%rax
	.cfi_def_cfa_offset 32
	call	__cxa_allocate_exception@PLT
	movq	%rbx, %rsi
	movq	%rax, %rdi
	movq	%rax, %rbp
	call	_ZNSt13runtime_errorC2ERKS_@PLT
	movq	_ZTVSt12system_error@GOTPCREL(%rip), %rax
	movups	16(%rbx), %xmm0
	movq	%rbp, %rdi
	movq	_ZNSt12system_errorD1Ev@GOTPCREL(%rip), %rdx
	movq	_ZTISt12system_error@GOTPCREL(%rip), %rsi
	addq	$16, %rax
	movups	%xmm0, 16(%rbp)
	movq	%rax, 0(%rbp)
	call	__cxa_throw@PLT
	.cfi_endproc
.LFE7345:
	.size	_ZN4asio6detail15throw_exceptionISt12system_errorEEvRKT_, .-_ZN4asio6detail15throw_exceptionISt12system_errorEEvRKT_
	.section	.text._ZN4asio6detail14do_throw_errorERKSt10error_code,"axG",@progbits,_ZN4asio6detail14do_throw_errorERKSt10error_code,comdat
	.p2align 4
	.weak	_ZN4asio6detail14do_throw_errorERKSt10error_code
	.type	_ZN4asio6detail14do_throw_errorERKSt10error_code, @function
_ZN4asio6detail14do_throw_errorERKSt10error_code:
.LFB2417:
	.cfi_startproc
	.cfi_personality 0x9b,DW.ref.__gxx_personality_v0
	.cfi_lsda 0x1b,.LLSDA2417
	pushq	%r13
	.cfi_def_cfa_offset 16
	.cfi_offset 13, -16
	pushq	%r12
	.cfi_def_cfa_offset 24
	.cfi_offset 12, -24
	pushq	%rbp
	.cfi_def_cfa_offset 32
	.cfi_offset 6, -32
	pushq	%rbx
	.cfi_def_cfa_offset 40
	.cfi_offset 3, -40
	subq	$88, %rsp
	.cfi_def_cfa_offset 128
	movq	8(%rdi), %rbx
	movl	(%rdi), %r12d
	movq	%fs:40, %rax
	movq	%rax, 72(%rsp)
	xorl	%eax, %eax
	leaq	32(%rsp), %rbp
	movq	%rsp, %r13
	movq	(%rbx), %rax
	movq	%rbx, %rsi
	movq	%rbp, %rdi
	movl	%r12d, %edx
.LEHB14:
	call	*32(%rax)
.LEHE14:
	movq	%rbp, %rsi
	movq	%r13, %rdi
.LEHB15:
	call	_ZNSt13runtime_errorC2ERKNSt7__cxx1112basic_stringIcSt11char_traitsIcESaIcEEE@PLT
.LEHE15:
	movq	32(%rsp), %rdi
	leaq	48(%rsp), %rax
	cmpq	%rax, %rdi
	je	.L877
	movq	48(%rsp), %rax
	leaq	1(%rax), %rsi
	call	_ZdlPvm@PLT
.L877:
	movq	_ZTVSt12system_error@GOTPCREL(%rip), %rax
	movq	%r13, %rdi
	movl	%r12d, 16(%rsp)
	movq	%rbx, 24(%rsp)
	addq	$16, %rax
	movq	%rax, (%rsp)
.LEHB16:
	call	_ZN4asio6detail15throw_exceptionISt12system_errorEEvRKT_@PLT
.LEHE16:
.L883:
	movq	%rax, %rbp
	jmp	.L878
.L882:
	movq	%rax, %rbp
	jmp	.L880
.L878:
	movq	32(%rsp), %rdi
	leaq	48(%rsp), %rax
	cmpq	%rax, %rdi
	je	.L885
	movq	48(%rsp), %rax
	leaq	1(%rax), %rsi
	call	_ZdlPvm@PLT
	jmp	.L885
.L880:
	movq	%r13, %rdi
	call	_ZNSt12system_errorD1Ev@PLT
.L885:
	movq	%rbp, %rdi
.LEHB17:
	call	_Unwind_Resume@PLT
.LEHE17:
	.cfi_endproc
.LFE2417:
	.section	.gcc_except_table
.LLSDA2417:
	.byte	0xff
	.byte	0xff
	.byte	0x1
	.uleb128 .LLSDACSE2417-.LLSDACSB2417
.LLSDACSB2417:
	.uleb128 .LEHB14-.LFB2417
	.uleb128 .LEHE14-.LEHB14
	.uleb128 0
	.uleb128 0
	.uleb128 .LEHB15-.LFB2417
	.uleb128 .LEHE15-.LEHB15
	.uleb128 .L883-.LFB2417
	.uleb128 0
	.uleb128 .LEHB16-.LFB2417
	.uleb128 .LEHE16-.LEHB16
	.uleb128 .L882-.LFB2417
	.uleb128 0
	.uleb128 .LEHB17-.LFB2417
	.uleb128 .LEHE17-.LEHB17
	.uleb128 0
	.uleb128 0
.LLSDACSE2417:
	.section	.text._ZN4asio6detail14do_throw_errorERKSt10error_code,"axG",@progbits,_ZN4asio6detail14do_throw_errorERKSt10error_code,comdat
	.size	_ZN4asio6detail14do_throw_errorERKSt10error_code, .-_ZN4asio6detail14do_throw_errorERKSt10error_code
	.section	.text._ZN4asio6detail14do_throw_errorERKSt10error_codePKc,"axG",@progbits,_ZN4asio6detail14do_throw_errorERKSt10error_codePKc,comdat
	.p2align 4
	.weak	_ZN4asio6detail14do_throw_errorERKSt10error_codePKc
	.type	_ZN4asio6detail14do_throw_errorERKSt10error_codePKc, @function
_ZN4asio6detail14do_throw_errorERKSt10error_codePKc:
.LFB2418:
	.cfi_startproc
	.cfi_personality 0x9b,DW.ref.__gxx_personality_v0
	.cfi_lsda 0x1b,.LLSDA2418
	pushq	%r12
	.cfi_def_cfa_offset 16
	.cfi_offset 12, -16
	movq	%rsi, %rcx
	pushq	%rbp
	.cfi_def_cfa_offset 24
	.cfi_offset 6, -24
	subq	$56, %rsp
	.cfi_def_cfa_offset 80
	movl	(%rdi), %esi
	movq	8(%rdi), %rdx
	movq	%fs:40, %rax
	movq	%rax, 40(%rsp)
	xorl	%eax, %eax
	movq	%rsp, %rbp
	movq	%rbp, %rdi
.LEHB18:
	call	_ZNSt12system_errorC1ESt10error_codePKc@PLT
.LEHE18:
	movq	%rbp, %rdi
.LEHB19:
	call	_ZN4asio6detail15throw_exceptionISt12system_errorEEvRKT_@PLT
.LEHE19:
.L889:
	movq	%rax, %r12
.L887:
	movq	%rbp, %rdi
	call	_ZNSt12system_errorD1Ev@PLT
	movq	%r12, %rdi
.LEHB20:
	call	_Unwind_Resume@PLT
.LEHE20:
	.cfi_endproc
.LFE2418:
	.section	.gcc_except_table
.LLSDA2418:
	.byte	0xff
	.byte	0xff
	.byte	0x1
	.uleb128 .LLSDACSE2418-.LLSDACSB2418
.LLSDACSB2418:
	.uleb128 .LEHB18-.LFB2418
	.uleb128 .LEHE18-.LEHB18
	.uleb128 0
	.uleb128 0
	.uleb128 .LEHB19-.LFB2418
	.uleb128 .LEHE19-.LEHB19
	.uleb128 .L889-.LFB2418
	.uleb128 0
	.uleb128 .LEHB20-.LFB2418
	.uleb128 .LEHE20-.LEHB20
	.uleb128 0
	.uleb128 0
.LLSDACSE2418:
	.section	.text._ZN4asio6detail14do_throw_errorERKSt10error_codePKc,"axG",@progbits,_ZN4asio6detail14do_throw_errorERKSt10error_codePKc,comdat
	.size	_ZN4asio6detail14do_throw_errorERKSt10error_codePKc, .-_ZN4asio6detail14do_throw_errorERKSt10error_codePKc
	.section	.rodata._ZN4asio6detail13epoll_reactor12fork_serviceENS_10io_service10fork_eventE.str1.1,"aMS",@progbits,1
.LC26:
	.string	"epoll"
.LC28:
	.string	"eventfd_select_interrupter"
.LC29:
	.string	"epoll re-registration"
	.section	.text._ZN4asio6detail13epoll_reactor12fork_serviceENS_10io_service10fork_eventE,"axG",@progbits,_ZN4asio6detail13epoll_reactor12fork_serviceENS_10io_service10fork_eventE,comdat
	.align 2
	.p2align 4
	.weak	_ZN4asio6detail13epoll_reactor12fork_serviceENS_10io_service10fork_eventE
	.type	_ZN4asio6detail13epoll_reactor12fork_serviceENS_10io_service10fork_eventE, @function
_ZN4asio6detail13epoll_reactor12fork_serviceENS_10io_service10fork_eventE:
.LFB3297:
	.cfi_startproc
	.cfi_personality 0x9b,DW.ref.__gxx_personality_v0
	.cfi_lsda 0x1b,.LLSDA3297
	pushq	%r15
	.cfi_def_cfa_offset 16
	.cfi_offset 15, -16
	pushq	%r14
	.cfi_def_cfa_offset 24
	.cfi_offset 14, -24
	pushq	%r13
	.cfi_def_cfa_offset 32
	.cfi_offset 13, -32
	pushq	%r12
	.cfi_def_cfa_offset 40
	.cfi_offset 12, -40
	pushq	%rbp
	.cfi_def_cfa_offset 48
	.cfi_offset 6, -48
	pushq	%rbx
	.cfi_def_cfa_offset 56
	.cfi_offset 3, -56
	subq	$120, %rsp
	.cfi_def_cfa_offset 176
	movq	%fs:40, %rax
	movq	%rax, 104(%rsp)
	xorl	%eax, %eax
	cmpl	$2, %esi
	je	.L994
.L891:
	movq	104(%rsp), %rax
	subq	%fs:40, %rax
	jne	.L995
	addq	$120, %rsp
	.cfi_remember_state
	.cfi_def_cfa_offset 56
	popq	%rbx
	.cfi_def_cfa_offset 48
	popq	%rbp
	.cfi_def_cfa_offset 40
	popq	%r12
	.cfi_def_cfa_offset 32
	popq	%r13
	.cfi_def_cfa_offset 24
	popq	%r14
	.cfi_def_cfa_offset 16
	popq	%r15
	.cfi_def_cfa_offset 8
	ret
	.p2align 4,,10
	.p2align 3
.L994:
	.cfi_restore_state
	movq	%rdi, %rbx
	movl	96(%rdi), %edi
	cmpl	$-1, %edi
	jne	.L996
.L893:
	movl	$-1, 96(%rbx)
	movl	$524288, %edi
	call	epoll_create1@PLT
	movl	%eax, %ebp
	cmpl	$-1, %eax
	je	.L997
.L894:
	movl	100(%rbx), %edi
	movl	%ebp, 96(%rbx)
	cmpl	$-1, %edi
	jne	.L998
.L900:
	movl	$-1, 100(%rbx)
	movl	$524288, %esi
	movl	$1, %edi
	call	timerfd_create@PLT
	movl	%eax, %ebp
	cmpl	$-1, %eax
	je	.L999
.L901:
	movl	92(%rbx), %r8d
	movl	88(%rbx), %edi
	movl	%ebp, 100(%rbx)
	leaq	88(%rbx), %r12
	cmpl	$-1, %r8d
	je	.L902
	cmpl	%edi, %r8d
	jne	.L1000
.L903:
.LEHB21:
	call	close@PLT
.L904:
	movq	.LC27(%rip), %rax
	movl	$526336, %esi
	xorl	%edi, %edi
	movq	%rax, 88(%rbx)
	call	eventfd@PLT
	movd	%eax, %xmm0
	movl	%eax, %edx
	pshufd	$0, %xmm0, %xmm0
	movq	%xmm0, 88(%rbx)
	cmpl	$-1, %eax
	je	.L1001
.L905:
	movl	96(%rbx), %edi
	leaq	20(%rsp), %rbp
	movl	$1, %esi
	movl	$-2147483639, 20(%rsp)
	movq	%rbp, %rcx
	movq	%r12, 24(%rsp)
	call	epoll_ctl@PLT
	leaq	64(%rsp), %rax
	movl	92(%rbx), %edi
	movl	$8, %edx
	movq	%rax, %rsi
	movq	%rax, 8(%rsp)
	movq	$1, 64(%rsp)
	call	write@PLT
.LEHE21:
	movl	100(%rbx), %edx
	cmpl	$-1, %edx
	jne	.L1002
.L913:
	movl	88(%rbx), %edx
	movl	96(%rbx), %edi
	movl	$3, %esi
	movq	%r12, 68(%rsp)
	movq	8(%rsp), %rcx
	movl	$-2147483639, 64(%rsp)
	call	epoll_ctl@PLT
.L919:
	leaq	120(%rbx), %r13
	movq	%r13, %rdi
	call	pthread_mutex_lock@PLT
	movq	160(%rbx), %r15
	testq	%r15, %r15
	jne	.L920
	jmp	.L926
	.p2align 4,,10
	.p2align 3
.L921:
	movq	24(%r15), %r15
	testq	%r15, %r15
	je	.L926
.L920:
	movl	92(%r15), %eax
	movl	88(%r15), %edx
	movq	%rbp, %rcx
	movl	$1, %esi
	movl	96(%rbx), %edi
	movq	%r15, 24(%rsp)
	movl	%eax, 20(%rsp)
	call	epoll_ctl@PLT
	testl	%eax, %eax
	je	.L921
	movq	_ZGVZN4asio15system_categoryEvE8instance@GOTPCREL(%rip), %r12
	movzbl	(%r12), %eax
	testb	%al, %al
	je	.L922
.L993:
	movq	_ZZN4asio15system_categoryEvE8instance@GOTPCREL(%rip), %r14
.L923:
	call	__errno_location@PLT
	movq	%r14, 72(%rsp)
	movl	(%rax), %eax
	movl	%eax, 64(%rsp)
	testl	%eax, %eax
	je	.L921
	movq	8(%rsp), %rdi
	leaq	.LC29(%rip), %rsi
.LEHB22:
	call	_ZN4asio6detail14do_throw_errorERKSt10error_codePKc@PLT
.LEHE22:
	.p2align 4,,10
	.p2align 3
.L1000:
	movl	%r8d, %edi
.LEHB23:
	call	close@PLT
	movl	88(%rbx), %edi
.L902:
	cmpl	$-1, %edi
	je	.L904
	jmp	.L903
	.p2align 4,,10
	.p2align 3
.L1002:
	movl	96(%rbx), %edi
	leaq	100(%rbx), %rax
	movq	%rbp, %rcx
	movl	$1, %esi
	movl	$9, 20(%rsp)
	movq	%rax, 24(%rsp)
	call	epoll_ctl@PLT
	movl	100(%rbx), %edi
	cmpl	$-1, %edi
	je	.L913
	movq	104(%rbx), %r12
	pxor	%xmm0, %xmm0
	movaps	%xmm0, 32(%rsp)
	testq	%r12, %r12
	je	.L914
	movl	$300000000, %esi
	.p2align 4,,10
	.p2align 3
.L916:
	movq	(%r12), %rax
	movq	%r12, %rdi
	call	*32(%rax)
	movq	8(%r12), %r12
	movq	%rax, %rsi
	testq	%r12, %r12
	jne	.L916
	movabsq	$4835703278458516699, %rdx
	xorl	%r8d, %r8d
	movl	100(%rbx), %edi
	imulq	%rdx
	movq	%rsi, %rax
	sarq	$63, %rax
	sarq	$18, %rdx
	subq	%rax, %rdx
	testq	%rsi, %rsi
	movl	$1, %eax
	movq	%rdx, 48(%rsp)
	sete	%r8b
	je	.L918
	imulq	$1000000, %rdx, %rdx
	subq	%rdx, %rsi
	imulq	$1000, %rsi, %rax
.L918:
	movq	8(%rsp), %rcx
	leaq	32(%rsp), %rdx
	movl	%r8d, %esi
	movq	%rax, 56(%rsp)
	call	timerfd_settime@PLT
	jmp	.L919
	.p2align 4,,10
	.p2align 3
.L998:
	call	close@PLT
	jmp	.L900
	.p2align 4,,10
	.p2align 3
.L996:
	call	close@PLT
	jmp	.L893
	.p2align 4,,10
	.p2align 3
.L922:
	movq	%r12, %rdi
	call	__cxa_guard_acquire@PLT
	testl	%eax, %eax
	je	.L993
	movq	_ZZN4asio15system_categoryEvE8instance@GOTPCREL(%rip), %r14
	movq	_ZN4asio6detail15system_categoryD1Ev@GOTPCREL(%rip), %rdi
	leaq	__dso_handle(%rip), %rdx
	movq	%r14, %rsi
	call	__cxa_atexit@PLT
	movq	%r12, %rdi
	call	__cxa_guard_release@PLT
	jmp	.L923
	.p2align 4,,10
	.p2align 3
.L926:
	movq	%r13, %rdi
	call	pthread_mutex_unlock@PLT
	jmp	.L891
	.p2align 4,,10
	.p2align 3
.L1001:
	call	__errno_location@PLT
	cmpl	$22, (%rax)
	movq	%rax, %rbp
	je	.L1003
.L907:
	leaq	96(%rsp), %rdi
	call	pipe@PLT
	testl	%eax, %eax
	je	.L928
	movq	_ZGVZN4asio15system_categoryEvE8instance@GOTPCREL(%rip), %r13
	movzbl	0(%r13), %eax
	testb	%al, %al
	je	.L909
.L992:
	movq	_ZZN4asio15system_categoryEvE8instance@GOTPCREL(%rip), %r14
.L910:
	movl	0(%rbp), %eax
	movq	%r14, 72(%rsp)
	movl	%eax, 64(%rsp)
	testl	%eax, %eax
	jne	.L1004
.L908:
	movl	88(%rbx), %edx
	jmp	.L905
	.p2align 4,,10
	.p2align 3
.L999:
	call	__errno_location@PLT
	cmpl	$22, (%rax)
	jne	.L901
	xorl	%esi, %esi
	movl	$1, %edi
	call	timerfd_create@PLT
	movl	%eax, %ebp
	cmpl	$-1, %eax
	je	.L901
	movl	%eax, %edi
	movl	$1, %edx
	movl	$2, %esi
	xorl	%eax, %eax
	call	fcntl@PLT
	jmp	.L901
	.p2align 4,,10
	.p2align 3
.L997:
	call	__errno_location@PLT
	movq	%rax, %r13
	movl	(%rax), %eax
	subl	$22, %eax
	andl	$-17, %eax
	jne	.L895
	movl	$20000, %edi
	call	epoll_create@PLT
	movl	%eax, %r12d
	cmpl	$-1, %eax
	je	.L895
	movl	%eax, %edi
	movl	$1, %edx
	movl	$2, %esi
	xorl	%eax, %eax
	call	fcntl@PLT
	movl	%r12d, %ebp
	jmp	.L894
.L895:
	movq	_ZGVZN4asio15system_categoryEvE8instance@GOTPCREL(%rip), %r12
	movzbl	(%r12), %eax
	testb	%al, %al
	je	.L896
.L991:
	movq	_ZZN4asio15system_categoryEvE8instance@GOTPCREL(%rip), %r14
.L897:
	movl	0(%r13), %eax
	movq	%r14, 72(%rsp)
	movl	%eax, 64(%rsp)
	testl	%eax, %eax
	je	.L894
	leaq	64(%rsp), %rdi
	leaq	.LC26(%rip), %rsi
	call	_ZN4asio6detail14do_throw_errorERKSt10error_codePKc@PLT
	.p2align 4,,10
	.p2align 3
.L928:
	movl	96(%rsp), %edi
	movl	$2048, %edx
	movl	$4, %esi
	xorl	%eax, %eax
	movl	%edi, 88(%rbx)
	call	fcntl@PLT
	movl	88(%rbx), %edi
	movl	$1, %edx
	xorl	%eax, %eax
	movl	$2, %esi
	call	fcntl@PLT
	movl	100(%rsp), %edi
	movl	$2048, %edx
	xorl	%eax, %eax
	movl	$4, %esi
	movl	%edi, 92(%rbx)
	call	fcntl@PLT
	movl	92(%rbx), %edi
	movl	$1, %edx
	xorl	%eax, %eax
	movl	$2, %esi
	call	fcntl@PLT
	jmp	.L908
.L896:
	movq	%r12, %rdi
	call	__cxa_guard_acquire@PLT
	testl	%eax, %eax
	je	.L991
	movq	_ZZN4asio15system_categoryEvE8instance@GOTPCREL(%rip), %r14
	movq	_ZN4asio6detail15system_categoryD1Ev@GOTPCREL(%rip), %rdi
	leaq	__dso_handle(%rip), %rdx
	movq	%r14, %rsi
	call	__cxa_atexit@PLT
	movq	%r12, %rdi
	call	__cxa_guard_release@PLT
	jmp	.L897
.L1003:
	xorl	%edi, %edi
	xorl	%esi, %esi
	call	eventfd@PLT
	movd	%eax, %xmm0
	movl	%eax, %edi
	pshufd	$0, %xmm0, %xmm0
	movq	%xmm0, 88(%rbx)
	cmpl	$-1, %eax
	je	.L907
	movl	$2048, %edx
	movl	$4, %esi
	xorl	%eax, %eax
	call	fcntl@PLT
	movl	88(%rbx), %edi
	movl	$1, %edx
	xorl	%eax, %eax
	movl	$2, %esi
	call	fcntl@PLT
	movl	88(%rbx), %edx
	cmpl	$-1, %edx
	jne	.L905
	jmp	.L907
	.p2align 4,,10
	.p2align 3
.L914:
	movq	$300, 48(%rsp)
	xorl	%r8d, %r8d
	xorl	%eax, %eax
	jmp	.L918
.L909:
	movq	%r13, %rdi
	call	__cxa_guard_acquire@PLT
	testl	%eax, %eax
	je	.L992
	movq	_ZZN4asio15system_categoryEvE8instance@GOTPCREL(%rip), %r14
	movq	_ZN4asio6detail15system_categoryD1Ev@GOTPCREL(%rip), %rdi
	leaq	__dso_handle(%rip), %rdx
	movq	%r14, %rsi
	call	__cxa_atexit@PLT
	movq	%r13, %rdi
	call	__cxa_guard_release@PLT
	jmp	.L910
.L995:
	call	__stack_chk_fail@PLT
.L1004:
	leaq	64(%rsp), %rdi
	leaq	.LC28(%rip), %rsi
	call	_ZN4asio6detail14do_throw_errorERKSt10error_codePKc@PLT
.L932:
	movq	%rax, %rbp
.L927:
	movq	%r13, %rdi
	call	pthread_mutex_unlock@PLT
	movq	%rbp, %rdi
	call	_Unwind_Resume@PLT
.LEHE23:
	.cfi_endproc
.LFE3297:
	.section	.gcc_except_table
.LLSDA3297:
	.byte	0xff
	.byte	0xff
	.byte	0x1
	.uleb128 .LLSDACSE3297-.LLSDACSB3297
.LLSDACSB3297:
	.uleb128 .LEHB21-.LFB3297
	.uleb128 .LEHE21-.LEHB21
	.uleb128 0
	.uleb128 0
	.uleb128 .LEHB22-.LFB3297
	.uleb128 .LEHE22-.LEHB22
	.uleb128 .L932-.LFB3297
	.uleb128 0
	.uleb128 .LEHB23-.LFB3297
	.uleb128 .LEHE23-.LEHB23
	.uleb128 0
	.uleb128 0
.LLSDACSE3297:
	.section	.text._ZN4asio6detail13epoll_reactor12fork_serviceENS_10io_service10fork_eventE,"axG",@progbits,_ZN4asio6detail13epoll_reactor12fork_serviceENS_10io_service10fork_eventE,comdat
	.size	_ZN4asio6detail13epoll_reactor12fork_serviceENS_10io_service10fork_eventE, .-_ZN4asio6detail13epoll_reactor12fork_serviceENS_10io_service10fork_eventE
	.section	.rodata._ZN4asio6detail30reactive_socket_accept_op_baseINS_12basic_socketINS_2ip3tcpENS_21stream_socket_serviceIS4_EEEES4_E10do_performEPNS0_10reactor_opE.str1.1,"aMS",@progbits,1
.LC30:
	.string	"mutex"
	.section	.text._ZN4asio6detail30reactive_socket_accept_op_baseINS_12basic_socketINS_2ip3tcpENS_21stream_socket_serviceIS4_EEEES4_E10do_performEPNS0_10reactor_opE,"axG",@progbits,_ZN4asio6detail30reactive_socket_accept_op_baseINS_12basic_socketINS_2ip3tcpENS_21stream_socket_serviceIS4_EEEES4_E10do_performEPNS0_10reactor_opE,comdat
	.p2align 4
	.weak	_ZN4asio6detail30reactive_socket_accept_op_baseINS_12basic_socketINS_2ip3tcpENS_21stream_socket_serviceIS4_EEEES4_E10do_performEPNS0_10reactor_opE
	.type	_ZN4asio6detail30reactive_socket_accept_op_baseINS_12basic_socketINS_2ip3tcpENS_21stream_socket_serviceIS4_EEEES4_E10do_performEPNS0_10reactor_opE, @function
_ZN4asio6detail30reactive_socket_accept_op_baseINS_12basic_socketINS_2ip3tcpENS_21stream_socket_serviceIS4_EEEES4_E10do_performEPNS0_10reactor_opE:
.LFB9055:
	.cfi_startproc
	.cfi_personality 0x9b,DW.ref.__gxx_personality_v0
	.cfi_lsda 0x1b,.LLSDA9055
	pushq	%r15
	.cfi_def_cfa_offset 16
	.cfi_offset 15, -16
	xorl	%edx, %edx
	pushq	%r14
	.cfi_def_cfa_offset 24
	.cfi_offset 14, -24
	pushq	%r13
	.cfi_def_cfa_offset 32
	.cfi_offset 13, -32
	pushq	%r12
	.cfi_def_cfa_offset 40
	.cfi_offset 12, -40
	pushq	%rbp
	.cfi_def_cfa_offset 48
	.cfi_offset 6, -48
	pushq	%rbx
	.cfi_def_cfa_offset 56
	.cfi_offset 3, -56
	movq	%rdi, %rbx
	subq	$104, %rsp
	.cfi_def_cfa_offset 160
	movq	80(%rdi), %r15
	movq	_ZGVZN4asio15system_categoryEvE8instance@GOTPCREL(%rip), %rbp
	movq	%fs:40, %rax
	movq	%rax, 88(%rsp)
	xorl	%eax, %eax
	movl	$28, %eax
	leaq	56(%rsp), %r14
	movq	_ZZN4asio15system_categoryEvE8instance@GOTPCREL(%rip), %r12
	testq	%r15, %r15
	cmove	%rdx, %rax
	cmove	%rdx, %r14
	movq	%rax, 56(%rsp)
	movzbl	60(%rdi), %eax
	movb	%al, 16(%rsp)
	movl	56(%rdi), %eax
	movl	%eax, 8(%rsp)
	leaq	64(%rsp), %rax
	movq	%rax, 24(%rsp)
.L1019:
	cmpl	$-1, 8(%rsp)
	je	.L1139
	call	__errno_location@PLT
	movl	$0, (%rax)
	movq	%rax, %r13
	testq	%r14, %r14
	je	.L1012
	movq	(%r14), %rax
	movq	24(%rsp), %rdx
	movq	%r15, %rsi
	movl	8(%rsp), %edi
	movl	%eax, 64(%rsp)
.LEHB24:
	call	accept@PLT
	movl	%eax, 40(%rsp)
	movl	64(%rsp), %eax
	movq	%rax, (%r14)
.L1072:
	movzbl	0(%rbp), %eax
	testb	%al, %al
	je	.L1140
.L1014:
	movl	0(%r13), %eax
	cmpl	$-1, 40(%rsp)
	movq	%r12, 32(%rbx)
	movl	%eax, 24(%rbx)
	jne	.L1141
.L1011:
	movzbl	0(%rbp), %eax
	testb	%al, %al
	je	.L1142
.L1016:
	cmpq	%r12, 32(%rbx)
	je	.L1143
.L1018:
	movzbl	0(%rbp), %eax
	testb	%al, %al
	je	.L1144
.L1021:
	cmpq	%r12, 32(%rbx)
	je	.L1145
.L1023:
	movzbl	0(%rbp), %eax
	testb	%al, %al
	je	.L1146
.L1026:
	cmpq	%r12, 32(%rbx)
	je	.L1147
	movzbl	0(%rbp), %eax
	testb	%al, %al
	je	.L1148
.L1030:
	movl	24(%rbx), %edx
	cmpq	%r12, 32(%rbx)
	je	.L1149
.L1033:
	movzbl	16(%rsp), %eax
	shrb	$2, %al
	andl	$1, %eax
	cmpl	$71, %edx
	movl	$1, %edx
	cmovne	%edx, %eax
.L1005:
	movq	88(%rsp), %rsi
	subq	%fs:40, %rsi
	jne	.L1150
	addq	$104, %rsp
	.cfi_remember_state
	.cfi_def_cfa_offset 56
	popq	%rbx
	.cfi_def_cfa_offset 48
	popq	%rbp
	.cfi_def_cfa_offset 40
	popq	%r12
	.cfi_def_cfa_offset 32
	popq	%r13
	.cfi_def_cfa_offset 24
	popq	%r14
	.cfi_def_cfa_offset 16
	popq	%r15
	.cfi_def_cfa_offset 8
	ret
	.p2align 4,,10
	.p2align 3
.L1140:
	.cfi_restore_state
	movq	%rbp, %rdi
	call	__cxa_guard_acquire@PLT
	testl	%eax, %eax
	je	.L1014
	movq	_ZN4asio6detail15system_categoryD1Ev@GOTPCREL(%rip), %rdi
	leaq	__dso_handle(%rip), %rdx
	movq	%r12, %rsi
	call	__cxa_atexit@PLT
	movq	%rbp, %rdi
	call	__cxa_guard_release@PLT
	jmp	.L1014
	.p2align 4,,10
	.p2align 3
.L1142:
	movq	%rbp, %rdi
	call	__cxa_guard_acquire@PLT
	testl	%eax, %eax
	je	.L1016
	movq	_ZN4asio6detail15system_categoryD1Ev@GOTPCREL(%rip), %rdi
	leaq	__dso_handle(%rip), %rdx
	movq	%r12, %rsi
	call	__cxa_atexit@PLT
	movq	%rbp, %rdi
	call	__cxa_guard_release@PLT
	cmpq	%r12, 32(%rbx)
	jne	.L1018
	.p2align 4,,10
	.p2align 3
.L1143:
	cmpl	$4, 24(%rbx)
	je	.L1019
	movzbl	0(%rbp), %eax
	testb	%al, %al
	jne	.L1021
.L1144:
	movq	%rbp, %rdi
	call	__cxa_guard_acquire@PLT
	testl	%eax, %eax
	je	.L1021
	movq	_ZN4asio6detail15system_categoryD1Ev@GOTPCREL(%rip), %rdi
	leaq	__dso_handle(%rip), %rdx
	movq	%r12, %rsi
	call	__cxa_atexit@PLT
	movq	%rbp, %rdi
	call	__cxa_guard_release@PLT
	cmpq	%r12, 32(%rbx)
	jne	.L1023
	.p2align 4,,10
	.p2align 3
.L1145:
	cmpl	$11, 24(%rbx)
	jne	.L1023
.L1024:
	movzbl	16(%rsp), %eax
	andl	$1, %eax
	jmp	.L1005
	.p2align 4,,10
	.p2align 3
.L1012:
	movl	8(%rsp), %edi
	xorl	%edx, %edx
	movq	%r15, %rsi
	movl	$0, 64(%rsp)
	call	accept@PLT
.LEHE24:
	movl	%eax, 40(%rsp)
	jmp	.L1072
	.p2align 4,,10
	.p2align 3
.L1146:
	movq	%rbp, %rdi
	call	__cxa_guard_acquire@PLT
	testl	%eax, %eax
	je	.L1026
	movq	_ZN4asio6detail15system_categoryD1Ev@GOTPCREL(%rip), %rdi
	leaq	__dso_handle(%rip), %rdx
	movq	%r12, %rsi
	call	__cxa_atexit@PLT
	movq	%rbp, %rdi
	call	__cxa_guard_release@PLT
	jmp	.L1026
	.p2align 4,,10
	.p2align 3
.L1147:
	cmpl	$11, 24(%rbx)
	je	.L1024
	movzbl	0(%rbp), %eax
	testb	%al, %al
	jne	.L1030
.L1148:
	movq	%rbp, %rdi
	call	__cxa_guard_acquire@PLT
	testl	%eax, %eax
	je	.L1030
	movq	_ZN4asio6detail15system_categoryD1Ev@GOTPCREL(%rip), %rdi
	leaq	__dso_handle(%rip), %rdx
	movq	%r12, %rsi
	call	__cxa_atexit@PLT
	movq	%rbp, %rdi
	call	__cxa_guard_release@PLT
	jmp	.L1030
	.p2align 4,,10
	.p2align 3
.L1149:
	cmpl	$103, %edx
	jne	.L1033
	movzbl	16(%rsp), %eax
	shrb	$2, %al
	andl	$1, %eax
	jmp	.L1005
	.p2align 4,,10
	.p2align 3
.L1141:
	call	_ZNSt3_V215system_categoryEv@PLT
	cmpq	$0, 80(%rbx)
	movl	$0, 24(%rbx)
	movq	%rax, 32(%rsp)
	movq	%rax, 32(%rbx)
	movl	40(%rsp), %eax
	movl	%eax, 52(%rsp)
	je	.L1035
	cmpq	$128, 56(%rsp)
	ja	.L1151
.L1035:
	movq	64(%rbx), %r14
	cmpl	$-1, (%r14)
	je	.L1036
	movq	_ZGVZN4asio5error17get_misc_categoryEvE8instance@GOTPCREL(%rip), %r14
	movzbl	(%r14), %eax
	testb	%al, %al
	je	.L1037
.L1133:
	movq	_ZZN4asio5error17get_misc_categoryEvE8instance@GOTPCREL(%rip), %r15
.L1038:
	movl	$1, 24(%rbx)
	movq	%r15, 32(%rbx)
.L1040:
	movl	52(%rsp), %r14d
	cmpl	$-1, %r14d
	je	.L1056
	movl	$0, 0(%r13)
	movl	%r14d, %edi
	call	close@PLT
	movl	%eax, %ebx
	movzbl	0(%rbp), %eax
	testb	%al, %al
	je	.L1152
.L1058:
	testl	%ebx, %ebx
	jne	.L1153
.L1056:
	movl	$1, %eax
	jmp	.L1005
	.p2align 4,,10
	.p2align 3
.L1036:
	movq	24(%r14), %rax
	movq	40(%rax), %r15
	leaq	120(%r15), %rax
	movq	%r15, 8(%rsp)
	movq	%rax, %rdi
	movq	%rax, 16(%rsp)
	call	pthread_mutex_lock@PLT
	movq	%r15, %rcx
	movq	168(%r15), %r15
	testq	%r15, %r15
	je	.L1041
	movq	24(%r15), %rax
	leaq	40(%r15), %r8
	movq	%rax, 168(%rcx)
.L1042:
	movq	8(%rsp), %rcx
	movq	160(%rcx), %rax
	movq	$0, 32(%r15)
	movq	%rax, 24(%r15)
	movq	160(%rcx), %rax
	testq	%rax, %rax
	je	.L1049
	movq	%r15, 32(%rax)
.L1049:
	movq	8(%rsp), %rax
	movq	16(%rsp), %rdi
	movq	%r8, 24(%rsp)
	movq	%r15, 160(%rax)
	call	pthread_mutex_unlock@PLT
	movq	24(%rsp), %r8
	movq	%r15, 8(%r14)
	movq	%r8, %rdi
	movq	%r8, 16(%rsp)
	call	pthread_mutex_lock@PLT
	movq	8(%r14), %rax
	movq	8(%rsp), %r15
	movl	40(%rsp), %esi
	movq	16(%rsp), %r8
	movq	%r15, 80(%rax)
	movl	%esi, 88(%rax)
	movq	%r8, %rdi
	movb	$0, 144(%rax)
	call	pthread_mutex_unlock@PLT
	movq	8(%r14), %rax
	movl	40(%rsp), %edx
	movl	$-2147483621, 64(%rsp)
	leaq	64(%rsp), %rcx
	movl	$1, %esi
	movl	$-2147483621, 92(%rax)
	movq	%rax, 68(%rsp)
	movl	96(%r15), %edi
	call	epoll_ctl@PLT
	testl	%eax, %eax
	jne	.L1154
.L1051:
	movl	40(%rsp), %eax
	movb	$80, 4(%r14)
	movl	%eax, (%r14)
	movq	32(%rsp), %rax
	movl	$0, 24(%rbx)
	movq	%rax, 32(%rbx)
	movl	72(%rbx), %eax
	movl	%eax, 16(%r14)
	jmp	.L1056
	.p2align 4,,10
	.p2align 3
.L1037:
	movq	%r14, %rdi
	call	__cxa_guard_acquire@PLT
	testl	%eax, %eax
	je	.L1133
	movq	_ZZN4asio5error17get_misc_categoryEvE8instance@GOTPCREL(%rip), %r15
	movq	_ZN4asio5error6detail13misc_categoryD1Ev@GOTPCREL(%rip), %rdi
	leaq	__dso_handle(%rip), %rdx
	movq	%r15, %rsi
	call	__cxa_atexit@PLT
	movq	%r14, %rdi
	call	__cxa_guard_release@PLT
	jmp	.L1038
	.p2align 4,,10
	.p2align 3
.L1154:
	movl	0(%r13), %r15d
	testl	%r15d, %r15d
	je	.L1051
	movzbl	0(%rbp), %eax
	testb	%al, %al
	je	.L1155
.L1054:
	movl	%r15d, 24(%rbx)
	movq	%r12, 32(%rbx)
	jmp	.L1040
	.p2align 4,,10
	.p2align 3
.L1153:
	movl	0(%r13), %ebx
	movzbl	0(%rbp), %eax
	testb	%al, %al
	je	.L1156
.L1063:
	cmpl	$11, %ebx
	je	.L1065
.L1138:
	movzbl	0(%rbp), %eax
	testb	%al, %al
	jne	.L1056
	movq	%rbp, %rdi
	call	__cxa_guard_acquire@PLT
	testl	%eax, %eax
	je	.L1056
	movq	_ZN4asio6detail15system_categoryD1Ev@GOTPCREL(%rip), %rdi
	leaq	__dso_handle(%rip), %rdx
	movq	%r12, %rsi
	call	__cxa_atexit@PLT
	movq	%rbp, %rdi
	call	__cxa_guard_release@PLT
	jmp	.L1056
	.p2align 4,,10
	.p2align 3
.L1152:
	movq	%rbp, %rdi
	call	__cxa_guard_acquire@PLT
	testl	%eax, %eax
	je	.L1058
	movq	_ZN4asio6detail15system_categoryD1Ev@GOTPCREL(%rip), %rdi
	leaq	__dso_handle(%rip), %rdx
	movq	%r12, %rsi
	call	__cxa_atexit@PLT
	movq	%rbp, %rdi
	call	__cxa_guard_release@PLT
	jmp	.L1058
	.p2align 4,,10
	.p2align 3
.L1041:
	movl	$152, %edi
.LEHB25:
	call	_Znwm@PLT
.LEHE25:
	movq	$0, (%rax)
	movq	%rax, %r15
	xorl	%esi, %esi
	movq	_ZN4asio6detail13epoll_reactor16descriptor_state11do_completeEPNS0_15task_io_serviceEPNS0_25task_io_service_operationERKSt10error_codem@GOTPCREL(%rip), %rax
	movl	$0, 16(%r15)
	leaq	40(%r15), %r8
	movq	%rax, 8(%r15)
	movq	%r8, %rdi
	movq	%r8, 24(%rsp)
	call	pthread_mutex_init@PLT
	movl	%eax, %ecx
	movzbl	0(%rbp), %eax
	testb	%al, %al
	movq	24(%rsp), %r8
	je	.L1157
.L1044:
	movl	%ecx, 64(%rsp)
	movq	%r12, 72(%rsp)
	testl	%ecx, %ecx
	jne	.L1158
	pxor	%xmm0, %xmm0
	movups	%xmm0, 96(%r15)
	movups	%xmm0, 112(%r15)
	movups	%xmm0, 128(%r15)
	jmp	.L1042
	.p2align 4,,10
	.p2align 3
.L1155:
	movq	%rbp, %rdi
	call	__cxa_guard_acquire@PLT
	testl	%eax, %eax
	je	.L1054
	movq	_ZN4asio6detail15system_categoryD1Ev@GOTPCREL(%rip), %rdi
	leaq	__dso_handle(%rip), %rdx
	movq	%r12, %rsi
	call	__cxa_atexit@PLT
	movq	%rbp, %rdi
	call	__cxa_guard_release@PLT
	jmp	.L1054
	.p2align 4,,10
	.p2align 3
.L1156:
	movq	%rbp, %rdi
	call	__cxa_guard_acquire@PLT
	testl	%eax, %eax
	je	.L1063
	movq	_ZN4asio6detail15system_categoryD1Ev@GOTPCREL(%rip), %rdi
	leaq	__dso_handle(%rip), %rdx
	movq	%r12, %rsi
	call	__cxa_atexit@PLT
	movq	%rbp, %rdi
	call	__cxa_guard_release@PLT
	jmp	.L1063
	.p2align 4,,10
	.p2align 3
.L1065:
	movl	%r14d, %edi
	leaq	64(%rsp), %rdx
	movl	$21537, %esi
	xorl	%eax, %eax
	movl	$0, 64(%rsp)
	call	ioctl@PLT
	movl	$0, 0(%r13)
	movl	%r14d, %edi
	call	close@PLT
	jmp	.L1138
	.p2align 4,,10
	.p2align 3
.L1157:
	movq	%rbp, %rdi
	movl	%ecx, 44(%rsp)
	call	__cxa_guard_acquire@PLT
	movq	24(%rsp), %r8
	movl	44(%rsp), %ecx
	testl	%eax, %eax
	je	.L1044
	movq	_ZN4asio6detail15system_categoryD1Ev@GOTPCREL(%rip), %rdi
	leaq	__dso_handle(%rip), %rdx
	movq	%r12, %rsi
	call	__cxa_atexit@PLT
	movq	%rbp, %rdi
	call	__cxa_guard_release@PLT
	movl	44(%rsp), %ecx
	movq	24(%rsp), %r8
	jmp	.L1044
.L1139:
	movzbl	0(%rbp), %eax
	testb	%al, %al
	je	.L1159
.L1009:
	movl	$9, 24(%rbx)
	movq	%r12, 32(%rbx)
	jmp	.L1011
.L1159:
	movq	%rbp, %rdi
	call	__cxa_guard_acquire@PLT
	testl	%eax, %eax
	je	.L1009
	movq	_ZN4asio6detail15system_categoryD1Ev@GOTPCREL(%rip), %rdi
	leaq	__dso_handle(%rip), %rdx
	movq	%r12, %rsi
	call	__cxa_atexit@PLT
	movq	%rbp, %rdi
	call	__cxa_guard_release@PLT
	jmp	.L1009
.L1150:
	call	__stack_chk_fail@PLT
.L1151:
	call	_ZN4asio15system_categoryEv@PLT
	leaq	64(%rsp), %rdi
	movl	$22, 64(%rsp)
	movq	%rax, 72(%rsp)
.LEHB26:
	call	_ZN4asio6detail14do_throw_errorERKSt10error_code@PLT
.LEHE26:
.L1158:
	leaq	64(%rsp), %rdi
	leaq	.LC30(%rip), %rsi
.LEHB27:
	call	_ZN4asio6detail14do_throw_errorERKSt10error_codePKc@PLT
.LEHE27:
.L1077:
	movq	%rax, %rbx
	jmp	.L1048
.L1076:
	movq	%rax, %rbx
	jmp	.L1052
.L1078:
	movq	%rax, %rbx
.L1047:
	movl	$152, %esi
	movq	%r15, %rdi
	call	_ZdlPvm@PLT
.L1048:
	movq	16(%rsp), %rdi
	call	pthread_mutex_unlock@PLT
.L1052:
	leaq	52(%rsp), %rdi
	call	_ZN4asio6detail13socket_holderD1Ev@PLT
	movq	%rbx, %rdi
.LEHB28:
	call	_Unwind_Resume@PLT
.LEHE28:
	.cfi_endproc
.LFE9055:
	.section	.gcc_except_table
.LLSDA9055:
	.byte	0xff
	.byte	0xff
	.byte	0x1
	.uleb128 .LLSDACSE9055-.LLSDACSB9055
.LLSDACSB9055:
	.uleb128 .LEHB24-.LFB9055
	.uleb128 .LEHE24-.LEHB24
	.uleb128 0
	.uleb128 0
	.uleb128 .LEHB25-.LFB9055
	.uleb128 .LEHE25-.LEHB25
	.uleb128 .L1077-.LFB9055
	.uleb128 0
	.uleb128 .LEHB26-.LFB9055
	.uleb128 .LEHE26-.LEHB26
	.uleb128 .L1076-.LFB9055
	.uleb128 0
	.uleb128 .LEHB27-.LFB9055
	.uleb128 .LEHE27-.LEHB27
	.uleb128 .L1078-.LFB9055
	.uleb128 0
	.uleb128 .LEHB28-.LFB9055
	.uleb128 .LEHE28-.LEHB28
	.uleb128 0
	.uleb128 0
.LLSDACSE9055:
	.section	.text._ZN4asio6detail30reactive_socket_accept_op_baseINS_12basic_socketINS_2ip3tcpENS_21stream_socket_serviceIS4_EEEES4_E10do_performEPNS0_10reactor_opE,"axG",@progbits,_ZN4asio6detail30reactive_socket_accept_op_baseINS_12basic_socketINS_2ip3tcpENS_21stream_socket_serviceIS4_EEEES4_E10do_performEPNS0_10reactor_opE,comdat
	.size	_ZN4asio6detail30reactive_socket_accept_op_baseINS_12basic_socketINS_2ip3tcpENS_21stream_socket_serviceIS4_EEEES4_E10do_performEPNS0_10reactor_opE, .-_ZN4asio6detail30reactive_socket_accept_op_baseINS_12basic_socketINS_2ip3tcpENS_21stream_socket_serviceIS4_EEEES4_E10do_performEPNS0_10reactor_opE
	.section	.text._ZN4asio6detail11object_poolINS0_13epoll_reactor16descriptor_stateEED2Ev,"axG",@progbits,_ZN4asio6detail11object_poolINS0_13epoll_reactor16descriptor_stateEED5Ev,comdat
	.align 2
	.p2align 4
	.weak	_ZN4asio6detail11object_poolINS0_13epoll_reactor16descriptor_stateEED2Ev
	.type	_ZN4asio6detail11object_poolINS0_13epoll_reactor16descriptor_stateEED2Ev, @function
_ZN4asio6detail11object_poolINS0_13epoll_reactor16descriptor_stateEED2Ev:
.LFB7410:
	.cfi_startproc
	.cfi_personality 0x9b,DW.ref.__gxx_personality_v0
	.cfi_lsda 0x1b,.LLSDA7410
	pushq	%r15
	.cfi_def_cfa_offset 16
	.cfi_offset 15, -16
	pushq	%r14
	.cfi_def_cfa_offset 24
	.cfi_offset 14, -24
	pushq	%r13
	.cfi_def_cfa_offset 32
	.cfi_offset 13, -32
	pushq	%r12
	.cfi_def_cfa_offset 40
	.cfi_offset 12, -40
	pushq	%rbp
	.cfi_def_cfa_offset 48
	.cfi_offset 6, -48
	pushq	%rbx
	.cfi_def_cfa_offset 56
	.cfi_offset 3, -56
	subq	$56, %rsp
	.cfi_def_cfa_offset 112
	movq	(%rdi), %r13
	movq	%rdi, 8(%rsp)
	movq	%fs:40, %rdx
	movq	%rdx, 40(%rsp)
	xorl	%edx, %edx
	testq	%r13, %r13
	je	.L1161
	leaq	16(%rsp), %rbp
	.p2align 4,,10
	.p2align 3
.L1167:
	movq	%r13, %r12
	movq	24(%r13), %r13
	leaq	128(%r12), %r15
	leaq	80(%r12), %r14
.L1166:
	movq	(%r15), %rsi
	testq	%rsi, %rsi
	movq	%rsi, (%rsp)
	je	.L1162
	call	_ZNSt3_V215system_categoryEv@PLT
	movq	(%rsp), %rsi
	movq	%rax, %rbx
	jmp	.L1165
	.p2align 4,,10
	.p2align 3
.L1163:
	movq	$0, (%rsi)
	movq	8(%rsi), %rax
	xorl	%ecx, %ecx
	movq	%rbp, %rdx
	movl	$0, 16(%rsp)
	xorl	%edi, %edi
	movq	%rbx, 24(%rsp)
	call	*%rax
	movq	(%r15), %rsi
	testq	%rsi, %rsi
	je	.L1162
.L1165:
	movq	(%rsi), %rax
	movq	%rax, (%r15)
	testq	%rax, %rax
	jne	.L1163
	movq	$0, 8(%r15)
	jmp	.L1163
	.p2align 4,,10
	.p2align 3
.L1162:
	subq	$16, %r15
	cmpq	%r14, %r15
	jne	.L1166
	leaq	40(%r12), %rdi
	call	pthread_mutex_destroy@PLT
	movl	$152, %esi
	movq	%r12, %rdi
	call	_ZdlPvm@PLT
	testq	%r13, %r13
	jne	.L1167
.L1161:
	movq	8(%rsp), %rax
	movq	8(%rax), %r13
	testq	%r13, %r13
	je	.L1160
	leaq	16(%rsp), %rbp
	.p2align 4,,10
	.p2align 3
.L1174:
	movq	%r13, %r12
	movq	24(%r13), %r13
	leaq	128(%r12), %r15
	leaq	80(%r12), %r14
.L1173:
	movq	(%r15), %rsi
	testq	%rsi, %rsi
	movq	%rsi, (%rsp)
	je	.L1169
	call	_ZNSt3_V215system_categoryEv@PLT
	movq	(%rsp), %rsi
	movq	%rax, %rbx
	jmp	.L1172
	.p2align 4,,10
	.p2align 3
.L1170:
	movq	$0, (%rsi)
	movq	8(%rsi), %rax
	xorl	%ecx, %ecx
	movq	%rbp, %rdx
	movl	$0, 16(%rsp)
	xorl	%edi, %edi
	movq	%rbx, 24(%rsp)
	call	*%rax
	movq	(%r15), %rsi
	testq	%rsi, %rsi
	je	.L1169
.L1172:
	movq	(%rsi), %rax
	movq	%rax, (%r15)
	testq	%rax, %rax
	jne	.L1170
	movq	$0, 8(%r15)
	jmp	.L1170
	.p2align 4,,10
	.p2align 3
.L1169:
	subq	$16, %r15
	cmpq	%r14, %r15
	jne	.L1173
	leaq	40(%r12), %rdi
	call	pthread_mutex_destroy@PLT
	movl	$152, %esi
	movq	%r12, %rdi
	call	_ZdlPvm@PLT
	testq	%r13, %r13
	jne	.L1174
.L1160:
	movq	40(%rsp), %rax
	subq	%fs:40, %rax
	jne	.L1207
	addq	$56, %rsp
	.cfi_remember_state
	.cfi_def_cfa_offset 56
	popq	%rbx
	.cfi_def_cfa_offset 48
	popq	%rbp
	.cfi_def_cfa_offset 40
	popq	%r12
	.cfi_def_cfa_offset 32
	popq	%r13
	.cfi_def_cfa_offset 24
	popq	%r14
	.cfi_def_cfa_offset 16
	popq	%r15
	.cfi_def_cfa_offset 8
	ret
.L1207:
	.cfi_restore_state
	call	__stack_chk_fail@PLT
	.cfi_endproc
.LFE7410:
	.section	.gcc_except_table
.LLSDA7410:
	.byte	0xff
	.byte	0xff
	.byte	0x1
	.uleb128 .LLSDACSE7410-.LLSDACSB7410
.LLSDACSB7410:
.LLSDACSE7410:
	.section	.text._ZN4asio6detail11object_poolINS0_13epoll_reactor16descriptor_stateEED2Ev,"axG",@progbits,_ZN4asio6detail11object_poolINS0_13epoll_reactor16descriptor_stateEED5Ev,comdat
	.size	_ZN4asio6detail11object_poolINS0_13epoll_reactor16descriptor_stateEED2Ev, .-_ZN4asio6detail11object_poolINS0_13epoll_reactor16descriptor_stateEED2Ev
	.weak	_ZN4asio6detail11object_poolINS0_13epoll_reactor16descriptor_stateEED1Ev
	.set	_ZN4asio6detail11object_poolINS0_13epoll_reactor16descriptor_stateEED1Ev,_ZN4asio6detail11object_poolINS0_13epoll_reactor16descriptor_stateEED2Ev
	.section	.text.unlikely._ZN4asio6detail15throw_exceptionISt12out_of_rangeEEvRKT_,"axG",@progbits,_ZN4asio6detail15throw_exceptionISt12out_of_rangeEEvRKT_,comdat
	.weak	_ZN4asio6detail15throw_exceptionISt12out_of_rangeEEvRKT_
	.type	_ZN4asio6detail15throw_exceptionISt12out_of_rangeEEvRKT_, @function
_ZN4asio6detail15throw_exceptionISt12out_of_rangeEEvRKT_:
.LFB7496:
	.cfi_startproc
	pushq	%r12
	.cfi_def_cfa_offset 16
	.cfi_offset 12, -16
	movq	%rdi, %r12
	movl	$16, %edi
	pushq	%rbp
	.cfi_def_cfa_offset 24
	.cfi_offset 6, -24
	pushq	%rax
	.cfi_def_cfa_offset 32
	call	__cxa_allocate_exception@PLT
	movq	%r12, %rsi
	movq	%rax, %rdi
	movq	%rax, %rbp
	call	_ZNSt11logic_errorC2ERKS_@PLT
	movq	_ZTVSt12out_of_range@GOTPCREL(%rip), %rax
	movq	_ZNSt12out_of_rangeD1Ev@GOTPCREL(%rip), %rdx
	movq	%rbp, %rdi
	movq	_ZTISt12out_of_range@GOTPCREL(%rip), %rsi
	addq	$16, %rax
	movq	%rax, 0(%rbp)
	call	__cxa_throw@PLT
	.cfi_endproc
.LFE7496:
	.size	_ZN4asio6detail15throw_exceptionISt12out_of_rangeEEvRKT_, .-_ZN4asio6detail15throw_exceptionISt12out_of_rangeEEvRKT_
	.section	.text._ZNSt7__cxx1115basic_stringbufIcSt11char_traitsIcESaIcEED2Ev,"axG",@progbits,_ZNSt7__cxx1115basic_stringbufIcSt11char_traitsIcESaIcEED5Ev,comdat
	.align 2
	.p2align 4
	.weak	_ZNSt7__cxx1115basic_stringbufIcSt11char_traitsIcESaIcEED2Ev
	.type	_ZNSt7__cxx1115basic_stringbufIcSt11char_traitsIcESaIcEED2Ev, @function
_ZNSt7__cxx1115basic_stringbufIcSt11char_traitsIcESaIcEED2Ev:
.LFB7579:
	.cfi_startproc
	movq	_ZTVNSt7__cxx1115basic_stringbufIcSt11char_traitsIcESaIcEEE@GOTPCREL(%rip), %rax
	pushq	%rbx
	.cfi_def_cfa_offset 16
	.cfi_offset 3, -16
	movq	%rdi, %rbx
	addq	$16, %rax
	movq	%rax, (%rdi)
	movq	72(%rdi), %rdi
	leaq	88(%rbx), %rax
	cmpq	%rax, %rdi
	je	.L1211
	movq	88(%rbx), %rax
	leaq	1(%rax), %rsi
	call	_ZdlPvm@PLT
.L1211:
	movq	_ZTVSt15basic_streambufIcSt11char_traitsIcEE@GOTPCREL(%rip), %rax
	leaq	56(%rbx), %rdi
	addq	$16, %rax
	movq	%rax, (%rbx)
	popq	%rbx
	.cfi_def_cfa_offset 8
	jmp	_ZNSt6localeD1Ev@PLT
	.cfi_endproc
.LFE7579:
	.size	_ZNSt7__cxx1115basic_stringbufIcSt11char_traitsIcESaIcEED2Ev, .-_ZNSt7__cxx1115basic_stringbufIcSt11char_traitsIcESaIcEED2Ev
	.weak	_ZNSt7__cxx1115basic_stringbufIcSt11char_traitsIcESaIcEED1Ev
	.set	_ZNSt7__cxx1115basic_stringbufIcSt11char_traitsIcESaIcEED1Ev,_ZNSt7__cxx1115basic_stringbufIcSt11char_traitsIcESaIcEED2Ev
	.section	.text._ZNSt7__cxx1115basic_stringbufIcSt11char_traitsIcESaIcEED0Ev,"axG",@progbits,_ZNSt7__cxx1115basic_stringbufIcSt11char_traitsIcESaIcEED5Ev,comdat
	.align 2
	.p2align 4
	.weak	_ZNSt7__cxx1115basic_stringbufIcSt11char_traitsIcESaIcEED0Ev
	.type	_ZNSt7__cxx1115basic_stringbufIcSt11char_traitsIcESaIcEED0Ev, @function
_ZNSt7__cxx1115basic_stringbufIcSt11char_traitsIcESaIcEED0Ev:
.LFB7581:
	.cfi_startproc
	movq	_ZTVNSt7__cxx1115basic_stringbufIcSt11char_traitsIcESaIcEEE@GOTPCREL(%rip), %rax
	pushq	%rbp
	.cfi_def_cfa_offset 16
	.cfi_offset 6, -16
	movq	%rdi, %rbp
	addq	$16, %rax
	movq	%rax, (%rdi)
	movq	72(%rdi), %rdi
	leaq	88(%rbp), %rax
	cmpq	%rax, %rdi
	je	.L1214
	movq	88(%rbp), %rax
	leaq	1(%rax), %rsi
	call	_ZdlPvm@PLT
.L1214:
	movq	_ZTVSt15basic_streambufIcSt11char_traitsIcEE@GOTPCREL(%rip), %rax
	leaq	56(%rbp), %rdi
	addq	$16, %rax
	movq	%rax, 0(%rbp)
	call	_ZNSt6localeD1Ev@PLT
	movq	%rbp, %rdi
	movl	$104, %esi
	popq	%rbp
	.cfi_def_cfa_offset 8
	jmp	_ZdlPvm@PLT
	.cfi_endproc
.LFE7581:
	.size	_ZNSt7__cxx1115basic_stringbufIcSt11char_traitsIcESaIcEED0Ev, .-_ZNSt7__cxx1115basic_stringbufIcSt11char_traitsIcESaIcEED0Ev
	.section	.rodata._ZNK4asio2ip6detail8endpoint9to_stringB5cxx11ERSt10error_code.str1.1,"aMS",@progbits,1
.LC32:
	.string	"%lu"
	.section	.text._ZNK4asio2ip6detail8endpoint9to_stringB5cxx11ERSt10error_code,"axG",@progbits,_ZNK4asio2ip6detail8endpoint9to_stringB5cxx11ERSt10error_code,comdat
	.align 2
	.p2align 4
	.weak	_ZNK4asio2ip6detail8endpoint9to_stringB5cxx11ERSt10error_code
	.type	_ZNK4asio2ip6detail8endpoint9to_stringB5cxx11ERSt10error_code, @function
_ZNK4asio2ip6detail8endpoint9to_stringB5cxx11ERSt10error_code:
.LFB5939:
	.cfi_startproc
	.cfi_personality 0x9b,DW.ref.__gxx_personality_v0
	.cfi_lsda 0x1b,.LLSDA5939
	pushq	%r15
	.cfi_def_cfa_offset 16
	.cfi_offset 15, -16
	pushq	%r14
	.cfi_def_cfa_offset 24
	.cfi_offset 14, -24
	pushq	%r13
	.cfi_def_cfa_offset 32
	.cfi_offset 13, -32
	movq	%rdx, %r13
	pushq	%r12
	.cfi_def_cfa_offset 40
	.cfi_offset 12, -40
	movq	%rdi, %r12
	pushq	%rbp
	.cfi_def_cfa_offset 48
	.cfi_offset 6, -48
	pushq	%rbx
	.cfi_def_cfa_offset 56
	.cfi_offset 3, -56
	movq	%rsi, %rbx
	subq	$600, %rsp
	.cfi_def_cfa_offset 656
	movq	%fs:40, %rax
	movq	%rax, 584(%rsp)
	xorl	%eax, %eax
	call	__errno_location@PLT
	cmpw	$2, (%rbx)
	movq	%rax, %rbp
	je	.L1313
	movl	24(%rbx), %r14d
	movdqu	8(%rbx), %xmm1
	movl	$0, 0(%rbp)
	leaq	512(%rsp), %r15
	movq	.LC31(%rip), %rax
	leaq	104(%rsp), %rsi
	movl	$63, %ecx
	movq	%r15, %rdx
	movl	$10, %edi
	movl	%r14d, 8(%rsp)
	movq	%rax, 96(%rsp)
	movq	%r14, 120(%rsp)
	movups	%xmm1, 104(%rsp)
	call	inet_ntop@PLT
	movq	_ZGVZN4asio15system_categoryEvE8instance@GOTPCREL(%rip), %r8
	movq	%rax, %r9
	movzbl	(%r8), %eax
	testb	%al, %al
	je	.L1220
.L1303:
	movq	_ZZN4asio15system_categoryEvE8instance@GOTPCREL(%rip), %rcx
.L1221:
	movl	0(%rbp), %eax
	movq	%rcx, 8(%r13)
	movl	%eax, 0(%r13)
	testq	%r9, %r9
	je	.L1312
	testq	%r14, %r14
	je	.L1233
	movzbl	104(%rsp), %eax
	movb	$0, 496(%rsp)
	movq	$37, 480(%rsp)
	movq	$0, 488(%rsp)
	cmpb	$-2, %al
	je	.L1314
	cmpb	$-1, %al
	jne	.L1304
	movzbl	105(%rsp), %eax
	leaq	481(%rsp), %rbp
	andl	$15, %eax
	cmpb	$2, %al
	je	.L1230
.L1232:
	movq	%r14, %r8
	leaq	.LC32(%rip), %rcx
	movq	%rbp, %rdi
	xorl	%eax, %eax
	movl	$16, %edx
	movl	$1, %esi
	movq	%r9, 8(%rsp)
	call	__sprintf_chk@PLT
	movq	8(%rsp), %r9
.L1231:
	leaq	480(%rsp), %rsi
	movl	$63, %edx
	movq	%r15, %rdi
	movq	%r9, 8(%rsp)
	call	__strcat_chk@PLT
	movq	8(%rsp), %r9
.L1233:
	movq	%r9, %rdi
	leaq	80(%rsp), %rbp
	movq	%r9, 8(%rsp)
	leaq	64(%rsp), %r14
	movq	%rbp, 64(%rsp)
	call	strlen@PLT
	movq	8(%rsp), %r9
	cmpq	$15, %rax
	movq	%rax, 56(%rsp)
	movq	%rax, %r15
	ja	.L1315
	cmpq	$1, %rax
	jne	.L1235
	movzbl	(%r9), %edx
	movb	%dl, 80(%rsp)
	movq	%rbp, %rdx
	jmp	.L1246
	.p2align 4,,10
	.p2align 3
.L1313:
	movl	4(%rbx), %eax
	movl	$0, 0(%rbp)
	pxor	%xmm0, %xmm0
	leaq	512(%rsp), %rdx
	leaq	100(%rsp), %rsi
	movl	$16, %ecx
	movl	$2, %edi
	movl	$0, 96(%rsp)
	movl	%eax, 100(%rsp)
	movq	$0, 120(%rsp)
	movups	%xmm0, 104(%rsp)
	call	inet_ntop@PLT
	movq	_ZGVZN4asio15system_categoryEvE8instance@GOTPCREL(%rip), %r8
	movq	%rax, %r14
	movzbl	(%r8), %eax
	testb	%al, %al
	je	.L1218
.L1305:
	movq	_ZZN4asio15system_categoryEvE8instance@GOTPCREL(%rip), %rcx
.L1219:
	movl	0(%rbp), %eax
	movq	%rcx, 8(%r13)
	movl	%eax, 0(%r13)
	testq	%r14, %r14
	je	.L1312
	leaq	80(%rsp), %rbp
	movq	%r14, %rdi
	leaq	64(%rsp), %r15
	movq	%rbp, 64(%rsp)
	call	strlen@PLT
	movq	%rax, 56(%rsp)
	movq	%rax, %r8
	cmpq	$15, %rax
	ja	.L1316
	cmpq	$1, %rax
	jne	.L1245
	movzbl	(%r14), %edx
	movb	%dl, 80(%rsp)
	movq	%rbp, %rdx
.L1246:
	movq	%rax, 72(%rsp)
	movb	$0, (%rdx,%rax)
	movl	0(%r13), %eax
	testl	%eax, %eax
	jne	.L1228
.L1247:
	leaq	208(%rsp), %r13
	leaq	96(%rsp), %r14
	movq	%r13, %rdi
	call	_ZNSt8ios_baseC2Ev@PLT
	movq	_ZTVSt9basic_iosIcSt11char_traitsIcEE@GOTPCREL(%rip), %rax
	pxor	%xmm0, %xmm0
	xorl	%esi, %esi
	movups	%xmm0, 440(%rsp)
	addq	$16, %rax
	movups	%xmm0, 456(%rsp)
	movq	%rax, 208(%rsp)
	xorl	%eax, %eax
	movw	%ax, 432(%rsp)
	movq	_ZTTNSt7__cxx1119basic_ostringstreamIcSt11char_traitsIcESaIcEEE@GOTPCREL(%rip), %rax
	movq	$0, 424(%rsp)
	movq	8(%rax), %rcx
	movq	16(%rax), %rax
	movq	-24(%rcx), %rdi
	movq	%rcx, 96(%rsp)
	movq	%rcx, 8(%rsp)
	addq	%r14, %rdi
	movq	%rax, 16(%rsp)
	movq	%rax, (%rdi)
.LEHB29:
	call	_ZNSt9basic_iosIcSt11char_traitsIcEE4initEPSt15basic_streambufIcS1_E@PLT
.LEHE29:
	movq	_ZTVNSt7__cxx1119basic_ostringstreamIcSt11char_traitsIcESaIcEEE@GOTPCREL(%rip), %rax
	leaq	104(%rsp), %r15
	leaq	24(%rax), %rcx
	addq	$64, %rax
	movq	%rax, 208(%rsp)
	movq	_ZTVSt15basic_streambufIcSt11char_traitsIcEE@GOTPCREL(%rip), %rax
	movq	%rcx, %xmm0
	movq	%rcx, 24(%rsp)
	addq	$16, %rax
	movq	%rax, %xmm2
	leaq	160(%rsp), %rax
	punpcklqdq	%xmm2, %xmm0
	movq	%rax, %rdi
	movq	%rax, 32(%rsp)
	movaps	%xmm0, 96(%rsp)
	pxor	%xmm0, %xmm0
	movaps	%xmm0, 112(%rsp)
	movaps	%xmm0, 128(%rsp)
	movaps	%xmm0, 144(%rsp)
	call	_ZNSt6localeC1Ev@PLT
	movq	_ZTVNSt7__cxx1115basic_stringbufIcSt11char_traitsIcESaIcEEE@GOTPCREL(%rip), %rax
	movq	%r15, %rsi
	movq	%r13, %rdi
	movl	$16, 168(%rsp)
	addq	$16, %rax
	movb	$0, 192(%rsp)
	movq	%rax, 104(%rsp)
	leaq	192(%rsp), %rax
	movq	%rax, 40(%rsp)
	movq	%rax, 176(%rsp)
	movq	$0, 184(%rsp)
.LEHB30:
	call	_ZNSt9basic_iosIcSt11char_traitsIcEE4initEPSt15basic_streambufIcS1_E@PLT
.LEHE30:
.LEHB31:
	call	_ZNSt6locale7classicEv@PLT
	leaq	56(%rsp), %r15
	movq	%rax, %rdx
	movq	%r13, %rsi
	movq	%r15, %rdi
	call	_ZNSt9basic_iosIcSt11char_traitsIcEE5imbueERKSt6locale@PLT
	movq	%r15, %rdi
	call	_ZNSt6localeD1Ev@PLT
	cmpw	$2, (%rbx)
	je	.L1317
	leaq	53(%rsp), %rsi
	movl	$1, %edx
	movq	%r14, %rdi
	movb	$91, 53(%rsp)
	call	_ZSt16__ostream_insertIcSt11char_traitsIcEERSt13basic_ostreamIT_T0_ES6_PKS3_l@PLT
	movq	72(%rsp), %rdx
	movq	64(%rsp), %rsi
	movq	%rax, %rdi
	call	_ZSt16__ostream_insertIcSt11char_traitsIcEERSt13basic_ostreamIT_T0_ES6_PKS3_l@PLT
	movq	%rax, %rdi
	leaq	54(%rsp), %rsi
	movl	$1, %edx
	movb	$93, 54(%rsp)
	call	_ZSt16__ostream_insertIcSt11char_traitsIcEERSt13basic_ostreamIT_T0_ES6_PKS3_l@PLT
.L1254:
	leaq	55(%rsp), %rsi
	movl	$1, %edx
	movq	%r14, %rdi
	movb	$58, 55(%rsp)
	call	_ZSt16__ostream_insertIcSt11char_traitsIcEERSt13basic_ostreamIT_T0_ES6_PKS3_l@PLT
	movzwl	2(%rbx), %esi
	movq	%rax, %rdi
	rolw	$8, %si
	movzwl	%si, %esi
	call	_ZNSo9_M_insertImEERSoT_@PLT
.LEHE31:
	movq	144(%rsp), %rax
	leaq	16(%r12), %rbx
	movq	$0, 8(%r12)
	movq	%rbx, (%r12)
	movb	$0, 16(%r12)
	testq	%rax, %rax
	je	.L1255
	movq	128(%rsp), %r8
	movq	136(%rsp), %rcx
	cmpq	%r8, %rax
	ja	.L1318
	subq	%rcx, %r8
	xorl	%edx, %edx
	xorl	%esi, %esi
	movq	%r12, %rdi
.LEHB32:
	call	_ZNSt7__cxx1112basic_stringIcSt11char_traitsIcESaIcEE10_M_replaceEmmPKcm@PLT
.L1257:
	movq	_ZTVNSt7__cxx1119basic_ostringstreamIcSt11char_traitsIcESaIcEEE@GOTPCREL(%rip), %rax
	movq	24(%rsp), %xmm0
	movq	176(%rsp), %rdi
	addq	$64, %rax
	movq	%rax, 208(%rsp)
	movq	_ZTVNSt7__cxx1115basic_stringbufIcSt11char_traitsIcESaIcEEE@GOTPCREL(%rip), %rax
	addq	$16, %rax
	movq	%rax, %xmm3
	punpcklqdq	%xmm3, %xmm0
	movaps	%xmm0, 96(%rsp)
	cmpq	40(%rsp), %rdi
	je	.L1259
	movq	192(%rsp), %rax
	leaq	1(%rax), %rsi
	call	_ZdlPvm@PLT
.L1259:
	movq	_ZTVSt15basic_streambufIcSt11char_traitsIcEE@GOTPCREL(%rip), %rax
	movq	32(%rsp), %rdi
	addq	$16, %rax
	movq	%rax, 104(%rsp)
	call	_ZNSt6localeD1Ev@PLT
	movq	8(%rsp), %rax
	movq	16(%rsp), %rbx
	movq	%r13, %rdi
	movq	%rax, 96(%rsp)
	movq	-24(%rax), %rax
	movq	%rbx, 96(%rsp,%rax)
	movq	_ZTVSt9basic_iosIcSt11char_traitsIcEE@GOTPCREL(%rip), %rax
	addq	$16, %rax
	movq	%rax, 208(%rsp)
	call	_ZNSt8ios_baseD2Ev@PLT
	jmp	.L1248
	.p2align 4,,10
	.p2align 3
.L1218:
	movq	%r8, %rdi
	movq	%r8, 8(%rsp)
	call	__cxa_guard_acquire@PLT
	movq	8(%rsp), %r8
	testl	%eax, %eax
	je	.L1305
	movq	_ZZN4asio15system_categoryEvE8instance@GOTPCREL(%rip), %rcx
	movq	_ZN4asio6detail15system_categoryD1Ev@GOTPCREL(%rip), %rdi
	movq	%r8, 8(%rsp)
	leaq	__dso_handle(%rip), %rdx
	movq	%rcx, %rsi
	movq	%rcx, 16(%rsp)
	call	__cxa_atexit@PLT
	movq	8(%rsp), %r8
	movq	%r8, %rdi
	call	__cxa_guard_release@PLT
	movq	16(%rsp), %rcx
	movq	8(%rsp), %r8
	jmp	.L1219
	.p2align 4,,10
	.p2align 3
.L1312:
	testl	%eax, %eax
	je	.L1319
	leaq	80(%rsp), %rbp
	movb	$0, 80(%rsp)
	movq	%rbp, 64(%rsp)
	movq	$0, 72(%rsp)
	testl	%eax, %eax
	je	.L1247
.L1228:
	leaq	16(%r12), %rax
	movb	$0, 16(%r12)
	movq	%rax, (%r12)
	movq	$0, 8(%r12)
.L1248:
	movq	64(%rsp), %rdi
	cmpq	%rbp, %rdi
	je	.L1216
	movq	80(%rsp), %rax
	leaq	1(%rax), %rsi
	call	_ZdlPvm@PLT
.L1216:
	movq	584(%rsp), %rax
	subq	%fs:40, %rax
	jne	.L1320
	addq	$600, %rsp
	.cfi_remember_state
	.cfi_def_cfa_offset 56
	movq	%r12, %rax
	popq	%rbx
	.cfi_def_cfa_offset 48
	popq	%rbp
	.cfi_def_cfa_offset 40
	popq	%r12
	.cfi_def_cfa_offset 32
	popq	%r13
	.cfi_def_cfa_offset 24
	popq	%r14
	.cfi_def_cfa_offset 16
	popq	%r15
	.cfi_def_cfa_offset 8
	ret
	.p2align 4,,10
	.p2align 3
.L1318:
	.cfi_restore_state
	subq	%rcx, %rax
	xorl	%edx, %edx
	xorl	%esi, %esi
	movq	%r12, %rdi
	movq	%rax, %r8
	call	_ZNSt7__cxx1112basic_stringIcSt11char_traitsIcESaIcEE10_M_replaceEmmPKcm@PLT
.LEHE32:
	jmp	.L1257
	.p2align 4,,10
	.p2align 3
.L1245:
	testq	%r8, %r8
	jne	.L1321
.L1275:
	movq	%rbp, %rdx
	jmp	.L1246
	.p2align 4,,10
	.p2align 3
.L1316:
	movq	%r15, %rdi
	leaq	56(%rsp), %rsi
	xorl	%edx, %edx
	movq	%r8, 8(%rsp)
.LEHB33:
	call	_ZNSt7__cxx1112basic_stringIcSt11char_traitsIcESaIcEE9_M_createERmm@PLT
.LEHE33:
	movq	8(%rsp), %r8
	movq	%rax, 64(%rsp)
	movq	%rax, %rdi
	movq	56(%rsp), %rax
	movq	%rax, 80(%rsp)
.L1244:
	movq	%r8, %rdx
	movq	%r14, %rsi
	call	memcpy@PLT
	movq	56(%rsp), %rax
	movq	64(%rsp), %rdx
	jmp	.L1246
	.p2align 4,,10
	.p2align 3
.L1220:
	movq	%r8, %rdi
	movq	%r9, 24(%rsp)
	movq	%r8, 16(%rsp)
	call	__cxa_guard_acquire@PLT
	movq	16(%rsp), %r8
	movq	24(%rsp), %r9
	testl	%eax, %eax
	je	.L1303
	movq	_ZZN4asio15system_categoryEvE8instance@GOTPCREL(%rip), %rcx
	movq	_ZN4asio6detail15system_categoryD1Ev@GOTPCREL(%rip), %rdi
	movq	%r9, 32(%rsp)
	leaq	__dso_handle(%rip), %rdx
	movq	%r8, 16(%rsp)
	movq	%rcx, %rsi
	movq	%rcx, 24(%rsp)
	call	__cxa_atexit@PLT
	movq	16(%rsp), %r8
	movq	%r8, %rdi
	call	__cxa_guard_release@PLT
	movq	32(%rsp), %r9
	movq	24(%rsp), %rcx
	movq	16(%rsp), %r8
	jmp	.L1221
	.p2align 4,,10
	.p2align 3
.L1317:
	movq	72(%rsp), %rdx
	movq	64(%rsp), %rsi
	movq	%r14, %rdi
.LEHB34:
	call	_ZSt16__ostream_insertIcSt11char_traitsIcEERSt13basic_ostreamIT_T0_ES6_PKS3_l@PLT
.LEHE34:
	jmp	.L1254
	.p2align 4,,10
	.p2align 3
.L1319:
	movzbl	(%r8), %eax
	testb	%al, %al
	je	.L1322
.L1242:
	leaq	80(%rsp), %rbp
	movl	$22, 0(%r13)
	movq	%rcx, 8(%r13)
	movb	$0, 80(%rsp)
	movq	%rbp, 64(%rsp)
	movq	$0, 72(%rsp)
	jmp	.L1228
	.p2align 4,,10
	.p2align 3
.L1235:
	testq	%r15, %r15
	je	.L1275
	movq	%rbp, %rdi
	jmp	.L1234
	.p2align 4,,10
	.p2align 3
.L1315:
	movq	%r14, %rdi
	leaq	56(%rsp), %rsi
	xorl	%edx, %edx
	movq	%r9, 8(%rsp)
.LEHB35:
	call	_ZNSt7__cxx1112basic_stringIcSt11char_traitsIcESaIcEE9_M_createERmm@PLT
.LEHE35:
	movq	8(%rsp), %r9
	movq	%rax, 64(%rsp)
	movq	%rax, %rdi
	movq	56(%rsp), %rax
	movq	%rax, 80(%rsp)
.L1234:
	movq	%r15, %rdx
	movq	%r9, %rsi
	call	memcpy@PLT
	movq	56(%rsp), %rax
	movq	64(%rsp), %rdx
	jmp	.L1246
	.p2align 4,,10
	.p2align 3
.L1255:
	leaq	176(%rsp), %rsi
	movq	%r12, %rdi
.LEHB36:
	call	_ZNSt7__cxx1112basic_stringIcSt11char_traitsIcESaIcEE9_M_assignERKS4_@PLT
.LEHE36:
	jmp	.L1257
	.p2align 4,,10
	.p2align 3
.L1314:
	movzbl	105(%rsp), %eax
	andl	$-64, %eax
	cmpb	$-128, %al
	je	.L1230
.L1304:
	leaq	481(%rsp), %rbp
	jmp	.L1232
	.p2align 4,,10
	.p2align 3
.L1230:
	movl	8(%rsp), %edi
	leaq	481(%rsp), %rbp
	movq	%r9, 16(%rsp)
	movq	%rbp, %rsi
	call	if_indextoname@PLT
	movq	16(%rsp), %r9
	testq	%rax, %rax
	jne	.L1231
	jmp	.L1232
	.p2align 4,,10
	.p2align 3
.L1322:
	movq	%r8, %rdi
	movq	%rcx, 16(%rsp)
	movq	%r8, 8(%rsp)
	call	__cxa_guard_acquire@PLT
	movq	8(%rsp), %r8
	movq	16(%rsp), %rcx
	testl	%eax, %eax
	je	.L1242
	movq	_ZN4asio6detail15system_categoryD1Ev@GOTPCREL(%rip), %rdi
	movq	%rcx, %rsi
	movq	%rcx, 8(%rsp)
	leaq	__dso_handle(%rip), %rdx
	movq	%r8, 16(%rsp)
	call	__cxa_atexit@PLT
	movq	16(%rsp), %r8
	movq	%r8, %rdi
	call	__cxa_guard_release@PLT
	movq	8(%rsp), %rcx
	jmp	.L1242
.L1320:
	call	__stack_chk_fail@PLT
.L1321:
	movq	%rbp, %rdi
	jmp	.L1244
.L1277:
	movq	%rax, %rbx
	jmp	.L1251
.L1279:
	movq	%rax, %r13
	jmp	.L1260
.L1250:
	movq	%r15, %rdi
	call	_ZNSt7__cxx1115basic_stringbufIcSt11char_traitsIcESaIcEED1Ev@PLT
	movq	8(%rsp), %rax
	movq	16(%rsp), %rdx
	movq	%rax, 96(%rsp)
	movq	-24(%rax), %rax
	movq	%rdx, 96(%rsp,%rax)
.L1251:
	movq	_ZTVSt9basic_iosIcSt11char_traitsIcEE@GOTPCREL(%rip), %rax
	movq	%r13, %rdi
	movq	%rbx, %r12
	addq	$16, %rax
	movq	%rax, 208(%rsp)
	call	_ZNSt8ios_baseD2Ev@PLT
.L1252:
	movq	64(%rsp), %rdi
	cmpq	%rbp, %rdi
	je	.L1264
	movq	80(%rsp), %rax
	leaq	1(%rax), %rsi
	call	_ZdlPvm@PLT
.L1264:
	movq	%r12, %rdi
.LEHB37:
	call	_Unwind_Resume@PLT
.LEHE37:
.L1260:
	movq	(%r12), %rdi
	cmpq	%rdi, %rbx
	je	.L1261
	movq	16(%r12), %rsi
	addq	$1, %rsi
	call	_ZdlPvm@PLT
.L1261:
	movq	%r13, %r12
.L1262:
	movq	%r14, %rdi
	call	_ZNSt7__cxx1119basic_ostringstreamIcSt11char_traitsIcESaIcEED1Ev@PLT
	jmp	.L1252
.L1278:
	movq	%rax, %rbx
	jmp	.L1250
.L1276:
	movq	%rax, %r12
	jmp	.L1262
	.cfi_endproc
.LFE5939:
	.section	.gcc_except_table
.LLSDA5939:
	.byte	0xff
	.byte	0xff
	.byte	0x1
	.uleb128 .LLSDACSE5939-.LLSDACSB5939
.LLSDACSB5939:
	.uleb128 .LEHB29-.LFB5939
	.uleb128 .LEHE29-.LEHB29
	.uleb128 .L1277-.LFB5939
	.uleb128 0
	.uleb128 .LEHB30-.LFB5939
	.uleb128 .LEHE30-.LEHB30
	.uleb128 .L1278-.LFB5939
	.uleb128 0
	.uleb128 .LEHB31-.LFB5939
	.uleb128 .LEHE31-.LEHB31
	.uleb128 .L1276-.LFB5939
	.uleb128 0
	.uleb128 .LEHB32-.LFB5939
	.uleb128 .LEHE32-.LEHB32
	.uleb128 .L1279-.LFB5939
	.uleb128 0
	.uleb128 .LEHB33-.LFB5939
	.uleb128 .LEHE33-.LEHB33
	.uleb128 0
	.uleb128 0
	.uleb128 .LEHB34-.LFB5939
	.uleb128 .LEHE34-.LEHB34
	.uleb128 .L1276-.LFB5939
	.uleb128 0
	.uleb128 .LEHB35-.LFB5939
	.uleb128 .LEHE35-.LEHB35
	.uleb128 0
	.uleb128 0
	.uleb128 .LEHB36-.LFB5939
	.uleb128 .LEHE36-.LEHB36
	.uleb128 .L1279-.LFB5939
	.uleb128 0
	.uleb128 .LEHB37-.LFB5939
	.uleb128 .LEHE37-.LEHB37
	.uleb128 0
	.uleb128 0
.LLSDACSE5939:
	.section	.text._ZNK4asio2ip6detail8endpoint9to_stringB5cxx11ERSt10error_code,"axG",@progbits,_ZNK4asio2ip6detail8endpoint9to_stringB5cxx11ERSt10error_code,comdat
	.size	_ZNK4asio2ip6detail8endpoint9to_stringB5cxx11ERSt10error_code, .-_ZNK4asio2ip6detail8endpoint9to_stringB5cxx11ERSt10error_code
	.section	.rodata.str1.1,"aMS",@progbits,1
.LC33:
	.string	"Listening on: %s"
	.section	.rodata.str1.8
	.align 8
.LC34:
	.string	"/home/master/projects/Procont_EE/utils/dnp3_src/cpp/libs/src/asiopal/TCPServer.cpp(98)"
	.section	.text.unlikely
	.align 2
.LCOLDB35:
	.text
.LHOTB35:
	.align 2
	.p2align 4
	.globl	_ZN7asiopal9TCPServer9ConfigureERKNSt7__cxx1112basic_stringIcSt11char_traitsIcESaIcEEERSt10error_code
	.type	_ZN7asiopal9TCPServer9ConfigureERKNSt7__cxx1112basic_stringIcSt11char_traitsIcESaIcEEERSt10error_code, @function
_ZN7asiopal9TCPServer9ConfigureERKNSt7__cxx1112basic_stringIcSt11char_traitsIcESaIcEEERSt10error_code:
.LFB7062:
	.cfi_startproc
	.cfi_personality 0x9b,DW.ref.__gxx_personality_v0
	.cfi_lsda 0x1b,.LLSDA7062
	pushq	%r15
	.cfi_def_cfa_offset 16
	.cfi_offset 15, -16
	pxor	%xmm0, %xmm0
	pushq	%r14
	.cfi_def_cfa_offset 24
	.cfi_offset 14, -24
	pushq	%r13
	.cfi_def_cfa_offset 32
	.cfi_offset 13, -32
	movq	%rdi, %r13
	pushq	%r12
	.cfi_def_cfa_offset 40
	.cfi_offset 12, -40
	pushq	%rbp
	.cfi_def_cfa_offset 48
	.cfi_offset 6, -48
	pushq	%rbx
	.cfi_def_cfa_offset 56
	.cfi_offset 3, -56
	movq	%rdx, %rbx
	subq	$712, %rsp
	.cfi_def_cfa_offset 768
	movq	(%rsi), %r14
	movq	%fs:40, %rax
	movq	%rax, 696(%rsp)
	xorl	%eax, %eax
	movaps	%xmm0, 192(%rsp)
	movq	$0, 208(%rsp)
	call	__errno_location@PLT
	movl	$37, %esi
	movq	%r14, %rdi
	movl	$0, (%rax)
	movq	%rax, %rbp
	call	strchr@PLT
	movq	%rax, %r15
	testq	%rax, %rax
	je	.L1446
	movq	%rax, %r12
	subq	%r14, %r12
	cmpq	$63, %r12
	jg	.L1537
	movq	%r14, %rsi
	leaq	576(%rsp), %rdi
	movl	$64, %ecx
	movq	%r12, %rdx
	call	__memcpy_chk@PLT
	movb	$0, 576(%rsp,%r12)
	movq	%rax, %rsi
.L1324:
	leaq	192(%rsp), %rdx
	movl	$10, %edi
	call	inet_pton@PLT
	movq	_ZGVZN4asio15system_categoryEvE8instance@GOTPCREL(%rip), %r12
	movl	%eax, %ecx
	movzbl	(%r12), %eax
	testb	%al, %al
	je	.L1330
.L1528:
	movq	_ZZN4asio15system_categoryEvE8instance@GOTPCREL(%rip), %rax
	movq	%rax, (%rsp)
	movq	%rax, %rsi
.L1331:
	movl	0(%rbp), %eax
	movq	%rsi, 8(%rbx)
	movl	%eax, (%rbx)
	testl	%ecx, %ecx
	jle	.L1538
	movq	$0, 208(%rsp)
	xorl	%edx, %edx
	testq	%r15, %r15
	je	.L1340
	movzbl	192(%rsp), %eax
	cmpb	$-2, %al
	je	.L1539
	cmpb	$-1, %al
	jne	.L1529
	movzbl	193(%rsp), %eax
	leaq	1(%r15), %rdi
	andl	$15, %eax
	cmpb	$2, %al
	je	.L1339
.L1341:
	movl	$10, %edx
	xorl	%esi, %esi
	call	strtol@PLT
	movslq	%eax, %rdx
	movl	(%rbx), %eax
.L1340:
	movdqa	192(%rsp), %xmm0
	movaps	%xmm0, 160(%rsp)
	testl	%eax, %eax
	jne	.L1329
	movzwl	74(%r13), %eax
	movl	%edx, 96(%r13)
	leaq	72(%r13), %r15
	movl	$10, %r14d
	movl	$0, 76(%r13)
	sall	$16, %eax
	movups	%xmm0, 200(%rsp)
	orl	$10, %eax
	cmpl	$-1, 104(%r13)
	movups	%xmm0, 80(%r13)
	movl	%eax, 72(%r13)
	movups	%xmm0, 136(%rsp)
	je	.L1353
.L1543:
	movq	_ZGVZN4asio5error17get_misc_categoryEvE8instance@GOTPCREL(%rip), %rbp
	movzbl	0(%rbp), %eax
	testb	%al, %al
	je	.L1354
.L1530:
	movq	_ZZN4asio5error17get_misc_categoryEvE8instance@GOTPCREL(%rip), %r12
.L1355:
	movl	$1, (%rbx)
	movq	%r12, 8(%rbx)
.L1323:
	movq	696(%rsp), %rax
	subq	%fs:40, %rax
	jne	.L1540
	addq	$712, %rsp
	.cfi_remember_state
	.cfi_def_cfa_offset 56
	popq	%rbx
	.cfi_def_cfa_offset 48
	popq	%rbp
	.cfi_def_cfa_offset 40
	popq	%r12
	.cfi_def_cfa_offset 32
	popq	%r13
	.cfi_def_cfa_offset 24
	popq	%r14
	.cfi_def_cfa_offset 16
	popq	%r15
	.cfi_def_cfa_offset 8
	ret
	.p2align 4,,10
	.p2align 3
.L1537:
	.cfi_restore_state
	movq	_ZGVZN4asio15system_categoryEvE8instance@GOTPCREL(%rip), %r12
	movzbl	(%r12), %eax
	testb	%al, %al
	je	.L1326
.L1527:
	movq	_ZZN4asio15system_categoryEvE8instance@GOTPCREL(%rip), %rax
	movq	%rax, (%rsp)
.L1327:
	movl	$22, (%rbx)
	movq	%rax, 8(%rbx)
.L1329:
	movl	$0, 0(%rbp)
	movq	%r14, %rsi
	leaq	80(%rsp), %rdx
	movl	$2, %edi
	movl	$0, 80(%rsp)
	call	inet_pton@PLT
	movl	%eax, %r14d
	movzbl	(%r12), %eax
	testb	%al, %al
	je	.L1541
.L1345:
	movl	0(%rbp), %eax
	movq	(%rsp), %rcx
	movl	%eax, (%rbx)
	movq	%rcx, 8(%rbx)
	testl	%r14d, %r14d
	jle	.L1542
	movl	80(%rsp), %edx
	testl	%eax, %eax
	jne	.L1323
	movzwl	74(%r13), %eax
	pxor	%xmm0, %xmm0
	movl	%edx, 76(%r13)
	leaq	72(%r13), %r15
	movl	$0, 96(%r13)
	movl	$2, %r14d
	sall	$16, %eax
	movups	%xmm0, 80(%r13)
	orl	$2, %eax
	cmpl	$-1, 104(%r13)
	movl	%eax, 72(%r13)
	jne	.L1543
.L1353:
	movq	128(%r13), %rax
	movl	$6, %edx
	movl	$1, %esi
	movl	%r14d, %edi
	movl	$0, 0(%rbp)
	movq	%rax, 16(%rsp)
	call	socket@PLT
	movl	%eax, 8(%rsp)
	movzbl	(%r12), %eax
	testb	%al, %al
	je	.L1544
.L1358:
	movl	0(%rbp), %eax
	movq	(%rsp), %rcx
	movl	8(%rsp), %edi
	movl	%eax, (%rbx)
	movq	%rcx, 8(%rbx)
	testl	%edi, %edi
	js	.L1360
	call	_ZNSt3_V215system_categoryEv@PLT
	movl	8(%rsp), %ecx
	movl	$0, (%rbx)
	movq	%rax, 8(%rbx)
	movl	%ecx, 76(%rsp)
.L1361:
	movq	16(%rsp), %rax
	movq	40(%rax), %rcx
	leaq	120(%rcx), %rax
	movq	%rcx, 16(%rsp)
	movq	%rax, %rdi
	movq	%rax, 32(%rsp)
	call	pthread_mutex_lock@PLT
	movq	16(%rsp), %rcx
	movq	168(%rcx), %rsi
	movq	%rsi, 24(%rsp)
	testq	%rsi, %rsi
	je	.L1363
	movq	24(%rsi), %rax
	leaq	40(%rsi), %r8
	movq	%rcx, %rdx
	movq	%rax, 168(%rcx)
.L1364:
	movq	160(%rdx), %rax
	movq	24(%rsp), %rcx
	movq	%rax, 24(%rcx)
	movq	$0, 32(%rcx)
	movq	160(%rdx), %rax
	testq	%rax, %rax
	je	.L1371
	movq	%rcx, 32(%rax)
.L1371:
	movq	24(%rsp), %rdx
	movq	16(%rsp), %rax
	movq	%r8, 40(%rsp)
	movq	32(%rsp), %rdi
	movq	%rdx, 160(%rax)
	call	pthread_mutex_unlock@PLT
	movq	24(%rsp), %rdx
	movq	40(%rsp), %r8
	movq	%rdx, 112(%r13)
	movq	%r8, %rdi
	movq	%r8, 24(%rsp)
	call	pthread_mutex_lock@PLT
	movq	112(%r13), %rax
	movq	16(%rsp), %rcx
	movl	8(%rsp), %esi
	movq	24(%rsp), %r8
	movq	%rcx, 80(%rax)
	movl	%esi, 88(%rax)
	movq	%r8, %rdi
	movb	$0, 144(%rax)
	call	pthread_mutex_unlock@PLT
	movq	112(%r13), %rax
	movl	8(%rsp), %edx
	movl	$-2147483621, 80(%rsp)
	leaq	80(%rsp), %rcx
	movl	$1, %esi
	movl	$-2147483621, 92(%rax)
	movq	%rax, 84(%rsp)
	movq	16(%rsp), %rax
	movq	%rcx, 24(%rsp)
	movl	96(%rax), %edi
	call	epoll_ctl@PLT
	testl	%eax, %eax
	jne	.L1545
.L1373:
	movl	76(%rsp), %eax
	movb	$16, 108(%r13)
	movl	%eax, 104(%r13)
	call	_ZNSt3_V215system_categoryEv@PLT
	movl	$0, (%rbx)
	movq	%rax, 8(%rbx)
	movl	%r14d, 120(%r13)
.L1379:
	movl	104(%r13), %edi
	movl	$1, 80(%rsp)
	cmpl	$-1, %edi
	je	.L1532
	leaq	80(%rsp), %rax
	movl	$4, %r8d
	movl	$2, %edx
	movl	$0, 0(%rbp)
	movq	%rax, %rcx
	movl	$1, %esi
	movq	%rax, 24(%rsp)
	call	setsockopt@PLT
	movl	%eax, %r14d
	movzbl	(%r12), %eax
	testb	%al, %al
	je	.L1546
.L1396:
	movl	0(%rbp), %eax
	movq	(%rsp), %rcx
	movl	%eax, (%rbx)
	movq	%rcx, 8(%rbx)
	testl	%r14d, %r14d
	jne	.L1398
	call	_ZNSt3_V215system_categoryEv@PLT
	movl	$0, (%rbx)
	movq	%rax, 8(%rbx)
.L1399:
	movl	104(%r13), %edi
	cmpw	$2, 72(%r13)
	movl	$16, %edx
	movl	$28, %eax
	cmovne	%eax, %edx
	cmpl	$-1, %edi
	je	.L1532
	movl	$0, 0(%rbp)
	movq	%r15, %rsi
	call	bind@PLT
	movl	%eax, %r14d
	movzbl	(%r12), %eax
	testb	%al, %al
	je	.L1547
.L1403:
	movl	0(%rbp), %eax
	movq	(%rsp), %rcx
	movl	%eax, (%rbx)
	movq	%rcx, 8(%rbx)
	testl	%r14d, %r14d
	jne	.L1405
	call	_ZNSt3_V215system_categoryEv@PLT
	movl	$0, (%rbx)
	movq	%rax, 8(%rbx)
.L1406:
	movl	104(%r13), %edi
	cmpl	$-1, %edi
	je	.L1532
	movl	$0, 0(%rbp)
	movl	$4096, %esi
	call	listen@PLT
	movl	%eax, %r14d
	movzbl	(%r12), %eax
	testb	%al, %al
	je	.L1548
.L1409:
	movl	0(%rbp), %eax
	movq	(%rsp), %rcx
	movl	%eax, (%rbx)
	movq	%rcx, 8(%rbx)
	testl	%r14d, %r14d
	jne	.L1411
	call	_ZNSt3_V215system_categoryEv@PLT
	movl	$0, (%rbx)
	movq	%rax, 8(%rbx)
.L1412:
	leaq	304(%rsp), %rbx
	leaq	192(%rsp), %r14
	movq	%rbx, %rdi
	movq	%rbx, 16(%rsp)
	call	_ZNSt8ios_baseC2Ev@PLT
	movq	_ZTVSt9basic_iosIcSt11char_traitsIcEE@GOTPCREL(%rip), %rax
	xorl	%esi, %esi
	pxor	%xmm0, %xmm0
	movw	%si, 528(%rsp)
	xorl	%esi, %esi
	addq	$16, %rax
	movups	%xmm0, 536(%rsp)
	movq	%rax, 304(%rsp)
	movq	_ZTTNSt7__cxx1119basic_ostringstreamIcSt11char_traitsIcESaIcEEE@GOTPCREL(%rip), %rax
	movups	%xmm0, 552(%rsp)
	movq	$0, 520(%rsp)
	movq	8(%rax), %rcx
	movq	16(%rax), %rax
	movq	-24(%rcx), %rdi
	movq	%rcx, 192(%rsp)
	movq	%rcx, (%rsp)
	addq	%r14, %rdi
	movq	%rax, 8(%rsp)
	movq	%rax, (%rdi)
.LEHB38:
	call	_ZNSt9basic_iosIcSt11char_traitsIcEE4initEPSt15basic_streambufIcS1_E@PLT
.LEHE38:
	movq	_ZTVNSt7__cxx1119basic_ostringstreamIcSt11char_traitsIcESaIcEEE@GOTPCREL(%rip), %rax
	leaq	200(%rsp), %rbp
	leaq	24(%rax), %rcx
	addq	$64, %rax
	movq	%rax, 304(%rsp)
	movq	_ZTVSt15basic_streambufIcSt11char_traitsIcEE@GOTPCREL(%rip), %rax
	movq	%rcx, %xmm0
	movq	%rcx, 32(%rsp)
	addq	$16, %rax
	movq	%rax, %xmm1
	leaq	256(%rsp), %rax
	punpcklqdq	%xmm1, %xmm0
	movq	%rax, %rdi
	movq	%rax, 40(%rsp)
	movaps	%xmm0, 192(%rsp)
	pxor	%xmm0, %xmm0
	movaps	%xmm0, 208(%rsp)
	movaps	%xmm0, 224(%rsp)
	movaps	%xmm0, 240(%rsp)
	call	_ZNSt6localeC1Ev@PLT
	movq	_ZTVNSt7__cxx1115basic_stringbufIcSt11char_traitsIcESaIcEEE@GOTPCREL(%rip), %rax
	movq	%rbp, %rsi
	movq	%rbx, %rdi
	movl	$16, 264(%rsp)
	addq	$16, %rax
	movb	$0, 288(%rsp)
	movq	%rax, 200(%rsp)
	leaq	288(%rsp), %rax
	movq	%rax, 48(%rsp)
	movq	%rax, 272(%rsp)
	movq	$0, 280(%rsp)
.LEHB39:
	call	_ZNSt9basic_iosIcSt11char_traitsIcEE4initEPSt15basic_streambufIcS1_E@PLT
.LEHE39:
	cmpw	$2, 72(%r13)
	movzwl	74(%r13), %eax
	je	.L1549
	movl	96(%r13), %edx
	movdqu	80(%r13), %xmm3
	movq	$10, 96(%rsp)
	movw	%ax, 98(%rsp)
	movl	%edx, 120(%rsp)
	movups	%xmm3, 104(%rsp)
.L1417:
	movl	$0, 80(%rsp)
	call	_ZNSt3_V215system_categoryEv@PLT
	movq	24(%rsp), %rdx
	leaq	96(%rsp), %rsi
	movq	%rax, 88(%rsp)
	leaq	160(%rsp), %rax
	movq	%rax, %rdi
	movq	%rax, 56(%rsp)
.LEHB40:
	call	_ZNK4asio2ip6detail8endpoint9to_stringB5cxx11ERSt10error_code@PLT
.LEHE40:
	movl	80(%rsp), %eax
	testl	%eax, %eax
	je	.L1418
	movq	192(%rsp), %rax
	movq	-24(%rax), %rdi
	addq	%r14, %rdi
	testb	$4, 28(%rdi)
	jne	.L1550
	movl	32(%rdi), %esi
	orl	$4, %esi
.LEHB41:
	call	_ZNSt9basic_iosIcSt11char_traitsIcEE5clearESt12_Ios_Iostate@PLT
.LEHE41:
	movq	160(%rsp), %rdi
.L1421:
	leaq	176(%rsp), %rbx
	cmpq	%rbx, %rdi
	je	.L1426
	movq	176(%rsp), %rax
	leaq	1(%rax), %rsi
	call	_ZdlPvm@PLT
.L1426:
	addq	$24, %r13
	movq	24(%rsp), %rsi
	movl	$8, 80(%rsp)
	movq	%r13, %rdi
.LEHB42:
	call	_ZNK7openpal6Logger9IsEnabledERKNS_10LogFiltersE@PLT
.LEHE42:
	testb	%al, %al
	je	.L1431
	movq	240(%rsp), %rax
	movq	%rbx, 160(%rsp)
	movq	$0, 168(%rsp)
	movb	$0, 176(%rsp)
	testq	%rax, %rax
	je	.L1432
	movq	224(%rsp), %r8
	movq	232(%rsp), %rcx
	cmpq	%r8, %rax
	jbe	.L1433
	subq	%rcx, %rax
	movq	56(%rsp), %rdi
	xorl	%edx, %edx
	xorl	%esi, %esi
	movq	%rax, %r8
.LEHB43:
	call	_ZNSt7__cxx1112basic_stringIcSt11char_traitsIcESaIcEE10_M_replaceEmmPKcm@PLT
.LEHE43:
.L1434:
	movq	160(%rsp), %r9
	leaq	576(%rsp), %r12
	movl	$120, %ecx
	xorl	%eax, %eax
	movq	%r12, %rdi
	movl	$1, %edx
	movl	$120, %esi
	leaq	.LC33(%rip), %r8
	call	__snprintf_chk@PLT
	movq	160(%rsp), %rdi
	cmpq	%rbx, %rdi
	je	.L1436
	movq	176(%rsp), %rax
	leaq	1(%rax), %rsi
	call	_ZdlPvm@PLT
.L1436:
	movq	24(%rsp), %rsi
	movq	%r12, %rcx
	leaq	.LC34(%rip), %rdx
	movq	%r13, %rdi
	movl	$8, 80(%rsp)
.LEHB44:
	call	_ZN7openpal6Logger3LogERKNS_10LogFiltersEPKcS5_@PLT
.LEHE44:
.L1431:
	movq	_ZTVNSt7__cxx1119basic_ostringstreamIcSt11char_traitsIcESaIcEEE@GOTPCREL(%rip), %rax
	movq	32(%rsp), %xmm0
	movq	272(%rsp), %rdi
	addq	$64, %rax
	movq	%rax, 304(%rsp)
	movq	_ZTVNSt7__cxx1115basic_stringbufIcSt11char_traitsIcESaIcEEE@GOTPCREL(%rip), %rax
	addq	$16, %rax
	movq	%rax, %xmm2
	punpcklqdq	%xmm2, %xmm0
	movaps	%xmm0, 192(%rsp)
	cmpq	48(%rsp), %rdi
	je	.L1439
	movq	288(%rsp), %rax
	leaq	1(%rax), %rsi
	call	_ZdlPvm@PLT
.L1439:
	movq	_ZTVSt15basic_streambufIcSt11char_traitsIcEE@GOTPCREL(%rip), %rax
	movq	40(%rsp), %rdi
	addq	$16, %rax
	movq	%rax, 200(%rsp)
	call	_ZNSt6localeD1Ev@PLT
	movq	(%rsp), %rax
	movq	8(%rsp), %rbx
	movq	16(%rsp), %rdi
	movq	%rax, 192(%rsp)
	movq	-24(%rax), %rax
	movq	%rbx, 192(%rsp,%rax)
	movq	_ZTVSt9basic_iosIcSt11char_traitsIcEE@GOTPCREL(%rip), %rax
	addq	$16, %rax
	movq	%rax, 304(%rsp)
	call	_ZNSt8ios_baseD2Ev@PLT
	jmp	.L1323
	.p2align 4,,10
	.p2align 3
.L1538:
	testl	%eax, %eax
	jne	.L1329
	movzbl	(%r12), %eax
	testb	%al, %al
	je	.L1551
.L1336:
	movq	(%rsp), %rax
	movl	$22, (%rbx)
	movq	%rax, 8(%rbx)
	jmp	.L1329
	.p2align 4,,10
	.p2align 3
.L1446:
	movq	%r14, %rsi
	jmp	.L1324
	.p2align 4,,10
	.p2align 3
.L1330:
	movq	%r12, %rdi
	movl	%ecx, (%rsp)
	call	__cxa_guard_acquire@PLT
	movl	(%rsp), %ecx
	testl	%eax, %eax
	je	.L1528
	movq	_ZZN4asio15system_categoryEvE8instance@GOTPCREL(%rip), %rax
	movq	_ZN4asio6detail15system_categoryD1Ev@GOTPCREL(%rip), %rdi
	leaq	__dso_handle(%rip), %rdx
	movl	%ecx, 8(%rsp)
	movq	%rax, %rsi
	movq	%rax, (%rsp)
	call	__cxa_atexit@PLT
	movq	%r12, %rdi
	call	__cxa_guard_release@PLT
	movl	8(%rsp), %ecx
	movq	(%rsp), %rsi
	jmp	.L1331
	.p2align 4,,10
	.p2align 3
.L1542:
	testl	%eax, %eax
	jne	.L1323
	movzbl	(%r12), %eax
	testb	%al, %al
	je	.L1552
.L1350:
	movq	(%rsp), %rax
	movl	$22, (%rbx)
	movq	%rax, 8(%rbx)
	jmp	.L1323
	.p2align 4,,10
	.p2align 3
.L1539:
	movzbl	193(%rsp), %eax
	andl	$-64, %eax
	cmpb	$-128, %al
	je	.L1339
.L1529:
	leaq	1(%r15), %rdi
	jmp	.L1341
	.p2align 4,,10
	.p2align 3
.L1326:
	movq	%r12, %rdi
	call	__cxa_guard_acquire@PLT
	testl	%eax, %eax
	je	.L1527
	movq	_ZZN4asio15system_categoryEvE8instance@GOTPCREL(%rip), %rax
	movq	_ZN4asio6detail15system_categoryD1Ev@GOTPCREL(%rip), %rdi
	leaq	__dso_handle(%rip), %rdx
	movq	%rax, %rsi
	movq	%rax, (%rsp)
	call	__cxa_atexit@PLT
	movq	%r12, %rdi
	call	__cxa_guard_release@PLT
	movq	(%rsp), %rax
	jmp	.L1327
	.p2align 4,,10
	.p2align 3
.L1339:
	leaq	1(%r15), %rdi
	movq	%rdi, 8(%rsp)
	call	if_nametoindex@PLT
	movq	8(%rsp), %rdi
	movl	%eax, %edx
	testq	%rdx, %rdx
	movq	%rdx, 208(%rsp)
	je	.L1341
	movl	(%rbx), %eax
	jmp	.L1340
	.p2align 4,,10
	.p2align 3
.L1411:
	testl	%eax, %eax
	jne	.L1323
	jmp	.L1412
	.p2align 4,,10
	.p2align 3
.L1398:
	testl	%eax, %eax
	je	.L1399
	jmp	.L1323
	.p2align 4,,10
	.p2align 3
.L1541:
	movq	%r12, %rdi
	call	__cxa_guard_acquire@PLT
	testl	%eax, %eax
	je	.L1345
	movq	(%rsp), %rsi
	movq	_ZN4asio6detail15system_categoryD1Ev@GOTPCREL(%rip), %rdi
	leaq	__dso_handle(%rip), %rdx
	call	__cxa_atexit@PLT
	movq	%r12, %rdi
	call	__cxa_guard_release@PLT
	jmp	.L1345
	.p2align 4,,10
	.p2align 3
.L1354:
	movq	%rbp, %rdi
	call	__cxa_guard_acquire@PLT
	testl	%eax, %eax
	je	.L1530
	movq	_ZZN4asio5error17get_misc_categoryEvE8instance@GOTPCREL(%rip), %r12
	movq	_ZN4asio5error6detail13misc_categoryD1Ev@GOTPCREL(%rip), %rdi
	leaq	__dso_handle(%rip), %rdx
	movq	%r12, %rsi
	call	__cxa_atexit@PLT
	movq	%rbp, %rdi
	call	__cxa_guard_release@PLT
	jmp	.L1355
	.p2align 4,,10
	.p2align 3
.L1360:
	movl	8(%rsp), %ecx
	movl	%ecx, 76(%rsp)
	cmpl	$-1, %ecx
	jne	.L1361
	testl	%eax, %eax
	jne	.L1323
	movl	%r14d, 120(%r13)
	jmp	.L1379
	.p2align 4,,10
	.p2align 3
.L1405:
	testl	%eax, %eax
	jne	.L1323
	jmp	.L1406
	.p2align 4,,10
	.p2align 3
.L1544:
	movq	%r12, %rdi
	call	__cxa_guard_acquire@PLT
	testl	%eax, %eax
	je	.L1358
	movq	(%rsp), %rsi
	movq	_ZN4asio6detail15system_categoryD1Ev@GOTPCREL(%rip), %rdi
	leaq	__dso_handle(%rip), %rdx
	call	__cxa_atexit@PLT
	movq	%r12, %rdi
	call	__cxa_guard_release@PLT
	jmp	.L1358
	.p2align 4,,10
	.p2align 3
.L1547:
	movq	%r12, %rdi
	call	__cxa_guard_acquire@PLT
	testl	%eax, %eax
	je	.L1403
	movq	(%rsp), %rsi
	movq	_ZN4asio6detail15system_categoryD1Ev@GOTPCREL(%rip), %rdi
	leaq	__dso_handle(%rip), %rdx
	call	__cxa_atexit@PLT
	movq	%r12, %rdi
	call	__cxa_guard_release@PLT
	jmp	.L1403
	.p2align 4,,10
	.p2align 3
.L1546:
	movq	%r12, %rdi
	call	__cxa_guard_acquire@PLT
	testl	%eax, %eax
	je	.L1396
	movq	(%rsp), %rsi
	movq	_ZN4asio6detail15system_categoryD1Ev@GOTPCREL(%rip), %rdi
	leaq	__dso_handle(%rip), %rdx
	call	__cxa_atexit@PLT
	movq	%r12, %rdi
	call	__cxa_guard_release@PLT
	jmp	.L1396
	.p2align 4,,10
	.p2align 3
.L1551:
	movq	%r12, %rdi
	call	__cxa_guard_acquire@PLT
	testl	%eax, %eax
	je	.L1336
	movq	(%rsp), %rsi
	movq	_ZN4asio6detail15system_categoryD1Ev@GOTPCREL(%rip), %rdi
	leaq	__dso_handle(%rip), %rdx
	call	__cxa_atexit@PLT
	movq	%r12, %rdi
	call	__cxa_guard_release@PLT
	jmp	.L1336
	.p2align 4,,10
	.p2align 3
.L1545:
	movl	0(%rbp), %ecx
	testl	%ecx, %ecx
	je	.L1373
	movzbl	(%r12), %eax
	testb	%al, %al
	je	.L1553
.L1375:
	movq	(%rsp), %rax
	movl	76(%rsp), %r14d
	movl	%ecx, (%rbx)
	movq	%rax, 8(%rbx)
	cmpl	$-1, %r14d
	je	.L1378
	movl	$0, 0(%rbp)
	movl	%r14d, %edi
	call	close@PLT
	movl	%eax, %ecx
	movzbl	(%r12), %eax
	testb	%al, %al
	je	.L1554
.L1381:
	testl	%ecx, %ecx
	jne	.L1555
.L1384:
	movl	(%rbx), %ecx
.L1378:
	testl	%ecx, %ecx
	jne	.L1323
	jmp	.L1379
	.p2align 4,,10
	.p2align 3
.L1555:
	movl	0(%rbp), %ecx
	movzbl	(%r12), %eax
	testb	%al, %al
	je	.L1556
.L1386:
	cmpl	$11, %ecx
	je	.L1388
.L1536:
	movzbl	(%r12), %eax
	testb	%al, %al
	jne	.L1384
	movq	%r12, %rdi
	call	__cxa_guard_acquire@PLT
	testl	%eax, %eax
	je	.L1384
	movq	(%rsp), %rsi
	movq	_ZN4asio6detail15system_categoryD1Ev@GOTPCREL(%rip), %rdi
	leaq	__dso_handle(%rip), %rdx
	call	__cxa_atexit@PLT
	movq	%r12, %rdi
	call	__cxa_guard_release@PLT
	jmp	.L1384
	.p2align 4,,10
	.p2align 3
.L1548:
	movq	%r12, %rdi
	call	__cxa_guard_acquire@PLT
	testl	%eax, %eax
	je	.L1409
	movq	(%rsp), %rsi
	movq	_ZN4asio6detail15system_categoryD1Ev@GOTPCREL(%rip), %rdi
	leaq	__dso_handle(%rip), %rdx
	call	__cxa_atexit@PLT
	movq	%r12, %rdi
	call	__cxa_guard_release@PLT
	jmp	.L1409
	.p2align 4,,10
	.p2align 3
.L1554:
	movq	%r12, %rdi
	movl	%ecx, 8(%rsp)
	call	__cxa_guard_acquire@PLT
	movl	8(%rsp), %ecx
	testl	%eax, %eax
	je	.L1381
	movq	(%rsp), %rsi
	movq	_ZN4asio6detail15system_categoryD1Ev@GOTPCREL(%rip), %rdi
	leaq	__dso_handle(%rip), %rdx
	call	__cxa_atexit@PLT
	movq	%r12, %rdi
	call	__cxa_guard_release@PLT
	movl	8(%rsp), %ecx
	jmp	.L1381
	.p2align 4,,10
	.p2align 3
.L1552:
	movq	%r12, %rdi
	call	__cxa_guard_acquire@PLT
	testl	%eax, %eax
	je	.L1350
	movq	(%rsp), %rsi
	movq	_ZN4asio6detail15system_categoryD1Ev@GOTPCREL(%rip), %rdi
	leaq	__dso_handle(%rip), %rdx
	call	__cxa_atexit@PLT
	movq	%r12, %rdi
	call	__cxa_guard_release@PLT
	jmp	.L1350
	.p2align 4,,10
	.p2align 3
.L1363:
	movl	$152, %edi
.LEHB45:
	call	_Znwm@PLT
.LEHE45:
	movq	%rax, %rcx
	movq	$0, (%rax)
	xorl	%esi, %esi
	movq	%rax, 24(%rsp)
	movq	_ZN4asio6detail13epoll_reactor16descriptor_state11do_completeEPNS0_15task_io_serviceEPNS0_25task_io_service_operationERKSt10error_codem@GOTPCREL(%rip), %rax
	leaq	40(%rcx), %r8
	movl	$0, 16(%rcx)
	movq	%r8, %rdi
	movq	%rax, 8(%rcx)
	movq	%r8, 40(%rsp)
	call	pthread_mutex_init@PLT
	movl	%eax, %ecx
	movzbl	(%r12), %eax
	testb	%al, %al
	movq	40(%rsp), %r8
	je	.L1557
.L1366:
	movq	(%rsp), %rax
	movl	%ecx, 80(%rsp)
	movq	%rax, 88(%rsp)
	testl	%ecx, %ecx
	jne	.L1558
	movq	24(%rsp), %rax
	pxor	%xmm0, %xmm0
	movq	16(%rsp), %rdx
	movups	%xmm0, 96(%rax)
	movups	%xmm0, 112(%rax)
	movups	%xmm0, 128(%rax)
	jmp	.L1364
	.p2align 4,,10
	.p2align 3
.L1418:
	cmpq	$0, 168(%rsp)
	movq	160(%rsp), %rdi
	je	.L1421
	movq	%rdi, %r12
	leaq	76(%rsp), %r15
	jmp	.L1425
	.p2align 4,,10
	.p2align 3
.L1560:
	movzbl	57(%rbp,%rbx), %ebx
.L1424:
	movl	$1, %edx
	movq	%r15, %rsi
	movq	%r14, %rdi
	movb	%bl, 76(%rsp)
.LEHB46:
	call	_ZSt16__ostream_insertIcSt11char_traitsIcEERSt13basic_ostreamIT_T0_ES6_PKS3_l@PLT
	movq	160(%rsp), %rdi
	movq	168(%rsp), %rax
	addq	$1, %r12
	addq	%rdi, %rax
	cmpq	%r12, %rax
	je	.L1421
.L1425:
	movq	192(%rsp), %rax
	movzbl	(%r12), %ebx
	movq	-24(%rax), %rax
	movq	432(%rsp,%rax), %rbp
	testq	%rbp, %rbp
	je	.L1559
	cmpb	$0, 56(%rbp)
	jne	.L1560
	movq	%rbp, %rdi
	call	_ZNKSt5ctypeIcE13_M_widen_initEv@PLT
	movq	0(%rbp), %rax
	movq	48(%rax), %rax
	cmpq	_ZNKSt5ctypeIcE8do_widenEc@GOTPCREL(%rip), %rax
	je	.L1424
	movsbl	%bl, %esi
	movq	%rbp, %rdi
	call	*%rax
.LEHE46:
	movl	%eax, %ebx
	jmp	.L1424
.L1549:
	movl	76(%r13), %edx
	pxor	%xmm0, %xmm0
	movl	$2, %ecx
	movl	$0, 120(%rsp)
	movw	%cx, 96(%rsp)
	movw	%ax, 98(%rsp)
	movl	%edx, 100(%rsp)
	movups	%xmm0, 104(%rsp)
	jmp	.L1417
.L1553:
	movq	%r12, %rdi
	movl	%ecx, 8(%rsp)
	call	__cxa_guard_acquire@PLT
	movl	8(%rsp), %ecx
	testl	%eax, %eax
	je	.L1375
	movq	(%rsp), %rsi
	movq	_ZN4asio6detail15system_categoryD1Ev@GOTPCREL(%rip), %rdi
	leaq	__dso_handle(%rip), %rdx
	call	__cxa_atexit@PLT
	movq	%r12, %rdi
	call	__cxa_guard_release@PLT
	movl	8(%rsp), %ecx
	jmp	.L1375
.L1556:
	movq	%r12, %rdi
	movl	%ecx, 8(%rsp)
	call	__cxa_guard_acquire@PLT
	movl	8(%rsp), %ecx
	testl	%eax, %eax
	je	.L1386
	movq	(%rsp), %rsi
	movq	_ZN4asio6detail15system_categoryD1Ev@GOTPCREL(%rip), %rdi
	leaq	__dso_handle(%rip), %rdx
	call	__cxa_atexit@PLT
	movq	%r12, %rdi
	call	__cxa_guard_release@PLT
	movl	8(%rsp), %ecx
	jmp	.L1386
.L1433:
	movq	56(%rsp), %rdi
	subq	%rcx, %r8
	xorl	%edx, %edx
	xorl	%esi, %esi
.LEHB47:
	call	_ZNSt7__cxx1112basic_stringIcSt11char_traitsIcESaIcEE10_M_replaceEmmPKcm@PLT
.LEHE47:
	jmp	.L1434
.L1557:
	movq	%r12, %rdi
	movq	%r8, 48(%rsp)
	movl	%ecx, 40(%rsp)
	call	__cxa_guard_acquire@PLT
	movl	40(%rsp), %ecx
	movq	48(%rsp), %r8
	testl	%eax, %eax
	je	.L1366
	movq	(%rsp), %rsi
	movq	_ZN4asio6detail15system_categoryD1Ev@GOTPCREL(%rip), %rdi
	leaq	__dso_handle(%rip), %rdx
	call	__cxa_atexit@PLT
	movq	%r12, %rdi
	call	__cxa_guard_release@PLT
	movq	48(%rsp), %r8
	movl	40(%rsp), %ecx
	jmp	.L1366
.L1388:
	movq	24(%rsp), %rdx
	movl	%r14d, %edi
	movl	$21537, %esi
	xorl	%eax, %eax
	movl	$0, 80(%rsp)
	call	ioctl@PLT
	movl	$0, 0(%rbp)
	movl	%r14d, %edi
	call	close@PLT
	jmp	.L1536
.L1432:
	movq	56(%rsp), %rdi
	leaq	272(%rsp), %rsi
.LEHB48:
	call	_ZNSt7__cxx1112basic_stringIcSt11char_traitsIcESaIcEE9_M_assignERKS4_@PLT
.LEHE48:
	jmp	.L1434
.L1532:
	call	_ZN4asio15system_categoryEv@PLT
	movl	$9, (%rbx)
	movq	%rax, 8(%rbx)
	jmp	.L1323
.L1540:
	call	__stack_chk_fail@PLT
.L1550:
	movq	24(%rsp), %rdi
.LEHB49:
	call	_ZN4asio6detail14do_throw_errorERKSt10error_code@PLT
.LEHE49:
.L1558:
	leaq	80(%rsp), %rdi
	leaq	.LC30(%rip), %rsi
.LEHB50:
	call	_ZN4asio6detail14do_throw_errorERKSt10error_codePKc@PLT
.LEHE50:
.L1559:
.LEHB51:
	call	_ZSt16__throw_bad_castv@PLT
.LEHE51:
.L1449:
	movq	%rax, %rbp
	jmp	.L1370
.L1454:
	movq	%rax, %rbp
	jmp	.L1437
.L1451:
	movq	%rax, %rbp
	jmp	.L1428
.L1453:
	movq	%rax, %rbx
	jmp	.L1414
.L1452:
	movq	%rax, %rbp
	jmp	.L1415
.L1448:
	movq	%rax, %rbp
	jmp	.L1430
.L1450:
	movq	%rax, %rbp
	jmp	.L1369
	.section	.gcc_except_table
.LLSDA7062:
	.byte	0xff
	.byte	0xff
	.byte	0x1
	.uleb128 .LLSDACSE7062-.LLSDACSB7062
.LLSDACSB7062:
	.uleb128 .LEHB38-.LFB7062
	.uleb128 .LEHE38-.LEHB38
	.uleb128 .L1452-.LFB7062
	.uleb128 0
	.uleb128 .LEHB39-.LFB7062
	.uleb128 .LEHE39-.LEHB39
	.uleb128 .L1453-.LFB7062
	.uleb128 0
	.uleb128 .LEHB40-.LFB7062
	.uleb128 .LEHE40-.LEHB40
	.uleb128 .L1448-.LFB7062
	.uleb128 0
	.uleb128 .LEHB41-.LFB7062
	.uleb128 .LEHE41-.LEHB41
	.uleb128 .L1451-.LFB7062
	.uleb128 0
	.uleb128 .LEHB42-.LFB7062
	.uleb128 .LEHE42-.LEHB42
	.uleb128 .L1448-.LFB7062
	.uleb128 0
	.uleb128 .LEHB43-.LFB7062
	.uleb128 .LEHE43-.LEHB43
	.uleb128 .L1454-.LFB7062
	.uleb128 0
	.uleb128 .LEHB44-.LFB7062
	.uleb128 .LEHE44-.LEHB44
	.uleb128 .L1448-.LFB7062
	.uleb128 0
	.uleb128 .LEHB45-.LFB7062
	.uleb128 .LEHE45-.LEHB45
	.uleb128 .L1449-.LFB7062
	.uleb128 0
	.uleb128 .LEHB46-.LFB7062
	.uleb128 .LEHE46-.LEHB46
	.uleb128 .L1451-.LFB7062
	.uleb128 0
	.uleb128 .LEHB47-.LFB7062
	.uleb128 .LEHE47-.LEHB47
	.uleb128 .L1454-.LFB7062
	.uleb128 0
	.uleb128 .LEHB48-.LFB7062
	.uleb128 .LEHE48-.LEHB48
	.uleb128 .L1454-.LFB7062
	.uleb128 0
	.uleb128 .LEHB49-.LFB7062
	.uleb128 .LEHE49-.LEHB49
	.uleb128 .L1451-.LFB7062
	.uleb128 0
	.uleb128 .LEHB50-.LFB7062
	.uleb128 .LEHE50-.LEHB50
	.uleb128 .L1450-.LFB7062
	.uleb128 0
	.uleb128 .LEHB51-.LFB7062
	.uleb128 .LEHE51-.LEHB51
	.uleb128 .L1451-.LFB7062
	.uleb128 0
.LLSDACSE7062:
	.text
	.cfi_endproc
	.section	.text.unlikely
	.cfi_startproc
	.cfi_personality 0x9b,DW.ref.__gxx_personality_v0
	.cfi_lsda 0x1b,.LLSDAC7062
	.type	_ZN7asiopal9TCPServer9ConfigureERKNSt7__cxx1112basic_stringIcSt11char_traitsIcESaIcEEERSt10error_code.cold, @function
_ZN7asiopal9TCPServer9ConfigureERKNSt7__cxx1112basic_stringIcSt11char_traitsIcESaIcEEERSt10error_code.cold:
.LFSB7062:
.L1369:
	.cfi_def_cfa_offset 768
	.cfi_offset 3, -56
	.cfi_offset 6, -48
	.cfi_offset 12, -40
	.cfi_offset 13, -32
	.cfi_offset 14, -24
	.cfi_offset 15, -16
	movq	24(%rsp), %rdi
	movl	$152, %esi
	call	_ZdlPvm@PLT
.L1370:
	movq	32(%rsp), %rdi
	call	pthread_mutex_unlock@PLT
	leaq	76(%rsp), %rdi
	call	_ZN4asio6detail13socket_holderD1Ev@PLT
	movq	%rbp, %rdi
.LEHB52:
	call	_Unwind_Resume@PLT
.L1437:
	movq	160(%rsp), %rdi
	cmpq	%rbx, %rdi
	je	.L1430
	movq	176(%rsp), %rax
	leaq	1(%rax), %rsi
	call	_ZdlPvm@PLT
.L1430:
	movq	%r14, %rdi
	call	_ZNSt7__cxx1119basic_ostringstreamIcSt11char_traitsIcESaIcEED1Ev@PLT
	movq	%rbp, %rdi
	call	_Unwind_Resume@PLT
.L1428:
	movq	160(%rsp), %rdi
	leaq	176(%rsp), %rax
	cmpq	%rax, %rdi
	je	.L1430
	movq	176(%rsp), %rax
	leaq	1(%rax), %rsi
	call	_ZdlPvm@PLT
	jmp	.L1430
.L1414:
	movq	%rbp, %rdi
	movq	%rbx, %rbp
	call	_ZNSt7__cxx1115basic_stringbufIcSt11char_traitsIcESaIcEED1Ev@PLT
	movq	(%rsp), %rax
	movq	8(%rsp), %rcx
	movq	%rax, 192(%rsp)
	movq	-24(%rax), %rax
	movq	%rcx, 192(%rsp,%rax)
.L1415:
	movq	_ZTVSt9basic_iosIcSt11char_traitsIcEE@GOTPCREL(%rip), %rax
	movq	16(%rsp), %rdi
	addq	$16, %rax
	movq	%rax, 304(%rsp)
	call	_ZNSt8ios_baseD2Ev@PLT
	movq	%rbp, %rdi
	call	_Unwind_Resume@PLT
.LEHE52:
	.cfi_endproc
.LFE7062:
	.section	.gcc_except_table
.LLSDAC7062:
	.byte	0xff
	.byte	0xff
	.byte	0x1
	.uleb128 .LLSDACSEC7062-.LLSDACSBC7062
.LLSDACSBC7062:
	.uleb128 .LEHB52-.LCOLDB35
	.uleb128 .LEHE52-.LEHB52
	.uleb128 0
	.uleb128 0
.LLSDACSEC7062:
	.section	.text.unlikely
	.text
	.size	_ZN7asiopal9TCPServer9ConfigureERKNSt7__cxx1112basic_stringIcSt11char_traitsIcESaIcEEERSt10error_code, .-_ZN7asiopal9TCPServer9ConfigureERKNSt7__cxx1112basic_stringIcSt11char_traitsIcESaIcEEERSt10error_code
	.section	.text.unlikely
	.size	_ZN7asiopal9TCPServer9ConfigureERKNSt7__cxx1112basic_stringIcSt11char_traitsIcESaIcEEERSt10error_code.cold, .-_ZN7asiopal9TCPServer9ConfigureERKNSt7__cxx1112basic_stringIcSt11char_traitsIcESaIcEEERSt10error_code.cold
.LCOLDE35:
	.text
.LHOTE35:
	.section	.text._ZNSt16_Sp_counted_baseILN9__gnu_cxx12_Lock_policyE2EE10_M_releaseEv,"axG",@progbits,_ZNSt16_Sp_counted_baseILN9__gnu_cxx12_Lock_policyE2EE10_M_releaseEv,comdat
	.align 2
	.p2align 4
	.weak	_ZNSt16_Sp_counted_baseILN9__gnu_cxx12_Lock_policyE2EE10_M_releaseEv
	.type	_ZNSt16_Sp_counted_baseILN9__gnu_cxx12_Lock_policyE2EE10_M_releaseEv, @function
_ZNSt16_Sp_counted_baseILN9__gnu_cxx12_Lock_policyE2EE10_M_releaseEv:
.LFB8193:
	.cfi_startproc
	pushq	%rbp
	.cfi_def_cfa_offset 16
	.cfi_offset 6, -16
	movq	%rdi, %rbp
	pushq	%rbx
	.cfi_def_cfa_offset 24
	.cfi_offset 3, -24
	subq	$8, %rsp
	.cfi_def_cfa_offset 32
	movq	_ZL28__gthrw___pthread_key_createPjPFvPvE@GOTPCREL(%rip), %rbx
	testq	%rbx, %rbx
	jne	.L1570
	movl	8(%rdi), %eax
	leal	-1(%rax), %edx
	movl	%edx, 8(%rdi)
.L1563:
	cmpl	$1, %eax
	je	.L1571
.L1561:
	addq	$8, %rsp
	.cfi_remember_state
	.cfi_def_cfa_offset 24
	popq	%rbx
	.cfi_def_cfa_offset 16
	popq	%rbp
	.cfi_def_cfa_offset 8
	ret
	.p2align 4,,10
	.p2align 3
.L1571:
	.cfi_restore_state
	movq	0(%rbp), %rax
	movq	%rbp, %rdi
	call	*16(%rax)
	testq	%rbx, %rbx
	jne	.L1572
	movl	12(%rbp), %eax
	leal	-1(%rax), %edx
	movl	%edx, 12(%rbp)
.L1567:
	cmpl	$1, %eax
	jne	.L1561
	movq	0(%rbp), %rax
	movq	%rbp, %rdi
	movq	24(%rax), %rax
	addq	$8, %rsp
	.cfi_remember_state
	.cfi_def_cfa_offset 24
	popq	%rbx
	.cfi_def_cfa_offset 16
	popq	%rbp
	.cfi_def_cfa_offset 8
	jmp	*%rax
	.p2align 4,,10
	.p2align 3
.L1570:
	.cfi_restore_state
	movl	$-1, %eax
	lock xaddl	%eax, 8(%rdi)
	jmp	.L1563
	.p2align 4,,10
	.p2align 3
.L1572:
	movl	$-1, %eax
	lock xaddl	%eax, 12(%rbp)
	jmp	.L1567
	.cfi_endproc
.LFE8193:
	.size	_ZNSt16_Sp_counted_baseILN9__gnu_cxx12_Lock_policyE2EE10_M_releaseEv, .-_ZNSt16_Sp_counted_baseILN9__gnu_cxx12_Lock_policyE2EE10_M_releaseEv
	.section	.text.unlikely
	.align 2
.LCOLDB36:
	.text
.LHOTB36:
	.align 2
	.p2align 4
	.globl	_ZN7asiopal9TCPServer11StartAcceptEv
	.type	_ZN7asiopal9TCPServer11StartAcceptEv, @function
_ZN7asiopal9TCPServer11StartAcceptEv:
.LFB7063:
	.cfi_startproc
	.cfi_personality 0x9b,DW.ref.__gxx_personality_v0
	.cfi_lsda 0x1b,.LLSDA7063
	pushq	%r15
	.cfi_def_cfa_offset 16
	.cfi_offset 15, -16
	pushq	%r14
	.cfi_def_cfa_offset 24
	.cfi_offset 14, -24
	pushq	%r13
	.cfi_def_cfa_offset 32
	.cfi_offset 13, -32
	pushq	%r12
	.cfi_def_cfa_offset 40
	.cfi_offset 12, -40
	pushq	%rbp
	.cfi_def_cfa_offset 48
	.cfi_offset 6, -48
	pushq	%rbx
	.cfi_def_cfa_offset 56
	.cfi_offset 3, -56
	subq	$152, %rsp
	.cfi_def_cfa_offset 208
	movq	16(%rdi), %r13
	movq	%fs:40, %rax
	movq	%rax, 136(%rsp)
	xorl	%eax, %eax
	testq	%r13, %r13
	je	.L1574
	movl	8(%r13), %eax
	movq	%rdi, %r12
	leaq	8(%r13), %r14
.L1576:
	testl	%eax, %eax
	je	.L1574
	leal	1(%rax), %edx
	lock cmpxchgl	%edx, (%r14)
	jne	.L1576
	movq	8(%r12), %rax
	cmpq	$0, _ZL28__gthrw___pthread_key_createPjPFvPvE@GOTPCREL(%rip)
	movq	%rax, (%rsp)
	movq	56(%r12), %rax
	jne	.L1796
	addl	$1, 8(%r13)
.L1578:
	movdqu	40(%rax), %xmm0
	movq	48(%rax), %rbp
	movq	%r13, %xmm1
	leaq	168(%r12), %rax
	movq	%rax, 8(%rsp)
	leaq	136(%r12), %rax
	movaps	%xmm0, 96(%rsp)
	movq	(%rsp), %xmm0
	movq	%rax, 16(%rsp)
	movq	128(%r12), %rax
	punpcklqdq	%xmm1, %xmm0
	movq	%rax, 32(%rsp)
	movaps	%xmm0, 112(%rsp)
	data16	leaq	_ZN4asio6detail15keyword_tss_ptrINS0_10call_stackINS0_14strand_service11strand_implEhE7contextEE6value_E@tlsgd(%rip), %rdi
	.value	0x6666
	rex64
	call	__tls_get_addr@PLT
	movq	(%rax), %rbx
	testq	%rbx, %rbx
	jne	.L1581
	jmp	.L1579
	.p2align 4,,10
	.p2align 3
.L1580:
	movq	16(%rbx), %rbx
	testq	%rbx, %rbx
	je	.L1579
.L1581:
	cmpq	(%rbx), %rbp
	jne	.L1580
	movq	8(%rbx), %rbx
.L1579:
	pxor	%xmm0, %xmm0
	leaq	96(%rsp), %rax
	movq	%rax, 64(%rsp)
	movups	%xmm0, 72(%rsp)
	data16	leaq	_ZN4asio6detail15keyword_tss_ptrINS0_10call_stackINS0_15task_io_serviceENS0_27task_io_service_thread_infoEE7contextEE6value_E@tlsgd(%rip), %rdi
	.value	0x6666
	rex64
	call	__tls_get_addr@PLT
	movq	(%rax), %rax
	testq	%rax, %rax
	je	.L1582
	movq	8(%rax), %rax
	testq	%rax, %rax
	je	.L1582
	movq	(%rax), %rbp
	testq	%rbp, %rbp
	je	.L1582
	movq	$0, (%rax)
	movzbl	0(%rbp), %eax
	cmpb	$119, %al
	jbe	.L1583
	movb	%al, 120(%rbp)
	movq	%r13, 40(%rsp)
	jmp	.L1584
	.p2align 4,,10
	.p2align 3
.L1583:
	movq	%rbp, %rdi
	call	_ZdlPv@PLT
.L1582:
	movl	$121, %edi
.LEHB53:
	call	_Znwm@PLT
.LEHE53:
	movb	$120, 120(%rax)
	movq	%rax, %rbp
	movq	112(%rsp), %rax
	movq	%rax, (%rsp)
	movq	120(%rsp), %rax
	movq	%rax, 40(%rsp)
.L1584:
	movzbl	108(%r12), %edx
	movl	104(%r12), %r15d
	movq	%rbp, 72(%rsp)
	leaq	_ZN4asio6detail25reactive_socket_accept_opINS_12basic_socketINS_2ip3tcpENS_21stream_socket_serviceIS4_EEEES4_NS0_15wrapped_handlerINS_10io_service6strandEZN7asiopal9TCPServer11StartAcceptEvEUlSt10error_codeE_NS0_26is_continuation_if_runningEEEE11do_completeEPNS0_15task_io_serviceEPNS0_25task_io_service_operationERKSD_m(%rip), %rax
	movq	$0, 0(%rbp)
	movq	%rax, 8(%rbp)
	movl	$0, 16(%rbp)
	movl	$0, 24(%rbp)
	movb	%dl, 31(%rsp)
	call	_ZNSt3_V215system_categoryEv@PLT
	movq	(%rsp), %xmm0
	movzbl	31(%rsp), %edx
	movq	$0, 40(%rbp)
	movq	%rax, 32(%rbp)
	movq	%rax, %rcx
	movq	_ZN4asio6detail30reactive_socket_accept_op_baseINS_12basic_socketINS_2ip3tcpENS_21stream_socket_serviceIS4_EEEES4_E10do_performEPNS0_10reactor_opE@GOTPCREL(%rip), %rax
	movhps	40(%rsp), %xmm0
	movdqa	96(%rsp), %xmm2
	movb	%dl, 60(%rbp)
	movq	%rax, 48(%rbp)
	movq	16(%rsp), %rax
	movl	%r15d, 56(%rbp)
	movq	%rax, 64(%rbp)
	movl	120(%r12), %eax
	movups	%xmm0, 104(%rbp)
	pxor	%xmm0, %xmm0
	cmpl	$-1, 136(%r12)
	movl	%eax, 72(%rbp)
	movq	8(%rsp), %rax
	movq	%rbp, 80(%rsp)
	movq	%rax, 80(%rbp)
	movups	%xmm2, 88(%rbp)
	movaps	%xmm0, 112(%rsp)
	jne	.L1585
	andl	$3, %edx
	jne	.L1586
	cmpl	$-1, %r15d
	je	.L1797
	movq	%rcx, 8(%rsp)
	call	__errno_location@PLT
	movl	%r15d, %edi
	leaq	52(%rsp), %rdx
	movl	$21537, %esi
	movl	$0, (%rax)
	movq	%rax, (%rsp)
	xorl	%eax, %eax
	movl	$1, 52(%rsp)
	call	ioctl@PLT
	movl	%eax, %r15d
	movq	_ZGVZN4asio15system_categoryEvE8instance@GOTPCREL(%rip), %rax
	movzbl	(%rax), %eax
	testb	%al, %al
	movq	(%rsp), %r8
	movq	8(%rsp), %rcx
	je	.L1592
.L1772:
	movq	_ZZN4asio15system_categoryEvE8instance@GOTPCREL(%rip), %rsi
.L1593:
	movl	(%r8), %eax
	movq	%rsi, 32(%rbp)
	movl	%eax, 24(%rbp)
	testl	%r15d, %r15d
	jns	.L1798
.L1591:
	movq	32(%rsp), %rax
	movq	40(%rax), %rax
	movq	40(%rax), %rbx
	data16	leaq	_ZN4asio6detail15keyword_tss_ptrINS0_10call_stackINS0_15task_io_serviceENS0_27task_io_service_thread_infoEE7contextEE6value_E@tlsgd(%rip), %rdi
	.value	0x6666
	rex64
	call	__tls_get_addr@PLT
	movq	(%rax), %rax
	testq	%rax, %rax
	jne	.L1643
	jmp	.L1640
	.p2align 4,,10
	.p2align 3
.L1641:
	movq	16(%rax), %rax
	testq	%rax, %rax
	je	.L1640
.L1643:
	cmpq	(%rax), %rbx
	jne	.L1641
.L1794:
	movq	8(%rax), %rax
	testq	%rax, %rax
	jne	.L1656
	.p2align 4,,10
	.p2align 3
.L1640:
	lock addq	$1, 184(%rbx)
	leaq	48(%rbx), %r12
	movq	%r12, %rdi
	call	pthread_mutex_lock@PLT
	movq	$0, 0(%rbp)
	cmpq	$0, 200(%rbx)
	je	.L1645
	movq	200(%rbx), %rax
	movq	%rbp, (%rax)
	movq	%rbp, 200(%rbx)
.L1646:
	movq	136(%rbx), %rax
	orq	$1, %rax
	movq	%rax, 136(%rbx)
	cmpq	$1, %rax
	je	.L1647
	movq	%r12, %rdi
	call	pthread_mutex_unlock@PLT
	leaq	88(%rbx), %rdi
	call	pthread_cond_signal@PLT
	jmp	.L1605
	.p2align 4,,10
	.p2align 3
.L1585:
	movq	_ZGVZN4asio5error17get_misc_categoryEvE8instance@GOTPCREL(%rip), %r12
	movzbl	(%r12), %eax
	testb	%al, %al
	je	.L1650
.L1775:
	movq	_ZZN4asio5error17get_misc_categoryEvE8instance@GOTPCREL(%rip), %r15
.L1651:
	movq	32(%rsp), %rax
	movl	$1, 24(%rbp)
	movq	%r15, 32(%rbp)
	movq	40(%rax), %rax
	movq	40(%rax), %r12
	cmpb	$0, 40(%r12)
	jne	.L1684
	testq	%rbx, %rbx
	je	.L1653
.L1684:
	data16	leaq	_ZN4asio6detail15keyword_tss_ptrINS0_10call_stackINS0_15task_io_serviceENS0_27task_io_service_thread_infoEE7contextEE6value_E@tlsgd(%rip), %rdi
	.value	0x6666
	rex64
	call	__tls_get_addr@PLT
	movq	(%rax), %rax
	testq	%rax, %rax
	jne	.L1657
	jmp	.L1653
	.p2align 4,,10
	.p2align 3
.L1655:
	movq	16(%rax), %rax
	testq	%rax, %rax
	je	.L1653
.L1657:
	cmpq	(%rax), %r12
	jne	.L1655
	movq	8(%rax), %rax
	testq	%rax, %rax
	je	.L1653
.L1656:
	addq	$1, 24(%rax)
	movq	$0, 0(%rbp)
	cmpq	$0, 16(%rax)
	je	.L1658
	movq	16(%rax), %rdx
	movq	%rbp, (%rdx)
	movq	%rbp, 16(%rax)
.L1605:
	movq	120(%rsp), %rbp
	testq	%rbp, %rbp
	je	.L1665
	cmpq	$0, _ZL28__gthrw___pthread_key_createPjPFvPvE@GOTPCREL(%rip)
	jne	.L1799
	movl	8(%rbp), %eax
	leal	-1(%rax), %edx
	movl	%edx, 8(%rbp)
.L1667:
	cmpl	$1, %eax
	je	.L1800
.L1665:
	cmpq	$0, _ZL28__gthrw___pthread_key_createPjPFvPvE@GOTPCREL(%rip)
	jne	.L1801
	movl	8(%r13), %eax
	leal	-1(%rax), %edx
	movl	%edx, 8(%r13)
.L1674:
	cmpl	$1, %eax
	je	.L1802
.L1573:
	movq	136(%rsp), %rax
	subq	%fs:40, %rax
	jne	.L1778
	addq	$152, %rsp
	.cfi_remember_state
	.cfi_def_cfa_offset 56
	popq	%rbx
	.cfi_def_cfa_offset 48
	popq	%rbp
	.cfi_def_cfa_offset 40
	popq	%r12
	.cfi_def_cfa_offset 32
	popq	%r13
	.cfi_def_cfa_offset 24
	popq	%r14
	.cfi_def_cfa_offset 16
	popq	%r15
	.cfi_def_cfa_offset 8
	ret
	.p2align 4,,10
	.p2align 3
.L1798:
	.cfi_restore_state
	movl	$0, 24(%rbp)
	movl	104(%r12), %r15d
	movq	%rcx, 32(%rbp)
	orb	$2, 108(%r12)
.L1586:
	movq	32(%rsp), %rax
	movq	40(%rax), %rax
	movq	%rax, (%rsp)
	movq	112(%r12), %rax
	testq	%rax, %rax
	je	.L1803
	addq	$40, %rax
	movq	%rax, %rdi
	movq	%rax, 8(%rsp)
	call	pthread_mutex_lock@PLT
	movq	112(%r12), %rax
	cmpb	$0, 144(%rax)
	jne	.L1804
	cmpq	$0, 96(%rax)
	je	.L1805
.L1623:
	movq	104(%rax), %rdx
	movq	$0, 0(%rbp)
	testq	%rdx, %rdx
	je	.L1636
	movq	%rbp, (%rdx)
	movq	%rbp, 104(%rax)
.L1637:
	movq	(%rsp), %rax
	movq	40(%rax), %rax
	lock addq	$1, 184(%rax)
	movq	8(%rsp), %rdi
	call	pthread_mutex_unlock@PLT
	jmp	.L1605
	.p2align 4,,10
	.p2align 3
.L1653:
	lock addq	$1, 184(%r12)
	leaq	48(%r12), %r15
	movq	%r15, %rdi
	call	pthread_mutex_lock@PLT
	movq	$0, 0(%rbp)
	cmpq	$0, 200(%r12)
	je	.L1659
	movq	200(%r12), %rax
	movq	%rbp, (%rax)
	movq	%rbp, 200(%r12)
.L1660:
	movq	136(%r12), %rax
	orq	$1, %rax
	movq	%rax, 136(%r12)
	cmpq	$1, %rax
	je	.L1661
	movq	%r15, %rdi
	call	pthread_mutex_unlock@PLT
	leaq	88(%r12), %rdi
	call	pthread_cond_signal@PLT
	jmp	.L1605
	.p2align 4,,10
	.p2align 3
.L1661:
	cmpb	$0, 176(%r12)
	jne	.L1663
	movq	144(%r12), %rax
	testq	%rax, %rax
	je	.L1663
	leaq	88(%rax), %rdx
	leaq	52(%rsp), %rcx
	movl	$3, %esi
	movb	$1, 176(%r12)
	movq	%rdx, 56(%rsp)
	movl	88(%rax), %edx
	movl	$-2147483639, 52(%rsp)
	movl	96(%rax), %edi
	call	epoll_ctl@PLT
.L1663:
	movq	%r15, %rdi
	call	pthread_mutex_unlock@PLT
	jmp	.L1605
	.p2align 4,,10
	.p2align 3
.L1650:
	movq	%r12, %rdi
	call	__cxa_guard_acquire@PLT
	testl	%eax, %eax
	je	.L1775
	movq	_ZZN4asio5error17get_misc_categoryEvE8instance@GOTPCREL(%rip), %r15
	movq	_ZN4asio5error6detail13misc_categoryD1Ev@GOTPCREL(%rip), %rdi
	leaq	__dso_handle(%rip), %rdx
	movq	%r15, %rsi
	call	__cxa_atexit@PLT
	movq	%r12, %rdi
	call	__cxa_guard_release@PLT
	jmp	.L1651
	.p2align 4,,10
	.p2align 3
.L1592:
	movq	_ZGVZN4asio15system_categoryEvE8instance@GOTPCREL(%rip), %rdi
	movq	%r8, 8(%rsp)
	movq	%rcx, (%rsp)
	call	__cxa_guard_acquire@PLT
	movq	(%rsp), %rcx
	movq	8(%rsp), %r8
	testl	%eax, %eax
	je	.L1772
	movq	_ZZN4asio15system_categoryEvE8instance@GOTPCREL(%rip), %rsi
	movq	_ZN4asio6detail15system_categoryD1Ev@GOTPCREL(%rip), %rdi
	movq	%r8, 16(%rsp)
	leaq	__dso_handle(%rip), %rdx
	movq	%rcx, 8(%rsp)
	movq	%rsi, (%rsp)
	call	__cxa_atexit@PLT
	movq	_ZGVZN4asio15system_categoryEvE8instance@GOTPCREL(%rip), %rdi
	call	__cxa_guard_release@PLT
	movq	16(%rsp), %r8
	movq	8(%rsp), %rcx
	movq	(%rsp), %rsi
	jmp	.L1593
	.p2align 4,,10
	.p2align 3
.L1802:
	movq	0(%r13), %rax
	movq	%r13, %rdi
	call	*16(%rax)
	cmpq	$0, _ZL28__gthrw___pthread_key_createPjPFvPvE@GOTPCREL(%rip)
	jne	.L1806
	movl	12(%r13), %eax
	leal	-1(%rax), %edx
	movl	%edx, 12(%r13)
.L1678:
	cmpl	$1, %eax
	jne	.L1573
	movq	136(%rsp), %rax
	subq	%fs:40, %rax
	jne	.L1778
	movq	0(%r13), %rax
	movq	%r13, %rdi
	movq	24(%rax), %rax
	addq	$152, %rsp
	.cfi_remember_state
	.cfi_def_cfa_offset 56
	popq	%rbx
	.cfi_def_cfa_offset 48
	popq	%rbp
	.cfi_def_cfa_offset 40
	popq	%r12
	.cfi_def_cfa_offset 32
	popq	%r13
	.cfi_def_cfa_offset 24
	popq	%r14
	.cfi_def_cfa_offset 16
	popq	%r15
	.cfi_def_cfa_offset 8
	jmp	*%rax
	.p2align 4,,10
	.p2align 3
.L1800:
	.cfi_restore_state
	movq	0(%rbp), %rax
	movq	%rbp, %rdi
	call	*16(%rax)
	cmpq	$0, _ZL28__gthrw___pthread_key_createPjPFvPvE@GOTPCREL(%rip)
	jne	.L1807
	movl	12(%rbp), %eax
	leal	-1(%rax), %edx
	movl	%edx, 12(%rbp)
.L1670:
	cmpl	$1, %eax
	jne	.L1665
	movq	0(%rbp), %rax
	movq	%rbp, %rdi
	call	*24(%rax)
	jmp	.L1665
	.p2align 4,,10
	.p2align 3
.L1799:
	movl	$-1, %eax
	lock xaddl	%eax, 8(%rbp)
	jmp	.L1667
	.p2align 4,,10
	.p2align 3
.L1801:
	movl	$-1, %eax
	lock xaddl	%eax, (%r14)
	jmp	.L1674
	.p2align 4,,10
	.p2align 3
.L1796:
	lock addl	$1, (%r14)
	jmp	.L1578
.L1647:
	cmpb	$0, 176(%rbx)
	jne	.L1649
	movq	144(%rbx), %rax
	testq	%rax, %rax
	je	.L1649
	movb	$1, 176(%rbx)
	leaq	88(%rax), %rdx
	leaq	52(%rsp), %rcx
	movl	$3, %esi
	movl	$-2147483639, 52(%rsp)
	movq	%rdx, 56(%rsp)
	movl	88(%rax), %edx
	movl	96(%rax), %edi
	call	epoll_ctl@PLT
.L1649:
	movq	%r12, %rdi
	call	pthread_mutex_unlock@PLT
	jmp	.L1605
	.p2align 4,,10
	.p2align 3
.L1658:
	movq	%rbp, %xmm0
	punpcklqdq	%xmm0, %xmm0
	movups	%xmm0, 8(%rax)
	jmp	.L1605
.L1659:
	movq	%rbp, %xmm0
	punpcklqdq	%xmm0, %xmm0
	movups	%xmm0, 192(%r12)
	jmp	.L1660
.L1806:
	movl	$-1, %eax
	lock xaddl	%eax, 12(%r13)
	jmp	.L1678
.L1807:
	movl	$-1, %eax
	lock xaddl	%eax, 12(%rbp)
	jmp	.L1670
.L1636:
	movq	%rbp, %xmm0
	punpcklqdq	%xmm0, %xmm0
	movups	%xmm0, 96(%rax)
	jmp	.L1637
.L1805:
	testq	%rbx, %rbx
	je	.L1624
	cmpq	$0, 128(%rax)
	jne	.L1624
	movq	%rbp, %rdi
.LEHB54:
	call	*48(%rbp)
.LEHE54:
	testb	%al, %al
	je	.L1774
	movq	8(%rsp), %rdi
	call	pthread_mutex_unlock@PLT
	movq	(%rsp), %rax
	movq	40(%rax), %rbx
	data16	leaq	_ZN4asio6detail15keyword_tss_ptrINS0_10call_stackINS0_15task_io_serviceENS0_27task_io_service_thread_infoEE7contextEE6value_E@tlsgd(%rip), %rdi
	.value	0x6666
	rex64
	call	__tls_get_addr@PLT
	movq	(%rax), %rax
	testq	%rax, %rax
	jne	.L1629
	jmp	.L1640
	.p2align 4,,10
	.p2align 3
.L1627:
	movq	16(%rax), %rax
	testq	%rax, %rax
	je	.L1640
.L1629:
	cmpq	(%rax), %rbx
	jne	.L1627
	jmp	.L1794
	.p2align 4,,10
	.p2align 3
.L1803:
	movq	_ZGVZN4asio15system_categoryEvE8instance@GOTPCREL(%rip), %r12
	movzbl	(%r12), %eax
	testb	%al, %al
	je	.L1597
.L1773:
	movq	_ZZN4asio15system_categoryEvE8instance@GOTPCREL(%rip), %rsi
.L1598:
	movl	$9, 24(%rbp)
	movq	(%rsp), %rax
	movq	%rsi, 32(%rbp)
	movq	40(%rax), %rbx
	data16	leaq	_ZN4asio6detail15keyword_tss_ptrINS0_10call_stackINS0_15task_io_serviceENS0_27task_io_service_thread_infoEE7contextEE6value_E@tlsgd(%rip), %rdi
	.value	0x6666
	rex64
	call	__tls_get_addr@PLT
	movq	(%rax), %rax
	testq	%rax, %rax
	jne	.L1603
	jmp	.L1640
	.p2align 4,,10
	.p2align 3
.L1601:
	movq	16(%rax), %rax
	testq	%rax, %rax
	je	.L1640
.L1603:
	cmpq	(%rax), %rbx
	jne	.L1601
	jmp	.L1794
.L1804:
	movq	(%rsp), %rax
	movq	40(%rax), %rbx
	data16	leaq	_ZN4asio6detail15keyword_tss_ptrINS0_10call_stackINS0_15task_io_serviceENS0_27task_io_service_thread_infoEE7contextEE6value_E@tlsgd(%rip), %rdi
	.value	0x6666
	rex64
	call	__tls_get_addr@PLT
	movq	(%rax), %rax
	testq	%rax, %rax
	jne	.L1615
	jmp	.L1612
	.p2align 4,,10
	.p2align 3
.L1613:
	movq	16(%rax), %rax
	testq	%rax, %rax
	je	.L1612
.L1615:
	cmpq	(%rax), %rbx
	jne	.L1613
	movq	8(%rax), %rax
	testq	%rax, %rax
	je	.L1612
	addq	$1, 24(%rax)
	cmpq	$0, 16(%rax)
	movq	$0, 0(%rbp)
	je	.L1616
	movq	16(%rax), %rdx
	movq	%rbp, (%rdx)
	movq	%rbp, 16(%rax)
.L1617:
	movq	8(%rsp), %rdi
	call	pthread_mutex_unlock@PLT
	jmp	.L1605
.L1624:
	movl	92(%rax), %edx
	movq	%rax, 56(%rsp)
	leaq	52(%rsp), %rcx
	movl	$3, %esi
	movq	(%rsp), %rax
	movl	%edx, 52(%rsp)
	movl	%r15d, %edx
	movl	96(%rax), %edi
	call	epoll_ctl@PLT
.L1774:
	movq	112(%r12), %rax
	jmp	.L1623
.L1597:
	movq	%r12, %rdi
	call	__cxa_guard_acquire@PLT
	testl	%eax, %eax
	je	.L1773
	movq	_ZZN4asio15system_categoryEvE8instance@GOTPCREL(%rip), %rsi
	movq	_ZN4asio6detail15system_categoryD1Ev@GOTPCREL(%rip), %rdi
	leaq	__dso_handle(%rip), %rdx
	movq	%rsi, 8(%rsp)
	call	__cxa_atexit@PLT
	movq	%r12, %rdi
	call	__cxa_guard_release@PLT
	movq	8(%rsp), %rsi
	jmp	.L1598
.L1645:
	movq	%rbp, %xmm0
	punpcklqdq	%xmm0, %xmm0
	movups	%xmm0, 192(%rbx)
	jmp	.L1646
.L1797:
	movq	_ZGVZN4asio15system_categoryEvE8instance@GOTPCREL(%rip), %r12
	movzbl	(%r12), %eax
	testb	%al, %al
	je	.L1588
.L1771:
	movq	_ZZN4asio15system_categoryEvE8instance@GOTPCREL(%rip), %rsi
.L1589:
	movl	$9, 24(%rbp)
	movq	%rsi, 32(%rbp)
	jmp	.L1591
.L1612:
	lock addq	$1, 184(%rbx)
	leaq	48(%rbx), %r12
	movq	%r12, %rdi
	call	pthread_mutex_lock@PLT
	cmpq	$0, 200(%rbx)
	movq	$0, 0(%rbp)
	je	.L1618
	movq	200(%rbx), %rax
	movq	%rbp, (%rax)
	movq	%rbp, 200(%rbx)
.L1619:
	movq	136(%rbx), %rax
	orq	$1, %rax
	movq	%rax, 136(%rbx)
	cmpq	$1, %rax
	je	.L1620
	movq	%r12, %rdi
	call	pthread_mutex_unlock@PLT
	leaq	88(%rbx), %rdi
	call	pthread_cond_signal@PLT
	jmp	.L1617
.L1620:
	cmpb	$0, 176(%rbx)
	jne	.L1622
	movq	144(%rbx), %rax
	testq	%rax, %rax
	je	.L1622
	movb	$1, 176(%rbx)
	leaq	88(%rax), %rdx
	leaq	52(%rsp), %rcx
	movl	$3, %esi
	movq	%rdx, 56(%rsp)
	movl	88(%rax), %edx
	movl	$-2147483639, 52(%rsp)
	movl	96(%rax), %edi
	call	epoll_ctl@PLT
.L1622:
	movq	%r12, %rdi
	call	pthread_mutex_unlock@PLT
	jmp	.L1617
.L1588:
	movq	%r12, %rdi
	call	__cxa_guard_acquire@PLT
	testl	%eax, %eax
	je	.L1771
	movq	_ZZN4asio15system_categoryEvE8instance@GOTPCREL(%rip), %rsi
	movq	_ZN4asio6detail15system_categoryD1Ev@GOTPCREL(%rip), %rdi
	leaq	__dso_handle(%rip), %rdx
	movq	%rsi, (%rsp)
	call	__cxa_atexit@PLT
	movq	%r12, %rdi
	call	__cxa_guard_release@PLT
	movq	(%rsp), %rsi
	jmp	.L1589
.L1618:
	movq	%rbp, %xmm0
	punpcklqdq	%xmm0, %xmm0
	movups	%xmm0, 192(%rbx)
	jmp	.L1619
.L1616:
	movq	%rbp, %xmm0
	punpcklqdq	%xmm0, %xmm0
	movups	%xmm0, 8(%rax)
	jmp	.L1617
.L1778:
	call	__stack_chk_fail@PLT
.L1683:
	movq	%rax, %rbp
	jmp	.L1638
.L1682:
	movq	%rax, %rbp
	jmp	.L1639
	.section	.gcc_except_table
.LLSDA7063:
	.byte	0xff
	.byte	0xff
	.byte	0x1
	.uleb128 .LLSDACSE7063-.LLSDACSB7063
.LLSDACSB7063:
	.uleb128 .LEHB53-.LFB7063
	.uleb128 .LEHE53-.LEHB53
	.uleb128 .L1682-.LFB7063
	.uleb128 0
	.uleb128 .LEHB54-.LFB7063
	.uleb128 .LEHE54-.LEHB54
	.uleb128 .L1683-.LFB7063
	.uleb128 0
.LLSDACSE7063:
	.text
	.cfi_endproc
	.section	.text.unlikely
	.cfi_startproc
	.cfi_personality 0x9b,DW.ref.__gxx_personality_v0
	.cfi_lsda 0x1b,.LLSDAC7063
	.type	_ZN7asiopal9TCPServer11StartAcceptEv.cold, @function
_ZN7asiopal9TCPServer11StartAcceptEv.cold:
.LFSB7063:
.L1574:
	.cfi_def_cfa_offset 208
	.cfi_offset 3, -56
	.cfi_offset 6, -48
	.cfi_offset 12, -40
	.cfi_offset 13, -32
	.cfi_offset 14, -24
	.cfi_offset 15, -16
.LEHB55:
	call	_ZSt20__throw_bad_weak_ptrv@PLT
.L1638:
	movq	8(%rsp), %rdi
	call	pthread_mutex_unlock@PLT
	leaq	64(%rsp), %rdi
	call	_ZN4asio6detail25reactive_socket_accept_opINS_12basic_socketINS_2ip3tcpENS_21stream_socket_serviceIS4_EEEES4_NS0_15wrapped_handlerINS_10io_service6strandEZN7asiopal9TCPServer11StartAcceptEvEUlSt10error_codeE_NS0_26is_continuation_if_runningEEEE3ptr5resetEv
.L1639:
	movq	120(%rsp), %rdi
	testq	%rdi, %rdi
	je	.L1673
	call	_ZNSt16_Sp_counted_baseILN9__gnu_cxx12_Lock_policyE2EE10_M_releaseEv@PLT
.L1673:
	movq	%r13, %rdi
	call	_ZNSt16_Sp_counted_baseILN9__gnu_cxx12_Lock_policyE2EE10_M_releaseEv@PLT
	movq	%rbp, %rdi
	call	_Unwind_Resume@PLT
.LEHE55:
	.cfi_endproc
.LFE7063:
	.section	.gcc_except_table
.LLSDAC7063:
	.byte	0xff
	.byte	0xff
	.byte	0x1
	.uleb128 .LLSDACSEC7063-.LLSDACSBC7063
.LLSDACSBC7063:
	.uleb128 .LEHB55-.LCOLDB36
	.uleb128 .LEHE55-.LEHB55
	.uleb128 0
	.uleb128 0
.LLSDACSEC7063:
	.section	.text.unlikely
	.text
	.size	_ZN7asiopal9TCPServer11StartAcceptEv, .-_ZN7asiopal9TCPServer11StartAcceptEv
	.section	.text.unlikely
	.size	_ZN7asiopal9TCPServer11StartAcceptEv.cold, .-_ZN7asiopal9TCPServer11StartAcceptEv.cold
.LCOLDE36:
	.text
.LHOTE36:
	.section	.rodata.str1.8
	.align 8
.LC37:
	.string	"/home/master/projects/Procont_EE/utils/dnp3_src/cpp/libs/src/asiopal/TCPServer.cpp(109)"
	.section	.rodata.str1.1
.LC38:
	.string	"Accepted connection from: %s"
	.section	.rodata.str1.8
	.align 8
.LC39:
	.string	"/home/master/projects/Procont_EE/utils/dnp3_src/cpp/libs/src/asiopal/TCPServer.cpp(118)"
	.section	.text.unlikely
	.align 2
.LCOLDB40:
	.text
.LHOTB40:
	.align 2
	.p2align 4
	.type	_ZZN7asiopal9TCPServer11StartAcceptEvENKUlSt10error_codeE_clES1_.isra.0, @function
_ZZN7asiopal9TCPServer11StartAcceptEvENKUlSt10error_codeE_clES1_.isra.0:
.LFB9555:
	.cfi_startproc
	.cfi_personality 0x9b,DW.ref.__gxx_personality_v0
	.cfi_lsda 0x1b,.LLSDA9555
	pushq	%r15
	.cfi_def_cfa_offset 16
	.cfi_offset 15, -16
	pushq	%r14
	.cfi_def_cfa_offset 24
	.cfi_offset 14, -24
	pushq	%r13
	.cfi_def_cfa_offset 32
	.cfi_offset 13, -32
	pushq	%r12
	.cfi_def_cfa_offset 40
	.cfi_offset 12, -40
	movl	%esi, %r12d
	pushq	%rbp
	.cfi_def_cfa_offset 48
	.cfi_offset 6, -48
	pushq	%rbx
	.cfi_def_cfa_offset 56
	.cfi_offset 3, -56
	movq	%rdi, %rbx
	subq	$328, %rsp
	.cfi_def_cfa_offset 384
	movq	%fs:40, %rax
	movq	%rax, 312(%rsp)
	movq	(%rdi), %rax
	leaq	24(%rax), %rdi
	testl	%esi, %esi
	je	.L1809
	leaq	64(%rsp), %r13
	movl	$8, 64(%rsp)
	movq	%rdx, %rbp
	movq	%r13, %rsi
.LEHB56:
	call	_ZNK7openpal6Logger9IsEnabledERKNS_10LogFiltersE@PLT
	testb	%al, %al
	je	.L1810
	movq	(%rbx), %rax
	leaq	128(%rsp), %rdi
	movl	%r12d, %edx
	movq	%rbp, %rsi
	leaq	24(%rax), %r14
	movq	0(%rbp), %rax
	call	*32(%rax)
.LEHE56:
	leaq	.LC37(%rip), %rdx
	movq	%r13, %rsi
	movq	%r14, %rdi
	movq	128(%rsp), %rcx
	movl	$8, 64(%rsp)
.LEHB57:
	call	_ZN7openpal6Logger3LogERKNS_10LogFiltersEPKcS5_@PLT
.LEHE57:
	movq	128(%rsp), %rdi
	leaq	144(%rsp), %rax
	cmpq	%rax, %rdi
	je	.L1810
	movq	144(%rsp), %rax
	leaq	1(%rax), %rsi
	call	_ZdlPvm@PLT
.L1810:
	movq	(%rbx), %rdi
	movq	312(%rsp), %rax
	subq	%fs:40, %rax
	jne	.L2010
	movq	(%rdi), %rax
	movq	24(%rax), %rax
	addq	$328, %rsp
	.cfi_remember_state
	.cfi_def_cfa_offset 56
	popq	%rbx
	.cfi_def_cfa_offset 48
	popq	%rbp
	.cfi_def_cfa_offset 40
	popq	%r12
	.cfi_def_cfa_offset 32
	popq	%r13
	.cfi_def_cfa_offset 24
	popq	%r14
	.cfi_def_cfa_offset 16
	popq	%r15
	.cfi_def_cfa_offset 8
.LEHB58:
	jmp	*%rax
	.p2align 4,,10
	.p2align 3
.L1809:
	.cfi_restore_state
	movq	200(%rax), %r13
	leaq	64(%rsp), %rbp
	movq	%rbp, %rsi
	leaq	1(%r13), %rdx
	movq	%rdx, 200(%rax)
	movl	$8, 64(%rsp)
	call	_ZNK7openpal6Logger9IsEnabledERKNS_10LogFiltersE@PLT
.LEHE58:
	testb	%al, %al
	jne	.L2017
.L1813:
	movq	(%rbx), %rdi
	movq	%rbp, %rcx
	movq	%r13, %rsi
	movq	(%rdi), %rax
	movq	160(%rdi), %rdx
	movq	32(%rax), %rax
	movq	%rdx, 88(%rsp)
	movl	136(%rdi), %edx
	movl	%edx, 64(%rsp)
	movzbl	140(%rdi), %edx
	movl	$-1, 136(%rdi)
	movb	%dl, 68(%rsp)
	movq	144(%rdi), %rdx
	movb	$0, 140(%rdi)
	movq	%rdx, 72(%rsp)
	movl	152(%rdi), %edx
	movq	$0, 144(%rdi)
	movl	%edx, 80(%rsp)
	leaq	56(%rdi), %rdx
	movl	$2, 152(%rdi)
.LEHB59:
	call	*%rax
.LEHE59:
	movl	64(%rsp), %r15d
	cmpl	$-1, %r15d
	je	.L1852
	movq	72(%rsp), %rbp
	testq	%rbp, %rbp
	je	.L1881
	movq	88(%rsp), %rax
	movzbl	68(%rsp), %r13d
	movq	40(%rax), %rax
	movq	%rax, 24(%rsp)
	leaq	40(%rbp), %rax
	movq	%rax, %rdi
	movq	%rax, 32(%rsp)
	call	pthread_mutex_lock@PLT
	movq	72(%rsp), %r11
	cmpb	$0, 144(%r11)
	je	.L2018
	movq	32(%rsp), %rdi
	call	pthread_mutex_unlock@PLT
.L2008:
	movl	64(%rsp), %r15d
	cmpl	$-1, %r15d
	je	.L1852
.L1881:
	call	__errno_location@PLT
	movzbl	68(%rsp), %r12d
	movq	%rax, %rbp
	testb	$8, %r12b
	jne	.L2001
	movq	_ZGVZN4asio15system_categoryEvE8instance@GOTPCREL(%rip), %r14
.L1883:
	movl	$0, 0(%rbp)
	movl	%r15d, %edi
	call	close@PLT
	movl	%eax, %r12d
	movzbl	(%r14), %eax
	testb	%al, %al
	je	.L2019
.L1888:
	testl	%r12d, %r12d
	je	.L1852
	movl	0(%rbp), %r12d
	movzbl	(%r14), %eax
	testb	%al, %al
	je	.L2020
.L1892:
	cmpl	$11, %r12d
	je	.L1894
.L2015:
	movzbl	(%r14), %eax
	testb	%al, %al
	je	.L2021
	.p2align 4,,10
	.p2align 3
.L1852:
	movq	312(%rsp), %rax
	subq	%fs:40, %rax
	jne	.L2010
	movq	(%rbx), %rdi
	addq	$328, %rsp
	.cfi_remember_state
	.cfi_def_cfa_offset 56
	popq	%rbx
	.cfi_def_cfa_offset 48
	popq	%rbp
	.cfi_def_cfa_offset 40
	popq	%r12
	.cfi_def_cfa_offset 32
	popq	%r13
	.cfi_def_cfa_offset 24
	popq	%r14
	.cfi_def_cfa_offset 16
	popq	%r15
	.cfi_def_cfa_offset 8
.LEHB60:
	jmp	_ZN7asiopal9TCPServer11StartAcceptEv@PLT
	.p2align 4,,10
	.p2align 3
.L2017:
	.cfi_restore_state
	call	_ZNSt3_V215system_categoryEv@PLT
	movq	(%rbx), %r14
	movq	%rax, %r15
	call	__errno_location@PLT
	cmpw	$2, 168(%r14)
	movq	%rax, 8(%rsp)
	je	.L2022
	movl	192(%r14), %eax
	leaq	104(%rsp), %rsi
	movl	$10, %edi
	movdqu	176(%r14), %xmm0
	movq	%r15, 72(%rsp)
	leaq	192(%rsp), %r15
	movq	%rax, %rcx
	movl	%eax, 24(%rsp)
	movq	%r15, %rdx
	movq	%rax, 16(%rsp)
	movq	.LC31(%rip), %rax
	movq	%rcx, 120(%rsp)
	movl	$63, %ecx
	movq	%rax, 96(%rsp)
	movq	8(%rsp), %rax
	movl	$0, 64(%rsp)
	movl	$0, (%rax)
	movups	%xmm0, 104(%rsp)
	call	inet_ntop@PLT
	movq	_ZGVZN4asio15system_categoryEvE8instance@GOTPCREL(%rip), %r14
	movq	%rax, %r10
	movzbl	(%r14), %eax
	testb	%al, %al
	je	.L1817
.L2005:
	movq	_ZZN4asio15system_categoryEvE8instance@GOTPCREL(%rip), %rsi
.L1818:
	movq	8(%rsp), %rax
	movq	%rsi, 72(%rsp)
	movl	(%rax), %eax
	movl	%eax, 64(%rsp)
	testq	%r10, %r10
	je	.L2023
	cmpq	$0, 16(%rsp)
	je	.L1830
	movzbl	104(%rsp), %eax
	movb	$0, 176(%rsp)
	movq	$37, 160(%rsp)
	movq	$0, 168(%rsp)
	cmpb	$-2, %al
	je	.L2024
	cmpb	$-1, %al
	jne	.L2006
	movzbl	105(%rsp), %eax
	leaq	161(%rsp), %r14
	andl	$15, %eax
	cmpb	$2, %al
	je	.L1827
.L1829:
	movq	16(%rsp), %r8
	movl	$16, %edx
	movq	%r14, %rdi
	xorl	%eax, %eax
	leaq	.LC32(%rip), %rcx
	movl	$1, %esi
	movq	%r10, 8(%rsp)
	call	__sprintf_chk@PLT
	movq	8(%rsp), %r10
.L1828:
	leaq	160(%rsp), %rsi
	movl	$63, %edx
	movq	%r15, %rdi
	movq	%r10, 8(%rsp)
	call	__strcat_chk@PLT
	movq	8(%rsp), %r10
.L1830:
	leaq	128(%rsp), %rax
	movq	%r10, %rdi
	movq	%r10, 8(%rsp)
	leaq	144(%rsp), %r14
	movq	%rax, 16(%rsp)
	movq	%r14, 128(%rsp)
	call	strlen@PLT
	movq	8(%rsp), %r10
	cmpq	$15, %rax
	movq	%rax, 48(%rsp)
	movq	%rax, %r8
	ja	.L2025
	cmpq	$1, %rax
	jne	.L1832
	movzbl	(%r10), %edx
	movb	%dl, 144(%rsp)
	movq	%r14, %rdx
.L1833:
	movq	%rax, 136(%rsp)
	movb	$0, (%rdx,%rax)
	movl	64(%rsp), %edx
	testl	%edx, %edx
	jne	.L1825
.L1835:
	movq	%r15, %rdi
	movl	$120, %ecx
	movl	$1, %edx
	xorl	%eax, %eax
	movq	128(%rsp), %r9
	leaq	.LC38(%rip), %r8
	movl	$120, %esi
	call	__snprintf_chk@PLT
	movq	128(%rsp), %rdi
	cmpq	%r14, %rdi
	je	.L1851
	movq	144(%rsp), %rax
	leaq	1(%rax), %rsi
	call	_ZdlPvm@PLT
.L1851:
	movq	(%rbx), %rax
	movq	%r15, %rcx
	leaq	.LC39(%rip), %rdx
	movq	%rbp, %rsi
	movl	$8, 64(%rsp)
	leaq	24(%rax), %rdi
	call	_ZN7openpal6Logger3LogERKNS_10LogFiltersEPKcS5_@PLT
.LEHE60:
	jmp	.L1813
	.p2align 4,,10
	.p2align 3
.L2022:
	movl	172(%r14), %eax
	movq	%r15, 72(%rsp)
	pxor	%xmm0, %xmm0
	leaq	192(%rsp), %r15
	leaq	100(%rsp), %rsi
	movl	$16, %ecx
	movq	%r15, %rdx
	movl	$2, %edi
	movl	%eax, 100(%rsp)
	movq	8(%rsp), %rax
	movl	$0, 96(%rsp)
	movl	$0, (%rax)
	movq	$0, 120(%rsp)
	movl	$0, 64(%rsp)
	movups	%xmm0, 104(%rsp)
	call	inet_ntop@PLT
	movq	_ZGVZN4asio15system_categoryEvE8instance@GOTPCREL(%rip), %r14
	movq	%rax, %r8
	movzbl	(%r14), %eax
	testb	%al, %al
	je	.L1815
.L2007:
	movq	_ZZN4asio15system_categoryEvE8instance@GOTPCREL(%rip), %rsi
.L1816:
	movq	8(%rsp), %rax
	movq	%rsi, 72(%rsp)
	movl	(%rax), %eax
	movl	%eax, 64(%rsp)
	testq	%r8, %r8
	je	.L2026
	leaq	128(%rsp), %rax
	movq	%r8, %rdi
	movq	%r8, 8(%rsp)
	leaq	144(%rsp), %r14
	movq	%rax, 16(%rsp)
	movq	%r14, 128(%rsp)
	call	strlen@PLT
	movq	8(%rsp), %r8
	cmpq	$15, %rax
	movq	%rax, 48(%rsp)
	movq	%rax, %r9
	ja	.L2027
	cmpq	$1, %rax
	jne	.L1846
	movzbl	(%r8), %edx
	movb	%dl, 144(%rsp)
	movq	%r14, %rdx
.L1847:
	movq	%rax, 136(%rsp)
	movb	$0, (%rdx,%rax)
	movl	64(%rsp), %eax
	testl	%eax, %eax
	je	.L1835
.L1844:
	movq	%rbp, %rdi
.LEHB61:
	call	_ZN4asio6detail14do_throw_errorERKSt10error_code@PLT
.LEHE61:
	.p2align 4,,10
	.p2align 3
.L2018:
	andl	$64, %r13d
	jne	.L2028
.L1855:
	movq	$0, 16(%rsp)
	xorl	%ebp, %ebp
.L1864:
	movslq	%r12d, %r10
	movq	%r10, %rax
	salq	$4, %rax
	movq	96(%rax,%r11), %r15
	testq	%r15, %r15
	je	.L1912
	movq	_ZGVZN4asio15system_categoryEvE8instance@GOTPCREL(%rip), %r14
	movq	_ZZN4asio15system_categoryEvE8instance@GOTPCREL(%rip), %rsi
	movq	%rax, %r13
	movzbl	(%r14), %eax
	testb	%al, %al
	je	.L2029
	.p2align 4,,10
	.p2align 3
.L1859:
	movq	72(%rsp), %r11
	movl	$125, 24(%r15)
	movq	%rsi, 32(%r15)
	leaq	(%r11,%r13), %rdi
	movq	96(%rdi), %rax
	testq	%rax, %rax
	je	.L1861
	movq	(%rax), %rdx
	movq	%rdx, 96(%rdi)
	testq	%rdx, %rdx
	je	.L2030
	movq	$0, (%rax)
	movq	$0, (%r15)
	testq	%rbp, %rbp
	je	.L2031
.L1908:
	movq	%r15, 0(%rbp)
	testq	%rdx, %rdx
	je	.L1856
.L1863:
	movzbl	(%r14), %eax
	movq	%r15, %rbp
	movq	%rdx, %r15
	testb	%al, %al
	jne	.L1859
.L2029:
	movq	%r14, %rdi
	movq	%rsi, 8(%rsp)
	call	__cxa_guard_acquire@PLT
	movq	8(%rsp), %rsi
	testl	%eax, %eax
	je	.L1859
	movq	_ZN4asio6detail15system_categoryD1Ev@GOTPCREL(%rip), %rdi
	leaq	__dso_handle(%rip), %rdx
	call	__cxa_atexit@PLT
	movq	%r14, %rdi
	call	__cxa_guard_release@PLT
	movq	8(%rsp), %rsi
	jmp	.L1859
	.p2align 4,,10
	.p2align 3
.L1861:
	movq	$0, (%r15)
	testq	%rbp, %rbp
	je	.L1915
	movq	%r15, 0(%rbp)
.L1856:
	addl	$1, %r12d
	cmpl	$3, %r12d
	je	.L2032
	movq	%r15, %rbp
	jmp	.L1864
	.p2align 4,,10
	.p2align 3
.L2030:
	movq	$0, 104(%rdi)
	movq	$0, (%rax)
	movq	$0, (%r15)
	testq	%rbp, %rbp
	jne	.L1908
	.p2align 4,,10
	.p2align 3
.L1915:
	movq	%r15, 16(%rsp)
	jmp	.L1856
	.p2align 4,,10
	.p2align 3
.L2031:
	movq	%r15, 16(%rsp)
	jmp	.L1863
	.p2align 4,,10
	.p2align 3
.L2032:
	movl	$-1, 88(%r11)
	movq	32(%rsp), %rdi
	movb	$1, 144(%r11)
	call	pthread_mutex_unlock@PLT
	movq	24(%rsp), %r14
	movq	72(%rsp), %rbp
	leaq	120(%r14), %r12
	movq	%r12, %rdi
	call	pthread_mutex_lock@PLT
	cmpq	160(%r14), %rbp
	je	.L2033
.L1865:
	movq	32(%rbp), %rax
	testq	%rax, %rax
	je	.L1866
	movq	24(%rbp), %rdx
	movq	%rdx, 24(%rax)
.L1866:
	movq	24(%rbp), %rax
	testq	%rax, %rax
	je	.L1867
	movq	32(%rbp), %rdx
	movq	%rdx, 32(%rax)
.L1867:
	movq	24(%rsp), %r14
	movq	%r12, %rdi
	movq	168(%r14), %rax
	movq	$0, 32(%rbp)
	movq	%rax, 24(%rbp)
	movq	%rbp, 168(%r14)
	call	pthread_mutex_unlock@PLT
	cmpq	$0, 16(%rsp)
	movq	$0, 72(%rsp)
	je	.L2008
	movq	40(%r14), %rbp
	cmpb	$0, 40(%rbp)
	je	.L1869
	data16	leaq	_ZN4asio6detail15keyword_tss_ptrINS0_10call_stackINS0_15task_io_serviceENS0_27task_io_service_thread_infoEE7contextEE6value_E@tlsgd(%rip), %rdi
	.value	0x6666
	rex64
	call	__tls_get_addr@PLT
	movq	(%rax), %rax
	testq	%rax, %rax
	jne	.L1872
	jmp	.L1869
	.p2align 4,,10
	.p2align 3
.L1870:
	movq	16(%rax), %rax
	testq	%rax, %rax
	je	.L1869
.L1872:
	cmpq	(%rax), %rbp
	jne	.L1870
	movq	8(%rax), %rax
	testq	%rax, %rax
	je	.L1869
	movq	16(%rax), %rdx
	movq	16(%rsp), %rcx
	testq	%rdx, %rdx
	je	.L1873
	movq	%rcx, (%rdx)
.L1874:
	movq	%r15, 16(%rax)
	jmp	.L2008
	.p2align 4,,10
	.p2align 3
.L2019:
	movq	%r14, %rdi
	call	__cxa_guard_acquire@PLT
	testl	%eax, %eax
	je	.L1888
	movq	_ZZN4asio15system_categoryEvE8instance@GOTPCREL(%rip), %rsi
	movq	_ZN4asio6detail15system_categoryD1Ev@GOTPCREL(%rip), %rdi
	leaq	__dso_handle(%rip), %rdx
	call	__cxa_atexit@PLT
	movq	%r14, %rdi
	call	__cxa_guard_release@PLT
	jmp	.L1888
	.p2align 4,,10
	.p2align 3
.L2001:
	movl	$0, (%rax)
	orl	$8, %r12d
	leaq	48(%rsp), %rcx
	movl	$8, %r8d
	movl	$13, %edx
	movl	$1, %esi
	movl	%r15d, %edi
	movq	$0, 48(%rsp)
	movb	%r12b, 68(%rsp)
	call	setsockopt@PLT
	movq	_ZGVZN4asio15system_categoryEvE8instance@GOTPCREL(%rip), %r14
	movzbl	(%r14), %eax
	testb	%al, %al
	jne	.L1883
	movq	%r14, %rdi
	call	__cxa_guard_acquire@PLT
	testl	%eax, %eax
	je	.L1883
	movq	_ZZN4asio15system_categoryEvE8instance@GOTPCREL(%rip), %rsi
	movq	_ZN4asio6detail15system_categoryD1Ev@GOTPCREL(%rip), %rdi
	leaq	__dso_handle(%rip), %rdx
	call	__cxa_atexit@PLT
	movq	%r14, %rdi
	call	__cxa_guard_release@PLT
	jmp	.L1883
	.p2align 4,,10
	.p2align 3
.L1869:
	leaq	48(%rbp), %r12
	movq	%r12, %rdi
	call	pthread_mutex_lock@PLT
	movq	200(%rbp), %rax
	testq	%rax, %rax
	je	.L1876
	movq	16(%rsp), %rcx
	movq	%rcx, (%rax)
.L1877:
	movq	136(%rbp), %rax
	movq	%r15, 200(%rbp)
	orq	$1, %rax
	movq	%rax, 136(%rbp)
	cmpq	$1, %rax
	je	.L1878
	movq	%r12, %rdi
	call	pthread_mutex_unlock@PLT
	leaq	88(%rbp), %rdi
	call	pthread_cond_signal@PLT
	jmp	.L2008
.L2027:
	movq	16(%rsp), %rdi
	leaq	48(%rsp), %rsi
	xorl	%edx, %edx
	movq	%r9, 24(%rsp)
	movq	%r8, 8(%rsp)
.LEHB62:
	call	_ZNSt7__cxx1112basic_stringIcSt11char_traitsIcESaIcEE9_M_createERmm@PLT
.LEHE62:
	movq	8(%rsp), %r8
	movq	24(%rsp), %r9
	movq	%rax, 128(%rsp)
	movq	%rax, %rdi
	movq	48(%rsp), %rax
	movq	%rax, 144(%rsp)
.L1845:
	movq	%r9, %rdx
	movq	%r8, %rsi
	call	memcpy@PLT
	movq	48(%rsp), %rax
	movq	128(%rsp), %rdx
	jmp	.L1847
.L2021:
	movq	%r14, %rdi
	call	__cxa_guard_acquire@PLT
	testl	%eax, %eax
	je	.L1852
	movq	_ZZN4asio15system_categoryEvE8instance@GOTPCREL(%rip), %rsi
	movq	_ZN4asio6detail15system_categoryD1Ev@GOTPCREL(%rip), %rdi
	leaq	__dso_handle(%rip), %rdx
	call	__cxa_atexit@PLT
	movq	%r14, %rdi
	call	__cxa_guard_release@PLT
	jmp	.L1852
.L1894:
	movl	%r15d, %edi
	leaq	48(%rsp), %rdx
	movl	$21537, %esi
	xorl	%eax, %eax
	movl	$0, 48(%rsp)
	call	ioctl@PLT
	movl	$0, 0(%rbp)
	movl	%r15d, %edi
	andb	$-4, 68(%rsp)
	call	close@PLT
	jmp	.L2015
.L2020:
	movq	%r14, %rdi
	call	__cxa_guard_acquire@PLT
	testl	%eax, %eax
	je	.L1892
	movq	_ZZN4asio15system_categoryEvE8instance@GOTPCREL(%rip), %rsi
	movq	_ZN4asio6detail15system_categoryD1Ev@GOTPCREL(%rip), %rdi
	leaq	__dso_handle(%rip), %rdx
	call	__cxa_atexit@PLT
	movq	%r14, %rdi
	call	__cxa_guard_release@PLT
	jmp	.L1892
.L2023:
	testl	%eax, %eax
	je	.L2034
	leaq	144(%rsp), %r14
	movb	$0, 144(%rsp)
	movq	%r14, 128(%rsp)
	movq	$0, 136(%rsp)
.L1825:
	movq	%rbp, %rdi
.LEHB63:
	call	_ZN4asio6detail14do_throw_errorERKSt10error_code@PLT
.LEHE63:
.L2010:
	call	__stack_chk_fail@PLT
	.p2align 4,,10
	.p2align 3
.L1815:
	movq	%r14, %rdi
	movq	%r8, 16(%rsp)
	call	__cxa_guard_acquire@PLT
	movq	16(%rsp), %r8
	testl	%eax, %eax
	je	.L2007
	movq	_ZZN4asio15system_categoryEvE8instance@GOTPCREL(%rip), %rsi
	movq	_ZN4asio6detail15system_categoryD1Ev@GOTPCREL(%rip), %rdi
	movq	%r8, 24(%rsp)
	leaq	__dso_handle(%rip), %rdx
	movq	%rsi, 16(%rsp)
	call	__cxa_atexit@PLT
	movq	%r14, %rdi
	call	__cxa_guard_release@PLT
	movq	24(%rsp), %r8
	movq	16(%rsp), %rsi
	jmp	.L1816
	.p2align 4,,10
	.p2align 3
.L2026:
	testl	%eax, %eax
	je	.L2035
	leaq	144(%rsp), %r14
	movb	$0, 144(%rsp)
	movq	%r14, 128(%rsp)
	movq	$0, 136(%rsp)
	jmp	.L1844
.L1878:
	cmpb	$0, 176(%rbp)
	jne	.L1880
	movq	144(%rbp), %rax
	testq	%rax, %rax
	je	.L1880
	movb	$1, 176(%rbp)
	leaq	88(%rax), %rdx
	leaq	48(%rsp), %rcx
	movl	$3, %esi
	movq	%rdx, 52(%rsp)
	movl	88(%rax), %edx
	movl	$-2147483639, 48(%rsp)
	movl	96(%rax), %edi
	call	epoll_ctl@PLT
.L1880:
	movq	%r12, %rdi
	call	pthread_mutex_unlock@PLT
	jmp	.L2008
	.p2align 4,,10
	.p2align 3
.L1912:
	movq	%rbp, %r15
	jmp	.L1856
	.p2align 4,,10
	.p2align 3
.L2028:
	movq	24(%rsp), %rax
	movl	$0, 48(%rsp)
	leaq	48(%rsp), %rcx
	movl	%r15d, %edx
	movq	$0, 52(%rsp)
	movl	$2, %esi
	movl	96(%rax), %edi
	call	epoll_ctl@PLT
	movq	72(%rsp), %r11
	jmp	.L1855
	.p2align 4,,10
	.p2align 3
.L2033:
	movq	24(%rbp), %rax
	movq	24(%rsp), %rcx
	movq	%rax, 160(%rcx)
	jmp	.L1865
.L1846:
	testq	%r9, %r9
	jne	.L2036
	movq	%r14, %rdx
	jmp	.L1847
	.p2align 4,,10
	.p2align 3
.L1817:
	movq	%r14, %rdi
	movq	%r10, 32(%rsp)
	call	__cxa_guard_acquire@PLT
	movq	32(%rsp), %r10
	testl	%eax, %eax
	je	.L2005
	movq	_ZZN4asio15system_categoryEvE8instance@GOTPCREL(%rip), %rsi
	movq	_ZN4asio6detail15system_categoryD1Ev@GOTPCREL(%rip), %rdi
	movq	%r10, 40(%rsp)
	leaq	__dso_handle(%rip), %rdx
	movq	%rsi, 32(%rsp)
	call	__cxa_atexit@PLT
	movq	%r14, %rdi
	call	__cxa_guard_release@PLT
	movq	40(%rsp), %r10
	movq	32(%rsp), %rsi
	jmp	.L1818
.L2035:
	movzbl	(%r14), %eax
	testb	%al, %al
	je	.L2037
.L1842:
	leaq	144(%rsp), %r14
	movl	$22, 64(%rsp)
	movq	%rsi, 72(%rsp)
	movq	%r14, 128(%rsp)
	movq	$0, 136(%rsp)
	movb	$0, 144(%rsp)
	jmp	.L1844
.L1832:
	testq	%r8, %r8
	jne	.L2038
	movq	%r14, %rdx
	jmp	.L1833
.L2025:
	movq	16(%rsp), %rdi
	leaq	48(%rsp), %rsi
	xorl	%edx, %edx
	movq	%r8, 24(%rsp)
	movq	%r10, 8(%rsp)
.LEHB64:
	call	_ZNSt7__cxx1112basic_stringIcSt11char_traitsIcESaIcEE9_M_createERmm@PLT
.LEHE64:
	movq	8(%rsp), %r10
	movq	24(%rsp), %r8
	movq	%rax, 128(%rsp)
	movq	%rax, %rdi
	movq	48(%rsp), %rax
	movq	%rax, 144(%rsp)
.L1831:
	movq	%r8, %rdx
	movq	%r10, %rsi
	call	memcpy@PLT
	movq	48(%rsp), %rax
	movq	128(%rsp), %rdx
	jmp	.L1833
.L1876:
	movq	16(%rsp), %rax
	movq	%rax, 192(%rbp)
	jmp	.L1877
.L2024:
	movzbl	105(%rsp), %eax
	andl	$-64, %eax
	cmpb	$-128, %al
	je	.L1827
.L2006:
	leaq	161(%rsp), %r14
	jmp	.L1829
.L1827:
	movl	24(%rsp), %edi
	leaq	161(%rsp), %r14
	movq	%r10, 8(%rsp)
	movq	%r14, %rsi
	call	if_indextoname@PLT
	movq	8(%rsp), %r10
	testq	%rax, %rax
	jne	.L1828
	jmp	.L1829
.L1873:
	movq	%rcx, 8(%rax)
	jmp	.L1874
.L2034:
	movzbl	(%r14), %eax
	testb	%al, %al
	je	.L2039
.L1823:
	leaq	144(%rsp), %r14
	movl	$22, 64(%rsp)
	movq	%rsi, 72(%rsp)
	movq	%r14, 128(%rsp)
	movq	$0, 136(%rsp)
	movb	$0, 144(%rsp)
	jmp	.L1825
.L2037:
	movq	%r14, %rdi
	movq	%rsi, 8(%rsp)
	call	__cxa_guard_acquire@PLT
	movq	8(%rsp), %rsi
	testl	%eax, %eax
	je	.L1842
	movq	_ZN4asio6detail15system_categoryD1Ev@GOTPCREL(%rip), %rdi
	leaq	__dso_handle(%rip), %rdx
	call	__cxa_atexit@PLT
	movq	%r14, %rdi
	call	__cxa_guard_release@PLT
	movq	8(%rsp), %rsi
	jmp	.L1842
.L2039:
	movq	%r14, %rdi
	movq	%rsi, 8(%rsp)
	call	__cxa_guard_acquire@PLT
	movq	8(%rsp), %rsi
	testl	%eax, %eax
	je	.L1823
	movq	_ZN4asio6detail15system_categoryD1Ev@GOTPCREL(%rip), %rdi
	leaq	__dso_handle(%rip), %rdx
	call	__cxa_atexit@PLT
	movq	%r14, %rdi
	call	__cxa_guard_release@PLT
	movq	8(%rsp), %rsi
	jmp	.L1823
.L2038:
	movq	%r14, %rdi
	jmp	.L1831
.L2036:
	movq	%r14, %rdi
	jmp	.L1845
.L1919:
	movq	%rax, %rbp
	jmp	.L1849
.L1917:
	movq	%rax, %rbp
	jmp	.L1899
.L1916:
	movq	%rax, %r12
	jmp	.L1901
.L1918:
	movq	%rax, %rbp
	jmp	.L1849
	.section	.gcc_except_table
.LLSDA9555:
	.byte	0xff
	.byte	0xff
	.byte	0x1
	.uleb128 .LLSDACSE9555-.LLSDACSB9555
.LLSDACSB9555:
	.uleb128 .LEHB56-.LFB9555
	.uleb128 .LEHE56-.LEHB56
	.uleb128 0
	.uleb128 0
	.uleb128 .LEHB57-.LFB9555
	.uleb128 .LEHE57-.LEHB57
	.uleb128 .L1917-.LFB9555
	.uleb128 0
	.uleb128 .LEHB58-.LFB9555
	.uleb128 .LEHE58-.LEHB58
	.uleb128 0
	.uleb128 0
	.uleb128 .LEHB59-.LFB9555
	.uleb128 .LEHE59-.LEHB59
	.uleb128 .L1916-.LFB9555
	.uleb128 0
	.uleb128 .LEHB60-.LFB9555
	.uleb128 .LEHE60-.LEHB60
	.uleb128 0
	.uleb128 0
	.uleb128 .LEHB61-.LFB9555
	.uleb128 .LEHE61-.LEHB61
	.uleb128 .L1919-.LFB9555
	.uleb128 0
	.uleb128 .LEHB62-.LFB9555
	.uleb128 .LEHE62-.LEHB62
	.uleb128 0
	.uleb128 0
	.uleb128 .LEHB63-.LFB9555
	.uleb128 .LEHE63-.LEHB63
	.uleb128 .L1918-.LFB9555
	.uleb128 0
	.uleb128 .LEHB64-.LFB9555
	.uleb128 .LEHE64-.LEHB64
	.uleb128 0
	.uleb128 0
.LLSDACSE9555:
	.text
	.cfi_endproc
	.section	.text.unlikely
	.cfi_startproc
	.cfi_personality 0x9b,DW.ref.__gxx_personality_v0
	.cfi_lsda 0x1b,.LLSDAC9555
	.type	_ZZN7asiopal9TCPServer11StartAcceptEvENKUlSt10error_codeE_clES1_.isra.0.cold, @function
_ZZN7asiopal9TCPServer11StartAcceptEvENKUlSt10error_codeE_clES1_.isra.0.cold:
.LFSB9555:
.L1849:
	.cfi_def_cfa_offset 384
	.cfi_offset 3, -56
	.cfi_offset 6, -48
	.cfi_offset 12, -40
	.cfi_offset 13, -32
	.cfi_offset 14, -24
	.cfi_offset 15, -16
	movq	128(%rsp), %rdi
	cmpq	%r14, %rdi
	je	.L1900
.L2013:
	movq	144(%rsp), %rax
	leaq	1(%rax), %rsi
	call	_ZdlPvm@PLT
.L1900:
	movq	%rbp, %rdi
.LEHB65:
	call	_Unwind_Resume@PLT
.LEHE65:
.L1899:
	movq	128(%rsp), %rdi
	leaq	144(%rsp), %rax
	cmpq	%rax, %rdi
	jne	.L2013
	jmp	.L1900
.L1901:
	movq	88(%rsp), %rax
	movq	%rbp, %rsi
	leaq	40(%rax), %rdi
	call	_ZN4asio6detail28reactive_socket_service_base7destroyERNS1_24base_implementation_typeE@PLT
	movq	%r12, %rdi
.LEHB66:
	call	_Unwind_Resume@PLT
.LEHE66:
	.cfi_endproc
.LFE9555:
	.section	.gcc_except_table
.LLSDAC9555:
	.byte	0xff
	.byte	0xff
	.byte	0x1
	.uleb128 .LLSDACSEC9555-.LLSDACSBC9555
.LLSDACSBC9555:
	.uleb128 .LEHB65-.LCOLDB40
	.uleb128 .LEHE65-.LEHB65
	.uleb128 0
	.uleb128 0
	.uleb128 .LEHB66-.LCOLDB40
	.uleb128 .LEHE66-.LEHB66
	.uleb128 0
	.uleb128 0
.LLSDACSEC9555:
	.section	.text.unlikely
	.text
	.size	_ZZN7asiopal9TCPServer11StartAcceptEvENKUlSt10error_codeE_clES1_.isra.0, .-_ZZN7asiopal9TCPServer11StartAcceptEvENKUlSt10error_codeE_clES1_.isra.0
	.section	.text.unlikely
	.size	_ZZN7asiopal9TCPServer11StartAcceptEvENKUlSt10error_codeE_clES1_.isra.0.cold, .-_ZZN7asiopal9TCPServer11StartAcceptEvENKUlSt10error_codeE_clES1_.isra.0.cold
.LCOLDE40:
	.text
.LHOTE40:
	.section	.text.unlikely
.LCOLDB41:
	.text
.LHOTB41:
	.p2align 4
	.type	_ZN4asio6detail18completion_handlerINS0_7binder1IZN7asiopal9TCPServer11StartAcceptEvEUlSt10error_codeE_S5_EEE11do_completeEPNS0_15task_io_serviceEPNS0_25task_io_service_operationERKS5_m, @function
_ZN4asio6detail18completion_handlerINS0_7binder1IZN7asiopal9TCPServer11StartAcceptEvEUlSt10error_codeE_S5_EEE11do_completeEPNS0_15task_io_serviceEPNS0_25task_io_service_operationERKS5_m:
.LFB9329:
	.cfi_startproc
	.cfi_personality 0x9b,DW.ref.__gxx_personality_v0
	.cfi_lsda 0x1b,.LLSDA9329
	pushq	%r12
	.cfi_def_cfa_offset 16
	.cfi_offset 12, -16
	pushq	%rbp
	.cfi_def_cfa_offset 24
	.cfi_offset 6, -24
	movq	%rsi, %rbp
	pushq	%rbx
	.cfi_def_cfa_offset 32
	.cfi_offset 3, -32
	movq	%rdi, %rbx
	subq	$80, %rsp
	.cfi_def_cfa_offset 112
	movdqu	24(%rsi), %xmm0
	movdqu	40(%rsi), %xmm1
	movq	%fs:40, %rax
	movq	%rax, 72(%rsp)
	xorl	%eax, %eax
	leaq	32(%rsp), %r12
	movq	%rsi, 8(%rsp)
	movq	%r12, (%rsp)
	movq	$0, 16(%rsp)
	movaps	%xmm0, 32(%rsp)
	movaps	%xmm1, 48(%rsp)
	data16	leaq	_ZN4asio6detail15keyword_tss_ptrINS0_10call_stackINS0_15task_io_serviceENS0_27task_io_service_thread_infoEE7contextEE6value_E@tlsgd(%rip), %rdi
	.value	0x6666
	rex64
	call	__tls_get_addr@PLT
	movq	(%rax), %rax
	testq	%rax, %rax
	je	.L2041
	movq	8(%rax), %rax
	testq	%rax, %rax
	je	.L2041
	cmpq	$0, (%rax)
	je	.L2090
.L2041:
	movq	%rbp, %rdi
	call	_ZdlPv@PLT
.L2042:
	movq	$0, 8(%rsp)
	testq	%rbx, %rbx
	je	.L2043
	movq	56(%rsp), %rdx
	movl	48(%rsp), %esi
	movq	%r12, %rdi
.LEHB67:
	call	_ZZN7asiopal9TCPServer11StartAcceptEvENKUlSt10error_codeE_clES1_.isra.0
.LEHE67:
	sfence
.L2043:
	movq	40(%rsp), %rbp
	testq	%rbp, %rbp
	je	.L2045
	movq	_ZL28__gthrw___pthread_key_createPjPFvPvE@GOTPCREL(%rip), %rbx
	testq	%rbx, %rbx
	jne	.L2091
	movl	8(%rbp), %eax
	leal	-1(%rax), %edx
	movl	%edx, 8(%rbp)
.L2047:
	cmpl	$1, %eax
	je	.L2092
.L2045:
	movq	16(%rsp), %rax
	testq	%rax, %rax
	je	.L2051
	movq	32(%rax), %rbp
	testq	%rbp, %rbp
	je	.L2053
	movq	_ZL28__gthrw___pthread_key_createPjPFvPvE@GOTPCREL(%rip), %rbx
	testq	%rbx, %rbx
	jne	.L2093
	movl	8(%rbp), %eax
	leal	-1(%rax), %edx
	movl	%edx, 8(%rbp)
.L2055:
	cmpl	$1, %eax
	je	.L2094
.L2053:
	movq	$0, 16(%rsp)
.L2051:
	movq	8(%rsp), %rbp
	testq	%rbp, %rbp
	je	.L2040
	data16	leaq	_ZN4asio6detail15keyword_tss_ptrINS0_10call_stackINS0_15task_io_serviceENS0_27task_io_service_thread_infoEE7contextEE6value_E@tlsgd(%rip), %rdi
	.value	0x6666
	rex64
	call	__tls_get_addr@PLT
	movq	(%rax), %rax
	testq	%rax, %rax
	je	.L2060
	movq	8(%rax), %rax
	testq	%rax, %rax
	je	.L2060
	cmpq	$0, (%rax)
	je	.L2095
.L2060:
	movq	%rbp, %rdi
	call	_ZdlPv@PLT
.L2040:
	movq	72(%rsp), %rax
	subq	%fs:40, %rax
	jne	.L2096
	addq	$80, %rsp
	.cfi_remember_state
	.cfi_def_cfa_offset 32
	popq	%rbx
	.cfi_def_cfa_offset 24
	popq	%rbp
	.cfi_def_cfa_offset 16
	popq	%r12
	.cfi_def_cfa_offset 8
	ret
	.p2align 4,,10
	.p2align 3
.L2092:
	.cfi_restore_state
	movq	0(%rbp), %rax
	movq	%rbp, %rdi
	call	*16(%rax)
	testq	%rbx, %rbx
	jne	.L2097
	movl	12(%rbp), %eax
	leal	-1(%rax), %edx
	movl	%edx, 12(%rbp)
.L2050:
	cmpl	$1, %eax
	jne	.L2045
	movq	0(%rbp), %rax
	movq	%rbp, %rdi
	call	*24(%rax)
	jmp	.L2045
	.p2align 4,,10
	.p2align 3
.L2091:
	movl	$-1, %eax
	lock xaddl	%eax, 8(%rbp)
	jmp	.L2047
	.p2align 4,,10
	.p2align 3
.L2094:
	movq	0(%rbp), %rax
	movq	%rbp, %rdi
	call	*16(%rax)
	testq	%rbx, %rbx
	jne	.L2098
	movl	12(%rbp), %eax
	leal	-1(%rax), %edx
	movl	%edx, 12(%rbp)
.L2058:
	cmpl	$1, %eax
	jne	.L2053
	movq	0(%rbp), %rax
	movq	%rbp, %rdi
	call	*24(%rax)
	jmp	.L2053
	.p2align 4,,10
	.p2align 3
.L2095:
	movzbl	56(%rbp), %edx
	movb	%dl, 0(%rbp)
	movq	%rbp, (%rax)
	jmp	.L2040
	.p2align 4,,10
	.p2align 3
.L2090:
	movzbl	56(%rbp), %edx
	movb	%dl, 0(%rbp)
	movq	%rbp, (%rax)
	jmp	.L2042
	.p2align 4,,10
	.p2align 3
.L2093:
	movl	$-1, %eax
	lock xaddl	%eax, 8(%rbp)
	jmp	.L2055
	.p2align 4,,10
	.p2align 3
.L2097:
	movl	$-1, %eax
	lock xaddl	%eax, 12(%rbp)
	jmp	.L2050
	.p2align 4,,10
	.p2align 3
.L2098:
	movl	$-1, %eax
	lock xaddl	%eax, 12(%rbp)
	jmp	.L2058
.L2096:
	call	__stack_chk_fail@PLT
.L2064:
	movq	%rax, %rbp
	jmp	.L2061
	.section	.gcc_except_table
.LLSDA9329:
	.byte	0xff
	.byte	0xff
	.byte	0x1
	.uleb128 .LLSDACSE9329-.LLSDACSB9329
.LLSDACSB9329:
	.uleb128 .LEHB67-.LFB9329
	.uleb128 .LEHE67-.LEHB67
	.uleb128 .L2064-.LFB9329
	.uleb128 0
.LLSDACSE9329:
	.text
	.cfi_endproc
	.section	.text.unlikely
	.cfi_startproc
	.cfi_personality 0x9b,DW.ref.__gxx_personality_v0
	.cfi_lsda 0x1b,.LLSDAC9329
	.type	_ZN4asio6detail18completion_handlerINS0_7binder1IZN7asiopal9TCPServer11StartAcceptEvEUlSt10error_codeE_S5_EEE11do_completeEPNS0_15task_io_serviceEPNS0_25task_io_service_operationERKS5_m.cold, @function
_ZN4asio6detail18completion_handlerINS0_7binder1IZN7asiopal9TCPServer11StartAcceptEvEUlSt10error_codeE_S5_EEE11do_completeEPNS0_15task_io_serviceEPNS0_25task_io_service_operationERKS5_m.cold:
.LFSB9329:
.L2061:
	.cfi_def_cfa_offset 112
	.cfi_offset 3, -32
	.cfi_offset 6, -24
	.cfi_offset 12, -16
	sfence
	movq	40(%rsp), %rdi
	testq	%rdi, %rdi
	je	.L2062
	call	_ZNSt16_Sp_counted_baseILN9__gnu_cxx12_Lock_policyE2EE10_M_releaseEv@PLT
.L2062:
	movq	%rsp, %rdi
	call	_ZN4asio6detail18completion_handlerINS0_7binder1IZN7asiopal9TCPServer11StartAcceptEvEUlSt10error_codeE_S5_EEE3ptr5resetEv
	movq	%rbp, %rdi
.LEHB68:
	call	_Unwind_Resume@PLT
.LEHE68:
	.cfi_endproc
.LFE9329:
	.section	.gcc_except_table
.LLSDAC9329:
	.byte	0xff
	.byte	0xff
	.byte	0x1
	.uleb128 .LLSDACSEC9329-.LLSDACSBC9329
.LLSDACSBC9329:
	.uleb128 .LEHB68-.LCOLDB41
	.uleb128 .LEHE68-.LEHB68
	.uleb128 0
	.uleb128 0
.LLSDACSEC9329:
	.section	.text.unlikely
	.text
	.size	_ZN4asio6detail18completion_handlerINS0_7binder1IZN7asiopal9TCPServer11StartAcceptEvEUlSt10error_codeE_S5_EEE11do_completeEPNS0_15task_io_serviceEPNS0_25task_io_service_operationERKS5_m, .-_ZN4asio6detail18completion_handlerINS0_7binder1IZN7asiopal9TCPServer11StartAcceptEvEUlSt10error_codeE_S5_EEE11do_completeEPNS0_15task_io_serviceEPNS0_25task_io_service_operationERKS5_m
	.section	.text.unlikely
	.size	_ZN4asio6detail18completion_handlerINS0_7binder1IZN7asiopal9TCPServer11StartAcceptEvEUlSt10error_codeE_S5_EEE11do_completeEPNS0_15task_io_serviceEPNS0_25task_io_service_operationERKS5_m.cold, .-_ZN4asio6detail18completion_handlerINS0_7binder1IZN7asiopal9TCPServer11StartAcceptEvEUlSt10error_codeE_S5_EEE11do_completeEPNS0_15task_io_serviceEPNS0_25task_io_service_operationERKS5_m.cold
.LCOLDE41:
	.text
.LHOTE41:
	.section	.text.unlikely
	.align 2
.LCOLDB42:
	.text
.LHOTB42:
	.align 2
	.p2align 4
	.type	_ZN4asio6detail15wrapped_handlerINS_10io_service6strandEZN7asiopal9TCPServer11StartAcceptEvEUlSt10error_codeE_NS0_26is_continuation_if_runningEEclIS6_EEvRKT_, @function
_ZN4asio6detail15wrapped_handlerINS_10io_service6strandEZN7asiopal9TCPServer11StartAcceptEvEUlSt10error_codeE_NS0_26is_continuation_if_runningEEclIS6_EEvRKT_:
.LFB9296:
	.cfi_startproc
	.cfi_personality 0x9b,DW.ref.__gxx_personality_v0
	.cfi_lsda 0x1b,.LLSDA9296
	pushq	%r13
	.cfi_def_cfa_offset 16
	.cfi_offset 13, -16
	pushq	%r12
	.cfi_def_cfa_offset 24
	.cfi_offset 12, -24
	movq	%rdi, %r12
	pushq	%rbp
	.cfi_def_cfa_offset 32
	.cfi_offset 6, -32
	pushq	%rbx
	.cfi_def_cfa_offset 40
	.cfi_offset 3, -40
	subq	$216, %rsp
	.cfi_def_cfa_offset 256
	movq	16(%rdi), %rdx
	movq	%fs:40, %rax
	movq	%rax, 200(%rsp)
	xorl	%eax, %eax
	movq	24(%rdi), %rax
	testq	%rax, %rax
	je	.L2100
	cmpq	$0, _ZL28__gthrw___pthread_key_createPjPFvPvE@GOTPCREL(%rip)
	jne	.L2277
	addl	$1, 8(%rax)
.L2100:
	movl	(%rsi), %edi
	movq	8(%rsi), %rcx
	movq	%rdx, %xmm1
	movq	%rax, %xmm3
	punpcklqdq	%xmm3, %xmm1
	movq	8(%r12), %rbx
	movl	%edi, 176(%rsp)
	movq	%rcx, 184(%rsp)
	movaps	%xmm1, (%rsp)
	movaps	%xmm1, 160(%rsp)
	data16	leaq	_ZN4asio6detail15keyword_tss_ptrINS0_10call_stackINS0_14strand_service11strand_implEhE7contextEE6value_E@tlsgd(%rip), %rdi
	.value	0x6666
	rex64
	call	__tls_get_addr@PLT
	movq	(%rax), %rax
	testq	%rax, %rax
	jne	.L2105
	jmp	.L2102
	.p2align 4,,10
	.p2align 3
.L2103:
	movq	16(%rax), %rax
	testq	%rax, %rax
	je	.L2102
.L2105:
	cmpq	(%rax), %rbx
	jne	.L2103
	cmpq	$0, 8(%rax)
	je	.L2102
	lfence
	movq	184(%rsp), %rdx
	leaq	160(%rsp), %rdi
	movl	176(%rsp), %esi
.LEHB69:
	call	_ZZN7asiopal9TCPServer11StartAcceptEvENKUlSt10error_codeE_clES1_.isra.0
.LEHE69:
	sfence
.L2106:
	movq	168(%rsp), %rbp
	testq	%rbp, %rbp
	je	.L2099
	movq	_ZL28__gthrw___pthread_key_createPjPFvPvE@GOTPCREL(%rip), %rbx
	testq	%rbx, %rbx
	jne	.L2278
	movl	8(%rbp), %eax
	leal	-1(%rax), %edx
	movl	%edx, 8(%rbp)
.L2186:
	cmpl	$1, %eax
	je	.L2279
.L2099:
	movq	200(%rsp), %rax
	subq	%fs:40, %rax
	jne	.L2280
	addq	$216, %rsp
	.cfi_remember_state
	.cfi_def_cfa_offset 40
	popq	%rbx
	.cfi_def_cfa_offset 32
	popq	%rbp
	.cfi_def_cfa_offset 24
	popq	%r12
	.cfi_def_cfa_offset 16
	popq	%r13
	.cfi_def_cfa_offset 8
	ret
	.p2align 4,,10
	.p2align 3
.L2102:
	.cfi_restore_state
	pxor	%xmm0, %xmm0
	leaq	160(%rsp), %rax
	movq	(%r12), %r13
	movq	%rax, 32(%rsp)
	movups	%xmm0, 40(%rsp)
	data16	leaq	_ZN4asio6detail15keyword_tss_ptrINS0_10call_stackINS0_15task_io_serviceENS0_27task_io_service_thread_infoEE7contextEE6value_E@tlsgd(%rip), %rdi
	.value	0x6666
	rex64
	call	__tls_get_addr@PLT
	movq	(%rax), %rax
	testq	%rax, %rax
	je	.L2107
	movq	8(%rax), %rax
	testq	%rax, %rax
	je	.L2107
	movq	(%rax), %rbp
	testq	%rbp, %rbp
	je	.L2107
	movq	$0, (%rax)
	movzbl	0(%rbp), %eax
	cmpb	$55, %al
	jbe	.L2108
	movb	%al, 56(%rbp)
	jmp	.L2109
	.p2align 4,,10
	.p2align 3
.L2108:
	movq	%rbp, %rdi
	call	_ZdlPv@PLT
.L2107:
	movl	$57, %edi
.LEHB70:
	call	_Znwm@PLT
.LEHE70:
	movq	160(%rsp), %rdx
	movb	$56, 56(%rax)
	movq	%rax, %rbp
	movq	%rdx, %xmm2
	movhps	168(%rsp), %xmm2
	movaps	%xmm2, (%rsp)
.L2109:
	movdqa	(%rsp), %xmm4
	movq	%rbp, 40(%rsp)
	pxor	%xmm0, %xmm0
	leaq	_ZN4asio6detail18completion_handlerINS0_7binder1IZN7asiopal9TCPServer11StartAcceptEvEUlSt10error_codeE_S5_EEE11do_completeEPNS0_15task_io_serviceEPNS0_25task_io_service_operationERKS5_m(%rip), %rax
	movq	$0, 0(%rbp)
	movq	%rax, 8(%rbp)
	movups	%xmm4, 24(%rbp)
	movq	40(%r13), %rbx
	movdqa	176(%rsp), %xmm5
	movl	$0, 16(%rbp)
	movups	%xmm5, 40(%rbp)
	movq	%rbp, 48(%rsp)
	movaps	%xmm0, 160(%rsp)
	data16	leaq	_ZN4asio6detail15keyword_tss_ptrINS0_10call_stackINS0_15task_io_serviceENS0_27task_io_service_thread_infoEE7contextEE6value_E@tlsgd(%rip), %rdi
	.value	0x6666
	rex64
	call	__tls_get_addr@PLT
	movq	(%rax), %rax
	testq	%rax, %rax
	jne	.L2114
	jmp	.L2110
	.p2align 4,,10
	.p2align 3
.L2111:
	movq	16(%rax), %rax
	testq	%rax, %rax
	je	.L2110
.L2114:
	cmpq	(%rax), %rbx
	jne	.L2111
	movq	8(%rax), %rbx
	movq	8(%r12), %rax
	leaq	24(%rax), %rdi
	call	pthread_mutex_lock@PLT
	testq	%rbx, %rbx
	je	.L2113
	movq	8(%r12), %rax
	cmpb	$0, 64(%rax)
	leaq	24(%rax), %rdi
	je	.L2281
.L2115:
	cmpq	$0, 80(%rax)
	movq	$0, 0(%rbp)
	je	.L2119
	movq	80(%rax), %rdx
	movq	%rbp, (%rdx)
	movq	%rbp, 80(%rax)
.L2276:
	call	pthread_mutex_unlock@PLT
	jmp	.L2106
.L2281:
	movb	$1, 64(%rax)
	call	pthread_mutex_unlock@PLT
	movq	8(%r12), %r12
	pxor	%xmm0, %xmm0
	movq	48(%rsp), %rbp
	movups	%xmm0, 40(%rsp)
	movq	%r12, 64(%rsp)
	data16	leaq	_ZN4asio6detail15keyword_tss_ptrINS0_10call_stackINS0_14strand_service11strand_implEhE7contextEE6value_E@tlsgd(%rip), %rdi
	.value	0x6666
	rex64
	call	__tls_get_addr@PLT
	movq	40(%r13), %rbx
	movdqu	24(%rbp), %xmm7
	movq	%r12, %xmm6
	leaq	128(%rsp), %r12
	movq	%rbp, 104(%rsp)
	movq	%rbx, %xmm0
	movq	%r12, 96(%rsp)
	punpcklqdq	%xmm6, %xmm0
	movaps	%xmm7, 128(%rsp)
	movdqu	40(%rbp), %xmm6
	movq	$0, 112(%rsp)
	movaps	%xmm0, 16(%rsp)
	movq	(%rax), %rdx
	movaps	%xmm6, 144(%rsp)
	movq	%rdx, 80(%rsp)
	leaq	64(%rsp), %rdx
	movq	%rdx, (%rax)
	movq	%rdx, 72(%rsp)
	data16	leaq	_ZN4asio6detail15keyword_tss_ptrINS0_10call_stackINS0_15task_io_serviceENS0_27task_io_service_thread_infoEE7contextEE6value_E@tlsgd(%rip), %rdi
	.value	0x6666
	rex64
	call	__tls_get_addr@PLT
	movq	(%rax), %rax
	testq	%rax, %rax
	je	.L2117
	movq	8(%rax), %rax
	testq	%rax, %rax
	je	.L2117
	cmpq	$0, (%rax)
	je	.L2282
.L2117:
	movq	%rbp, %rdi
	call	_ZdlPv@PLT
.L2134:
	movq	$0, 104(%rsp)
	testq	%rbx, %rbx
	je	.L2135
	movq	152(%rsp), %rdx
	movl	144(%rsp), %esi
	movq	%r12, %rdi
.LEHB71:
	call	_ZZN7asiopal9TCPServer11StartAcceptEvENKUlSt10error_codeE_clES1_.isra.0
.LEHE71:
	sfence
.L2135:
	movq	136(%rsp), %rbp
	testq	%rbp, %rbp
	je	.L2137
	movq	_ZL28__gthrw___pthread_key_createPjPFvPvE@GOTPCREL(%rip), %rbx
	testq	%rbx, %rbx
	jne	.L2283
	movl	8(%rbp), %eax
	leal	-1(%rax), %edx
	movl	%edx, 8(%rbp)
.L2139:
	cmpl	$1, %eax
	je	.L2284
.L2137:
	movq	112(%rsp), %rax
	testq	%rax, %rax
	je	.L2143
	movq	32(%rax), %rbp
	testq	%rbp, %rbp
	je	.L2145
	movq	_ZL28__gthrw___pthread_key_createPjPFvPvE@GOTPCREL(%rip), %rbx
	testq	%rbx, %rbx
	jne	.L2285
	movl	8(%rbp), %eax
	leal	-1(%rax), %edx
	movl	%edx, 8(%rbp)
.L2147:
	cmpl	$1, %eax
	je	.L2286
.L2145:
	movq	$0, 112(%rsp)
.L2143:
	movq	104(%rsp), %rbp
	testq	%rbp, %rbp
	je	.L2151
	data16	leaq	_ZN4asio6detail15keyword_tss_ptrINS0_10call_stackINS0_15task_io_serviceENS0_27task_io_service_thread_infoEE7contextEE6value_E@tlsgd(%rip), %rdi
	.value	0x6666
	rex64
	call	__tls_get_addr@PLT
	movq	(%rax), %rax
	testq	%rax, %rax
	je	.L2152
	movq	8(%rax), %rax
	testq	%rax, %rax
	je	.L2152
	cmpq	$0, (%rax)
	je	.L2287
.L2152:
	movq	%rbp, %rdi
	call	_ZdlPv@PLT
.L2151:
	movq	24(%rsp), %rax
	leaq	24(%rax), %rdi
	call	pthread_mutex_lock@PLT
	movq	24(%rsp), %rdi
	movq	72(%rdi), %rbx
	testq	%rbx, %rbx
	je	.L2288
	movq	96(%rdi), %rax
	testq	%rax, %rax
	je	.L2158
	movq	%rbx, (%rax)
	movq	88(%rdi), %rbx
.L2159:
	movq	80(%rdi), %rax
	pxor	%xmm0, %xmm0
	movups	%xmm0, 72(%rdi)
	movq	%rax, 96(%rdi)
.L2154:
	testq	%rbx, %rbx
	setne	64(%rdi)
	addq	$24, %rdi
	call	pthread_mutex_unlock@PLT
	testq	%rbx, %rbx
	jne	.L2289
.L2160:
	data16	leaq	_ZN4asio6detail15keyword_tss_ptrINS0_10call_stackINS0_14strand_service11strand_implEhE7contextEE6value_E@tlsgd(%rip), %rdi
	.value	0x6666
	rex64
	call	__tls_get_addr@PLT
	movq	80(%rsp), %rdx
	movq	%rdx, (%rax)
	movq	48(%rsp), %rax
	testq	%rax, %rax
	je	.L2275
	movq	32(%rax), %rbp
	testq	%rbp, %rbp
	je	.L2174
	movq	_ZL28__gthrw___pthread_key_createPjPFvPvE@GOTPCREL(%rip), %rbx
	testq	%rbx, %rbx
	jne	.L2290
	movl	8(%rbp), %eax
	leal	-1(%rax), %edx
	movl	%edx, 8(%rbp)
.L2176:
	cmpl	$1, %eax
	je	.L2291
.L2174:
	movq	$0, 48(%rsp)
.L2275:
	movq	40(%rsp), %rbp
	testq	%rbp, %rbp
	je	.L2106
	data16	leaq	_ZN4asio6detail15keyword_tss_ptrINS0_10call_stackINS0_15task_io_serviceENS0_27task_io_service_thread_infoEE7contextEE6value_E@tlsgd(%rip), %rdi
	.value	0x6666
	rex64
	call	__tls_get_addr@PLT
	movq	(%rax), %rax
	testq	%rax, %rax
	je	.L2181
	movq	8(%rax), %rax
	testq	%rax, %rax
	je	.L2181
	cmpq	$0, (%rax)
	je	.L2292
.L2181:
	movq	%rbp, %rdi
	call	_ZdlPv@PLT
	jmp	.L2106
	.p2align 4,,10
	.p2align 3
.L2110:
	movq	8(%r12), %rax
	leaq	24(%rax), %rdi
	call	pthread_mutex_lock@PLT
.L2113:
	movq	8(%r12), %rax
	cmpb	$0, 64(%rax)
	leaq	24(%rax), %rdi
	jne	.L2115
	movb	$1, 64(%rax)
	call	pthread_mutex_unlock@PLT
	movq	8(%r12), %r12
	movq	$0, 0(%rbp)
	cmpq	$0, 96(%r12)
	je	.L2122
	movq	96(%r12), %rax
	movq	%rbp, (%rax)
	movq	%rbp, 96(%r12)
.L2123:
	movq	40(%r13), %rbx
	cmpb	$0, 40(%rbx)
	je	.L2124
	data16	leaq	_ZN4asio6detail15keyword_tss_ptrINS0_10call_stackINS0_15task_io_serviceENS0_27task_io_service_thread_infoEE7contextEE6value_E@tlsgd(%rip), %rdi
	.value	0x6666
	rex64
	call	__tls_get_addr@PLT
	movq	(%rax), %rax
	testq	%rax, %rax
	jne	.L2127
	jmp	.L2124
	.p2align 4,,10
	.p2align 3
.L2125:
	movq	16(%rax), %rax
	testq	%rax, %rax
	je	.L2124
.L2127:
	cmpq	(%rax), %rbx
	jne	.L2125
	movq	8(%rax), %rax
	testq	%rax, %rax
	je	.L2124
	addq	$1, 24(%rax)
	cmpq	$0, 16(%rax)
	movq	$0, (%r12)
	je	.L2128
	movq	16(%rax), %rdx
	movq	%r12, (%rdx)
	movq	%r12, 16(%rax)
	jmp	.L2106
	.p2align 4,,10
	.p2align 3
.L2279:
	movq	0(%rbp), %rax
	movq	%rbp, %rdi
	call	*16(%rax)
	testq	%rbx, %rbx
	jne	.L2293
	movl	12(%rbp), %eax
	leal	-1(%rax), %edx
	movl	%edx, 12(%rbp)
.L2189:
	cmpl	$1, %eax
	jne	.L2099
	movq	0(%rbp), %rax
	movq	%rbp, %rdi
	call	*24(%rax)
	jmp	.L2099
	.p2align 4,,10
	.p2align 3
.L2278:
	movl	$-1, %eax
	lock xaddl	%eax, 8(%rbp)
	jmp	.L2186
	.p2align 4,,10
	.p2align 3
.L2277:
	lock addl	$1, 8(%rax)
	jmp	.L2100
	.p2align 4,,10
	.p2align 3
.L2124:
	lock addq	$1, 184(%rbx)
	leaq	48(%rbx), %rbp
	movq	%rbp, %rdi
	call	pthread_mutex_lock@PLT
	cmpq	$0, 200(%rbx)
	movq	$0, (%r12)
	je	.L2129
	movq	200(%rbx), %rax
	movq	%r12, (%rax)
	movq	%r12, 200(%rbx)
.L2130:
	movq	136(%rbx), %rax
	orq	$1, %rax
	movq	%rax, 136(%rbx)
	cmpq	$1, %rax
	je	.L2131
	movq	%rbp, %rdi
	call	pthread_mutex_unlock@PLT
	leaq	88(%rbx), %rdi
	call	pthread_cond_signal@PLT
	jmp	.L2106
	.p2align 4,,10
	.p2align 3
.L2119:
	movq	%rbp, %xmm0
	punpcklqdq	%xmm0, %xmm0
	movups	%xmm0, 72(%rax)
	jmp	.L2276
	.p2align 4,,10
	.p2align 3
.L2289:
	movq	16(%rsp), %rbx
	movq	24(%rsp), %rbp
	cmpb	$0, 40(%rbx)
	je	.L2161
	data16	leaq	_ZN4asio6detail15keyword_tss_ptrINS0_10call_stackINS0_15task_io_serviceENS0_27task_io_service_thread_infoEE7contextEE6value_E@tlsgd(%rip), %rdi
	.value	0x6666
	rex64
	call	__tls_get_addr@PLT
	movq	(%rax), %rax
	testq	%rax, %rax
	jne	.L2164
.L2161:
	lock addq	$1, 184(%rbx)
	leaq	48(%rbx), %r13
	movq	%r13, %rdi
	call	pthread_mutex_lock@PLT
	cmpq	$0, 200(%rbx)
	movq	$0, 0(%rbp)
	je	.L2166
	movq	200(%rbx), %rax
	movq	%rbp, (%rax)
	movq	%rbp, 200(%rbx)
.L2167:
	movq	136(%rbx), %rax
	orq	$1, %rax
	movq	%rax, 136(%rbx)
	cmpq	$1, %rax
	je	.L2168
	movq	%r13, %rdi
	call	pthread_mutex_unlock@PLT
	leaq	88(%rbx), %rdi
	call	pthread_cond_signal@PLT
	jmp	.L2160
	.p2align 4,,10
	.p2align 3
.L2162:
	movq	16(%rax), %rax
	testq	%rax, %rax
	je	.L2161
.L2164:
	cmpq	(%rax), %rbx
	jne	.L2162
	movq	8(%rax), %rax
	testq	%rax, %rax
	je	.L2161
	addq	$1, 24(%rax)
	cmpq	$0, 16(%rax)
	movq	$0, 0(%rbp)
	je	.L2165
	movq	16(%rax), %rdx
	movq	%rbp, (%rdx)
	movq	%rbp, 16(%rax)
	jmp	.L2160
.L2168:
	cmpb	$0, 176(%rbx)
	jne	.L2170
	movq	144(%rbx), %rax
	testq	%rax, %rax
	je	.L2170
	movb	$1, 176(%rbx)
	leaq	88(%rax), %rdx
	movq	%r12, %rcx
	movl	$3, %esi
	movq	%rdx, 132(%rsp)
	movl	88(%rax), %edx
	movl	$-2147483639, 128(%rsp)
	movl	96(%rax), %edi
	call	epoll_ctl@PLT
.L2170:
	movq	%r13, %rdi
	call	pthread_mutex_unlock@PLT
	jmp	.L2160
.L2131:
	cmpb	$0, 176(%rbx)
	jne	.L2133
	movq	144(%rbx), %rax
	testq	%rax, %rax
	je	.L2133
	movb	$1, 176(%rbx)
	leaq	88(%rax), %rdx
	movl	$3, %esi
	leaq	128(%rsp), %rcx
	movq	%rdx, 132(%rsp)
	movl	88(%rax), %edx
	movl	$-2147483639, 128(%rsp)
	movl	96(%rax), %edi
	call	epoll_ctl@PLT
.L2133:
	movq	%rbp, %rdi
	jmp	.L2276
	.p2align 4,,10
	.p2align 3
.L2288:
	movq	88(%rdi), %rbx
	jmp	.L2154
.L2291:
	movq	0(%rbp), %rax
	movq	%rbp, %rdi
	call	*16(%rax)
	testq	%rbx, %rbx
	jne	.L2294
	movl	12(%rbp), %eax
	leal	-1(%rax), %edx
	movl	%edx, 12(%rbp)
.L2179:
	cmpl	$1, %eax
	jne	.L2174
	movq	0(%rbp), %rax
	movq	%rbp, %rdi
	call	*24(%rax)
	jmp	.L2174
.L2290:
	movl	$-1, %eax
	lock xaddl	%eax, 8(%rbp)
	jmp	.L2176
.L2158:
	movq	%rbx, 88(%rdi)
	jmp	.L2159
.L2293:
	movl	$-1, %eax
	lock xaddl	%eax, 12(%rbp)
	jmp	.L2189
.L2284:
	movq	0(%rbp), %rax
	movq	%rbp, %rdi
	call	*16(%rax)
	testq	%rbx, %rbx
	jne	.L2295
	movl	12(%rbp), %eax
	leal	-1(%rax), %edx
	movl	%edx, 12(%rbp)
.L2142:
	cmpl	$1, %eax
	jne	.L2137
	movq	0(%rbp), %rax
	movq	%rbp, %rdi
	call	*24(%rax)
	jmp	.L2137
.L2292:
	movzbl	56(%rbp), %edx
	movb	%dl, 0(%rbp)
	movq	%rbp, (%rax)
	jmp	.L2106
.L2283:
	movl	$-1, %eax
	lock xaddl	%eax, 8(%rbp)
	jmp	.L2139
.L2122:
	movq	%rbp, %xmm0
	punpcklqdq	%xmm0, %xmm0
	movups	%xmm0, 88(%r12)
	jmp	.L2123
.L2295:
	movl	$-1, %eax
	lock xaddl	%eax, 12(%rbp)
	jmp	.L2142
.L2286:
	movq	0(%rbp), %rax
	movq	%rbp, %rdi
	call	*16(%rax)
	testq	%rbx, %rbx
	jne	.L2296
	movl	12(%rbp), %eax
	leal	-1(%rax), %edx
	movl	%edx, 12(%rbp)
.L2150:
	cmpl	$1, %eax
	jne	.L2145
	movq	0(%rbp), %rax
	movq	%rbp, %rdi
	call	*24(%rax)
	jmp	.L2145
.L2129:
	movq	%r12, %xmm0
	punpcklqdq	%xmm0, %xmm0
	movups	%xmm0, 192(%rbx)
	jmp	.L2130
.L2285:
	movl	$-1, %eax
	lock xaddl	%eax, 8(%rbp)
	jmp	.L2147
.L2287:
	movzbl	56(%rbp), %edx
	movb	%dl, 0(%rbp)
	movq	%rbp, (%rax)
	jmp	.L2151
.L2282:
	movzbl	56(%rbp), %edx
	movb	%dl, 0(%rbp)
	movq	%rbp, (%rax)
	jmp	.L2134
.L2294:
	movl	$-1, %eax
	lock xaddl	%eax, 12(%rbp)
	jmp	.L2179
.L2166:
	movq	%rbp, %xmm0
	punpcklqdq	%xmm0, %xmm0
	movups	%xmm0, 192(%rbx)
	jmp	.L2167
.L2128:
	movq	%r12, %xmm0
	punpcklqdq	%xmm0, %xmm0
	movups	%xmm0, 8(%rax)
	jmp	.L2106
.L2296:
	movl	$-1, %eax
	lock xaddl	%eax, 12(%rbp)
	jmp	.L2150
.L2165:
	movq	%rbp, %xmm0
	punpcklqdq	%xmm0, %xmm0
	movups	%xmm0, 8(%rax)
	jmp	.L2160
.L2280:
	call	__stack_chk_fail@PLT
.L2192:
	movq	%rax, %rbp
	jmp	.L2157
.L2193:
	movq	%rax, %rbp
	jmp	.L2184
.L2194:
	movq	%rax, %rbp
	jmp	.L2155
	.section	.gcc_except_table
.LLSDA9296:
	.byte	0xff
	.byte	0xff
	.byte	0x1
	.uleb128 .LLSDACSE9296-.LLSDACSB9296
.LLSDACSB9296:
	.uleb128 .LEHB69-.LFB9296
	.uleb128 .LEHE69-.LEHB69
	.uleb128 .L2193-.LFB9296
	.uleb128 0
	.uleb128 .LEHB70-.LFB9296
	.uleb128 .LEHE70-.LEHB70
	.uleb128 .L2192-.LFB9296
	.uleb128 0
	.uleb128 .LEHB71-.LFB9296
	.uleb128 .LEHE71-.LEHB71
	.uleb128 .L2194-.LFB9296
	.uleb128 0
.LLSDACSE9296:
	.text
	.cfi_endproc
	.section	.text.unlikely
	.cfi_startproc
	.cfi_personality 0x9b,DW.ref.__gxx_personality_v0
	.cfi_lsda 0x1b,.LLSDAC9296
	.type	_ZN4asio6detail15wrapped_handlerINS_10io_service6strandEZN7asiopal9TCPServer11StartAcceptEvEUlSt10error_codeE_NS0_26is_continuation_if_runningEEclIS6_EEvRKT_.cold, @function
_ZN4asio6detail15wrapped_handlerINS_10io_service6strandEZN7asiopal9TCPServer11StartAcceptEvEUlSt10error_codeE_NS0_26is_continuation_if_runningEEclIS6_EEvRKT_.cold:
.LFSB9296:
.L2155:
	.cfi_def_cfa_offset 256
	.cfi_offset 3, -40
	.cfi_offset 6, -32
	.cfi_offset 12, -24
	.cfi_offset 13, -16
	sfence
	movq	136(%rsp), %rdi
	testq	%rdi, %rdi
	je	.L2156
	call	_ZNSt16_Sp_counted_baseILN9__gnu_cxx12_Lock_policyE2EE10_M_releaseEv@PLT
.L2156:
	leaq	96(%rsp), %rdi
	call	_ZN4asio6detail18completion_handlerINS0_7binder1IZN7asiopal9TCPServer11StartAcceptEvEUlSt10error_codeE_S5_EEE3ptr5resetEv
	leaq	16(%rsp), %rdi
	call	_ZN4asio6detail14strand_service16on_dispatch_exitD1Ev@PLT
	data16	leaq	_ZN4asio6detail15keyword_tss_ptrINS0_10call_stackINS0_14strand_service11strand_implEhE7contextEE6value_E@tlsgd(%rip), %rdi
	.value	0x6666
	rex64
	call	__tls_get_addr@PLT
	movq	80(%rsp), %rdx
	leaq	32(%rsp), %rdi
	movq	%rdx, (%rax)
	call	_ZN4asio6detail18completion_handlerINS0_7binder1IZN7asiopal9TCPServer11StartAcceptEvEUlSt10error_codeE_S5_EEE3ptr5resetEv
.L2157:
	movq	168(%rsp), %rdi
	testq	%rdi, %rdi
	je	.L2190
	call	_ZNSt16_Sp_counted_baseILN9__gnu_cxx12_Lock_policyE2EE10_M_releaseEv@PLT
.L2190:
	movq	%rbp, %rdi
.LEHB72:
	call	_Unwind_Resume@PLT
.LEHE72:
.L2184:
	sfence
	jmp	.L2157
	.cfi_endproc
.LFE9296:
	.section	.gcc_except_table
.LLSDAC9296:
	.byte	0xff
	.byte	0xff
	.byte	0x1
	.uleb128 .LLSDACSEC9296-.LLSDACSBC9296
.LLSDACSBC9296:
	.uleb128 .LEHB72-.LCOLDB42
	.uleb128 .LEHE72-.LEHB72
	.uleb128 0
	.uleb128 0
.LLSDACSEC9296:
	.section	.text.unlikely
	.text
	.size	_ZN4asio6detail15wrapped_handlerINS_10io_service6strandEZN7asiopal9TCPServer11StartAcceptEvEUlSt10error_codeE_NS0_26is_continuation_if_runningEEclIS6_EEvRKT_, .-_ZN4asio6detail15wrapped_handlerINS_10io_service6strandEZN7asiopal9TCPServer11StartAcceptEvEUlSt10error_codeE_NS0_26is_continuation_if_runningEEclIS6_EEvRKT_
	.section	.text.unlikely
	.size	_ZN4asio6detail15wrapped_handlerINS_10io_service6strandEZN7asiopal9TCPServer11StartAcceptEvEUlSt10error_codeE_NS0_26is_continuation_if_runningEEclIS6_EEvRKT_.cold, .-_ZN4asio6detail15wrapped_handlerINS_10io_service6strandEZN7asiopal9TCPServer11StartAcceptEvEUlSt10error_codeE_NS0_26is_continuation_if_runningEEclIS6_EEvRKT_.cold
.LCOLDE42:
	.text
.LHOTE42:
	.section	.text.unlikely
.LCOLDB43:
	.text
.LHOTB43:
	.p2align 4
	.type	_ZN4asio6detail18completion_handlerINS0_17rewrapped_handlerINS0_7binder1INS0_15wrapped_handlerINS_10io_service6strandEZN7asiopal9TCPServer11StartAcceptEvEUlSt10error_codeE_NS0_26is_continuation_if_runningEEES9_EESA_EEE11do_completeEPNS0_15task_io_serviceEPNS0_25task_io_service_operationERKS9_m, @function
_ZN4asio6detail18completion_handlerINS0_17rewrapped_handlerINS0_7binder1INS0_15wrapped_handlerINS_10io_service6strandEZN7asiopal9TCPServer11StartAcceptEvEUlSt10error_codeE_NS0_26is_continuation_if_runningEEES9_EESA_EEE11do_completeEPNS0_15task_io_serviceEPNS0_25task_io_service_operationERKS9_m:
.LFB9282:
	.cfi_startproc
	.cfi_personality 0x9b,DW.ref.__gxx_personality_v0
	.cfi_lsda 0x1b,.LLSDA9282
	pushq	%r12
	.cfi_def_cfa_offset 16
	.cfi_offset 12, -16
	pushq	%rbp
	.cfi_def_cfa_offset 24
	.cfi_offset 6, -24
	movq	%rsi, %rbp
	pushq	%rbx
	.cfi_def_cfa_offset 32
	.cfi_offset 3, -32
	movq	%rdi, %rbx
	subq	$112, %rsp
	.cfi_def_cfa_offset 144
	movdqu	24(%rsi), %xmm0
	movdqu	40(%rsi), %xmm1
	movdqu	56(%rsi), %xmm2
	movdqu	72(%rsi), %xmm3
	leaq	32(%rsp), %r12
	movq	%fs:40, %rax
	movq	%rax, 104(%rsp)
	xorl	%eax, %eax
	movq	%rsi, 8(%rsp)
	movq	%r12, (%rsp)
	movq	$0, 16(%rsp)
	movaps	%xmm0, 32(%rsp)
	movaps	%xmm1, 48(%rsp)
	movaps	%xmm2, 64(%rsp)
	movaps	%xmm3, 80(%rsp)
	data16	leaq	_ZN4asio6detail15keyword_tss_ptrINS0_10call_stackINS0_15task_io_serviceENS0_27task_io_service_thread_infoEE7contextEE6value_E@tlsgd(%rip), %rdi
	.value	0x6666
	rex64
	call	__tls_get_addr@PLT
	movq	(%rax), %rax
	testq	%rax, %rax
	je	.L2298
	movq	8(%rax), %rax
	testq	%rax, %rax
	je	.L2298
	cmpq	$0, (%rax)
	je	.L2357
.L2298:
	movq	%rbp, %rdi
	call	_ZdlPv@PLT
.L2299:
	movq	$0, 8(%rsp)
	testq	%rbx, %rbx
	je	.L2300
	leaq	80(%rsp), %rsi
	leaq	48(%rsp), %rdi
.LEHB73:
	call	_ZN4asio6detail15wrapped_handlerINS_10io_service6strandEZN7asiopal9TCPServer11StartAcceptEvEUlSt10error_codeE_NS0_26is_continuation_if_runningEEclIS6_EEvRKT_
.LEHE73:
	sfence
.L2300:
	movq	72(%rsp), %rbp
	testq	%rbp, %rbp
	je	.L2302
	movq	_ZL28__gthrw___pthread_key_createPjPFvPvE@GOTPCREL(%rip), %rbx
	testq	%rbx, %rbx
	jne	.L2358
	movl	8(%rbp), %eax
	leal	-1(%rax), %edx
	movl	%edx, 8(%rbp)
.L2304:
	cmpl	$1, %eax
	je	.L2359
.L2302:
	movq	40(%rsp), %rbp
	testq	%rbp, %rbp
	je	.L2309
	movq	_ZL28__gthrw___pthread_key_createPjPFvPvE@GOTPCREL(%rip), %rbx
	testq	%rbx, %rbx
	jne	.L2360
	movl	8(%rbp), %eax
	leal	-1(%rax), %edx
	movl	%edx, 8(%rbp)
.L2311:
	cmpl	$1, %eax
	je	.L2361
.L2309:
	movq	16(%rsp), %rbp
	testq	%rbp, %rbp
	je	.L2315
	movq	64(%rbp), %r12
	testq	%r12, %r12
	je	.L2317
	movq	_ZL28__gthrw___pthread_key_createPjPFvPvE@GOTPCREL(%rip), %rbx
	testq	%rbx, %rbx
	jne	.L2362
	movl	8(%r12), %eax
	leal	-1(%rax), %edx
	movl	%edx, 8(%r12)
.L2319:
	cmpl	$1, %eax
	jne	.L2317
	movq	(%r12), %rax
	movq	%r12, %rdi
	call	*16(%rax)
	testq	%rbx, %rbx
	jne	.L2363
	movl	12(%r12), %eax
	leal	-1(%rax), %edx
	movl	%edx, 12(%r12)
.L2322:
	cmpl	$1, %eax
	je	.L2364
	.p2align 4,,10
	.p2align 3
.L2317:
	movq	32(%rbp), %rbp
	testq	%rbp, %rbp
	je	.L2324
	movq	_ZL28__gthrw___pthread_key_createPjPFvPvE@GOTPCREL(%rip), %rbx
	testq	%rbx, %rbx
	jne	.L2365
	movl	8(%rbp), %eax
	leal	-1(%rax), %edx
	movl	%edx, 8(%rbp)
.L2326:
	cmpl	$1, %eax
	jne	.L2324
	movq	0(%rbp), %rax
	movq	%rbp, %rdi
	call	*16(%rax)
	testq	%rbx, %rbx
	jne	.L2366
	movl	12(%rbp), %eax
	leal	-1(%rax), %edx
	movl	%edx, 12(%rbp)
.L2329:
	cmpl	$1, %eax
	je	.L2367
	.p2align 4,,10
	.p2align 3
.L2324:
	movq	$0, 16(%rsp)
.L2315:
	movq	8(%rsp), %rbp
	testq	%rbp, %rbp
	je	.L2297
	data16	leaq	_ZN4asio6detail15keyword_tss_ptrINS0_10call_stackINS0_15task_io_serviceENS0_27task_io_service_thread_infoEE7contextEE6value_E@tlsgd(%rip), %rdi
	.value	0x6666
	rex64
	call	__tls_get_addr@PLT
	movq	(%rax), %rax
	testq	%rax, %rax
	je	.L2331
	movq	8(%rax), %rax
	testq	%rax, %rax
	je	.L2331
	cmpq	$0, (%rax)
	je	.L2368
.L2331:
	movq	%rbp, %rdi
	call	_ZdlPv@PLT
.L2297:
	movq	104(%rsp), %rax
	subq	%fs:40, %rax
	jne	.L2369
	addq	$112, %rsp
	.cfi_remember_state
	.cfi_def_cfa_offset 32
	popq	%rbx
	.cfi_def_cfa_offset 24
	popq	%rbp
	.cfi_def_cfa_offset 16
	popq	%r12
	.cfi_def_cfa_offset 8
	ret
	.p2align 4,,10
	.p2align 3
.L2359:
	.cfi_restore_state
	movq	0(%rbp), %rax
	movq	%rbp, %rdi
	call	*16(%rax)
	testq	%rbx, %rbx
	jne	.L2370
	movl	12(%rbp), %eax
	leal	-1(%rax), %edx
	movl	%edx, 12(%rbp)
.L2307:
	cmpl	$1, %eax
	jne	.L2302
	movq	0(%rbp), %rax
	movq	%rbp, %rdi
	call	*24(%rax)
	jmp	.L2302
	.p2align 4,,10
	.p2align 3
.L2361:
	movq	0(%rbp), %rax
	movq	%rbp, %rdi
	call	*16(%rax)
	testq	%rbx, %rbx
	jne	.L2371
	movl	12(%rbp), %eax
	leal	-1(%rax), %edx
	movl	%edx, 12(%rbp)
.L2314:
	cmpl	$1, %eax
	jne	.L2309
	movq	0(%rbp), %rax
	movq	%rbp, %rdi
	call	*24(%rax)
	jmp	.L2309
	.p2align 4,,10
	.p2align 3
.L2358:
	movl	$-1, %eax
	lock xaddl	%eax, 8(%rbp)
	jmp	.L2304
	.p2align 4,,10
	.p2align 3
.L2360:
	movl	$-1, %eax
	lock xaddl	%eax, 8(%rbp)
	jmp	.L2311
	.p2align 4,,10
	.p2align 3
.L2362:
	movl	$-1, %eax
	lock xaddl	%eax, 8(%r12)
	jmp	.L2319
	.p2align 4,,10
	.p2align 3
.L2365:
	movl	$-1, %eax
	lock xaddl	%eax, 8(%rbp)
	jmp	.L2326
	.p2align 4,,10
	.p2align 3
.L2357:
	movzbl	88(%rbp), %edx
	movb	%dl, 0(%rbp)
	movq	%rbp, (%rax)
	jmp	.L2299
	.p2align 4,,10
	.p2align 3
.L2368:
	movzbl	88(%rbp), %edx
	movb	%dl, 0(%rbp)
	movq	%rbp, (%rax)
	jmp	.L2297
	.p2align 4,,10
	.p2align 3
.L2370:
	movl	$-1, %eax
	lock xaddl	%eax, 12(%rbp)
	jmp	.L2307
	.p2align 4,,10
	.p2align 3
.L2371:
	movl	$-1, %eax
	lock xaddl	%eax, 12(%rbp)
	jmp	.L2314
	.p2align 4,,10
	.p2align 3
.L2367:
	movq	0(%rbp), %rax
	movq	%rbp, %rdi
	call	*24(%rax)
	jmp	.L2324
	.p2align 4,,10
	.p2align 3
.L2364:
	movq	(%r12), %rax
	movq	%r12, %rdi
	call	*24(%rax)
	jmp	.L2317
	.p2align 4,,10
	.p2align 3
.L2366:
	movl	$-1, %eax
	lock xaddl	%eax, 12(%rbp)
	jmp	.L2329
	.p2align 4,,10
	.p2align 3
.L2363:
	movl	$-1, %eax
	lock xaddl	%eax, 12(%r12)
	jmp	.L2322
.L2369:
	call	__stack_chk_fail@PLT
.L2334:
	movq	%rax, %rbp
	jmp	.L2332
	.section	.gcc_except_table
.LLSDA9282:
	.byte	0xff
	.byte	0xff
	.byte	0x1
	.uleb128 .LLSDACSE9282-.LLSDACSB9282
.LLSDACSB9282:
	.uleb128 .LEHB73-.LFB9282
	.uleb128 .LEHE73-.LEHB73
	.uleb128 .L2334-.LFB9282
	.uleb128 0
.LLSDACSE9282:
	.text
	.cfi_endproc
	.section	.text.unlikely
	.cfi_startproc
	.cfi_personality 0x9b,DW.ref.__gxx_personality_v0
	.cfi_lsda 0x1b,.LLSDAC9282
	.type	_ZN4asio6detail18completion_handlerINS0_17rewrapped_handlerINS0_7binder1INS0_15wrapped_handlerINS_10io_service6strandEZN7asiopal9TCPServer11StartAcceptEvEUlSt10error_codeE_NS0_26is_continuation_if_runningEEES9_EESA_EEE11do_completeEPNS0_15task_io_serviceEPNS0_25task_io_service_operationERKS9_m.cold, @function
_ZN4asio6detail18completion_handlerINS0_17rewrapped_handlerINS0_7binder1INS0_15wrapped_handlerINS_10io_service6strandEZN7asiopal9TCPServer11StartAcceptEvEUlSt10error_codeE_NS0_26is_continuation_if_runningEEES9_EESA_EEE11do_completeEPNS0_15task_io_serviceEPNS0_25task_io_service_operationERKS9_m.cold:
.LFSB9282:
.L2332:
	.cfi_def_cfa_offset 144
	.cfi_offset 3, -32
	.cfi_offset 6, -24
	.cfi_offset 12, -16
	sfence
	movq	%r12, %rdi
	call	_ZN4asio6detail17rewrapped_handlerINS0_7binder1INS0_15wrapped_handlerINS_10io_service6strandEZN7asiopal9TCPServer11StartAcceptEvEUlSt10error_codeE_NS0_26is_continuation_if_runningEEES8_EES9_ED1Ev
	movq	%rsp, %rdi
	call	_ZN4asio6detail18completion_handlerINS0_17rewrapped_handlerINS0_7binder1INS0_15wrapped_handlerINS_10io_service6strandEZN7asiopal9TCPServer11StartAcceptEvEUlSt10error_codeE_NS0_26is_continuation_if_runningEEES9_EESA_EEE3ptr5resetEv
	movq	%rbp, %rdi
.LEHB74:
	call	_Unwind_Resume@PLT
.LEHE74:
	.cfi_endproc
.LFE9282:
	.section	.gcc_except_table
.LLSDAC9282:
	.byte	0xff
	.byte	0xff
	.byte	0x1
	.uleb128 .LLSDACSEC9282-.LLSDACSBC9282
.LLSDACSBC9282:
	.uleb128 .LEHB74-.LCOLDB43
	.uleb128 .LEHE74-.LEHB74
	.uleb128 0
	.uleb128 0
.LLSDACSEC9282:
	.section	.text.unlikely
	.text
	.size	_ZN4asio6detail18completion_handlerINS0_17rewrapped_handlerINS0_7binder1INS0_15wrapped_handlerINS_10io_service6strandEZN7asiopal9TCPServer11StartAcceptEvEUlSt10error_codeE_NS0_26is_continuation_if_runningEEES9_EESA_EEE11do_completeEPNS0_15task_io_serviceEPNS0_25task_io_service_operationERKS9_m, .-_ZN4asio6detail18completion_handlerINS0_17rewrapped_handlerINS0_7binder1INS0_15wrapped_handlerINS_10io_service6strandEZN7asiopal9TCPServer11StartAcceptEvEUlSt10error_codeE_NS0_26is_continuation_if_runningEEES9_EESA_EEE11do_completeEPNS0_15task_io_serviceEPNS0_25task_io_service_operationERKS9_m
	.section	.text.unlikely
