	.file	"UpdateBuilder.cpp"
	.text
	.p2align 4
	.type	_ZNSt17_Function_handlerIFvRN8opendnp314IUpdateHandlerEEZN8asiodnp313UpdateBuilder6UpdateERKNS0_15TimeAndIntervalEtEUlS2_E_E9_M_invokeERKSt9_Any_dataS2_, @function
_ZNSt17_Function_handlerIFvRN8opendnp314IUpdateHandlerEEZN8asiodnp313UpdateBuilder6UpdateERKNS0_15TimeAndIntervalEtEUlS2_E_E9_M_invokeERKSt9_Any_dataS2_:
.LFB2197:
	.cfi_startproc
	movq	%rdi, %r8
	movq	%rsi, %rdi
	movq	(%rdi), %rax
	movq	(%r8), %rsi
	movzwl	16(%rsi), %edx
	jmp	*72(%rax)
	.cfi_endproc
.LFE2197:
	.size	_ZNSt17_Function_handlerIFvRN8opendnp314IUpdateHandlerEEZN8asiodnp313UpdateBuilder6UpdateERKNS0_15TimeAndIntervalEtEUlS2_E_E9_M_invokeERKSt9_Any_dataS2_, .-_ZNSt17_Function_handlerIFvRN8opendnp314IUpdateHandlerEEZN8asiodnp313UpdateBuilder6UpdateERKNS0_15TimeAndIntervalEtEUlS2_E_E9_M_invokeERKSt9_Any_dataS2_
	.p2align 4
	.type	_ZNSt17_Function_handlerIFvRN8opendnp314IUpdateHandlerEEZN8asiodnp313UpdateBuilder6ModifyENS0_9FlagsTypeEtthEUlS2_E_E9_M_invokeERKSt9_Any_dataS2_, @function
_ZNSt17_Function_handlerIFvRN8opendnp314IUpdateHandlerEEZN8asiodnp313UpdateBuilder6ModifyENS0_9FlagsTypeEtthEUlS2_E_E9_M_invokeERKSt9_Any_dataS2_:
.LFB2201:
	.cfi_startproc
	movq	(%rsi), %rax
	movq	%rsi, %r9
	movzwl	4(%rdi), %ecx
	movzwl	2(%rdi), %edx
	movzbl	6(%rdi), %r8d
	movzbl	(%rdi), %esi
	movq	80(%rax), %rax
	movq	%r9, %rdi
	jmp	*%rax
	.cfi_endproc
.LFE2201:
	.size	_ZNSt17_Function_handlerIFvRN8opendnp314IUpdateHandlerEEZN8asiodnp313UpdateBuilder6ModifyENS0_9FlagsTypeEtthEUlS2_E_E9_M_invokeERKSt9_Any_dataS2_, .-_ZNSt17_Function_handlerIFvRN8opendnp314IUpdateHandlerEEZN8asiodnp313UpdateBuilder6ModifyENS0_9FlagsTypeEtthEUlS2_E_E9_M_invokeERKSt9_Any_dataS2_
	.section	.text._ZNSt17_Function_handlerIFvRN8opendnp314IUpdateHandlerEEZN8asiodnp313UpdateBuilder7AddMeasINS0_6BinaryEEERS5_RKT_tNS0_9EventModeEEUlS2_E_E9_M_invokeERKSt9_Any_dataS2_,"axG",@progbits,_ZNSt17_Function_handlerIFvRN8opendnp314IUpdateHandlerEEZN8asiodnp313UpdateBuilder7AddMeasINS0_6BinaryEEERS5_RKT_tNS0_9EventModeEEUlS2_E_E9_M_invokeERKSt9_Any_dataS2_,comdat
	.p2align 4
	.weak	_ZNSt17_Function_handlerIFvRN8opendnp314IUpdateHandlerEEZN8asiodnp313UpdateBuilder7AddMeasINS0_6BinaryEEERS5_RKT_tNS0_9EventModeEEUlS2_E_E9_M_invokeERKSt9_Any_dataS2_
	.type	_ZNSt17_Function_handlerIFvRN8opendnp314IUpdateHandlerEEZN8asiodnp313UpdateBuilder7AddMeasINS0_6BinaryEEERS5_RKT_tNS0_9EventModeEEUlS2_E_E9_M_invokeERKSt9_Any_dataS2_, @function
_ZNSt17_Function_handlerIFvRN8opendnp314IUpdateHandlerEEZN8asiodnp313UpdateBuilder7AddMeasINS0_6BinaryEEERS5_RKT_tNS0_9EventModeEEUlS2_E_E9_M_invokeERKSt9_Any_dataS2_:
.LFB2231:
	.cfi_startproc
	movq	%rdi, %r8
	movq	%rsi, %rdi
	movq	(%rdi), %rax
	movq	(%r8), %rsi
	movzbl	26(%rsi), %ecx
	movzwl	24(%rsi), %edx
	jmp	*16(%rax)
	.cfi_endproc
.LFE2231:
	.size	_ZNSt17_Function_handlerIFvRN8opendnp314IUpdateHandlerEEZN8asiodnp313UpdateBuilder7AddMeasINS0_6BinaryEEERS5_RKT_tNS0_9EventModeEEUlS2_E_E9_M_invokeERKSt9_Any_dataS2_, .-_ZNSt17_Function_handlerIFvRN8opendnp314IUpdateHandlerEEZN8asiodnp313UpdateBuilder7AddMeasINS0_6BinaryEEERS5_RKT_tNS0_9EventModeEEUlS2_E_E9_M_invokeERKSt9_Any_dataS2_
	.section	.text._ZNSt17_Function_handlerIFvRN8opendnp314IUpdateHandlerEEZN8asiodnp313UpdateBuilder7AddMeasINS0_15DoubleBitBinaryEEERS5_RKT_tNS0_9EventModeEEUlS2_E_E9_M_invokeERKSt9_Any_dataS2_,"axG",@progbits,_ZNSt17_Function_handlerIFvRN8opendnp314IUpdateHandlerEEZN8asiodnp313UpdateBuilder7AddMeasINS0_15DoubleBitBinaryEEERS5_RKT_tNS0_9EventModeEEUlS2_E_E9_M_invokeERKSt9_Any_dataS2_,comdat
	.p2align 4
	.weak	_ZNSt17_Function_handlerIFvRN8opendnp314IUpdateHandlerEEZN8asiodnp313UpdateBuilder7AddMeasINS0_15DoubleBitBinaryEEERS5_RKT_tNS0_9EventModeEEUlS2_E_E9_M_invokeERKSt9_Any_dataS2_
	.type	_ZNSt17_Function_handlerIFvRN8opendnp314IUpdateHandlerEEZN8asiodnp313UpdateBuilder7AddMeasINS0_15DoubleBitBinaryEEERS5_RKT_tNS0_9EventModeEEUlS2_E_E9_M_invokeERKSt9_Any_dataS2_, @function
_ZNSt17_Function_handlerIFvRN8opendnp314IUpdateHandlerEEZN8asiodnp313UpdateBuilder7AddMeasINS0_15DoubleBitBinaryEEERS5_RKT_tNS0_9EventModeEEUlS2_E_E9_M_invokeERKSt9_Any_dataS2_:
.LFB2235:
	.cfi_startproc
	movq	%rdi, %r8
	movq	%rsi, %rdi
	movq	(%rdi), %rax
	movq	(%r8), %rsi
	movzbl	26(%rsi), %ecx
	movzwl	24(%rsi), %edx
	jmp	*24(%rax)
	.cfi_endproc
.LFE2235:
	.size	_ZNSt17_Function_handlerIFvRN8opendnp314IUpdateHandlerEEZN8asiodnp313UpdateBuilder7AddMeasINS0_15DoubleBitBinaryEEERS5_RKT_tNS0_9EventModeEEUlS2_E_E9_M_invokeERKSt9_Any_dataS2_, .-_ZNSt17_Function_handlerIFvRN8opendnp314IUpdateHandlerEEZN8asiodnp313UpdateBuilder7AddMeasINS0_15DoubleBitBinaryEEERS5_RKT_tNS0_9EventModeEEUlS2_E_E9_M_invokeERKSt9_Any_dataS2_
	.section	.text._ZNSt17_Function_handlerIFvRN8opendnp314IUpdateHandlerEEZN8asiodnp313UpdateBuilder7AddMeasINS0_6AnalogEEERS5_RKT_tNS0_9EventModeEEUlS2_E_E9_M_invokeERKSt9_Any_dataS2_,"axG",@progbits,_ZNSt17_Function_handlerIFvRN8opendnp314IUpdateHandlerEEZN8asiodnp313UpdateBuilder7AddMeasINS0_6AnalogEEERS5_RKT_tNS0_9EventModeEEUlS2_E_E9_M_invokeERKSt9_Any_dataS2_,comdat
	.p2align 4
	.weak	_ZNSt17_Function_handlerIFvRN8opendnp314IUpdateHandlerEEZN8asiodnp313UpdateBuilder7AddMeasINS0_6AnalogEEERS5_RKT_tNS0_9EventModeEEUlS2_E_E9_M_invokeERKSt9_Any_dataS2_
	.type	_ZNSt17_Function_handlerIFvRN8opendnp314IUpdateHandlerEEZN8asiodnp313UpdateBuilder7AddMeasINS0_6AnalogEEERS5_RKT_tNS0_9EventModeEEUlS2_E_E9_M_invokeERKSt9_Any_dataS2_, @function
_ZNSt17_Function_handlerIFvRN8opendnp314IUpdateHandlerEEZN8asiodnp313UpdateBuilder7AddMeasINS0_6AnalogEEERS5_RKT_tNS0_9EventModeEEUlS2_E_E9_M_invokeERKSt9_Any_dataS2_:
.LFB2239:
	.cfi_startproc
	movq	%rdi, %r8
	movq	%rsi, %rdi
	movq	(%rdi), %rax
	movq	(%r8), %rsi
	movzbl	26(%rsi), %ecx
	movzwl	24(%rsi), %edx
	jmp	*32(%rax)
	.cfi_endproc
.LFE2239:
	.size	_ZNSt17_Function_handlerIFvRN8opendnp314IUpdateHandlerEEZN8asiodnp313UpdateBuilder7AddMeasINS0_6AnalogEEERS5_RKT_tNS0_9EventModeEEUlS2_E_E9_M_invokeERKSt9_Any_dataS2_, .-_ZNSt17_Function_handlerIFvRN8opendnp314IUpdateHandlerEEZN8asiodnp313UpdateBuilder7AddMeasINS0_6AnalogEEERS5_RKT_tNS0_9EventModeEEUlS2_E_E9_M_invokeERKSt9_Any_dataS2_
	.section	.text._ZNSt17_Function_handlerIFvRN8opendnp314IUpdateHandlerEEZN8asiodnp313UpdateBuilder7AddMeasINS0_7CounterEEERS5_RKT_tNS0_9EventModeEEUlS2_E_E9_M_invokeERKSt9_Any_dataS2_,"axG",@progbits,_ZNSt17_Function_handlerIFvRN8opendnp314IUpdateHandlerEEZN8asiodnp313UpdateBuilder7AddMeasINS0_7CounterEEERS5_RKT_tNS0_9EventModeEEUlS2_E_E9_M_invokeERKSt9_Any_dataS2_,comdat
	.p2align 4
	.weak	_ZNSt17_Function_handlerIFvRN8opendnp314IUpdateHandlerEEZN8asiodnp313UpdateBuilder7AddMeasINS0_7CounterEEERS5_RKT_tNS0_9EventModeEEUlS2_E_E9_M_invokeERKSt9_Any_dataS2_
	.type	_ZNSt17_Function_handlerIFvRN8opendnp314IUpdateHandlerEEZN8asiodnp313UpdateBuilder7AddMeasINS0_7CounterEEERS5_RKT_tNS0_9EventModeEEUlS2_E_E9_M_invokeERKSt9_Any_dataS2_, @function
_ZNSt17_Function_handlerIFvRN8opendnp314IUpdateHandlerEEZN8asiodnp313UpdateBuilder7AddMeasINS0_7CounterEEERS5_RKT_tNS0_9EventModeEEUlS2_E_E9_M_invokeERKSt9_Any_dataS2_:
.LFB2243:
	.cfi_startproc
	movq	%rdi, %r8
	movq	%rsi, %rdi
	movq	(%rdi), %rax
	movq	(%r8), %rsi
	movzbl	26(%rsi), %ecx
	movzwl	24(%rsi), %edx
	jmp	*40(%rax)
	.cfi_endproc
.LFE2243:
	.size	_ZNSt17_Function_handlerIFvRN8opendnp314IUpdateHandlerEEZN8asiodnp313UpdateBuilder7AddMeasINS0_7CounterEEERS5_RKT_tNS0_9EventModeEEUlS2_E_E9_M_invokeERKSt9_Any_dataS2_, .-_ZNSt17_Function_handlerIFvRN8opendnp314IUpdateHandlerEEZN8asiodnp313UpdateBuilder7AddMeasINS0_7CounterEEERS5_RKT_tNS0_9EventModeEEUlS2_E_E9_M_invokeERKSt9_Any_dataS2_
	.section	.text._ZNSt17_Function_handlerIFvRN8opendnp314IUpdateHandlerEEZN8asiodnp313UpdateBuilder7AddMeasINS0_13FrozenCounterEEERS5_RKT_tNS0_9EventModeEEUlS2_E_E9_M_invokeERKSt9_Any_dataS2_,"axG",@progbits,_ZNSt17_Function_handlerIFvRN8opendnp314IUpdateHandlerEEZN8asiodnp313UpdateBuilder7AddMeasINS0_13FrozenCounterEEERS5_RKT_tNS0_9EventModeEEUlS2_E_E9_M_invokeERKSt9_Any_dataS2_,comdat
	.p2align 4
	.weak	_ZNSt17_Function_handlerIFvRN8opendnp314IUpdateHandlerEEZN8asiodnp313UpdateBuilder7AddMeasINS0_13FrozenCounterEEERS5_RKT_tNS0_9EventModeEEUlS2_E_E9_M_invokeERKSt9_Any_dataS2_
	.type	_ZNSt17_Function_handlerIFvRN8opendnp314IUpdateHandlerEEZN8asiodnp313UpdateBuilder7AddMeasINS0_13FrozenCounterEEERS5_RKT_tNS0_9EventModeEEUlS2_E_E9_M_invokeERKSt9_Any_dataS2_, @function
_ZNSt17_Function_handlerIFvRN8opendnp314IUpdateHandlerEEZN8asiodnp313UpdateBuilder7AddMeasINS0_13FrozenCounterEEERS5_RKT_tNS0_9EventModeEEUlS2_E_E9_M_invokeERKSt9_Any_dataS2_:
.LFB2247:
	.cfi_startproc
	movq	%rdi, %r8
	movq	%rsi, %rdi
	movq	(%rdi), %rax
	movq	(%r8), %rsi
	movzbl	26(%rsi), %ecx
	movzwl	24(%rsi), %edx
	jmp	*48(%rax)
	.cfi_endproc
.LFE2247:
	.size	_ZNSt17_Function_handlerIFvRN8opendnp314IUpdateHandlerEEZN8asiodnp313UpdateBuilder7AddMeasINS0_13FrozenCounterEEERS5_RKT_tNS0_9EventModeEEUlS2_E_E9_M_invokeERKSt9_Any_dataS2_, .-_ZNSt17_Function_handlerIFvRN8opendnp314IUpdateHandlerEEZN8asiodnp313UpdateBuilder7AddMeasINS0_13FrozenCounterEEERS5_RKT_tNS0_9EventModeEEUlS2_E_E9_M_invokeERKSt9_Any_dataS2_
	.section	.text._ZNSt17_Function_handlerIFvRN8opendnp314IUpdateHandlerEEZN8asiodnp313UpdateBuilder7AddMeasINS0_18BinaryOutputStatusEEERS5_RKT_tNS0_9EventModeEEUlS2_E_E9_M_invokeERKSt9_Any_dataS2_,"axG",@progbits,_ZNSt17_Function_handlerIFvRN8opendnp314IUpdateHandlerEEZN8asiodnp313UpdateBuilder7AddMeasINS0_18BinaryOutputStatusEEERS5_RKT_tNS0_9EventModeEEUlS2_E_E9_M_invokeERKSt9_Any_dataS2_,comdat
	.p2align 4
	.weak	_ZNSt17_Function_handlerIFvRN8opendnp314IUpdateHandlerEEZN8asiodnp313UpdateBuilder7AddMeasINS0_18BinaryOutputStatusEEERS5_RKT_tNS0_9EventModeEEUlS2_E_E9_M_invokeERKSt9_Any_dataS2_
	.type	_ZNSt17_Function_handlerIFvRN8opendnp314IUpdateHandlerEEZN8asiodnp313UpdateBuilder7AddMeasINS0_18BinaryOutputStatusEEERS5_RKT_tNS0_9EventModeEEUlS2_E_E9_M_invokeERKSt9_Any_dataS2_, @function
_ZNSt17_Function_handlerIFvRN8opendnp314IUpdateHandlerEEZN8asiodnp313UpdateBuilder7AddMeasINS0_18BinaryOutputStatusEEERS5_RKT_tNS0_9EventModeEEUlS2_E_E9_M_invokeERKSt9_Any_dataS2_:
.LFB2251:
	.cfi_startproc
	movq	%rdi, %r8
	movq	%rsi, %rdi
	movq	(%rdi), %rax
	movq	(%r8), %rsi
	movzbl	26(%rsi), %ecx
	movzwl	24(%rsi), %edx
	jmp	*56(%rax)
	.cfi_endproc
.LFE2251:
	.size	_ZNSt17_Function_handlerIFvRN8opendnp314IUpdateHandlerEEZN8asiodnp313UpdateBuilder7AddMeasINS0_18BinaryOutputStatusEEERS5_RKT_tNS0_9EventModeEEUlS2_E_E9_M_invokeERKSt9_Any_dataS2_, .-_ZNSt17_Function_handlerIFvRN8opendnp314IUpdateHandlerEEZN8asiodnp313UpdateBuilder7AddMeasINS0_18BinaryOutputStatusEEERS5_RKT_tNS0_9EventModeEEUlS2_E_E9_M_invokeERKSt9_Any_dataS2_
	.section	.text._ZNSt17_Function_handlerIFvRN8opendnp314IUpdateHandlerEEZN8asiodnp313UpdateBuilder7AddMeasINS0_18AnalogOutputStatusEEERS5_RKT_tNS0_9EventModeEEUlS2_E_E9_M_invokeERKSt9_Any_dataS2_,"axG",@progbits,_ZNSt17_Function_handlerIFvRN8opendnp314IUpdateHandlerEEZN8asiodnp313UpdateBuilder7AddMeasINS0_18AnalogOutputStatusEEERS5_RKT_tNS0_9EventModeEEUlS2_E_E9_M_invokeERKSt9_Any_dataS2_,comdat
	.p2align 4
	.weak	_ZNSt17_Function_handlerIFvRN8opendnp314IUpdateHandlerEEZN8asiodnp313UpdateBuilder7AddMeasINS0_18AnalogOutputStatusEEERS5_RKT_tNS0_9EventModeEEUlS2_E_E9_M_invokeERKSt9_Any_dataS2_
	.type	_ZNSt17_Function_handlerIFvRN8opendnp314IUpdateHandlerEEZN8asiodnp313UpdateBuilder7AddMeasINS0_18AnalogOutputStatusEEERS5_RKT_tNS0_9EventModeEEUlS2_E_E9_M_invokeERKSt9_Any_dataS2_, @function
_ZNSt17_Function_handlerIFvRN8opendnp314IUpdateHandlerEEZN8asiodnp313UpdateBuilder7AddMeasINS0_18AnalogOutputStatusEEERS5_RKT_tNS0_9EventModeEEUlS2_E_E9_M_invokeERKSt9_Any_dataS2_:
.LFB2255:
	.cfi_startproc
	movq	%rdi, %r8
	movq	%rsi, %rdi
	movq	(%rdi), %rax
	movq	(%r8), %rsi
	movzbl	26(%rsi), %ecx
	movzwl	24(%rsi), %edx
	jmp	*64(%rax)
	.cfi_endproc
.LFE2255:
	.size	_ZNSt17_Function_handlerIFvRN8opendnp314IUpdateHandlerEEZN8asiodnp313UpdateBuilder7AddMeasINS0_18AnalogOutputStatusEEERS5_RKT_tNS0_9EventModeEEUlS2_E_E9_M_invokeERKSt9_Any_dataS2_, .-_ZNSt17_Function_handlerIFvRN8opendnp314IUpdateHandlerEEZN8asiodnp313UpdateBuilder7AddMeasINS0_18AnalogOutputStatusEEERS5_RKT_tNS0_9EventModeEEUlS2_E_E9_M_invokeERKSt9_Any_dataS2_
	.section	.text._ZNSt23_Sp_counted_ptr_inplaceISt6vectorISt8functionIFvRN8opendnp314IUpdateHandlerEEESaIS6_EESaIS8_ELN9__gnu_cxx12_Lock_policyE2EED2Ev,"axG",@progbits,_ZNSt23_Sp_counted_ptr_inplaceISt6vectorISt8functionIFvRN8opendnp314IUpdateHandlerEEESaIS6_EESaIS8_ELN9__gnu_cxx12_Lock_policyE2EED5Ev,comdat
	.align 2
	.p2align 4
	.weak	_ZNSt23_Sp_counted_ptr_inplaceISt6vectorISt8functionIFvRN8opendnp314IUpdateHandlerEEESaIS6_EESaIS8_ELN9__gnu_cxx12_Lock_policyE2EED2Ev
	.type	_ZNSt23_Sp_counted_ptr_inplaceISt6vectorISt8functionIFvRN8opendnp314IUpdateHandlerEEESaIS6_EESaIS8_ELN9__gnu_cxx12_Lock_policyE2EED2Ev, @function
_ZNSt23_Sp_counted_ptr_inplaceISt6vectorISt8functionIFvRN8opendnp314IUpdateHandlerEEESaIS6_EESaIS8_ELN9__gnu_cxx12_Lock_policyE2EED2Ev:
.LFB2580:
	.cfi_startproc
	ret
	.cfi_endproc
.LFE2580:
	.size	_ZNSt23_Sp_counted_ptr_inplaceISt6vectorISt8functionIFvRN8opendnp314IUpdateHandlerEEESaIS6_EESaIS8_ELN9__gnu_cxx12_Lock_policyE2EED2Ev, .-_ZNSt23_Sp_counted_ptr_inplaceISt6vectorISt8functionIFvRN8opendnp314IUpdateHandlerEEESaIS6_EESaIS8_ELN9__gnu_cxx12_Lock_policyE2EED2Ev
	.weak	_ZNSt23_Sp_counted_ptr_inplaceISt6vectorISt8functionIFvRN8opendnp314IUpdateHandlerEEESaIS6_EESaIS8_ELN9__gnu_cxx12_Lock_policyE2EED1Ev
	.set	_ZNSt23_Sp_counted_ptr_inplaceISt6vectorISt8functionIFvRN8opendnp314IUpdateHandlerEEESaIS6_EESaIS8_ELN9__gnu_cxx12_Lock_policyE2EED1Ev,_ZNSt23_Sp_counted_ptr_inplaceISt6vectorISt8functionIFvRN8opendnp314IUpdateHandlerEEESaIS6_EESaIS8_ELN9__gnu_cxx12_Lock_policyE2EED2Ev
	.section	.text._ZNSt23_Sp_counted_ptr_inplaceISt6vectorISt8functionIFvRN8opendnp314IUpdateHandlerEEESaIS6_EESaIS8_ELN9__gnu_cxx12_Lock_policyE2EED0Ev,"axG",@progbits,_ZNSt23_Sp_counted_ptr_inplaceISt6vectorISt8functionIFvRN8opendnp314IUpdateHandlerEEESaIS6_EESaIS8_ELN9__gnu_cxx12_Lock_policyE2EED5Ev,comdat
	.align 2
	.p2align 4
	.weak	_ZNSt23_Sp_counted_ptr_inplaceISt6vectorISt8functionIFvRN8opendnp314IUpdateHandlerEEESaIS6_EESaIS8_ELN9__gnu_cxx12_Lock_policyE2EED0Ev
	.type	_ZNSt23_Sp_counted_ptr_inplaceISt6vectorISt8functionIFvRN8opendnp314IUpdateHandlerEEESaIS6_EESaIS8_ELN9__gnu_cxx12_Lock_policyE2EED0Ev, @function
_ZNSt23_Sp_counted_ptr_inplaceISt6vectorISt8functionIFvRN8opendnp314IUpdateHandlerEEESaIS6_EESaIS8_ELN9__gnu_cxx12_Lock_policyE2EED0Ev:
.LFB2582:
	.cfi_startproc
	movl	$40, %esi
	jmp	_ZdlPvm@PLT
	.cfi_endproc
.LFE2582:
	.size	_ZNSt23_Sp_counted_ptr_inplaceISt6vectorISt8functionIFvRN8opendnp314IUpdateHandlerEEESaIS6_EESaIS8_ELN9__gnu_cxx12_Lock_policyE2EED0Ev, .-_ZNSt23_Sp_counted_ptr_inplaceISt6vectorISt8functionIFvRN8opendnp314IUpdateHandlerEEESaIS6_EESaIS8_ELN9__gnu_cxx12_Lock_policyE2EED0Ev
	.section	.text._ZNSt23_Sp_counted_ptr_inplaceISt6vectorISt8functionIFvRN8opendnp314IUpdateHandlerEEESaIS6_EESaIS8_ELN9__gnu_cxx12_Lock_policyE2EE10_M_destroyEv,"axG",@progbits,_ZNSt23_Sp_counted_ptr_inplaceISt6vectorISt8functionIFvRN8opendnp314IUpdateHandlerEEESaIS6_EESaIS8_ELN9__gnu_cxx12_Lock_policyE2EE10_M_destroyEv,comdat
	.align 2
	.p2align 4
	.weak	_ZNSt23_Sp_counted_ptr_inplaceISt6vectorISt8functionIFvRN8opendnp314IUpdateHandlerEEESaIS6_EESaIS8_ELN9__gnu_cxx12_Lock_policyE2EE10_M_destroyEv
	.type	_ZNSt23_Sp_counted_ptr_inplaceISt6vectorISt8functionIFvRN8opendnp314IUpdateHandlerEEESaIS6_EESaIS8_ELN9__gnu_cxx12_Lock_policyE2EE10_M_destroyEv, @function
_ZNSt23_Sp_counted_ptr_inplaceISt6vectorISt8functionIFvRN8opendnp314IUpdateHandlerEEESaIS6_EESaIS8_ELN9__gnu_cxx12_Lock_policyE2EE10_M_destroyEv:
.LFB2584:
	.cfi_startproc
	movl	$40, %esi
	jmp	_ZdlPvm@PLT
	.cfi_endproc
.LFE2584:
	.size	_ZNSt23_Sp_counted_ptr_inplaceISt6vectorISt8functionIFvRN8opendnp314IUpdateHandlerEEESaIS6_EESaIS8_ELN9__gnu_cxx12_Lock_policyE2EE10_M_destroyEv, .-_ZNSt23_Sp_counted_ptr_inplaceISt6vectorISt8functionIFvRN8opendnp314IUpdateHandlerEEESaIS6_EESaIS8_ELN9__gnu_cxx12_Lock_policyE2EE10_M_destroyEv
	.section	.text._ZNSt23_Sp_counted_ptr_inplaceISt6vectorISt8functionIFvRN8opendnp314IUpdateHandlerEEESaIS6_EESaIS8_ELN9__gnu_cxx12_Lock_policyE2EE10_M_disposeEv,"axG",@progbits,_ZNSt23_Sp_counted_ptr_inplaceISt6vectorISt8functionIFvRN8opendnp314IUpdateHandlerEEESaIS6_EESaIS8_ELN9__gnu_cxx12_Lock_policyE2EE10_M_disposeEv,comdat
	.align 2
	.p2align 4
	.weak	_ZNSt23_Sp_counted_ptr_inplaceISt6vectorISt8functionIFvRN8opendnp314IUpdateHandlerEEESaIS6_EESaIS8_ELN9__gnu_cxx12_Lock_policyE2EE10_M_disposeEv
	.type	_ZNSt23_Sp_counted_ptr_inplaceISt6vectorISt8functionIFvRN8opendnp314IUpdateHandlerEEESaIS6_EESaIS8_ELN9__gnu_cxx12_Lock_policyE2EE10_M_disposeEv, @function
_ZNSt23_Sp_counted_ptr_inplaceISt6vectorISt8functionIFvRN8opendnp314IUpdateHandlerEEESaIS6_EESaIS8_ELN9__gnu_cxx12_Lock_policyE2EE10_M_disposeEv:
.LFB2583:
	.cfi_startproc
	.cfi_personality 0x9b,DW.ref.__gxx_personality_v0
	.cfi_lsda 0x1b,.LLSDA2583
	pushq	%r12
	.cfi_def_cfa_offset 16
	.cfi_offset 12, -16
	movq	%rdi, %r12
	pushq	%rbp
	.cfi_def_cfa_offset 24
	.cfi_offset 6, -24
	pushq	%rbx
	.cfi_def_cfa_offset 32
	.cfi_offset 3, -32
	movq	24(%rdi), %rbx
	movq	16(%rdi), %rbp
	cmpq	%rbp, %rbx
	je	.L15
	.p2align 4,,10
	.p2align 3
.L19:
	movq	16(%rbp), %rax
	testq	%rax, %rax
	je	.L16
	movq	%rbp, %rsi
	movq	%rbp, %rdi
	addq	$32, %rbp
	movl	$3, %edx
	call	*%rax
	cmpq	%rbp, %rbx
	jne	.L19
.L17:
	movq	16(%r12), %rbp
.L15:
	testq	%rbp, %rbp
	je	.L14
	movq	32(%r12), %rsi
	popq	%rbx
	.cfi_remember_state
	.cfi_def_cfa_offset 24
	movq	%rbp, %rdi
	subq	%rbp, %rsi
	popq	%rbp
	.cfi_def_cfa_offset 16
	popq	%r12
	.cfi_def_cfa_offset 8
	jmp	_ZdlPvm@PLT
	.p2align 4,,10
	.p2align 3
.L16:
	.cfi_restore_state
	addq	$32, %rbp
	cmpq	%rbp, %rbx
	jne	.L19
	jmp	.L17
	.p2align 4,,10
	.p2align 3
.L14:
	popq	%rbx
	.cfi_def_cfa_offset 24
	popq	%rbp
	.cfi_def_cfa_offset 16
	popq	%r12
	.cfi_def_cfa_offset 8
	ret
	.cfi_endproc
.LFE2583:
	.globl	__gxx_personality_v0
	.section	.gcc_except_table._ZNSt23_Sp_counted_ptr_inplaceISt6vectorISt8functionIFvRN8opendnp314IUpdateHandlerEEESaIS6_EESaIS8_ELN9__gnu_cxx12_Lock_policyE2EE10_M_disposeEv,"aG",@progbits,_ZNSt23_Sp_counted_ptr_inplaceISt6vectorISt8functionIFvRN8opendnp314IUpdateHandlerEEESaIS6_EESaIS8_ELN9__gnu_cxx12_Lock_policyE2EE10_M_disposeEv,comdat
.LLSDA2583:
	.byte	0xff
	.byte	0xff
	.byte	0x1
	.uleb128 .LLSDACSE2583-.LLSDACSB2583
.LLSDACSB2583:
.LLSDACSE2583:
	.section	.text._ZNSt23_Sp_counted_ptr_inplaceISt6vectorISt8functionIFvRN8opendnp314IUpdateHandlerEEESaIS6_EESaIS8_ELN9__gnu_cxx12_Lock_policyE2EE10_M_disposeEv,"axG",@progbits,_ZNSt23_Sp_counted_ptr_inplaceISt6vectorISt8functionIFvRN8opendnp314IUpdateHandlerEEESaIS6_EESaIS8_ELN9__gnu_cxx12_Lock_policyE2EE10_M_disposeEv,comdat
	.size	_ZNSt23_Sp_counted_ptr_inplaceISt6vectorISt8functionIFvRN8opendnp314IUpdateHandlerEEESaIS6_EESaIS8_ELN9__gnu_cxx12_Lock_policyE2EE10_M_disposeEv, .-_ZNSt23_Sp_counted_ptr_inplaceISt6vectorISt8functionIFvRN8opendnp314IUpdateHandlerEEESaIS6_EESaIS8_ELN9__gnu_cxx12_Lock_policyE2EE10_M_disposeEv
	.section	.text._ZNSt23_Sp_counted_ptr_inplaceISt6vectorISt8functionIFvRN8opendnp314IUpdateHandlerEEESaIS6_EESaIS8_ELN9__gnu_cxx12_Lock_policyE2EE14_M_get_deleterERKSt9type_info,"axG",@progbits,_ZNSt23_Sp_counted_ptr_inplaceISt6vectorISt8functionIFvRN8opendnp314IUpdateHandlerEEESaIS6_EESaIS8_ELN9__gnu_cxx12_Lock_policyE2EE14_M_get_deleterERKSt9type_info,comdat
	.align 2
	.p2align 4
	.weak	_ZNSt23_Sp_counted_ptr_inplaceISt6vectorISt8functionIFvRN8opendnp314IUpdateHandlerEEESaIS6_EESaIS8_ELN9__gnu_cxx12_Lock_policyE2EE14_M_get_deleterERKSt9type_info
	.type	_ZNSt23_Sp_counted_ptr_inplaceISt6vectorISt8functionIFvRN8opendnp314IUpdateHandlerEEESaIS6_EESaIS8_ELN9__gnu_cxx12_Lock_policyE2EE14_M_get_deleterERKSt9type_info, @function
_ZNSt23_Sp_counted_ptr_inplaceISt6vectorISt8functionIFvRN8opendnp314IUpdateHandlerEEESaIS6_EESaIS8_ELN9__gnu_cxx12_Lock_policyE2EE14_M_get_deleterERKSt9type_info:
.LFB2585:
	.cfi_startproc
	cmpq	_ZZNSt19_Sp_make_shared_tag5_S_tiEvE5__tag@GOTPCREL(%rip), %rsi
	pushq	%r12
	.cfi_def_cfa_offset 16
	.cfi_offset 12, -16
	leaq	16(%rdi), %r12
	je	.L22
	movq	8(%rsi), %rdi
	movq	_ZTSSt19_Sp_make_shared_tag@GOTPCREL(%rip), %rsi
	cmpq	%rsi, %rdi
	je	.L22
	cmpb	$42, (%rdi)
	je	.L24
	call	strcmp@PLT
	testl	%eax, %eax
	movl	$0, %eax
	cmovne	%rax, %r12
.L22:
	movq	%r12, %rax
	popq	%r12
	.cfi_remember_state
	.cfi_def_cfa_offset 8
	ret
	.p2align 4,,10
	.p2align 3
.L24:
	.cfi_restore_state
	xorl	%r12d, %r12d
	movq	%r12, %rax
	popq	%r12
	.cfi_def_cfa_offset 8
	ret
	.cfi_endproc
.LFE2585:
	.size	_ZNSt23_Sp_counted_ptr_inplaceISt6vectorISt8functionIFvRN8opendnp314IUpdateHandlerEEESaIS6_EESaIS8_ELN9__gnu_cxx12_Lock_policyE2EE14_M_get_deleterERKSt9type_info, .-_ZNSt23_Sp_counted_ptr_inplaceISt6vectorISt8functionIFvRN8opendnp314IUpdateHandlerEEESaIS6_EESaIS8_ELN9__gnu_cxx12_Lock_policyE2EE14_M_get_deleterERKSt9type_info
	.text
	.p2align 4
	.type	_ZNSt17_Function_handlerIFvRN8opendnp314IUpdateHandlerEEZN8asiodnp313UpdateBuilder6ModifyENS0_9FlagsTypeEtthEUlS2_E_E10_M_managerERSt9_Any_dataRKS9_St18_Manager_operation, @function
_ZNSt17_Function_handlerIFvRN8opendnp314IUpdateHandlerEEZN8asiodnp313UpdateBuilder6ModifyENS0_9FlagsTypeEtthEUlS2_E_E10_M_managerERSt9_Any_dataRKS9_St18_Manager_operation:
.LFB2202:
	.cfi_startproc
	testl	%edx, %edx
	je	.L28
	cmpl	$1, %edx
	je	.L29
	cmpl	$2, %edx
	je	.L33
.L31:
	xorl	%eax, %eax
	ret
	.p2align 4,,10
	.p2align 3
.L28:
	leaq	_ZTIZN8asiodnp313UpdateBuilder6ModifyEN8opendnp39FlagsTypeEtthEUlRNS1_14IUpdateHandlerEE_(%rip), %rax
	movq	%rax, (%rdi)
	xorl	%eax, %eax
	ret
	.p2align 4,,10
	.p2align 3
.L29:
	movq	%rsi, (%rdi)
	xorl	%eax, %eax
	ret
	.p2align 4,,10
	.p2align 3
.L33:
	movq	(%rsi), %rax
	movq	%rax, (%rdi)
	jmp	.L31
	.cfi_endproc
.LFE2202:
	.size	_ZNSt17_Function_handlerIFvRN8opendnp314IUpdateHandlerEEZN8asiodnp313UpdateBuilder6ModifyENS0_9FlagsTypeEtthEUlS2_E_E10_M_managerERSt9_Any_dataRKS9_St18_Manager_operation, .-_ZNSt17_Function_handlerIFvRN8opendnp314IUpdateHandlerEEZN8asiodnp313UpdateBuilder6ModifyENS0_9FlagsTypeEtthEUlS2_E_E10_M_managerERSt9_Any_dataRKS9_St18_Manager_operation
	.section	.text._ZNSt17_Function_handlerIFvRN8opendnp314IUpdateHandlerEEZN8asiodnp313UpdateBuilder7AddMeasINS0_18AnalogOutputStatusEEERS5_RKT_tNS0_9EventModeEEUlS2_E_E10_M_managerERSt9_Any_dataRKSF_St18_Manager_operation,"axG",@progbits,_ZNSt17_Function_handlerIFvRN8opendnp314IUpdateHandlerEEZN8asiodnp313UpdateBuilder7AddMeasINS0_18AnalogOutputStatusEEERS5_RKT_tNS0_9EventModeEEUlS2_E_E10_M_managerERSt9_Any_dataRKSF_St18_Manager_operation,comdat
	.p2align 4
	.weak	_ZNSt17_Function_handlerIFvRN8opendnp314IUpdateHandlerEEZN8asiodnp313UpdateBuilder7AddMeasINS0_18AnalogOutputStatusEEERS5_RKT_tNS0_9EventModeEEUlS2_E_E10_M_managerERSt9_Any_dataRKSF_St18_Manager_operation
	.type	_ZNSt17_Function_handlerIFvRN8opendnp314IUpdateHandlerEEZN8asiodnp313UpdateBuilder7AddMeasINS0_18AnalogOutputStatusEEERS5_RKT_tNS0_9EventModeEEUlS2_E_E10_M_managerERSt9_Any_dataRKSF_St18_Manager_operation, @function
_ZNSt17_Function_handlerIFvRN8opendnp314IUpdateHandlerEEZN8asiodnp313UpdateBuilder7AddMeasINS0_18AnalogOutputStatusEEERS5_RKT_tNS0_9EventModeEEUlS2_E_E10_M_managerERSt9_Any_dataRKSF_St18_Manager_operation:
.LFB2256:
	.cfi_startproc
	pushq	%rbp
	.cfi_def_cfa_offset 16
	.cfi_offset 6, -16
	pushq	%rbx
	.cfi_def_cfa_offset 24
	.cfi_offset 3, -24
	movq	%rdi, %rbx
	subq	$8, %rsp
	.cfi_def_cfa_offset 32
	testl	%edx, %edx
	je	.L35
	cmpl	$1, %edx
	je	.L36
	cmpl	$2, %edx
	je	.L39
	cmpl	$3, %edx
	jne	.L38
	movq	(%rdi), %rdi
	testq	%rdi, %rdi
	je	.L38
	movl	$32, %esi
	call	_ZdlPvm@PLT
.L38:
	addq	$8, %rsp
	.cfi_remember_state
	.cfi_def_cfa_offset 24
	xorl	%eax, %eax
	popq	%rbx
	.cfi_def_cfa_offset 16
	popq	%rbp
	.cfi_def_cfa_offset 8
	ret
	.p2align 4,,10
	.p2align 3
.L35:
	.cfi_restore_state
	movq	_ZTIZN8asiodnp313UpdateBuilder7AddMeasIN8opendnp318AnalogOutputStatusEEERS0_RKT_tNS2_9EventModeEEUlRNS2_14IUpdateHandlerEE_@GOTPCREL(%rip), %rax
	movq	%rax, (%rdi)
	addq	$8, %rsp
	.cfi_remember_state
	.cfi_def_cfa_offset 24
	xorl	%eax, %eax
	popq	%rbx
	.cfi_def_cfa_offset 16
	popq	%rbp
	.cfi_def_cfa_offset 8
	ret
	.p2align 4,,10
	.p2align 3
.L36:
	.cfi_restore_state
	movq	(%rsi), %rax
	movq	%rax, (%rdi)
	addq	$8, %rsp
	.cfi_remember_state
	.cfi_def_cfa_offset 24
	xorl	%eax, %eax
	popq	%rbx
	.cfi_def_cfa_offset 16
	popq	%rbp
	.cfi_def_cfa_offset 8
	ret
	.p2align 4,,10
	.p2align 3
.L39:
	.cfi_restore_state
	movq	(%rsi), %rbp
	movl	$32, %edi
	call	_Znwm@PLT
	movdqu	0(%rbp), %xmm0
	movups	%xmm0, (%rax)
	movdqu	16(%rbp), %xmm1
	movups	%xmm1, 16(%rax)
	movq	%rax, (%rbx)
	jmp	.L38
	.cfi_endproc
.LFE2256:
	.size	_ZNSt17_Function_handlerIFvRN8opendnp314IUpdateHandlerEEZN8asiodnp313UpdateBuilder7AddMeasINS0_18AnalogOutputStatusEEERS5_RKT_tNS0_9EventModeEEUlS2_E_E10_M_managerERSt9_Any_dataRKSF_St18_Manager_operation, .-_ZNSt17_Function_handlerIFvRN8opendnp314IUpdateHandlerEEZN8asiodnp313UpdateBuilder7AddMeasINS0_18AnalogOutputStatusEEERS5_RKT_tNS0_9EventModeEEUlS2_E_E10_M_managerERSt9_Any_dataRKSF_St18_Manager_operation
	.section	.text._ZNSt17_Function_handlerIFvRN8opendnp314IUpdateHandlerEEZN8asiodnp313UpdateBuilder7AddMeasINS0_18BinaryOutputStatusEEERS5_RKT_tNS0_9EventModeEEUlS2_E_E10_M_managerERSt9_Any_dataRKSF_St18_Manager_operation,"axG",@progbits,_ZNSt17_Function_handlerIFvRN8opendnp314IUpdateHandlerEEZN8asiodnp313UpdateBuilder7AddMeasINS0_18BinaryOutputStatusEEERS5_RKT_tNS0_9EventModeEEUlS2_E_E10_M_managerERSt9_Any_dataRKSF_St18_Manager_operation,comdat
	.p2align 4
	.weak	_ZNSt17_Function_handlerIFvRN8opendnp314IUpdateHandlerEEZN8asiodnp313UpdateBuilder7AddMeasINS0_18BinaryOutputStatusEEERS5_RKT_tNS0_9EventModeEEUlS2_E_E10_M_managerERSt9_Any_dataRKSF_St18_Manager_operation
	.type	_ZNSt17_Function_handlerIFvRN8opendnp314IUpdateHandlerEEZN8asiodnp313UpdateBuilder7AddMeasINS0_18BinaryOutputStatusEEERS5_RKT_tNS0_9EventModeEEUlS2_E_E10_M_managerERSt9_Any_dataRKSF_St18_Manager_operation, @function
_ZNSt17_Function_handlerIFvRN8opendnp314IUpdateHandlerEEZN8asiodnp313UpdateBuilder7AddMeasINS0_18BinaryOutputStatusEEERS5_RKT_tNS0_9EventModeEEUlS2_E_E10_M_managerERSt9_Any_dataRKSF_St18_Manager_operation:
.LFB2252:
	.cfi_startproc
	pushq	%rbp
	.cfi_def_cfa_offset 16
	.cfi_offset 6, -16
	pushq	%rbx
	.cfi_def_cfa_offset 24
	.cfi_offset 3, -24
	movq	%rdi, %rbx
	subq	$8, %rsp
	.cfi_def_cfa_offset 32
	testl	%edx, %edx
	je	.L47
	cmpl	$1, %edx
	je	.L48
	cmpl	$2, %edx
	je	.L51
	cmpl	$3, %edx
	jne	.L50
	movq	(%rdi), %rdi
	testq	%rdi, %rdi
	je	.L50
	movl	$32, %esi
	call	_ZdlPvm@PLT
.L50:
	addq	$8, %rsp
	.cfi_remember_state
	.cfi_def_cfa_offset 24
	xorl	%eax, %eax
	popq	%rbx
	.cfi_def_cfa_offset 16
	popq	%rbp
	.cfi_def_cfa_offset 8
	ret
	.p2align 4,,10
	.p2align 3
.L47:
	.cfi_restore_state
	movq	_ZTIZN8asiodnp313UpdateBuilder7AddMeasIN8opendnp318BinaryOutputStatusEEERS0_RKT_tNS2_9EventModeEEUlRNS2_14IUpdateHandlerEE_@GOTPCREL(%rip), %rax
	movq	%rax, (%rdi)
	addq	$8, %rsp
	.cfi_remember_state
	.cfi_def_cfa_offset 24
	xorl	%eax, %eax
	popq	%rbx
	.cfi_def_cfa_offset 16
	popq	%rbp
	.cfi_def_cfa_offset 8
	ret
	.p2align 4,,10
	.p2align 3
.L48:
	.cfi_restore_state
	movq	(%rsi), %rax
	movq	%rax, (%rdi)
	addq	$8, %rsp
	.cfi_remember_state
	.cfi_def_cfa_offset 24
	xorl	%eax, %eax
	popq	%rbx
	.cfi_def_cfa_offset 16
	popq	%rbp
	.cfi_def_cfa_offset 8
	ret
	.p2align 4,,10
	.p2align 3
.L51:
	.cfi_restore_state
	movq	(%rsi), %rbp
	movl	$32, %edi
	call	_Znwm@PLT
	movdqu	0(%rbp), %xmm0
	movups	%xmm0, (%rax)
	movdqu	16(%rbp), %xmm1
	movups	%xmm1, 16(%rax)
	movq	%rax, (%rbx)
	jmp	.L50
	.cfi_endproc
.LFE2252:
	.size	_ZNSt17_Function_handlerIFvRN8opendnp314IUpdateHandlerEEZN8asiodnp313UpdateBuilder7AddMeasINS0_18BinaryOutputStatusEEERS5_RKT_tNS0_9EventModeEEUlS2_E_E10_M_managerERSt9_Any_dataRKSF_St18_Manager_operation, .-_ZNSt17_Function_handlerIFvRN8opendnp314IUpdateHandlerEEZN8asiodnp313UpdateBuilder7AddMeasINS0_18BinaryOutputStatusEEERS5_RKT_tNS0_9EventModeEEUlS2_E_E10_M_managerERSt9_Any_dataRKSF_St18_Manager_operation
	.section	.text._ZNSt17_Function_handlerIFvRN8opendnp314IUpdateHandlerEEZN8asiodnp313UpdateBuilder7AddMeasINS0_13FrozenCounterEEERS5_RKT_tNS0_9EventModeEEUlS2_E_E10_M_managerERSt9_Any_dataRKSF_St18_Manager_operation,"axG",@progbits,_ZNSt17_Function_handlerIFvRN8opendnp314IUpdateHandlerEEZN8asiodnp313UpdateBuilder7AddMeasINS0_13FrozenCounterEEERS5_RKT_tNS0_9EventModeEEUlS2_E_E10_M_managerERSt9_Any_dataRKSF_St18_Manager_operation,comdat
	.p2align 4
	.weak	_ZNSt17_Function_handlerIFvRN8opendnp314IUpdateHandlerEEZN8asiodnp313UpdateBuilder7AddMeasINS0_13FrozenCounterEEERS5_RKT_tNS0_9EventModeEEUlS2_E_E10_M_managerERSt9_Any_dataRKSF_St18_Manager_operation
	.type	_ZNSt17_Function_handlerIFvRN8opendnp314IUpdateHandlerEEZN8asiodnp313UpdateBuilder7AddMeasINS0_13FrozenCounterEEERS5_RKT_tNS0_9EventModeEEUlS2_E_E10_M_managerERSt9_Any_dataRKSF_St18_Manager_operation, @function
_ZNSt17_Function_handlerIFvRN8opendnp314IUpdateHandlerEEZN8asiodnp313UpdateBuilder7AddMeasINS0_13FrozenCounterEEERS5_RKT_tNS0_9EventModeEEUlS2_E_E10_M_managerERSt9_Any_dataRKSF_St18_Manager_operation:
.LFB2248:
	.cfi_startproc
	pushq	%rbp
	.cfi_def_cfa_offset 16
	.cfi_offset 6, -16
	pushq	%rbx
	.cfi_def_cfa_offset 24
	.cfi_offset 3, -24
	movq	%rdi, %rbx
	subq	$8, %rsp
	.cfi_def_cfa_offset 32
	testl	%edx, %edx
	je	.L59
	cmpl	$1, %edx
	je	.L60
	cmpl	$2, %edx
	je	.L63
	cmpl	$3, %edx
	jne	.L62
	movq	(%rdi), %rdi
	testq	%rdi, %rdi
	je	.L62
	movl	$32, %esi
	call	_ZdlPvm@PLT
.L62:
	addq	$8, %rsp
	.cfi_remember_state
	.cfi_def_cfa_offset 24
	xorl	%eax, %eax
	popq	%rbx
	.cfi_def_cfa_offset 16
	popq	%rbp
	.cfi_def_cfa_offset 8
	ret
	.p2align 4,,10
	.p2align 3
.L59:
	.cfi_restore_state
	movq	_ZTIZN8asiodnp313UpdateBuilder7AddMeasIN8opendnp313FrozenCounterEEERS0_RKT_tNS2_9EventModeEEUlRNS2_14IUpdateHandlerEE_@GOTPCREL(%rip), %rax
	movq	%rax, (%rdi)
	addq	$8, %rsp
	.cfi_remember_state
	.cfi_def_cfa_offset 24
	xorl	%eax, %eax
	popq	%rbx
	.cfi_def_cfa_offset 16
	popq	%rbp
	.cfi_def_cfa_offset 8
	ret
	.p2align 4,,10
	.p2align 3
.L60:
	.cfi_restore_state
	movq	(%rsi), %rax
	movq	%rax, (%rdi)
	addq	$8, %rsp
	.cfi_remember_state
	.cfi_def_cfa_offset 24
	xorl	%eax, %eax
	popq	%rbx
	.cfi_def_cfa_offset 16
	popq	%rbp
	.cfi_def_cfa_offset 8
	ret
	.p2align 4,,10
	.p2align 3
.L63:
	.cfi_restore_state
	movq	(%rsi), %rbp
	movl	$32, %edi
	call	_Znwm@PLT
	movdqu	0(%rbp), %xmm0
	movups	%xmm0, (%rax)
	movdqu	16(%rbp), %xmm1
	movups	%xmm1, 16(%rax)
	movq	%rax, (%rbx)
	jmp	.L62
	.cfi_endproc
.LFE2248:
	.size	_ZNSt17_Function_handlerIFvRN8opendnp314IUpdateHandlerEEZN8asiodnp313UpdateBuilder7AddMeasINS0_13FrozenCounterEEERS5_RKT_tNS0_9EventModeEEUlS2_E_E10_M_managerERSt9_Any_dataRKSF_St18_Manager_operation, .-_ZNSt17_Function_handlerIFvRN8opendnp314IUpdateHandlerEEZN8asiodnp313UpdateBuilder7AddMeasINS0_13FrozenCounterEEERS5_RKT_tNS0_9EventModeEEUlS2_E_E10_M_managerERSt9_Any_dataRKSF_St18_Manager_operation
	.section	.text._ZNSt17_Function_handlerIFvRN8opendnp314IUpdateHandlerEEZN8asiodnp313UpdateBuilder7AddMeasINS0_7CounterEEERS5_RKT_tNS0_9EventModeEEUlS2_E_E10_M_managerERSt9_Any_dataRKSF_St18_Manager_operation,"axG",@progbits,_ZNSt17_Function_handlerIFvRN8opendnp314IUpdateHandlerEEZN8asiodnp313UpdateBuilder7AddMeasINS0_7CounterEEERS5_RKT_tNS0_9EventModeEEUlS2_E_E10_M_managerERSt9_Any_dataRKSF_St18_Manager_operation,comdat
	.p2align 4
	.weak	_ZNSt17_Function_handlerIFvRN8opendnp314IUpdateHandlerEEZN8asiodnp313UpdateBuilder7AddMeasINS0_7CounterEEERS5_RKT_tNS0_9EventModeEEUlS2_E_E10_M_managerERSt9_Any_dataRKSF_St18_Manager_operation
	.type	_ZNSt17_Function_handlerIFvRN8opendnp314IUpdateHandlerEEZN8asiodnp313UpdateBuilder7AddMeasINS0_7CounterEEERS5_RKT_tNS0_9EventModeEEUlS2_E_E10_M_managerERSt9_Any_dataRKSF_St18_Manager_operation, @function
_ZNSt17_Function_handlerIFvRN8opendnp314IUpdateHandlerEEZN8asiodnp313UpdateBuilder7AddMeasINS0_7CounterEEERS5_RKT_tNS0_9EventModeEEUlS2_E_E10_M_managerERSt9_Any_dataRKSF_St18_Manager_operation:
.LFB2244:
	.cfi_startproc
	pushq	%rbp
	.cfi_def_cfa_offset 16
	.cfi_offset 6, -16
	pushq	%rbx
	.cfi_def_cfa_offset 24
	.cfi_offset 3, -24
	movq	%rdi, %rbx
	subq	$8, %rsp
	.cfi_def_cfa_offset 32
	testl	%edx, %edx
	je	.L71
	cmpl	$1, %edx
	je	.L72
	cmpl	$2, %edx
	je	.L75
	cmpl	$3, %edx
	jne	.L74
	movq	(%rdi), %rdi
	testq	%rdi, %rdi
	je	.L74
	movl	$32, %esi
	call	_ZdlPvm@PLT
.L74:
	addq	$8, %rsp
	.cfi_remember_state
	.cfi_def_cfa_offset 24
	xorl	%eax, %eax
	popq	%rbx
	.cfi_def_cfa_offset 16
	popq	%rbp
	.cfi_def_cfa_offset 8
	ret
	.p2align 4,,10
	.p2align 3
.L71:
	.cfi_restore_state
	movq	_ZTIZN8asiodnp313UpdateBuilder7AddMeasIN8opendnp37CounterEEERS0_RKT_tNS2_9EventModeEEUlRNS2_14IUpdateHandlerEE_@GOTPCREL(%rip), %rax
	movq	%rax, (%rdi)
	addq	$8, %rsp
	.cfi_remember_state
	.cfi_def_cfa_offset 24
	xorl	%eax, %eax
	popq	%rbx
	.cfi_def_cfa_offset 16
	popq	%rbp
	.cfi_def_cfa_offset 8
	ret
	.p2align 4,,10
	.p2align 3
.L72:
	.cfi_restore_state
	movq	(%rsi), %rax
	movq	%rax, (%rdi)
	addq	$8, %rsp
	.cfi_remember_state
	.cfi_def_cfa_offset 24
	xorl	%eax, %eax
	popq	%rbx
	.cfi_def_cfa_offset 16
	popq	%rbp
	.cfi_def_cfa_offset 8
	ret
	.p2align 4,,10
	.p2align 3
.L75:
	.cfi_restore_state
	movq	(%rsi), %rbp
	movl	$32, %edi
	call	_Znwm@PLT
	movdqu	0(%rbp), %xmm0
	movups	%xmm0, (%rax)
	movdqu	16(%rbp), %xmm1
	movups	%xmm1, 16(%rax)
	movq	%rax, (%rbx)
	jmp	.L74
	.cfi_endproc
.LFE2244:
	.size	_ZNSt17_Function_handlerIFvRN8opendnp314IUpdateHandlerEEZN8asiodnp313UpdateBuilder7AddMeasINS0_7CounterEEERS5_RKT_tNS0_9EventModeEEUlS2_E_E10_M_managerERSt9_Any_dataRKSF_St18_Manager_operation, .-_ZNSt17_Function_handlerIFvRN8opendnp314IUpdateHandlerEEZN8asiodnp313UpdateBuilder7AddMeasINS0_7CounterEEERS5_RKT_tNS0_9EventModeEEUlS2_E_E10_M_managerERSt9_Any_dataRKSF_St18_Manager_operation
	.section	.text._ZNSt17_Function_handlerIFvRN8opendnp314IUpdateHandlerEEZN8asiodnp313UpdateBuilder7AddMeasINS0_6AnalogEEERS5_RKT_tNS0_9EventModeEEUlS2_E_E10_M_managerERSt9_Any_dataRKSF_St18_Manager_operation,"axG",@progbits,_ZNSt17_Function_handlerIFvRN8opendnp314IUpdateHandlerEEZN8asiodnp313UpdateBuilder7AddMeasINS0_6AnalogEEERS5_RKT_tNS0_9EventModeEEUlS2_E_E10_M_managerERSt9_Any_dataRKSF_St18_Manager_operation,comdat
	.p2align 4
	.weak	_ZNSt17_Function_handlerIFvRN8opendnp314IUpdateHandlerEEZN8asiodnp313UpdateBuilder7AddMeasINS0_6AnalogEEERS5_RKT_tNS0_9EventModeEEUlS2_E_E10_M_managerERSt9_Any_dataRKSF_St18_Manager_operation
	.type	_ZNSt17_Function_handlerIFvRN8opendnp314IUpdateHandlerEEZN8asiodnp313UpdateBuilder7AddMeasINS0_6AnalogEEERS5_RKT_tNS0_9EventModeEEUlS2_E_E10_M_managerERSt9_Any_dataRKSF_St18_Manager_operation, @function
_ZNSt17_Function_handlerIFvRN8opendnp314IUpdateHandlerEEZN8asiodnp313UpdateBuilder7AddMeasINS0_6AnalogEEERS5_RKT_tNS0_9EventModeEEUlS2_E_E10_M_managerERSt9_Any_dataRKSF_St18_Manager_operation:
.LFB2240:
	.cfi_startproc
	pushq	%rbp
	.cfi_def_cfa_offset 16
	.cfi_offset 6, -16
	pushq	%rbx
	.cfi_def_cfa_offset 24
	.cfi_offset 3, -24
	movq	%rdi, %rbx
	subq	$8, %rsp
	.cfi_def_cfa_offset 32
	testl	%edx, %edx
	je	.L83
	cmpl	$1, %edx
	je	.L84
	cmpl	$2, %edx
	je	.L87
	cmpl	$3, %edx
	jne	.L86
	movq	(%rdi), %rdi
	testq	%rdi, %rdi
	je	.L86
	movl	$32, %esi
	call	_ZdlPvm@PLT
.L86:
	addq	$8, %rsp
	.cfi_remember_state
	.cfi_def_cfa_offset 24
	xorl	%eax, %eax
	popq	%rbx
	.cfi_def_cfa_offset 16
	popq	%rbp
	.cfi_def_cfa_offset 8
	ret
	.p2align 4,,10
	.p2align 3
.L83:
	.cfi_restore_state
	movq	_ZTIZN8asiodnp313UpdateBuilder7AddMeasIN8opendnp36AnalogEEERS0_RKT_tNS2_9EventModeEEUlRNS2_14IUpdateHandlerEE_@GOTPCREL(%rip), %rax
	movq	%rax, (%rdi)
	addq	$8, %rsp
	.cfi_remember_state
	.cfi_def_cfa_offset 24
	xorl	%eax, %eax
	popq	%rbx
	.cfi_def_cfa_offset 16
	popq	%rbp
	.cfi_def_cfa_offset 8
	ret
	.p2align 4,,10
	.p2align 3
.L84:
	.cfi_restore_state
	movq	(%rsi), %rax
	movq	%rax, (%rdi)
	addq	$8, %rsp
	.cfi_remember_state
	.cfi_def_cfa_offset 24
	xorl	%eax, %eax
	popq	%rbx
	.cfi_def_cfa_offset 16
	popq	%rbp
	.cfi_def_cfa_offset 8
	ret
	.p2align 4,,10
	.p2align 3
.L87:
	.cfi_restore_state
	movq	(%rsi), %rbp
	movl	$32, %edi
	call	_Znwm@PLT
	movdqu	0(%rbp), %xmm0
	movups	%xmm0, (%rax)
	movdqu	16(%rbp), %xmm1
	movups	%xmm1, 16(%rax)
	movq	%rax, (%rbx)
	jmp	.L86
	.cfi_endproc
.LFE2240:
	.size	_ZNSt17_Function_handlerIFvRN8opendnp314IUpdateHandlerEEZN8asiodnp313UpdateBuilder7AddMeasINS0_6AnalogEEERS5_RKT_tNS0_9EventModeEEUlS2_E_E10_M_managerERSt9_Any_dataRKSF_St18_Manager_operation, .-_ZNSt17_Function_handlerIFvRN8opendnp314IUpdateHandlerEEZN8asiodnp313UpdateBuilder7AddMeasINS0_6AnalogEEERS5_RKT_tNS0_9EventModeEEUlS2_E_E10_M_managerERSt9_Any_dataRKSF_St18_Manager_operation
	.section	.text._ZNSt17_Function_handlerIFvRN8opendnp314IUpdateHandlerEEZN8asiodnp313UpdateBuilder7AddMeasINS0_15DoubleBitBinaryEEERS5_RKT_tNS0_9EventModeEEUlS2_E_E10_M_managerERSt9_Any_dataRKSF_St18_Manager_operation,"axG",@progbits,_ZNSt17_Function_handlerIFvRN8opendnp314IUpdateHandlerEEZN8asiodnp313UpdateBuilder7AddMeasINS0_15DoubleBitBinaryEEERS5_RKT_tNS0_9EventModeEEUlS2_E_E10_M_managerERSt9_Any_dataRKSF_St18_Manager_operation,comdat
	.p2align 4
	.weak	_ZNSt17_Function_handlerIFvRN8opendnp314IUpdateHandlerEEZN8asiodnp313UpdateBuilder7AddMeasINS0_15DoubleBitBinaryEEERS5_RKT_tNS0_9EventModeEEUlS2_E_E10_M_managerERSt9_Any_dataRKSF_St18_Manager_operation
	.type	_ZNSt17_Function_handlerIFvRN8opendnp314IUpdateHandlerEEZN8asiodnp313UpdateBuilder7AddMeasINS0_15DoubleBitBinaryEEERS5_RKT_tNS0_9EventModeEEUlS2_E_E10_M_managerERSt9_Any_dataRKSF_St18_Manager_operation, @function
_ZNSt17_Function_handlerIFvRN8opendnp314IUpdateHandlerEEZN8asiodnp313UpdateBuilder7AddMeasINS0_15DoubleBitBinaryEEERS5_RKT_tNS0_9EventModeEEUlS2_E_E10_M_managerERSt9_Any_dataRKSF_St18_Manager_operation:
.LFB2236:
	.cfi_startproc
	pushq	%rbp
	.cfi_def_cfa_offset 16
	.cfi_offset 6, -16
	pushq	%rbx
	.cfi_def_cfa_offset 24
	.cfi_offset 3, -24
	movq	%rdi, %rbx
	subq	$8, %rsp
	.cfi_def_cfa_offset 32
	testl	%edx, %edx
	je	.L95
	cmpl	$1, %edx
	je	.L96
	cmpl	$2, %edx
	je	.L99
	cmpl	$3, %edx
	jne	.L98
	movq	(%rdi), %rdi
	testq	%rdi, %rdi
	je	.L98
	movl	$32, %esi
	call	_ZdlPvm@PLT
.L98:
	addq	$8, %rsp
	.cfi_remember_state
	.cfi_def_cfa_offset 24
	xorl	%eax, %eax
	popq	%rbx
	.cfi_def_cfa_offset 16
	popq	%rbp
	.cfi_def_cfa_offset 8
	ret
	.p2align 4,,10
	.p2align 3
.L95:
	.cfi_restore_state
	movq	_ZTIZN8asiodnp313UpdateBuilder7AddMeasIN8opendnp315DoubleBitBinaryEEERS0_RKT_tNS2_9EventModeEEUlRNS2_14IUpdateHandlerEE_@GOTPCREL(%rip), %rax
	movq	%rax, (%rdi)
	addq	$8, %rsp
	.cfi_remember_state
	.cfi_def_cfa_offset 24
	xorl	%eax, %eax
	popq	%rbx
	.cfi_def_cfa_offset 16
	popq	%rbp
	.cfi_def_cfa_offset 8
	ret
	.p2align 4,,10
	.p2align 3
.L96:
	.cfi_restore_state
	movq	(%rsi), %rax
	movq	%rax, (%rdi)
	addq	$8, %rsp
	.cfi_remember_state
	.cfi_def_cfa_offset 24
	xorl	%eax, %eax
	popq	%rbx
	.cfi_def_cfa_offset 16
	popq	%rbp
	.cfi_def_cfa_offset 8
	ret
	.p2align 4,,10
	.p2align 3
.L99:
	.cfi_restore_state
	movq	(%rsi), %rbp
	movl	$32, %edi
	call	_Znwm@PLT
	movdqu	0(%rbp), %xmm0
	movups	%xmm0, (%rax)
	movdqu	16(%rbp), %xmm1
	movups	%xmm1, 16(%rax)
	movq	%rax, (%rbx)
	jmp	.L98
	.cfi_endproc
.LFE2236:
	.size	_ZNSt17_Function_handlerIFvRN8opendnp314IUpdateHandlerEEZN8asiodnp313UpdateBuilder7AddMeasINS0_15DoubleBitBinaryEEERS5_RKT_tNS0_9EventModeEEUlS2_E_E10_M_managerERSt9_Any_dataRKSF_St18_Manager_operation, .-_ZNSt17_Function_handlerIFvRN8opendnp314IUpdateHandlerEEZN8asiodnp313UpdateBuilder7AddMeasINS0_15DoubleBitBinaryEEERS5_RKT_tNS0_9EventModeEEUlS2_E_E10_M_managerERSt9_Any_dataRKSF_St18_Manager_operation
	.section	.text._ZNSt17_Function_handlerIFvRN8opendnp314IUpdateHandlerEEZN8asiodnp313UpdateBuilder7AddMeasINS0_6BinaryEEERS5_RKT_tNS0_9EventModeEEUlS2_E_E10_M_managerERSt9_Any_dataRKSF_St18_Manager_operation,"axG",@progbits,_ZNSt17_Function_handlerIFvRN8opendnp314IUpdateHandlerEEZN8asiodnp313UpdateBuilder7AddMeasINS0_6BinaryEEERS5_RKT_tNS0_9EventModeEEUlS2_E_E10_M_managerERSt9_Any_dataRKSF_St18_Manager_operation,comdat
	.p2align 4
	.weak	_ZNSt17_Function_handlerIFvRN8opendnp314IUpdateHandlerEEZN8asiodnp313UpdateBuilder7AddMeasINS0_6BinaryEEERS5_RKT_tNS0_9EventModeEEUlS2_E_E10_M_managerERSt9_Any_dataRKSF_St18_Manager_operation
	.type	_ZNSt17_Function_handlerIFvRN8opendnp314IUpdateHandlerEEZN8asiodnp313UpdateBuilder7AddMeasINS0_6BinaryEEERS5_RKT_tNS0_9EventModeEEUlS2_E_E10_M_managerERSt9_Any_dataRKSF_St18_Manager_operation, @function
_ZNSt17_Function_handlerIFvRN8opendnp314IUpdateHandlerEEZN8asiodnp313UpdateBuilder7AddMeasINS0_6BinaryEEERS5_RKT_tNS0_9EventModeEEUlS2_E_E10_M_managerERSt9_Any_dataRKSF_St18_Manager_operation:
.LFB2232:
	.cfi_startproc
	pushq	%rbp
	.cfi_def_cfa_offset 16
	.cfi_offset 6, -16
	pushq	%rbx
	.cfi_def_cfa_offset 24
	.cfi_offset 3, -24
	movq	%rdi, %rbx
	subq	$8, %rsp
	.cfi_def_cfa_offset 32
	testl	%edx, %edx
	je	.L107
	cmpl	$1, %edx
	je	.L108
	cmpl	$2, %edx
	je	.L111
	cmpl	$3, %edx
	jne	.L110
	movq	(%rdi), %rdi
	testq	%rdi, %rdi
	je	.L110
	movl	$32, %esi
	call	_ZdlPvm@PLT
.L110:
	addq	$8, %rsp
	.cfi_remember_state
	.cfi_def_cfa_offset 24
	xorl	%eax, %eax
	popq	%rbx
	.cfi_def_cfa_offset 16
	popq	%rbp
	.cfi_def_cfa_offset 8
	ret
	.p2align 4,,10
	.p2align 3
.L107:
	.cfi_restore_state
	movq	_ZTIZN8asiodnp313UpdateBuilder7AddMeasIN8opendnp36BinaryEEERS0_RKT_tNS2_9EventModeEEUlRNS2_14IUpdateHandlerEE_@GOTPCREL(%rip), %rax
	movq	%rax, (%rdi)
	addq	$8, %rsp
	.cfi_remember_state
	.cfi_def_cfa_offset 24
	xorl	%eax, %eax
	popq	%rbx
	.cfi_def_cfa_offset 16
	popq	%rbp
	.cfi_def_cfa_offset 8
	ret
	.p2align 4,,10
	.p2align 3
.L108:
	.cfi_restore_state
	movq	(%rsi), %rax
	movq	%rax, (%rdi)
	addq	$8, %rsp
	.cfi_remember_state
	.cfi_def_cfa_offset 24
	xorl	%eax, %eax
	popq	%rbx
	.cfi_def_cfa_offset 16
	popq	%rbp
	.cfi_def_cfa_offset 8
	ret
	.p2align 4,,10
	.p2align 3
.L111:
	.cfi_restore_state
	movq	(%rsi), %rbp
	movl	$32, %edi
	call	_Znwm@PLT
	movdqu	0(%rbp), %xmm0
	movups	%xmm0, (%rax)
	movdqu	16(%rbp), %xmm1
	movups	%xmm1, 16(%rax)
	movq	%rax, (%rbx)
	jmp	.L110
	.cfi_endproc
.LFE2232:
	.size	_ZNSt17_Function_handlerIFvRN8opendnp314IUpdateHandlerEEZN8asiodnp313UpdateBuilder7AddMeasINS0_6BinaryEEERS5_RKT_tNS0_9EventModeEEUlS2_E_E10_M_managerERSt9_Any_dataRKSF_St18_Manager_operation, .-_ZNSt17_Function_handlerIFvRN8opendnp314IUpdateHandlerEEZN8asiodnp313UpdateBuilder7AddMeasINS0_6BinaryEEERS5_RKT_tNS0_9EventModeEEUlS2_E_E10_M_managerERSt9_Any_dataRKSF_St18_Manager_operation
	.text
	.p2align 4
	.type	_ZNSt17_Function_handlerIFvRN8opendnp314IUpdateHandlerEEZN8asiodnp313UpdateBuilder6UpdateERKNS0_15TimeAndIntervalEtEUlS2_E_E10_M_managerERSt9_Any_dataRKSB_St18_Manager_operation, @function
_ZNSt17_Function_handlerIFvRN8opendnp314IUpdateHandlerEEZN8asiodnp313UpdateBuilder6UpdateERKNS0_15TimeAndIntervalEtEUlS2_E_E10_M_managerERSt9_Any_dataRKSB_St18_Manager_operation:
.LFB2198:
	.cfi_startproc
	pushq	%rbp
	.cfi_def_cfa_offset 16
	.cfi_offset 6, -16
	pushq	%rbx
	.cfi_def_cfa_offset 24
	.cfi_offset 3, -24
	movq	%rdi, %rbx
	subq	$8, %rsp
	.cfi_def_cfa_offset 32
	testl	%edx, %edx
	je	.L119
	cmpl	$1, %edx
	je	.L120
	cmpl	$2, %edx
	je	.L123
	cmpl	$3, %edx
	jne	.L122
	movq	(%rdi), %rdi
	testq	%rdi, %rdi
	je	.L122
	movl	$24, %esi
	call	_ZdlPvm@PLT
.L122:
	addq	$8, %rsp
	.cfi_remember_state
	.cfi_def_cfa_offset 24
	xorl	%eax, %eax
	popq	%rbx
	.cfi_def_cfa_offset 16
	popq	%rbp
	.cfi_def_cfa_offset 8
	ret
	.p2align 4,,10
	.p2align 3
.L119:
	.cfi_restore_state
	leaq	_ZTIZN8asiodnp313UpdateBuilder6UpdateERKN8opendnp315TimeAndIntervalEtEUlRNS1_14IUpdateHandlerEE_(%rip), %rax
	movq	%rax, (%rdi)
	addq	$8, %rsp
	.cfi_remember_state
	.cfi_def_cfa_offset 24
	xorl	%eax, %eax
	popq	%rbx
	.cfi_def_cfa_offset 16
	popq	%rbp
	.cfi_def_cfa_offset 8
	ret
	.p2align 4,,10
	.p2align 3
.L120:
	.cfi_restore_state
	movq	(%rsi), %rax
	movq	%rax, (%rdi)
	addq	$8, %rsp
	.cfi_remember_state
	.cfi_def_cfa_offset 24
	xorl	%eax, %eax
	popq	%rbx
	.cfi_def_cfa_offset 16
	popq	%rbp
	.cfi_def_cfa_offset 8
	ret
	.p2align 4,,10
	.p2align 3
.L123:
	.cfi_restore_state
	movq	(%rsi), %rbp
	movl	$24, %edi
	call	_Znwm@PLT
	movdqu	0(%rbp), %xmm0
	movups	%xmm0, (%rax)
	movq	16(%rbp), %rdx
	movq	%rdx, 16(%rax)
	movq	%rax, (%rbx)
	jmp	.L122
	.cfi_endproc
.LFE2198:
	.size	_ZNSt17_Function_handlerIFvRN8opendnp314IUpdateHandlerEEZN8asiodnp313UpdateBuilder6UpdateERKNS0_15TimeAndIntervalEtEUlS2_E_E10_M_managerERSt9_Any_dataRKSB_St18_Manager_operation, .-_ZNSt17_Function_handlerIFvRN8opendnp314IUpdateHandlerEEZN8asiodnp313UpdateBuilder6UpdateERKNS0_15TimeAndIntervalEtEUlS2_E_E10_M_managerERSt9_Any_dataRKSB_St18_Manager_operation
	.align 2
	.p2align 4
	.globl	_ZNK8asiodnp313UpdateBuilder5BuildEv
	.type	_ZNK8asiodnp313UpdateBuilder5BuildEv, @function
_ZNK8asiodnp313UpdateBuilder5BuildEv:
.LFB2058:
	.cfi_startproc
	movq	(%rsi), %rdx
	movq	%rdi, %rax
	movq	%rdx, (%rdi)
	movq	8(%rsi), %rdx
	movq	%rdx, 8(%rdi)
	testq	%rdx, %rdx
	je	.L130
	cmpq	$0, _ZL28__gthrw___pthread_key_createPjPFvPvE@GOTPCREL(%rip)
	jne	.L136
	addl	$1, 8(%rdx)
.L130:
	ret
	.p2align 4,,10
	.p2align 3
.L136:
	lock addl	$1, 8(%rdx)
	ret
	.cfi_endproc
.LFE2058:
	.size	_ZNK8asiodnp313UpdateBuilder5BuildEv, .-_ZNK8asiodnp313UpdateBuilder5BuildEv
	.section	.rodata._ZNSt6vectorISt8functionIFvRN8opendnp314IUpdateHandlerEEESaIS5_EE17_M_realloc_insertIJRKS5_EEEvN9__gnu_cxx17__normal_iteratorIPS5_S7_EEDpOT_.str1.1,"aMS",@progbits,1
.LC0:
	.string	"vector::_M_realloc_insert"
	.section	.text._ZNSt6vectorISt8functionIFvRN8opendnp314IUpdateHandlerEEESaIS5_EE17_M_realloc_insertIJRKS5_EEEvN9__gnu_cxx17__normal_iteratorIPS5_S7_EEDpOT_,"axG",@progbits,_ZNSt6vectorISt8functionIFvRN8opendnp314IUpdateHandlerEEESaIS5_EE17_M_realloc_insertIJRKS5_EEEvN9__gnu_cxx17__normal_iteratorIPS5_S7_EEDpOT_,comdat
	.align 2
	.p2align 4
	.weak	_ZNSt6vectorISt8functionIFvRN8opendnp314IUpdateHandlerEEESaIS5_EE17_M_realloc_insertIJRKS5_EEEvN9__gnu_cxx17__normal_iteratorIPS5_S7_EEDpOT_
	.type	_ZNSt6vectorISt8functionIFvRN8opendnp314IUpdateHandlerEEESaIS5_EE17_M_realloc_insertIJRKS5_EEEvN9__gnu_cxx17__normal_iteratorIPS5_S7_EEDpOT_, @function
_ZNSt6vectorISt8functionIFvRN8opendnp314IUpdateHandlerEEESaIS5_EE17_M_realloc_insertIJRKS5_EEEvN9__gnu_cxx17__normal_iteratorIPS5_S7_EEDpOT_:
.LFB2217:
	.cfi_startproc
	.cfi_personality 0x9b,DW.ref.__gxx_personality_v0
	.cfi_lsda 0x1b,.LLSDA2217
	pushq	%r15
	.cfi_def_cfa_offset 16
	.cfi_offset 15, -16
	pushq	%r14
	.cfi_def_cfa_offset 24
	.cfi_offset 14, -24
	pushq	%r13
	.cfi_def_cfa_offset 32
	.cfi_offset 13, -32
	movq	%rsi, %r13
	pushq	%r12
	.cfi_def_cfa_offset 40
	.cfi_offset 12, -40
	pushq	%rbp
	.cfi_def_cfa_offset 48
	.cfi_offset 6, -48
	pushq	%rbx
	.cfi_def_cfa_offset 56
	.cfi_offset 3, -56
	movq	%rsi, %rbx
	movabsq	$288230376151711743, %rsi
	subq	$40, %rsp
	.cfi_def_cfa_offset 96
	movq	8(%rdi), %rbp
	movq	(%rdi), %r14
	movq	%rdx, (%rsp)
	movq	%rbp, %rax
	subq	%r14, %rax
	sarq	$5, %rax
	cmpq	%rsi, %rax
	je	.L178
	movl	$1, %edx
	movq	%rax, %rcx
	testq	%rax, %rax
	movq	%rdi, %r15
	movq	%rdx, %rax
	movq	%r13, %rdx
	cmovne	%rcx, %rax
	addq	%rcx, %rax
	setc	%cl
	movq	%rax, 16(%rsp)
	subq	%r14, %rdx
	movzbl	%cl, %ecx
	testq	%rcx, %rcx
	jne	.L157
	testq	%rax, %rax
	jne	.L142
	xorl	%r12d, %r12d
.L156:
	movq	(%rsp), %rsi
	leaq	(%r12,%rdx), %rdi
	movq	%rdi, 24(%rsp)
	movq	16(%rsi), %rax
	movq	$0, 16(%rdi)
	testq	%rax, %rax
	je	.L143
	movl	$2, %edx
.LEHB0:
	call	*%rax
.LEHE0:
	movq	(%rsp), %rsi
	movq	24(%rsp), %rdi
	movdqu	16(%rsi), %xmm6
	movaps	%xmm6, (%rsp)
	movups	%xmm6, 16(%rdi)
.L143:
	cmpq	%r14, %r13
	je	.L158
	movq	%r13, %rcx
	movq	%r12, %rax
	movq	%r14, %rdx
	subq	%r14, %rcx
	addq	%r12, %rcx
	.p2align 4,,10
	.p2align 3
.L149:
	movdqu	(%rdx), %xmm1
	addq	$32, %rax
	addq	$32, %rdx
	movups	%xmm1, -32(%rax)
	movdqu	-16(%rdx), %xmm2
	movups	%xmm2, -16(%rax)
	cmpq	%rcx, %rax
	jne	.L149
.L148:
	addq	$32, %rcx
	cmpq	%rbp, %r13
	je	.L150
	movq	%rbp, %rdx
	movq	%rcx, %rax
	subq	%r13, %rdx
	.p2align 4,,10
	.p2align 3
.L151:
	movdqu	(%rbx), %xmm3
	movdqu	16(%rbx), %xmm4
	addq	$32, %rbx
	addq	$32, %rax
	movups	%xmm3, -32(%rax)
	movups	%xmm4, -16(%rax)
	cmpq	%rbp, %rbx
	jne	.L151
	addq	%rdx, %rcx
.L150:
	testq	%r14, %r14
	je	.L152
	movq	16(%r15), %rsi
	movq	%r14, %rdi
	movq	%rcx, (%rsp)
	subq	%r14, %rsi
	call	_ZdlPvm@PLT
	movq	(%rsp), %rcx
.L152:
	movq	%r12, %xmm0
	movq	%rcx, %xmm5
	addq	16(%rsp), %r12
	punpcklqdq	%xmm5, %xmm0
	movq	%r12, 16(%r15)
	movups	%xmm0, (%r15)
	addq	$40, %rsp
	.cfi_remember_state
	.cfi_def_cfa_offset 56
	popq	%rbx
	.cfi_def_cfa_offset 48
	popq	%rbp
	.cfi_def_cfa_offset 40
	popq	%r12
	.cfi_def_cfa_offset 32
	popq	%r13
	.cfi_def_cfa_offset 24
	popq	%r14
	.cfi_def_cfa_offset 16
	popq	%r15
	.cfi_def_cfa_offset 8
	ret
	.p2align 4,,10
	.p2align 3
.L142:
	.cfi_restore_state
	cmpq	%rsi, %rax
	cmovbe	%rax, %rsi
	salq	$5, %rsi
	movq	%rsi, 16(%rsp)
	movq	%rsi, %rdi
.L141:
	movq	%rdx, 24(%rsp)
.LEHB1:
	call	_Znwm@PLT
	movq	24(%rsp), %rdx
	movq	%rax, %r12
	jmp	.L156
	.p2align 4,,10
	.p2align 3
.L157:
	movabsq	$9223372036854775776, %rax
	movq	%rax, 16(%rsp)
	movq	%rax, %rdi
	jmp	.L141
	.p2align 4,,10
	.p2align 3
.L158:
	movq	%r12, %rcx
	jmp	.L148
.L178:
	leaq	.LC0(%rip), %rdi
	call	_ZSt20__throw_length_errorPKc@PLT
.LEHE1:
.L160:
	movq	%rax, %rbp
.L144:
	movq	24(%rsp), %rax
	movq	16(%rax), %rax
	testq	%rax, %rax
	je	.L145
	movq	24(%rsp), %rdi
	movl	$3, %edx
	movq	%rdi, %rsi
	call	*%rax
.L145:
	movq	%rbp, %rdi
	call	__cxa_begin_catch@PLT
	testq	%r12, %r12
	je	.L179
	movq	16(%rsp), %rsi
	movq	%r12, %rdi
	call	_ZdlPvm@PLT
.L155:
.LEHB2:
	call	__cxa_rethrow@PLT
.LEHE2:
.L179:
	movq	24(%rsp), %rax
	movq	16(%rax), %rax
	testq	%rax, %rax
	je	.L155
	movq	24(%rsp), %rdi
	movl	$3, %edx
	movq	%rdi, %rsi
	call	*%rax
	jmp	.L155
.L159:
	movq	%rax, %rbp
.L154:
	call	__cxa_end_catch@PLT
	movq	%rbp, %rdi
.LEHB3:
	call	_Unwind_Resume@PLT
.LEHE3:
	.cfi_endproc
.LFE2217:
	.section	.gcc_except_table._ZNSt6vectorISt8functionIFvRN8opendnp314IUpdateHandlerEEESaIS5_EE17_M_realloc_insertIJRKS5_EEEvN9__gnu_cxx17__normal_iteratorIPS5_S7_EEDpOT_,"aG",@progbits,_ZNSt6vectorISt8functionIFvRN8opendnp314IUpdateHandlerEEESaIS5_EE17_M_realloc_insertIJRKS5_EEEvN9__gnu_cxx17__normal_iteratorIPS5_S7_EEDpOT_,comdat
	.align 4
.LLSDA2217:
	.byte	0xff
	.byte	0x9b
	.uleb128 .LLSDATT2217-.LLSDATTD2217
.LLSDATTD2217:
	.byte	0x1
	.uleb128 .LLSDACSE2217-.LLSDACSB2217
.LLSDACSB2217:
	.uleb128 .LEHB0-.LFB2217
	.uleb128 .LEHE0-.LEHB0
	.uleb128 .L160-.LFB2217
	.uleb128 0x3
	.uleb128 .LEHB1-.LFB2217
	.uleb128 .LEHE1-.LEHB1
	.uleb128 0
	.uleb128 0
	.uleb128 .LEHB2-.LFB2217
	.uleb128 .LEHE2-.LEHB2
	.uleb128 .L159-.LFB2217
	.uleb128 0
	.uleb128 .LEHB3-.LFB2217
	.uleb128 .LEHE3-.LEHB3
	.uleb128 0
	.uleb128 0
.LLSDACSE2217:
	.byte	0x1
	.byte	0
	.byte	0
	.byte	0x7d
	.align 4
	.long	0

.LLSDATT2217:
	.section	.text._ZNSt6vectorISt8functionIFvRN8opendnp314IUpdateHandlerEEESaIS5_EE17_M_realloc_insertIJRKS5_EEEvN9__gnu_cxx17__normal_iteratorIPS5_S7_EEDpOT_,"axG",@progbits,_ZNSt6vectorISt8functionIFvRN8opendnp314IUpdateHandlerEEESaIS5_EE17_M_realloc_insertIJRKS5_EEEvN9__gnu_cxx17__normal_iteratorIPS5_S7_EEDpOT_,comdat
	.size	_ZNSt6vectorISt8functionIFvRN8opendnp314IUpdateHandlerEEESaIS5_EE17_M_realloc_insertIJRKS5_EEEvN9__gnu_cxx17__normal_iteratorIPS5_S7_EEDpOT_, .-_ZNSt6vectorISt8functionIFvRN8opendnp314IUpdateHandlerEEESaIS5_EE17_M_realloc_insertIJRKS5_EEEvN9__gnu_cxx17__normal_iteratorIPS5_S7_EEDpOT_
	.section	.text.unlikely,"ax",@progbits
	.align 2
.LCOLDB2:
	.text
.LHOTB2:
	.align 2
	.p2align 4
	.globl	_ZN8asiodnp313UpdateBuilder3AddERKSt8functionIFvRN8opendnp314IUpdateHandlerEEE
	.type	_ZN8asiodnp313UpdateBuilder3AddERKSt8functionIFvRN8opendnp314IUpdateHandlerEEE, @function
_ZN8asiodnp313UpdateBuilder3AddERKSt8functionIFvRN8opendnp314IUpdateHandlerEEE:
.LFB2081:
	.cfi_startproc
	.cfi_personality 0x9b,DW.ref.__gxx_personality_v0
	.cfi_lsda 0x1b,.LLSDA2081
	pushq	%r13
	.cfi_def_cfa_offset 16
	.cfi_offset 13, -16
	pushq	%r12
	.cfi_def_cfa_offset 24
	.cfi_offset 12, -24
	movq	%rsi, %r12
	pushq	%rbp
	.cfi_def_cfa_offset 32
	.cfi_offset 6, -32
	pushq	%rbx
	.cfi_def_cfa_offset 40
	.cfi_offset 3, -40
	subq	$8, %rsp
	.cfi_def_cfa_offset 48
	movq	(%rdi), %rbp
	testq	%rbp, %rbp
	je	.L181
.L206:
	movq	8(%rbp), %r13
	movq	16(%rbp), %rsi
.L182:
	cmpq	%r13, %rsi
	je	.L190
	movq	$0, 16(%r13)
	movq	16(%r12), %rax
	testq	%rax, %rax
	je	.L191
	movl	$2, %edx
	movq	%r12, %rsi
	movq	%r13, %rdi
.LEHB4:
	call	*%rax
.LEHE4:
	movdqu	16(%r12), %xmm1
	movups	%xmm1, 16(%r13)
.L191:
	addq	$32, 8(%rbp)
	addq	$8, %rsp
	.cfi_remember_state
	.cfi_def_cfa_offset 40
	popq	%rbx
	.cfi_def_cfa_offset 32
	popq	%rbp
	.cfi_def_cfa_offset 24
	popq	%r12
	.cfi_def_cfa_offset 16
	popq	%r13
	.cfi_def_cfa_offset 8
	ret
	.p2align 4,,10
	.p2align 3
.L190:
	.cfi_restore_state
	addq	$8, %rsp
	.cfi_remember_state
	.cfi_def_cfa_offset 40
	movq	%r12, %rdx
	movq	%rbp, %rdi
	popq	%rbx
	.cfi_def_cfa_offset 32
	popq	%rbp
	.cfi_def_cfa_offset 24
	popq	%r12
	.cfi_def_cfa_offset 16
	popq	%r13
	.cfi_def_cfa_offset 8
.LEHB5:
	jmp	_ZNSt6vectorISt8functionIFvRN8opendnp314IUpdateHandlerEEESaIS5_EE17_M_realloc_insertIJRKS5_EEEvN9__gnu_cxx17__normal_iteratorIPS5_S7_EEDpOT_@PLT
	.p2align 4,,10
	.p2align 3
.L181:
	.cfi_restore_state
	movq	%rdi, %rbx
	movl	$40, %edi
	call	_Znwm@PLT
.LEHE5:
	movq	8(%rbx), %r13
	pxor	%xmm0, %xmm0
	xorl	%esi, %esi
	movq	.LC1(%rip), %rdx
	leaq	16(%rax), %rbp
	movq	$0, 32(%rax)
	movq	%rbp, (%rbx)
	movq	%rdx, 8(%rax)
	movq	_ZTVSt23_Sp_counted_ptr_inplaceISt6vectorISt8functionIFvRN8opendnp314IUpdateHandlerEEESaIS6_EESaIS8_ELN9__gnu_cxx12_Lock_policyE2EE@GOTPCREL(%rip), %rdx
	movq	%rax, 8(%rbx)
	addq	$16, %rdx
	movups	%xmm0, 16(%rax)
	movq	%rdx, (%rax)
	testq	%r13, %r13
	je	.L182
	movq	_ZL28__gthrw___pthread_key_createPjPFvPvE@GOTPCREL(%rip), %rbp
	testq	%rbp, %rbp
	jne	.L208
	movl	8(%r13), %eax
	leal	-1(%rax), %edx
	movl	%edx, 8(%r13)
.L185:
	cmpl	$1, %eax
	je	.L186
.L207:
	movq	(%rbx), %rbp
	jmp	.L206
	.p2align 4,,10
	.p2align 3
.L186:
	movq	0(%r13), %rax
	movq	%r13, %rdi
	call	*16(%rax)
	testq	%rbp, %rbp
	jne	.L209
	movl	12(%r13), %eax
	leal	-1(%rax), %edx
	movl	%edx, 12(%r13)
.L188:
	cmpl	$1, %eax
	jne	.L207
	movq	0(%r13), %rax
	movq	%r13, %rdi
	call	*24(%rax)
	jmp	.L207
	.p2align 4,,10
	.p2align 3
.L208:
	movl	$-1, %eax
	lock xaddl	%eax, 8(%r13)
	jmp	.L185
	.p2align 4,,10
	.p2align 3
.L209:
	movl	$-1, %eax
	lock xaddl	%eax, 12(%r13)
	jmp	.L188
.L196:
	movq	%rax, %rbp
	jmp	.L193
	.section	.gcc_except_table,"a",@progbits
.LLSDA2081:
	.byte	0xff
	.byte	0xff
	.byte	0x1
	.uleb128 .LLSDACSE2081-.LLSDACSB2081
.LLSDACSB2081:
	.uleb128 .LEHB4-.LFB2081
	.uleb128 .LEHE4-.LEHB4
	.uleb128 .L196-.LFB2081
	.uleb128 0
	.uleb128 .LEHB5-.LFB2081
	.uleb128 .LEHE5-.LEHB5
	.uleb128 0
	.uleb128 0
.LLSDACSE2081:
	.text
	.cfi_endproc
	.section	.text.unlikely
	.cfi_startproc
	.cfi_personality 0x9b,DW.ref.__gxx_personality_v0
	.cfi_lsda 0x1b,.LLSDAC2081
	.type	_ZN8asiodnp313UpdateBuilder3AddERKSt8functionIFvRN8opendnp314IUpdateHandlerEEE.cold, @function
_ZN8asiodnp313UpdateBuilder3AddERKSt8functionIFvRN8opendnp314IUpdateHandlerEEE.cold:
.LFSB2081:
.L193:
	.cfi_def_cfa_offset 48
	.cfi_offset 3, -40
	.cfi_offset 6, -32
	.cfi_offset 12, -24
	.cfi_offset 13, -16
	movq	16(%r13), %rax
	testq	%rax, %rax
	je	.L194
	movl	$3, %edx
	movq	%r13, %rsi
	movq	%r13, %rdi
	call	*%rax
.L194:
	movq	%rbp, %rdi
.LEHB6:
	call	_Unwind_Resume@PLT
.LEHE6:
	.cfi_endproc
.LFE2081:
	.section	.gcc_except_table
.LLSDAC2081:
	.byte	0xff
	.byte	0xff
	.byte	0x1
	.uleb128 .LLSDACSEC2081-.LLSDACSBC2081
.LLSDACSBC2081:
	.uleb128 .LEHB6-.LCOLDB2
	.uleb128 .LEHE6-.LEHB6
	.uleb128 0
	.uleb128 0
.LLSDACSEC2081:
	.section	.text.unlikely
	.text
	.size	_ZN8asiodnp313UpdateBuilder3AddERKSt8functionIFvRN8opendnp314IUpdateHandlerEEE, .-_ZN8asiodnp313UpdateBuilder3AddERKSt8functionIFvRN8opendnp314IUpdateHandlerEEE
	.section	.text.unlikely
	.size	_ZN8asiodnp313UpdateBuilder3AddERKSt8functionIFvRN8opendnp314IUpdateHandlerEEE.cold, .-_ZN8asiodnp313UpdateBuilder3AddERKSt8functionIFvRN8opendnp314IUpdateHandlerEEE.cold
.LCOLDE2:
	.text
.LHOTE2:
	.section	.text.unlikely
	.align 2
.LCOLDB3:
	.text
.LHOTB3:
	.align 2
	.p2align 4
	.globl	_ZN8asiodnp313UpdateBuilder6UpdateERKN8opendnp36BinaryEtNS1_9EventModeE
	.type	_ZN8asiodnp313UpdateBuilder6UpdateERKN8opendnp36BinaryEtNS1_9EventModeE, @function
_ZN8asiodnp313UpdateBuilder6UpdateERKN8opendnp36BinaryEtNS1_9EventModeE:
.LFB2065:
	.cfi_startproc
	.cfi_personality 0x9b,DW.ref.__gxx_personality_v0
	.cfi_lsda 0x1b,.LLSDA2065
	pushq	%r15
	.cfi_def_cfa_offset 16
	.cfi_offset 15, -16
	pushq	%r14
	.cfi_def_cfa_offset 24
	.cfi_offset 14, -24
	pushq	%r13
	.cfi_def_cfa_offset 32
	.cfi_offset 13, -32
	pushq	%r12
	.cfi_def_cfa_offset 40
	.cfi_offset 12, -40
	movq	%rdi, %r12
	movl	$32, %edi
	pushq	%rbp
	.cfi_def_cfa_offset 48
	.cfi_offset 6, -48
	movl	%edx, %ebp
	pushq	%rbx
	.cfi_def_cfa_offset 56
	.cfi_offset 3, -56
	movl	%ecx, %ebx
	subq	$56, %rsp
	.cfi_def_cfa_offset 112
	movzbl	(%rsi), %r15d
	movq	8(%rsi), %r14
	movq	%fs:40, %rax
	movq	%rax, 40(%rsp)
	xorl	%eax, %eax
	movzbl	16(%rsi), %r13d
	movq	$0, 16(%rsp)
.LEHB7:
	call	_Znwm@PLT
.LEHE7:
	movq	_ZNSt17_Function_handlerIFvRN8opendnp314IUpdateHandlerEEZN8asiodnp313UpdateBuilder7AddMeasINS0_6BinaryEEERS5_RKT_tNS0_9EventModeEEUlS2_E_E10_M_managerERSt9_Any_dataRKSF_St18_Manager_operation@GOTPCREL(%rip), %xmm0
	movw	%bp, 24(%rax)
	movq	%rsp, %rbp
	movq	%r12, %rdi
	movb	%r15b, (%rax)
	movq	%rbp, %rsi
	movq	%r14, 8(%rax)
	movhps	_ZNSt17_Function_handlerIFvRN8opendnp314IUpdateHandlerEEZN8asiodnp313UpdateBuilder7AddMeasINS0_6BinaryEEERS5_RKT_tNS0_9EventModeEEUlS2_E_E9_M_invokeERKSt9_Any_dataS2_@GOTPCREL(%rip), %xmm0
	movb	%r13b, 16(%rax)
	movb	%bl, 26(%rax)
	movq	%rax, (%rsp)
	movaps	%xmm0, 16(%rsp)
.LEHB8:
	call	_ZN8asiodnp313UpdateBuilder3AddERKSt8functionIFvRN8opendnp314IUpdateHandlerEEE@PLT
.LEHE8:
	movq	16(%rsp), %rax
	testq	%rax, %rax
	je	.L214
	movl	$3, %edx
	movq	%rbp, %rsi
	movq	%rbp, %rdi
	call	*%rax
.L214:
	movq	40(%rsp), %rax
	subq	%fs:40, %rax
	jne	.L232
	addq	$56, %rsp
	.cfi_remember_state
	.cfi_def_cfa_offset 56
	movq	%r12, %rax
	popq	%rbx
	.cfi_def_cfa_offset 48
	popq	%rbp
	.cfi_def_cfa_offset 40
	popq	%r12
	.cfi_def_cfa_offset 32
	popq	%r13
	.cfi_def_cfa_offset 24
	popq	%r14
	.cfi_def_cfa_offset 16
	popq	%r15
	.cfi_def_cfa_offset 8
	ret
.L232:
	.cfi_restore_state
	call	__stack_chk_fail@PLT
.L218:
	movq	%rax, %r12
	jmp	.L215
.L219:
	movq	%rax, %rbp
	jmp	.L212
	.section	.gcc_except_table
.LLSDA2065:
	.byte	0xff
	.byte	0xff
	.byte	0x1
	.uleb128 .LLSDACSE2065-.LLSDACSB2065
.LLSDACSB2065:
	.uleb128 .LEHB7-.LFB2065
	.uleb128 .LEHE7-.LEHB7
	.uleb128 .L219-.LFB2065
	.uleb128 0
	.uleb128 .LEHB8-.LFB2065
	.uleb128 .LEHE8-.LEHB8
	.uleb128 .L218-.LFB2065
	.uleb128 0
.LLSDACSE2065:
	.text
	.cfi_endproc
	.section	.text.unlikely
	.cfi_startproc
	.cfi_personality 0x9b,DW.ref.__gxx_personality_v0
	.cfi_lsda 0x1b,.LLSDAC2065
	.type	_ZN8asiodnp313UpdateBuilder6UpdateERKN8opendnp36BinaryEtNS1_9EventModeE.cold, @function
_ZN8asiodnp313UpdateBuilder6UpdateERKN8opendnp36BinaryEtNS1_9EventModeE.cold:
.LFSB2065:
.L215:
	.cfi_def_cfa_offset 112
	.cfi_offset 3, -56
	.cfi_offset 6, -48
	.cfi_offset 12, -40
	.cfi_offset 13, -32
	.cfi_offset 14, -24
	.cfi_offset 15, -16
	movq	16(%rsp), %rax
	testq	%rax, %rax
	je	.L216
	movl	$3, %edx
	movq	%rbp, %rsi
	movq	%rbp, %rdi
	call	*%rax
.L216:
	movq	%r12, %rdi
.LEHB9:
	call	_Unwind_Resume@PLT
.LEHE9:
.L212:
	movq	16(%rsp), %rax
	testq	%rax, %rax
	je	.L213
	movq	%rsp, %rdi
	movl	$3, %edx
	movq	%rdi, %rsi
	call	*%rax
.L213:
	movq	%rbp, %rdi
.LEHB10:
	call	_Unwind_Resume@PLT
.LEHE10:
	.cfi_endproc
.LFE2065:
	.section	.gcc_except_table
.LLSDAC2065:
	.byte	0xff
	.byte	0xff
	.byte	0x1
	.uleb128 .LLSDACSEC2065-.LLSDACSBC2065
.LLSDACSBC2065:
	.uleb128 .LEHB9-.LCOLDB3
	.uleb128 .LEHE9-.LEHB9
	.uleb128 0
	.uleb128 0
	.uleb128 .LEHB10-.LCOLDB3
	.uleb128 .LEHE10-.LEHB10
	.uleb128 0
	.uleb128 0
.LLSDACSEC2065:
	.section	.text.unlikely
	.text
	.size	_ZN8asiodnp313UpdateBuilder6UpdateERKN8opendnp36BinaryEtNS1_9EventModeE, .-_ZN8asiodnp313UpdateBuilder6UpdateERKN8opendnp36BinaryEtNS1_9EventModeE
	.section	.text.unlikely
	.size	_ZN8asiodnp313UpdateBuilder6UpdateERKN8opendnp36BinaryEtNS1_9EventModeE.cold, .-_ZN8asiodnp313UpdateBuilder6UpdateERKN8opendnp36BinaryEtNS1_9EventModeE.cold
.LCOLDE3:
	.text
.LHOTE3:
	.section	.text.unlikely
	.align 2
.LCOLDB4:
	.text
.LHOTB4:
	.align 2
	.p2align 4
	.globl	_ZN8asiodnp313UpdateBuilder6UpdateERKN8opendnp315DoubleBitBinaryEtNS1_9EventModeE
	.type	_ZN8asiodnp313UpdateBuilder6UpdateERKN8opendnp315DoubleBitBinaryEtNS1_9EventModeE, @function
_ZN8asiodnp313UpdateBuilder6UpdateERKN8opendnp315DoubleBitBinaryEtNS1_9EventModeE:
.LFB2066:
	.cfi_startproc
	.cfi_personality 0x9b,DW.ref.__gxx_personality_v0
	.cfi_lsda 0x1b,.LLSDA2066
	pushq	%r15
	.cfi_def_cfa_offset 16
	.cfi_offset 15, -16
	pushq	%r14
	.cfi_def_cfa_offset 24
	.cfi_offset 14, -24
	pushq	%r13
	.cfi_def_cfa_offset 32
	.cfi_offset 13, -32
	pushq	%r12
	.cfi_def_cfa_offset 40
	.cfi_offset 12, -40
	movq	%rdi, %r12
	movl	$32, %edi
	pushq	%rbp
	.cfi_def_cfa_offset 48
	.cfi_offset 6, -48
	movl	%edx, %ebp
	pushq	%rbx
	.cfi_def_cfa_offset 56
	.cfi_offset 3, -56
	movl	%ecx, %ebx
	subq	$56, %rsp
	.cfi_def_cfa_offset 112
	movzbl	(%rsi), %r15d
	movq	8(%rsi), %r14
	movq	%fs:40, %rax
	movq	%rax, 40(%rsp)
	xorl	%eax, %eax
	movzbl	16(%rsi), %r13d
	movq	$0, 16(%rsp)
.LEHB11:
	call	_Znwm@PLT
.LEHE11:
	movq	_ZNSt17_Function_handlerIFvRN8opendnp314IUpdateHandlerEEZN8asiodnp313UpdateBuilder7AddMeasINS0_15DoubleBitBinaryEEERS5_RKT_tNS0_9EventModeEEUlS2_E_E10_M_managerERSt9_Any_dataRKSF_St18_Manager_operation@GOTPCREL(%rip), %xmm0
	movw	%bp, 24(%rax)
	movq	%rsp, %rbp
	movq	%r12, %rdi
	movb	%r15b, (%rax)
	movq	%rbp, %rsi
	movq	%r14, 8(%rax)
	movhps	_ZNSt17_Function_handlerIFvRN8opendnp314IUpdateHandlerEEZN8asiodnp313UpdateBuilder7AddMeasINS0_15DoubleBitBinaryEEERS5_RKT_tNS0_9EventModeEEUlS2_E_E9_M_invokeERKSt9_Any_dataS2_@GOTPCREL(%rip), %xmm0
	movb	%r13b, 16(%rax)
	movb	%bl, 26(%rax)
	movq	%rax, (%rsp)
	movaps	%xmm0, 16(%rsp)
.LEHB12:
	call	_ZN8asiodnp313UpdateBuilder3AddERKSt8functionIFvRN8opendnp314IUpdateHandlerEEE@PLT
.LEHE12:
	movq	16(%rsp), %rax
	testq	%rax, %rax
	je	.L237
	movl	$3, %edx
	movq	%rbp, %rsi
	movq	%rbp, %rdi
	call	*%rax
.L237:
	movq	40(%rsp), %rax
	subq	%fs:40, %rax
	jne	.L255
	addq	$56, %rsp
	.cfi_remember_state
	.cfi_def_cfa_offset 56
	movq	%r12, %rax
	popq	%rbx
	.cfi_def_cfa_offset 48
	popq	%rbp
	.cfi_def_cfa_offset 40
	popq	%r12
	.cfi_def_cfa_offset 32
	popq	%r13
	.cfi_def_cfa_offset 24
	popq	%r14
	.cfi_def_cfa_offset 16
	popq	%r15
	.cfi_def_cfa_offset 8
	ret
.L255:
	.cfi_restore_state
	call	__stack_chk_fail@PLT
.L241:
	movq	%rax, %r12
	jmp	.L238
.L242:
	movq	%rax, %rbp
	jmp	.L235
	.section	.gcc_except_table
.LLSDA2066:
	.byte	0xff
	.byte	0xff
	.byte	0x1
	.uleb128 .LLSDACSE2066-.LLSDACSB2066
.LLSDACSB2066:
	.uleb128 .LEHB11-.LFB2066
	.uleb128 .LEHE11-.LEHB11
	.uleb128 .L242-.LFB2066
	.uleb128 0
	.uleb128 .LEHB12-.LFB2066
	.uleb128 .LEHE12-.LEHB12
	.uleb128 .L241-.LFB2066
	.uleb128 0
.LLSDACSE2066:
	.text
	.cfi_endproc
	.section	.text.unlikely
	.cfi_startproc
	.cfi_personality 0x9b,DW.ref.__gxx_personality_v0
	.cfi_lsda 0x1b,.LLSDAC2066
	.type	_ZN8asiodnp313UpdateBuilder6UpdateERKN8opendnp315DoubleBitBinaryEtNS1_9EventModeE.cold, @function
_ZN8asiodnp313UpdateBuilder6UpdateERKN8opendnp315DoubleBitBinaryEtNS1_9EventModeE.cold:
.LFSB2066:
.L238:
	.cfi_def_cfa_offset 112
	.cfi_offset 3, -56
	.cfi_offset 6, -48
	.cfi_offset 12, -40
	.cfi_offset 13, -32
	.cfi_offset 14, -24
	.cfi_offset 15, -16
	movq	16(%rsp), %rax
	testq	%rax, %rax
	je	.L239
	movl	$3, %edx
	movq	%rbp, %rsi
	movq	%rbp, %rdi
	call	*%rax
.L239:
	movq	%r12, %rdi
.LEHB13:
	call	_Unwind_Resume@PLT
.LEHE13:
.L235:
	movq	16(%rsp), %rax
	testq	%rax, %rax
	je	.L236
	movq	%rsp, %rdi
	movl	$3, %edx
	movq	%rdi, %rsi
	call	*%rax
.L236:
	movq	%rbp, %rdi
.LEHB14:
	call	_Unwind_Resume@PLT
.LEHE14:
	.cfi_endproc
.LFE2066:
	.section	.gcc_except_table
.LLSDAC2066:
	.byte	0xff
	.byte	0xff
	.byte	0x1
	.uleb128 .LLSDACSEC2066-.LLSDACSBC2066
.LLSDACSBC2066:
	.uleb128 .LEHB13-.LCOLDB4
	.uleb128 .LEHE13-.LEHB13
	.uleb128 0
	.uleb128 0
	.uleb128 .LEHB14-.LCOLDB4
	.uleb128 .LEHE14-.LEHB14
	.uleb128 0
	.uleb128 0
.LLSDACSEC2066:
	.section	.text.unlikely
	.text
	.size	_ZN8asiodnp313UpdateBuilder6UpdateERKN8opendnp315DoubleBitBinaryEtNS1_9EventModeE, .-_ZN8asiodnp313UpdateBuilder6UpdateERKN8opendnp315DoubleBitBinaryEtNS1_9EventModeE
	.section	.text.unlikely
	.size	_ZN8asiodnp313UpdateBuilder6UpdateERKN8opendnp315DoubleBitBinaryEtNS1_9EventModeE.cold, .-_ZN8asiodnp313UpdateBuilder6UpdateERKN8opendnp315DoubleBitBinaryEtNS1_9EventModeE.cold
.LCOLDE4:
	.text
.LHOTE4:
	.section	.text.unlikely
	.align 2
.LCOLDB5:
	.text
.LHOTB5:
	.align 2
	.p2align 4
	.globl	_ZN8asiodnp313UpdateBuilder6UpdateERKN8opendnp36AnalogEtNS1_9EventModeE
	.type	_ZN8asiodnp313UpdateBuilder6UpdateERKN8opendnp36AnalogEtNS1_9EventModeE, @function
_ZN8asiodnp313UpdateBuilder6UpdateERKN8opendnp36AnalogEtNS1_9EventModeE:
.LFB2067:
	.cfi_startproc
	.cfi_personality 0x9b,DW.ref.__gxx_personality_v0
	.cfi_lsda 0x1b,.LLSDA2067
	pushq	%r14
	.cfi_def_cfa_offset 16
	.cfi_offset 14, -16
	pushq	%r13
	.cfi_def_cfa_offset 24
	.cfi_offset 13, -24
	pushq	%r12
	.cfi_def_cfa_offset 32
	.cfi_offset 12, -32
	movq	%rdi, %r12
	movl	$32, %edi
	pushq	%rbp
	.cfi_def_cfa_offset 40
	.cfi_offset 6, -40
	movl	%edx, %ebp
	pushq	%rbx
	.cfi_def_cfa_offset 48
	.cfi_offset 3, -48
	movl	%ecx, %ebx
	subq	$64, %rsp
	.cfi_def_cfa_offset 112
	movsd	16(%rsi), %xmm1
	movzbl	(%rsi), %r14d
	movq	%fs:40, %rax
	movq	%rax, 56(%rsp)
	xorl	%eax, %eax
	movq	8(%rsi), %r13
	movq	$0, 32(%rsp)
	movsd	%xmm1, 8(%rsp)
.LEHB15:
	call	_Znwm@PLT
.LEHE15:
	movw	%bp, 24(%rax)
	movsd	8(%rsp), %xmm1
	leaq	16(%rsp), %rbp
	movq	%r12, %rdi
	movq	_ZNSt17_Function_handlerIFvRN8opendnp314IUpdateHandlerEEZN8asiodnp313UpdateBuilder7AddMeasINS0_6AnalogEEERS5_RKT_tNS0_9EventModeEEUlS2_E_E10_M_managerERSt9_Any_dataRKSF_St18_Manager_operation@GOTPCREL(%rip), %xmm0
	movb	%r14b, (%rax)
	movq	%rbp, %rsi
	movq	%r13, 8(%rax)
	movb	%bl, 26(%rax)
	movhps	_ZNSt17_Function_handlerIFvRN8opendnp314IUpdateHandlerEEZN8asiodnp313UpdateBuilder7AddMeasINS0_6AnalogEEERS5_RKT_tNS0_9EventModeEEUlS2_E_E9_M_invokeERKSt9_Any_dataS2_@GOTPCREL(%rip), %xmm0
	movsd	%xmm1, 16(%rax)
	movq	%rax, 16(%rsp)
	movaps	%xmm0, 32(%rsp)
.LEHB16:
	call	_ZN8asiodnp313UpdateBuilder3AddERKSt8functionIFvRN8opendnp314IUpdateHandlerEEE@PLT
.LEHE16:
	movq	32(%rsp), %rax
	testq	%rax, %rax
	je	.L260
	movl	$3, %edx
	movq	%rbp, %rsi
	movq	%rbp, %rdi
	call	*%rax
.L260:
	movq	56(%rsp), %rax
	subq	%fs:40, %rax
	jne	.L278
	addq	$64, %rsp
	.cfi_remember_state
	.cfi_def_cfa_offset 48
	movq	%r12, %rax
	popq	%rbx
	.cfi_def_cfa_offset 40
	popq	%rbp
	.cfi_def_cfa_offset 32
	popq	%r12
	.cfi_def_cfa_offset 24
	popq	%r13
	.cfi_def_cfa_offset 16
	popq	%r14
	.cfi_def_cfa_offset 8
	ret
.L278:
	.cfi_restore_state
	call	__stack_chk_fail@PLT
.L264:
	movq	%rax, %r12
	jmp	.L261
.L265:
	movq	%rax, %rbp
	jmp	.L258
	.section	.gcc_except_table
.LLSDA2067:
	.byte	0xff
	.byte	0xff
	.byte	0x1
	.uleb128 .LLSDACSE2067-.LLSDACSB2067
.LLSDACSB2067:
	.uleb128 .LEHB15-.LFB2067
	.uleb128 .LEHE15-.LEHB15
	.uleb128 .L265-.LFB2067
	.uleb128 0
	.uleb128 .LEHB16-.LFB2067
	.uleb128 .LEHE16-.LEHB16
	.uleb128 .L264-.LFB2067
	.uleb128 0
.LLSDACSE2067:
	.text
	.cfi_endproc
	.section	.text.unlikely
	.cfi_startproc
	.cfi_personality 0x9b,DW.ref.__gxx_personality_v0
	.cfi_lsda 0x1b,.LLSDAC2067
	.type	_ZN8asiodnp313UpdateBuilder6UpdateERKN8opendnp36AnalogEtNS1_9EventModeE.cold, @function
_ZN8asiodnp313UpdateBuilder6UpdateERKN8opendnp36AnalogEtNS1_9EventModeE.cold:
.LFSB2067:
.L261:
	.cfi_def_cfa_offset 112
	.cfi_offset 3, -48
	.cfi_offset 6, -40
	.cfi_offset 12, -32
	.cfi_offset 13, -24
	.cfi_offset 14, -16
	movq	32(%rsp), %rax
	testq	%rax, %rax
	je	.L262
	movl	$3, %edx
	movq	%rbp, %rsi
	movq	%rbp, %rdi
	call	*%rax
.L262:
	movq	%r12, %rdi
.LEHB17:
	call	_Unwind_Resume@PLT
.LEHE17:
.L258:
	movq	32(%rsp), %rax
	testq	%rax, %rax
	je	.L259
	leaq	16(%rsp), %rdi
	movl	$3, %edx
	movq	%rdi, %rsi
	call	*%rax
.L259:
	movq	%rbp, %rdi
.LEHB18:
	call	_Unwind_Resume@PLT
.LEHE18:
	.cfi_endproc
.LFE2067:
	.section	.gcc_except_table
.LLSDAC2067:
	.byte	0xff
	.byte	0xff
	.byte	0x1
	.uleb128 .LLSDACSEC2067-.LLSDACSBC2067
.LLSDACSBC2067:
	.uleb128 .LEHB17-.LCOLDB5
	.uleb128 .LEHE17-.LEHB17
	.uleb128 0
	.uleb128 0
	.uleb128 .LEHB18-.LCOLDB5
	.uleb128 .LEHE18-.LEHB18
	.uleb128 0
	.uleb128 0
.LLSDACSEC2067:
	.section	.text.unlikely
	.text
	.size	_ZN8asiodnp313UpdateBuilder6UpdateERKN8opendnp36AnalogEtNS1_9EventModeE, .-_ZN8asiodnp313UpdateBuilder6UpdateERKN8opendnp36AnalogEtNS1_9EventModeE
	.section	.text.unlikely
	.size	_ZN8asiodnp313UpdateBuilder6UpdateERKN8opendnp36AnalogEtNS1_9EventModeE.cold, .-_ZN8asiodnp313UpdateBuilder6UpdateERKN8opendnp36AnalogEtNS1_9EventModeE.cold
.LCOLDE5:
	.text
.LHOTE5:
	.section	.text.unlikely
	.align 2
.LCOLDB6:
	.text
.LHOTB6:
	.align 2
	.p2align 4
	.globl	_ZN8asiodnp313UpdateBuilder6UpdateERKN8opendnp37CounterEtNS1_9EventModeE
	.type	_ZN8asiodnp313UpdateBuilder6UpdateERKN8opendnp37CounterEtNS1_9EventModeE, @function
_ZN8asiodnp313UpdateBuilder6UpdateERKN8opendnp37CounterEtNS1_9EventModeE:
.LFB2068:
	.cfi_startproc
	.cfi_personality 0x9b,DW.ref.__gxx_personality_v0
	.cfi_lsda 0x1b,.LLSDA2068
	pushq	%r15
	.cfi_def_cfa_offset 16
	.cfi_offset 15, -16
	pushq	%r14
	.cfi_def_cfa_offset 24
	.cfi_offset 14, -24
	pushq	%r13
	.cfi_def_cfa_offset 32
	.cfi_offset 13, -32
	pushq	%r12
	.cfi_def_cfa_offset 40
	.cfi_offset 12, -40
	movq	%rdi, %r12
	movl	$32, %edi
	pushq	%rbp
	.cfi_def_cfa_offset 48
	.cfi_offset 6, -48
	movl	%edx, %ebp
	pushq	%rbx
	.cfi_def_cfa_offset 56
	.cfi_offset 3, -56
	movl	%ecx, %ebx
	subq	$56, %rsp
	.cfi_def_cfa_offset 112
	movzbl	(%rsi), %r15d
	movq	8(%rsi), %r14
	movq	%fs:40, %rax
	movq	%rax, 40(%rsp)
	xorl	%eax, %eax
	movl	16(%rsi), %r13d
	movq	$0, 16(%rsp)
.LEHB19:
	call	_Znwm@PLT
.LEHE19:
	movq	_ZNSt17_Function_handlerIFvRN8opendnp314IUpdateHandlerEEZN8asiodnp313UpdateBuilder7AddMeasINS0_7CounterEEERS5_RKT_tNS0_9EventModeEEUlS2_E_E10_M_managerERSt9_Any_dataRKSF_St18_Manager_operation@GOTPCREL(%rip), %xmm0
	movw	%bp, 24(%rax)
	movq	%rsp, %rbp
	movq	%r12, %rdi
	movb	%r15b, (%rax)
	movq	%rbp, %rsi
	movq	%r14, 8(%rax)
	movhps	_ZNSt17_Function_handlerIFvRN8opendnp314IUpdateHandlerEEZN8asiodnp313UpdateBuilder7AddMeasINS0_7CounterEEERS5_RKT_tNS0_9EventModeEEUlS2_E_E9_M_invokeERKSt9_Any_dataS2_@GOTPCREL(%rip), %xmm0
	movl	%r13d, 16(%rax)
	movb	%bl, 26(%rax)
	movq	%rax, (%rsp)
	movaps	%xmm0, 16(%rsp)
.LEHB20:
	call	_ZN8asiodnp313UpdateBuilder3AddERKSt8functionIFvRN8opendnp314IUpdateHandlerEEE@PLT
.LEHE20:
	movq	16(%rsp), %rax
	testq	%rax, %rax
	je	.L283
	movl	$3, %edx
	movq	%rbp, %rsi
	movq	%rbp, %rdi
	call	*%rax
.L283:
	movq	40(%rsp), %rax
	subq	%fs:40, %rax
	jne	.L301
	addq	$56, %rsp
	.cfi_remember_state
	.cfi_def_cfa_offset 56
	movq	%r12, %rax
	popq	%rbx
	.cfi_def_cfa_offset 48
	popq	%rbp
	.cfi_def_cfa_offset 40
	popq	%r12
	.cfi_def_cfa_offset 32
	popq	%r13
	.cfi_def_cfa_offset 24
	popq	%r14
	.cfi_def_cfa_offset 16
	popq	%r15
	.cfi_def_cfa_offset 8
	ret
.L301:
	.cfi_restore_state
	call	__stack_chk_fail@PLT
.L287:
	movq	%rax, %r12
	jmp	.L284
.L288:
	movq	%rax, %rbp
	jmp	.L281
	.section	.gcc_except_table
.LLSDA2068:
	.byte	0xff
	.byte	0xff
	.byte	0x1
	.uleb128 .LLSDACSE2068-.LLSDACSB2068
.LLSDACSB2068:
	.uleb128 .LEHB19-.LFB2068
	.uleb128 .LEHE19-.LEHB19
	.uleb128 .L288-.LFB2068
	.uleb128 0
	.uleb128 .LEHB20-.LFB2068
	.uleb128 .LEHE20-.LEHB20
	.uleb128 .L287-.LFB2068
	.uleb128 0
.LLSDACSE2068:
	.text
	.cfi_endproc
	.section	.text.unlikely
	.cfi_startproc
	.cfi_personality 0x9b,DW.ref.__gxx_personality_v0
	.cfi_lsda 0x1b,.LLSDAC2068
	.type	_ZN8asiodnp313UpdateBuilder6UpdateERKN8opendnp37CounterEtNS1_9EventModeE.cold, @function
_ZN8asiodnp313UpdateBuilder6UpdateERKN8opendnp37CounterEtNS1_9EventModeE.cold:
.LFSB2068:
.L284:
	.cfi_def_cfa_offset 112
	.cfi_offset 3, -56
	.cfi_offset 6, -48
	.cfi_offset 12, -40
	.cfi_offset 13, -32
	.cfi_offset 14, -24
	.cfi_offset 15, -16
	movq	16(%rsp), %rax
	testq	%rax, %rax
	je	.L285
	movl	$3, %edx
	movq	%rbp, %rsi
	movq	%rbp, %rdi
	call	*%rax
.L285:
	movq	%r12, %rdi
.LEHB21:
	call	_Unwind_Resume@PLT
.LEHE21:
.L281:
	movq	16(%rsp), %rax
	testq	%rax, %rax
	je	.L282
	movq	%rsp, %rdi
	movl	$3, %edx
	movq	%rdi, %rsi
	call	*%rax
.L282:
	movq	%rbp, %rdi
.LEHB22:
	call	_Unwind_Resume@PLT
.LEHE22:
	.cfi_endproc
.LFE2068:
	.section	.gcc_except_table
.LLSDAC2068:
	.byte	0xff
	.byte	0xff
	.byte	0x1
	.uleb128 .LLSDACSEC2068-.LLSDACSBC2068
.LLSDACSBC2068:
	.uleb128 .LEHB21-.LCOLDB6
	.uleb128 .LEHE21-.LEHB21
	.uleb128 0
	.uleb128 0
	.uleb128 .LEHB22-.LCOLDB6
	.uleb128 .LEHE22-.LEHB22
	.uleb128 0
	.uleb128 0
.LLSDACSEC2068:
	.section	.text.unlikely
	.text
	.size	_ZN8asiodnp313UpdateBuilder6UpdateERKN8opendnp37CounterEtNS1_9EventModeE, .-_ZN8asiodnp313UpdateBuilder6UpdateERKN8opendnp37CounterEtNS1_9EventModeE
	.section	.text.unlikely
	.size	_ZN8asiodnp313UpdateBuilder6UpdateERKN8opendnp37CounterEtNS1_9EventModeE.cold, .-_ZN8asiodnp313UpdateBuilder6UpdateERKN8opendnp37CounterEtNS1_9EventModeE.cold
.LCOLDE6:
	.text
.LHOTE6:
	.section	.text.unlikely
	.align 2
.LCOLDB7:
	.text
.LHOTB7:
	.align 2
	.p2align 4
	.globl	_ZN8asiodnp313UpdateBuilder6UpdateERKN8opendnp313FrozenCounterEtNS1_9EventModeE
	.type	_ZN8asiodnp313UpdateBuilder6UpdateERKN8opendnp313FrozenCounterEtNS1_9EventModeE, @function
_ZN8asiodnp313UpdateBuilder6UpdateERKN8opendnp313FrozenCounterEtNS1_9EventModeE:
.LFB2069:
	.cfi_startproc
	.cfi_personality 0x9b,DW.ref.__gxx_personality_v0
	.cfi_lsda 0x1b,.LLSDA2069
	pushq	%r15
	.cfi_def_cfa_offset 16
	.cfi_offset 15, -16
	pushq	%r14
	.cfi_def_cfa_offset 24
	.cfi_offset 14, -24
	pushq	%r13
	.cfi_def_cfa_offset 32
	.cfi_offset 13, -32
	pushq	%r12
	.cfi_def_cfa_offset 40
	.cfi_offset 12, -40
	movq	%rdi, %r12
	movl	$32, %edi
	pushq	%rbp
	.cfi_def_cfa_offset 48
	.cfi_offset 6, -48
	movl	%edx, %ebp
	pushq	%rbx
	.cfi_def_cfa_offset 56
	.cfi_offset 3, -56
	movl	%ecx, %ebx
	subq	$56, %rsp
	.cfi_def_cfa_offset 112
	movzbl	(%rsi), %r15d
	movq	8(%rsi), %r14
	movq	%fs:40, %rax
	movq	%rax, 40(%rsp)
	xorl	%eax, %eax
	movl	16(%rsi), %r13d
	movq	$0, 16(%rsp)
.LEHB23:
	call	_Znwm@PLT
.LEHE23:
	movq	_ZNSt17_Function_handlerIFvRN8opendnp314IUpdateHandlerEEZN8asiodnp313UpdateBuilder7AddMeasINS0_13FrozenCounterEEERS5_RKT_tNS0_9EventModeEEUlS2_E_E10_M_managerERSt9_Any_dataRKSF_St18_Manager_operation@GOTPCREL(%rip), %xmm0
	movw	%bp, 24(%rax)
	movq	%rsp, %rbp
	movq	%r12, %rdi
	movb	%r15b, (%rax)
	movq	%rbp, %rsi
	movq	%r14, 8(%rax)
	movhps	_ZNSt17_Function_handlerIFvRN8opendnp314IUpdateHandlerEEZN8asiodnp313UpdateBuilder7AddMeasINS0_13FrozenCounterEEERS5_RKT_tNS0_9EventModeEEUlS2_E_E9_M_invokeERKSt9_Any_dataS2_@GOTPCREL(%rip), %xmm0
	movl	%r13d, 16(%rax)
	movb	%bl, 26(%rax)
	movq	%rax, (%rsp)
	movaps	%xmm0, 16(%rsp)
.LEHB24:
	call	_ZN8asiodnp313UpdateBuilder3AddERKSt8functionIFvRN8opendnp314IUpdateHandlerEEE@PLT
.LEHE24:
	movq	16(%rsp), %rax
	testq	%rax, %rax
	je	.L306
	movl	$3, %edx
	movq	%rbp, %rsi
	movq	%rbp, %rdi
	call	*%rax
.L306:
	movq	40(%rsp), %rax
	subq	%fs:40, %rax
	jne	.L324
	addq	$56, %rsp
	.cfi_remember_state
	.cfi_def_cfa_offset 56
	movq	%r12, %rax
	popq	%rbx
	.cfi_def_cfa_offset 48
	popq	%rbp
	.cfi_def_cfa_offset 40
	popq	%r12
	.cfi_def_cfa_offset 32
	popq	%r13
	.cfi_def_cfa_offset 24
	popq	%r14
	.cfi_def_cfa_offset 16
	popq	%r15
	.cfi_def_cfa_offset 8
	ret
.L324:
	.cfi_restore_state
	call	__stack_chk_fail@PLT
.L310:
	movq	%rax, %r12
	jmp	.L307
.L311:
	movq	%rax, %rbp
	jmp	.L304
	.section	.gcc_except_table
.LLSDA2069:
	.byte	0xff
	.byte	0xff
	.byte	0x1
	.uleb128 .LLSDACSE2069-.LLSDACSB2069
.LLSDACSB2069:
	.uleb128 .LEHB23-.LFB2069
	.uleb128 .LEHE23-.LEHB23
	.uleb128 .L311-.LFB2069
	.uleb128 0
	.uleb128 .LEHB24-.LFB2069
	.uleb128 .LEHE24-.LEHB24
	.uleb128 .L310-.LFB2069
	.uleb128 0
.LLSDACSE2069:
	.text
	.cfi_endproc
	.section	.text.unlikely
	.cfi_startproc
	.cfi_personality 0x9b,DW.ref.__gxx_personality_v0
	.cfi_lsda 0x1b,.LLSDAC2069
	.type	_ZN8asiodnp313UpdateBuilder6UpdateERKN8opendnp313FrozenCounterEtNS1_9EventModeE.cold, @function
_ZN8asiodnp313UpdateBuilder6UpdateERKN8opendnp313FrozenCounterEtNS1_9EventModeE.cold:
.LFSB2069:
.L307:
	.cfi_def_cfa_offset 112
	.cfi_offset 3, -56
	.cfi_offset 6, -48
	.cfi_offset 12, -40
	.cfi_offset 13, -32
	.cfi_offset 14, -24
	.cfi_offset 15, -16
	movq	16(%rsp), %rax
	testq	%rax, %rax
	je	.L308
	movl	$3, %edx
	movq	%rbp, %rsi
	movq	%rbp, %rdi
	call	*%rax
.L308:
	movq	%r12, %rdi
.LEHB25:
	call	_Unwind_Resume@PLT
.LEHE25:
.L304:
	movq	16(%rsp), %rax
	testq	%rax, %rax
	je	.L305
	movq	%rsp, %rdi
	movl	$3, %edx
	movq	%rdi, %rsi
	call	*%rax
.L305:
	movq	%rbp, %rdi
.LEHB26:
	call	_Unwind_Resume@PLT
.LEHE26:
	.cfi_endproc
.LFE2069:
	.section	.gcc_except_table
.LLSDAC2069:
	.byte	0xff
	.byte	0xff
	.byte	0x1
	.uleb128 .LLSDACSEC2069-.LLSDACSBC2069
.LLSDACSBC2069:
	.uleb128 .LEHB25-.LCOLDB7
	.uleb128 .LEHE25-.LEHB25
	.uleb128 0
	.uleb128 0
	.uleb128 .LEHB26-.LCOLDB7
	.uleb128 .LEHE26-.LEHB26
	.uleb128 0
	.uleb128 0
.LLSDACSEC2069:
	.section	.text.unlikely
	.text
	.size	_ZN8asiodnp313UpdateBuilder6UpdateERKN8opendnp313FrozenCounterEtNS1_9EventModeE, .-_ZN8asiodnp313UpdateBuilder6UpdateERKN8opendnp313FrozenCounterEtNS1_9EventModeE
	.section	.text.unlikely
	.size	_ZN8asiodnp313UpdateBuilder6UpdateERKN8opendnp313FrozenCounterEtNS1_9EventModeE.cold, .-_ZN8asiodnp313UpdateBuilder6UpdateERKN8opendnp313FrozenCounterEtNS1_9EventModeE.cold
.LCOLDE7:
	.text
.LHOTE7:
	.section	.text.unlikely
	.align 2
.LCOLDB8:
	.text
.LHOTB8:
	.align 2
	.p2align 4
	.globl	_ZN8asiodnp313UpdateBuilder6UpdateERKN8opendnp318BinaryOutputStatusEtNS1_9EventModeE
	.type	_ZN8asiodnp313UpdateBuilder6UpdateERKN8opendnp318BinaryOutputStatusEtNS1_9EventModeE, @function
_ZN8asiodnp313UpdateBuilder6UpdateERKN8opendnp318BinaryOutputStatusEtNS1_9EventModeE:
.LFB2070:
	.cfi_startproc
	.cfi_personality 0x9b,DW.ref.__gxx_personality_v0
	.cfi_lsda 0x1b,.LLSDA2070
	pushq	%r15
	.cfi_def_cfa_offset 16
	.cfi_offset 15, -16
	pushq	%r14
	.cfi_def_cfa_offset 24
	.cfi_offset 14, -24
	pushq	%r13
	.cfi_def_cfa_offset 32
	.cfi_offset 13, -32
	pushq	%r12
	.cfi_def_cfa_offset 40
	.cfi_offset 12, -40
	movq	%rdi, %r12
	movl	$32, %edi
	pushq	%rbp
	.cfi_def_cfa_offset 48
	.cfi_offset 6, -48
	movl	%edx, %ebp
	pushq	%rbx
	.cfi_def_cfa_offset 56
	.cfi_offset 3, -56
	movl	%ecx, %ebx
	subq	$56, %rsp
	.cfi_def_cfa_offset 112
	movzbl	(%rsi), %r15d
	movq	8(%rsi), %r14
	movq	%fs:40, %rax
	movq	%rax, 40(%rsp)
	xorl	%eax, %eax
	movzbl	16(%rsi), %r13d
	movq	$0, 16(%rsp)
.LEHB27:
	call	_Znwm@PLT
.LEHE27:
	movq	_ZNSt17_Function_handlerIFvRN8opendnp314IUpdateHandlerEEZN8asiodnp313UpdateBuilder7AddMeasINS0_18BinaryOutputStatusEEERS5_RKT_tNS0_9EventModeEEUlS2_E_E10_M_managerERSt9_Any_dataRKSF_St18_Manager_operation@GOTPCREL(%rip), %xmm0
	movw	%bp, 24(%rax)
	movq	%rsp, %rbp
	movq	%r12, %rdi
	movb	%r15b, (%rax)
	movq	%rbp, %rsi
	movq	%r14, 8(%rax)
	movhps	_ZNSt17_Function_handlerIFvRN8opendnp314IUpdateHandlerEEZN8asiodnp313UpdateBuilder7AddMeasINS0_18BinaryOutputStatusEEERS5_RKT_tNS0_9EventModeEEUlS2_E_E9_M_invokeERKSt9_Any_dataS2_@GOTPCREL(%rip), %xmm0
	movb	%r13b, 16(%rax)
	movb	%bl, 26(%rax)
	movq	%rax, (%rsp)
	movaps	%xmm0, 16(%rsp)
.LEHB28:
	call	_ZN8asiodnp313UpdateBuilder3AddERKSt8functionIFvRN8opendnp314IUpdateHandlerEEE@PLT
.LEHE28:
	movq	16(%rsp), %rax
	testq	%rax, %rax
	je	.L329
	movl	$3, %edx
	movq	%rbp, %rsi
	movq	%rbp, %rdi
	call	*%rax
.L329:
	movq	40(%rsp), %rax
	subq	%fs:40, %rax
	jne	.L347
	addq	$56, %rsp
	.cfi_remember_state
	.cfi_def_cfa_offset 56
	movq	%r12, %rax
	popq	%rbx
	.cfi_def_cfa_offset 48
	popq	%rbp
	.cfi_def_cfa_offset 40
	popq	%r12
	.cfi_def_cfa_offset 32
	popq	%r13
	.cfi_def_cfa_offset 24
	popq	%r14
	.cfi_def_cfa_offset 16
	popq	%r15
	.cfi_def_cfa_offset 8
	ret
.L347:
	.cfi_restore_state
	call	__stack_chk_fail@PLT
.L333:
	movq	%rax, %r12
	jmp	.L330
.L334:
	movq	%rax, %rbp
	jmp	.L327
	.section	.gcc_except_table
.LLSDA2070:
	.byte	0xff
	.byte	0xff
	.byte	0x1
	.uleb128 .LLSDACSE2070-.LLSDACSB2070
.LLSDACSB2070:
	.uleb128 .LEHB27-.LFB2070
	.uleb128 .LEHE27-.LEHB27
	.uleb128 .L334-.LFB2070
	.uleb128 0
	.uleb128 .LEHB28-.LFB2070
	.uleb128 .LEHE28-.LEHB28
	.uleb128 .L333-.LFB2070
	.uleb128 0
.LLSDACSE2070:
	.text
	.cfi_endproc
	.section	.text.unlikely
	.cfi_startproc
	.cfi_personality 0x9b,DW.ref.__gxx_personality_v0
	.cfi_lsda 0x1b,.LLSDAC2070
	.type	_ZN8asiodnp313UpdateBuilder6UpdateERKN8opendnp318BinaryOutputStatusEtNS1_9EventModeE.cold, @function
_ZN8asiodnp313UpdateBuilder6UpdateERKN8opendnp318BinaryOutputStatusEtNS1_9EventModeE.cold:
.LFSB2070:
.L330:
	.cfi_def_cfa_offset 112
	.cfi_offset 3, -56
	.cfi_offset 6, -48
	.cfi_offset 12, -40
	.cfi_offset 13, -32
	.cfi_offset 14, -24
	.cfi_offset 15, -16
	movq	16(%rsp), %rax
	testq	%rax, %rax
	je	.L331
	movl	$3, %edx
	movq	%rbp, %rsi
	movq	%rbp, %rdi
	call	*%rax
.L331:
	movq	%r12, %rdi
.LEHB29:
	call	_Unwind_Resume@PLT
.LEHE29:
.L327:
	movq	16(%rsp), %rax
	testq	%rax, %rax
	je	.L328
	movq	%rsp, %rdi
	movl	$3, %edx
	movq	%rdi, %rsi
	call	*%rax
.L328:
	movq	%rbp, %rdi
.LEHB30:
	call	_Unwind_Resume@PLT
.LEHE30:
	.cfi_endproc
.LFE2070:
	.section	.gcc_except_table
.LLSDAC2070:
	.byte	0xff
	.byte	0xff
	.byte	0x1
	.uleb128 .LLSDACSEC2070-.LLSDACSBC2070
.LLSDACSBC2070:
	.uleb128 .LEHB29-.LCOLDB8
	.uleb128 .LEHE29-.LEHB29
	.uleb128 0
	.uleb128 0
	.uleb128 .LEHB30-.LCOLDB8
	.uleb128 .LEHE30-.LEHB30
	.uleb128 0
	.uleb128 0
.LLSDACSEC2070:
	.section	.text.unlikely
	.text
	.size	_ZN8asiodnp313UpdateBuilder6UpdateERKN8opendnp318BinaryOutputStatusEtNS1_9EventModeE, .-_ZN8asiodnp313UpdateBuilder6UpdateERKN8opendnp318BinaryOutputStatusEtNS1_9EventModeE
	.section	.text.unlikely
	.size	_ZN8asiodnp313UpdateBuilder6UpdateERKN8opendnp318BinaryOutputStatusEtNS1_9EventModeE.cold, .-_ZN8asiodnp313UpdateBuilder6UpdateERKN8opendnp318BinaryOutputStatusEtNS1_9EventModeE.cold
.LCOLDE8:
	.text
.LHOTE8:
	.section	.text.unlikely
	.align 2
.LCOLDB9:
	.text
.LHOTB9:
	.align 2
	.p2align 4
	.globl	_ZN8asiodnp313UpdateBuilder6UpdateERKN8opendnp318AnalogOutputStatusEtNS1_9EventModeE
	.type	_ZN8asiodnp313UpdateBuilder6UpdateERKN8opendnp318AnalogOutputStatusEtNS1_9EventModeE, @function
_ZN8asiodnp313UpdateBuilder6UpdateERKN8opendnp318AnalogOutputStatusEtNS1_9EventModeE:
.LFB2071:
	.cfi_startproc
	.cfi_personality 0x9b,DW.ref.__gxx_personality_v0
	.cfi_lsda 0x1b,.LLSDA2071
	pushq	%r14
	.cfi_def_cfa_offset 16
	.cfi_offset 14, -16
	pushq	%r13
	.cfi_def_cfa_offset 24
	.cfi_offset 13, -24
	pushq	%r12
	.cfi_def_cfa_offset 32
	.cfi_offset 12, -32
	movq	%rdi, %r12
	movl	$32, %edi
	pushq	%rbp
	.cfi_def_cfa_offset 40
	.cfi_offset 6, -40
	movl	%edx, %ebp
	pushq	%rbx
	.cfi_def_cfa_offset 48
	.cfi_offset 3, -48
	movl	%ecx, %ebx
	subq	$64, %rsp
	.cfi_def_cfa_offset 112
	movsd	16(%rsi), %xmm1
	movzbl	(%rsi), %r14d
	movq	%fs:40, %rax
	movq	%rax, 56(%rsp)
	xorl	%eax, %eax
	movq	8(%rsi), %r13
	movq	$0, 32(%rsp)
	movsd	%xmm1, 8(%rsp)
.LEHB31:
	call	_Znwm@PLT
.LEHE31:
	movw	%bp, 24(%rax)
	movsd	8(%rsp), %xmm1
	leaq	16(%rsp), %rbp
	movq	%r12, %rdi
	movq	_ZNSt17_Function_handlerIFvRN8opendnp314IUpdateHandlerEEZN8asiodnp313UpdateBuilder7AddMeasINS0_18AnalogOutputStatusEEERS5_RKT_tNS0_9EventModeEEUlS2_E_E10_M_managerERSt9_Any_dataRKSF_St18_Manager_operation@GOTPCREL(%rip), %xmm0
	movb	%r14b, (%rax)
	movq	%rbp, %rsi
	movq	%r13, 8(%rax)
	movb	%bl, 26(%rax)
	movhps	_ZNSt17_Function_handlerIFvRN8opendnp314IUpdateHandlerEEZN8asiodnp313UpdateBuilder7AddMeasINS0_18AnalogOutputStatusEEERS5_RKT_tNS0_9EventModeEEUlS2_E_E9_M_invokeERKSt9_Any_dataS2_@GOTPCREL(%rip), %xmm0
	movsd	%xmm1, 16(%rax)
	movq	%rax, 16(%rsp)
	movaps	%xmm0, 32(%rsp)
.LEHB32:
	call	_ZN8asiodnp313UpdateBuilder3AddERKSt8functionIFvRN8opendnp314IUpdateHandlerEEE@PLT
.LEHE32:
	movq	32(%rsp), %rax
	testq	%rax, %rax
	je	.L352
	movl	$3, %edx
	movq	%rbp, %rsi
	movq	%rbp, %rdi
	call	*%rax
.L352:
	movq	56(%rsp), %rax
	subq	%fs:40, %rax
	jne	.L370
	addq	$64, %rsp
	.cfi_remember_state
	.cfi_def_cfa_offset 48
	movq	%r12, %rax
	popq	%rbx
	.cfi_def_cfa_offset 40
	popq	%rbp
	.cfi_def_cfa_offset 32
	popq	%r12
	.cfi_def_cfa_offset 24
	popq	%r13
	.cfi_def_cfa_offset 16
	popq	%r14
	.cfi_def_cfa_offset 8
	ret
.L370:
	.cfi_restore_state
	call	__stack_chk_fail@PLT
.L356:
	movq	%rax, %r12
	jmp	.L353
.L357:
	movq	%rax, %rbp
	jmp	.L350
	.section	.gcc_except_table
.LLSDA2071:
	.byte	0xff
	.byte	0xff
	.byte	0x1
	.uleb128 .LLSDACSE2071-.LLSDACSB2071
.LLSDACSB2071:
	.uleb128 .LEHB31-.LFB2071
	.uleb128 .LEHE31-.LEHB31
	.uleb128 .L357-.LFB2071
	.uleb128 0
	.uleb128 .LEHB32-.LFB2071
	.uleb128 .LEHE32-.LEHB32
	.uleb128 .L356-.LFB2071
	.uleb128 0
.LLSDACSE2071:
	.text
	.cfi_endproc
	.section	.text.unlikely
	.cfi_startproc
	.cfi_personality 0x9b,DW.ref.__gxx_personality_v0
	.cfi_lsda 0x1b,.LLSDAC2071
	.type	_ZN8asiodnp313UpdateBuilder6UpdateERKN8opendnp318AnalogOutputStatusEtNS1_9EventModeE.cold, @function
_ZN8asiodnp313UpdateBuilder6UpdateERKN8opendnp318AnalogOutputStatusEtNS1_9EventModeE.cold:
.LFSB2071:
.L353:
	.cfi_def_cfa_offset 112
	.cfi_offset 3, -48
	.cfi_offset 6, -40
	.cfi_offset 12, -32
	.cfi_offset 13, -24
	.cfi_offset 14, -16
	movq	32(%rsp), %rax
	testq	%rax, %rax
	je	.L354
	movl	$3, %edx
	movq	%rbp, %rsi
	movq	%rbp, %rdi
	call	*%rax
.L354:
	movq	%r12, %rdi
.LEHB33:
	call	_Unwind_Resume@PLT
.LEHE33:
.L350:
	movq	32(%rsp), %rax
	testq	%rax, %rax
	je	.L351
	leaq	16(%rsp), %rdi
	movl	$3, %edx
	movq	%rdi, %rsi
	call	*%rax
.L351:
	movq	%rbp, %rdi
.LEHB34:
	call	_Unwind_Resume@PLT
.LEHE34:
	.cfi_endproc
.LFE2071:
	.section	.gcc_except_table
.LLSDAC2071:
	.byte	0xff
	.byte	0xff
	.byte	0x1
	.uleb128 .LLSDACSEC2071-.LLSDACSBC2071
.LLSDACSBC2071:
	.uleb128 .LEHB33-.LCOLDB9
	.uleb128 .LEHE33-.LEHB33
	.uleb128 0
	.uleb128 0
	.uleb128 .LEHB34-.LCOLDB9
	.uleb128 .LEHE34-.LEHB34
	.uleb128 0
	.uleb128 0
.LLSDACSEC2071:
	.section	.text.unlikely
	.text
	.size	_ZN8asiodnp313UpdateBuilder6UpdateERKN8opendnp318AnalogOutputStatusEtNS1_9EventModeE, .-_ZN8asiodnp313UpdateBuilder6UpdateERKN8opendnp318AnalogOutputStatusEtNS1_9EventModeE
	.section	.text.unlikely
	.size	_ZN8asiodnp313UpdateBuilder6UpdateERKN8opendnp318AnalogOutputStatusEtNS1_9EventModeE.cold, .-_ZN8asiodnp313UpdateBuilder6UpdateERKN8opendnp318AnalogOutputStatusEtNS1_9EventModeE.cold
.LCOLDE9:
	.text
.LHOTE9:
	.section	.text.unlikely
	.align 2
.LCOLDB10:
	.text
.LHOTB10:
	.align 2
	.p2align 4
	.globl	_ZN8asiodnp313UpdateBuilder6UpdateERKN8opendnp315TimeAndIntervalEt
	.type	_ZN8asiodnp313UpdateBuilder6UpdateERKN8opendnp315TimeAndIntervalEt, @function
_ZN8asiodnp313UpdateBuilder6UpdateERKN8opendnp315TimeAndIntervalEt:
.LFB2072:
	.cfi_startproc
	.cfi_personality 0x9b,DW.ref.__gxx_personality_v0
	.cfi_lsda 0x1b,.LLSDA2072
	pushq	%r14
	.cfi_def_cfa_offset 16
	.cfi_offset 14, -16
	pushq	%r13
	.cfi_def_cfa_offset 24
	.cfi_offset 13, -24
	pushq	%r12
	.cfi_def_cfa_offset 32
	.cfi_offset 12, -32
	movq	%rdi, %r12
	movl	$24, %edi
	pushq	%rbp
	.cfi_def_cfa_offset 40
	.cfi_offset 6, -40
	pushq	%rbx
	.cfi_def_cfa_offset 48
	.cfi_offset 3, -48
	movl	%edx, %ebx
	subq	$48, %rsp
	.cfi_def_cfa_offset 96
	movq	(%rsi), %r14
	movl	8(%rsi), %r13d
	movq	%fs:40, %rax
	movq	%rax, 40(%rsp)
	xorl	%eax, %eax
	movzbl	12(%rsi), %ebp
	movq	$0, 16(%rsp)
.LEHB35:
	call	_Znwm@PLT
.LEHE35:
	movb	%bpl, 12(%rax)
	leaq	_ZNSt17_Function_handlerIFvRN8opendnp314IUpdateHandlerEEZN8asiodnp313UpdateBuilder6UpdateERKNS0_15TimeAndIntervalEtEUlS2_E_E10_M_managerERSt9_Any_dataRKSB_St18_Manager_operation(%rip), %rcx
	movq	%rsp, %rbp
	movq	%r12, %rdi
	movq	%r14, (%rax)
	movq	%rcx, %xmm0
	movq	%rbp, %rsi
	movl	%r13d, 8(%rax)
	movw	%bx, 16(%rax)
	movq	%rax, (%rsp)
	leaq	_ZNSt17_Function_handlerIFvRN8opendnp314IUpdateHandlerEEZN8asiodnp313UpdateBuilder6UpdateERKNS0_15TimeAndIntervalEtEUlS2_E_E9_M_invokeERKSt9_Any_dataS2_(%rip), %rax
	movq	%rax, %xmm1
	punpcklqdq	%xmm1, %xmm0
	movaps	%xmm0, 16(%rsp)
.LEHB36:
	call	_ZN8asiodnp313UpdateBuilder3AddERKSt8functionIFvRN8opendnp314IUpdateHandlerEEE@PLT
.LEHE36:
	movq	16(%rsp), %rax
	testq	%rax, %rax
	je	.L375
	movl	$3, %edx
	movq	%rbp, %rsi
	movq	%rbp, %rdi
	call	*%rax
.L375:
	movq	40(%rsp), %rax
	subq	%fs:40, %rax
	jne	.L393
	addq	$48, %rsp
	.cfi_remember_state
	.cfi_def_cfa_offset 48
	movq	%r12, %rax
	popq	%rbx
	.cfi_def_cfa_offset 40
	popq	%rbp
	.cfi_def_cfa_offset 32
	popq	%r12
	.cfi_def_cfa_offset 24
	popq	%r13
	.cfi_def_cfa_offset 16
	popq	%r14
	.cfi_def_cfa_offset 8
	ret
.L393:
	.cfi_restore_state
	call	__stack_chk_fail@PLT
.L379:
	movq	%rax, %r12
	jmp	.L376
.L380:
	movq	%rax, %rbp
	jmp	.L373
	.section	.gcc_except_table
.LLSDA2072:
	.byte	0xff
	.byte	0xff
	.byte	0x1
	.uleb128 .LLSDACSE2072-.LLSDACSB2072
.LLSDACSB2072:
	.uleb128 .LEHB35-.LFB2072
	.uleb128 .LEHE35-.LEHB35
	.uleb128 .L380-.LFB2072
	.uleb128 0
	.uleb128 .LEHB36-.LFB2072
	.uleb128 .LEHE36-.LEHB36
	.uleb128 .L379-.LFB2072
	.uleb128 0
.LLSDACSE2072:
	.text
	.cfi_endproc
	.section	.text.unlikely
	.cfi_startproc
	.cfi_personality 0x9b,DW.ref.__gxx_personality_v0
	.cfi_lsda 0x1b,.LLSDAC2072
	.type	_ZN8asiodnp313UpdateBuilder6UpdateERKN8opendnp315TimeAndIntervalEt.cold, @function
_ZN8asiodnp313UpdateBuilder6UpdateERKN8opendnp315TimeAndIntervalEt.cold:
.LFSB2072:
.L376:
	.cfi_def_cfa_offset 96
	.cfi_offset 3, -48
	.cfi_offset 6, -40
	.cfi_offset 12, -32
	.cfi_offset 13, -24
	.cfi_offset 14, -16
	movq	16(%rsp), %rax
	testq	%rax, %rax
	je	.L377
	movl	$3, %edx
	movq	%rbp, %rsi
	movq	%rbp, %rdi
	call	*%rax
.L377:
	movq	%r12, %rdi
.LEHB37:
	call	_Unwind_Resume@PLT
.LEHE37:
.L373:
	movq	16(%rsp), %rax
	testq	%rax, %rax
	je	.L374
	movq	%rsp, %rdi
	movl	$3, %edx
	movq	%rdi, %rsi
	call	*%rax
.L374:
	movq	%rbp, %rdi
.LEHB38:
	call	_Unwind_Resume@PLT
.LEHE38:
	.cfi_endproc
.LFE2072:
	.section	.gcc_except_table
.LLSDAC2072:
	.byte	0xff
	.byte	0xff
	.byte	0x1
	.uleb128 .LLSDACSEC2072-.LLSDACSBC2072
.LLSDACSBC2072:
	.uleb128 .LEHB37-.LCOLDB10
	.uleb128 .LEHE37-.LEHB37
	.uleb128 0
	.uleb128 0
	.uleb128 .LEHB38-.LCOLDB10
	.uleb128 .LEHE38-.LEHB38
	.uleb128 0
	.uleb128 0
.LLSDACSEC2072:
	.section	.text.unlikely
	.text
	.size	_ZN8asiodnp313UpdateBuilder6UpdateERKN8opendnp315TimeAndIntervalEt, .-_ZN8asiodnp313UpdateBuilder6UpdateERKN8opendnp315TimeAndIntervalEt
	.section	.text.unlikely
	.size	_ZN8asiodnp313UpdateBuilder6UpdateERKN8opendnp315TimeAndIntervalEt.cold, .-_ZN8asiodnp313UpdateBuilder6UpdateERKN8opendnp315TimeAndIntervalEt.cold
.LCOLDE10:
	.text
.LHOTE10:
	.section	.text.unlikely
	.align 2
.LCOLDB11:
	.text
.LHOTB11:
	.align 2
	.p2align 4
	.globl	_ZN8asiodnp313UpdateBuilder6ModifyEN8opendnp39FlagsTypeEtth
	.type	_ZN8asiodnp313UpdateBuilder6ModifyEN8opendnp39FlagsTypeEtth, @function
_ZN8asiodnp313UpdateBuilder6ModifyEN8opendnp39FlagsTypeEtth:
.LFB2077:
	.cfi_startproc
	.cfi_personality 0x9b,DW.ref.__gxx_personality_v0
	.cfi_lsda 0x1b,.LLSDA2077
	pushq	%r12
	.cfi_def_cfa_offset 16
	.cfi_offset 12, -16
	movq	%rdi, %r12
	pushq	%rbp
	.cfi_def_cfa_offset 24
	.cfi_offset 6, -24
	subq	$56, %rsp
	.cfi_def_cfa_offset 80
	movq	%fs:40, %rax
	movq	%rax, 40(%rsp)
	xorl	%eax, %eax
	leaq	_ZNSt17_Function_handlerIFvRN8opendnp314IUpdateHandlerEEZN8asiodnp313UpdateBuilder6ModifyENS0_9FlagsTypeEtthEUlS2_E_E9_M_invokeERKSt9_Any_dataS2_(%rip), %rax
	movq	%rsp, %rbp
	movb	%sil, (%rsp)
	movw	%cx, 4(%rsp)
	leaq	_ZNSt17_Function_handlerIFvRN8opendnp314IUpdateHandlerEEZN8asiodnp313UpdateBuilder6ModifyENS0_9FlagsTypeEtthEUlS2_E_E10_M_managerERSt9_Any_dataRKS9_St18_Manager_operation(%rip), %rcx
	movq	%rax, %xmm1
	movq	%rbp, %rsi
	movq	%rcx, %xmm0
	movw	%dx, 2(%rsp)
	punpcklqdq	%xmm1, %xmm0
	movb	%r8b, 6(%rsp)
	movaps	%xmm0, 16(%rsp)
.LEHB39:
	call	_ZN8asiodnp313UpdateBuilder3AddERKSt8functionIFvRN8opendnp314IUpdateHandlerEEE@PLT
.LEHE39:
	movq	16(%rsp), %rax
	testq	%rax, %rax
	je	.L395
	movl	$3, %edx
	movq	%rbp, %rsi
	movq	%rbp, %rdi
	call	*%rax
.L395:
	movq	40(%rsp), %rax
	subq	%fs:40, %rax
	jne	.L408
	addq	$56, %rsp
	.cfi_remember_state
	.cfi_def_cfa_offset 24
	movq	%r12, %rax
	popq	%rbp
	.cfi_def_cfa_offset 16
	popq	%r12
	.cfi_def_cfa_offset 8
	ret
.L408:
	.cfi_restore_state
	call	__stack_chk_fail@PLT
.L399:
	movq	%rax, %r12
	jmp	.L396
	.section	.gcc_except_table
.LLSDA2077:
	.byte	0xff
	.byte	0xff
	.byte	0x1
	.uleb128 .LLSDACSE2077-.LLSDACSB2077
.LLSDACSB2077:
	.uleb128 .LEHB39-.LFB2077
	.uleb128 .LEHE39-.LEHB39
	.uleb128 .L399-.LFB2077
	.uleb128 0
.LLSDACSE2077:
	.text
	.cfi_endproc
	.section	.text.unlikely
	.cfi_startproc
	.cfi_personality 0x9b,DW.ref.__gxx_personality_v0
	.cfi_lsda 0x1b,.LLSDAC2077
	.type	_ZN8asiodnp313UpdateBuilder6ModifyEN8opendnp39FlagsTypeEtth.cold, @function
_ZN8asiodnp313UpdateBuilder6ModifyEN8opendnp39FlagsTypeEtth.cold:
.LFSB2077:
.L396:
	.cfi_def_cfa_offset 80
	.cfi_offset 6, -24
	.cfi_offset 12, -16
	movq	16(%rsp), %rax
	testq	%rax, %rax
	je	.L397
	movl	$3, %edx
	movq	%rbp, %rsi
	movq	%rbp, %rdi
	call	*%rax
.L397:
	movq	%r12, %rdi
.LEHB40:
	call	_Unwind_Resume@PLT
.LEHE40:
	.cfi_endproc
.LFE2077:
	.section	.gcc_except_table
.LLSDAC2077:
	.byte	0xff
	.byte	0xff
	.byte	0x1
	.uleb128 .LLSDACSEC2077-.LLSDACSBC2077
.LLSDACSBC2077:
	.uleb128 .LEHB40-.LCOLDB11
	.uleb128 .LEHE40-.LEHB40
	.uleb128 0
	.uleb128 0
.LLSDACSEC2077:
	.section	.text.unlikely
	.text
	.size	_ZN8asiodnp313UpdateBuilder6ModifyEN8opendnp39FlagsTypeEtth, .-_ZN8asiodnp313UpdateBuilder6ModifyEN8opendnp39FlagsTypeEtth
	.section	.text.unlikely
	.size	_ZN8asiodnp313UpdateBuilder6ModifyEN8opendnp39FlagsTypeEtth.cold, .-_ZN8asiodnp313UpdateBuilder6ModifyEN8opendnp39FlagsTypeEtth.cold
.LCOLDE11:
	.text
.LHOTE11:
	.weak	_ZTSSt11_Mutex_baseILN9__gnu_cxx12_Lock_policyE2EE
	.section	.rodata._ZTSSt11_Mutex_baseILN9__gnu_cxx12_Lock_policyE2EE,"aG",@progbits,_ZTSSt11_Mutex_baseILN9__gnu_cxx12_Lock_policyE2EE,comdat
	.align 32
	.type	_ZTSSt11_Mutex_baseILN9__gnu_cxx12_Lock_policyE2EE, @object
	.size	_ZTSSt11_Mutex_baseILN9__gnu_cxx12_Lock_policyE2EE, 47
_ZTSSt11_Mutex_baseILN9__gnu_cxx12_Lock_policyE2EE:
	.string	"St11_Mutex_baseILN9__gnu_cxx12_Lock_policyE2EE"
	.weak	_ZTISt11_Mutex_baseILN9__gnu_cxx12_Lock_policyE2EE
	.section	.data.rel.ro._ZTISt11_Mutex_baseILN9__gnu_cxx12_Lock_policyE2EE,"awG",@progbits,_ZTISt11_Mutex_baseILN9__gnu_cxx12_Lock_policyE2EE,comdat
	.align 8
	.type	_ZTISt11_Mutex_baseILN9__gnu_cxx12_Lock_policyE2EE, @object
	.size	_ZTISt11_Mutex_baseILN9__gnu_cxx12_Lock_policyE2EE, 16
_ZTISt11_Mutex_baseILN9__gnu_cxx12_Lock_policyE2EE:
	.quad	_ZTVN10__cxxabiv117__class_type_infoE+16
	.quad	_ZTSSt11_Mutex_baseILN9__gnu_cxx12_Lock_policyE2EE
	.weak	_ZTSSt19_Sp_make_shared_tag
	.section	.rodata._ZTSSt19_Sp_make_shared_tag,"aG",@progbits,_ZTSSt19_Sp_make_shared_tag,comdat
	.align 16
	.type	_ZTSSt19_Sp_make_shared_tag, @object
	.size	_ZTSSt19_Sp_make_shared_tag, 24
_ZTSSt19_Sp_make_shared_tag:
	.string	"St19_Sp_make_shared_tag"
	.weak	_ZTSSt16_Sp_counted_baseILN9__gnu_cxx12_Lock_policyE2EE
	.section	.rodata._ZTSSt16_Sp_counted_baseILN9__gnu_cxx12_Lock_policyE2EE,"aG",@progbits,_ZTSSt16_Sp_counted_baseILN9__gnu_cxx12_Lock_policyE2EE,comdat
	.align 32
	.type	_ZTSSt16_Sp_counted_baseILN9__gnu_cxx12_Lock_policyE2EE, @object
	.size	_ZTSSt16_Sp_counted_baseILN9__gnu_cxx12_Lock_policyE2EE, 52
_ZTSSt16_Sp_counted_baseILN9__gnu_cxx12_Lock_policyE2EE:
	.string	"St16_Sp_counted_baseILN9__gnu_cxx12_Lock_policyE2EE"
	.weak	_ZTISt16_Sp_counted_baseILN9__gnu_cxx12_Lock_policyE2EE
	.section	.data.rel.ro._ZTISt16_Sp_counted_baseILN9__gnu_cxx12_Lock_policyE2EE,"awG",@progbits,_ZTISt16_Sp_counted_baseILN9__gnu_cxx12_Lock_policyE2EE,comdat
	.align 8
	.type	_ZTISt16_Sp_counted_baseILN9__gnu_cxx12_Lock_policyE2EE, @object
	.size	_ZTISt16_Sp_counted_baseILN9__gnu_cxx12_Lock_policyE2EE, 24
_ZTISt16_Sp_counted_baseILN9__gnu_cxx12_Lock_policyE2EE:
	.quad	_ZTVN10__cxxabiv120__si_class_type_infoE+16
	.quad	_ZTSSt16_Sp_counted_baseILN9__gnu_cxx12_Lock_policyE2EE
	.quad	_ZTISt11_Mutex_baseILN9__gnu_cxx12_Lock_policyE2EE
	.section	.data.rel.ro,"aw"
	.align 8
	.type	_ZTIZN8asiodnp313UpdateBuilder6UpdateERKN8opendnp315TimeAndIntervalEtEUlRNS1_14IUpdateHandlerEE_, @object
	.size	_ZTIZN8asiodnp313UpdateBuilder6UpdateERKN8opendnp315TimeAndIntervalEtEUlRNS1_14IUpdateHandlerEE_, 16
_ZTIZN8asiodnp313UpdateBuilder6UpdateERKN8opendnp315TimeAndIntervalEtEUlRNS1_14IUpdateHandlerEE_:
	.quad	_ZTVN10__cxxabiv117__class_type_infoE+16
	.quad	_ZTSZN8asiodnp313UpdateBuilder6UpdateERKN8opendnp315TimeAndIntervalEtEUlRNS1_14IUpdateHandlerEE_
	.section	.rodata
	.align 32
	.type	_ZTSZN8asiodnp313UpdateBuilder6UpdateERKN8opendnp315TimeAndIntervalEtEUlRNS1_14IUpdateHandlerEE_, @object
	.size	_ZTSZN8asiodnp313UpdateBuilder6UpdateERKN8opendnp315TimeAndIntervalEtEUlRNS1_14IUpdateHandlerEE_, 94
_ZTSZN8asiodnp313UpdateBuilder6UpdateERKN8opendnp315TimeAndIntervalEtEUlRNS1_14IUpdateHandlerEE_:
	.string	"*ZN8asiodnp313UpdateBuilder6UpdateERKN8opendnp315TimeAndIntervalEtEUlRNS1_14IUpdateHandlerEE_"
	.section	.data.rel.ro
	.align 8
	.type	_ZTIZN8asiodnp313UpdateBuilder6ModifyEN8opendnp39FlagsTypeEtthEUlRNS1_14IUpdateHandlerEE_, @object
	.size	_ZTIZN8asiodnp313UpdateBuilder6ModifyEN8opendnp39FlagsTypeEtthEUlRNS1_14IUpdateHandlerEE_, 16
_ZTIZN8asiodnp313UpdateBuilder6ModifyEN8opendnp39FlagsTypeEtthEUlRNS1_14IUpdateHandlerEE_:
	.quad	_ZTVN10__cxxabiv117__class_type_infoE+16
	.quad	_ZTSZN8asiodnp313UpdateBuilder6ModifyEN8opendnp39FlagsTypeEtthEUlRNS1_14IUpdateHandlerEE_
	.section	.rodata
	.align 32
	.type	_ZTSZN8asiodnp313UpdateBuilder6ModifyEN8opendnp39FlagsTypeEtthEUlRNS1_14IUpdateHandlerEE_, @object
	.size	_ZTSZN8asiodnp313UpdateBuilder6ModifyEN8opendnp39FlagsTypeEtthEUlRNS1_14IUpdateHandlerEE_, 87
_ZTSZN8asiodnp313UpdateBuilder6ModifyEN8opendnp39FlagsTypeEtthEUlRNS1_14IUpdateHandlerEE_:
	.string	"*ZN8asiodnp313UpdateBuilder6ModifyEN8opendnp39FlagsTypeEtthEUlRNS1_14IUpdateHandlerEE_"
	.weak	_ZTSZN8asiodnp313UpdateBuilder7AddMeasIN8opendnp36BinaryEEERS0_RKT_tNS2_9EventModeEEUlRNS2_14IUpdateHandlerEE_
	.section	.rodata._ZTSZN8asiodnp313UpdateBuilder7AddMeasIN8opendnp36BinaryEEERS0_RKT_tNS2_9EventModeEEUlRNS2_14IUpdateHandlerEE_,"aG",@progbits,_ZTSZN8asiodnp313UpdateBuilder7AddMeasIN8opendnp36BinaryEEERS0_RKT_tNS2_9EventModeEEUlRNS2_14IUpdateHandlerEE_,comdat
	.align 32
	.type	_ZTSZN8asiodnp313UpdateBuilder7AddMeasIN8opendnp36BinaryEEERS0_RKT_tNS2_9EventModeEEUlRNS2_14IUpdateHandlerEE_, @object
	.size	_ZTSZN8asiodnp313UpdateBuilder7AddMeasIN8opendnp36BinaryEEERS0_RKT_tNS2_9EventModeEEUlRNS2_14IUpdateHandlerEE_, 107
_ZTSZN8asiodnp313UpdateBuilder7AddMeasIN8opendnp36BinaryEEERS0_RKT_tNS2_9EventModeEEUlRNS2_14IUpdateHandlerEE_:
	.string	"ZN8asiodnp313UpdateBuilder7AddMeasIN8opendnp36BinaryEEERS0_RKT_tNS2_9EventModeEEUlRNS2_14IUpdateHandlerEE_"
	.weak	_ZTIZN8asiodnp313UpdateBuilder7AddMeasIN8opendnp36BinaryEEERS0_RKT_tNS2_9EventModeEEUlRNS2_14IUpdateHandlerEE_
	.section	.data.rel.ro._ZTIZN8asiodnp313UpdateBuilder7AddMeasIN8opendnp36BinaryEEERS0_RKT_tNS2_9EventModeEEUlRNS2_14IUpdateHandlerEE_,"awG",@progbits,_ZTIZN8asiodnp313UpdateBuilder7AddMeasIN8opendnp36BinaryEEERS0_RKT_tNS2_9EventModeEEUlRNS2_14IUpdateHandlerEE_,comdat
	.align 8
	.type	_ZTIZN8asiodnp313UpdateBuilder7AddMeasIN8opendnp36BinaryEEERS0_RKT_tNS2_9EventModeEEUlRNS2_14IUpdateHandlerEE_, @object
	.size	_ZTIZN8asiodnp313UpdateBuilder7AddMeasIN8opendnp36BinaryEEERS0_RKT_tNS2_9EventModeEEUlRNS2_14IUpdateHandlerEE_, 16
_ZTIZN8asiodnp313UpdateBuilder7AddMeasIN8opendnp36BinaryEEERS0_RKT_tNS2_9EventModeEEUlRNS2_14IUpdateHandlerEE_:
	.quad	_ZTVN10__cxxabiv117__class_type_infoE+16
	.quad	_ZTSZN8asiodnp313UpdateBuilder7AddMeasIN8opendnp36BinaryEEERS0_RKT_tNS2_9EventModeEEUlRNS2_14IUpdateHandlerEE_
	.weak	_ZTSZN8asiodnp313UpdateBuilder7AddMeasIN8opendnp315DoubleBitBinaryEEERS0_RKT_tNS2_9EventModeEEUlRNS2_14IUpdateHandlerEE_
	.section	.rodata._ZTSZN8asiodnp313UpdateBuilder7AddMeasIN8opendnp315DoubleBitBinaryEEERS0_RKT_tNS2_9EventModeEEUlRNS2_14IUpdateHandlerEE_,"aG",@progbits,_ZTSZN8asiodnp313UpdateBuilder7AddMeasIN8opendnp315DoubleBitBinaryEEERS0_RKT_tNS2_9EventModeEEUlRNS2_14IUpdateHandlerEE_,comdat
	.align 32
	.type	_ZTSZN8asiodnp313UpdateBuilder7AddMeasIN8opendnp315DoubleBitBinaryEEERS0_RKT_tNS2_9EventModeEEUlRNS2_14IUpdateHandlerEE_, @object
	.size	_ZTSZN8asiodnp313UpdateBuilder7AddMeasIN8opendnp315DoubleBitBinaryEEERS0_RKT_tNS2_9EventModeEEUlRNS2_14IUpdateHandlerEE_, 117
_ZTSZN8asiodnp313UpdateBuilder7AddMeasIN8opendnp315DoubleBitBinaryEEERS0_RKT_tNS2_9EventModeEEUlRNS2_14IUpdateHandlerEE_:
	.string	"ZN8asiodnp313UpdateBuilder7AddMeasIN8opendnp315DoubleBitBinaryEEERS0_RKT_tNS2_9EventModeEEUlRNS2_14IUpdateHandlerEE_"
	.weak	_ZTIZN8asiodnp313UpdateBuilder7AddMeasIN8opendnp315DoubleBitBinaryEEERS0_RKT_tNS2_9EventModeEEUlRNS2_14IUpdateHandlerEE_
	.section	.data.rel.ro._ZTIZN8asiodnp313UpdateBuilder7AddMeasIN8opendnp315DoubleBitBinaryEEERS0_RKT_tNS2_9EventModeEEUlRNS2_14IUpdateHandlerEE_,"awG",@progbits,_ZTIZN8asiodnp313UpdateBuilder7AddMeasIN8opendnp315DoubleBitBinaryEEERS0_RKT_tNS2_9EventModeEEUlRNS2_14IUpdateHandlerEE_,comdat
	.align 8
	.type	_ZTIZN8asiodnp313UpdateBuilder7AddMeasIN8opendnp315DoubleBitBinaryEEERS0_RKT_tNS2_9EventModeEEUlRNS2_14IUpdateHandlerEE_, @object
	.size	_ZTIZN8asiodnp313UpdateBuilder7AddMeasIN8opendnp315DoubleBitBinaryEEERS0_RKT_tNS2_9EventModeEEUlRNS2_14IUpdateHandlerEE_, 16
_ZTIZN8asiodnp313UpdateBuilder7AddMeasIN8opendnp315DoubleBitBinaryEEERS0_RKT_tNS2_9EventModeEEUlRNS2_14IUpdateHandlerEE_:
	.quad	_ZTVN10__cxxabiv117__class_type_infoE+16
	.quad	_ZTSZN8asiodnp313UpdateBuilder7AddMeasIN8opendnp315DoubleBitBinaryEEERS0_RKT_tNS2_9EventModeEEUlRNS2_14IUpdateHandlerEE_
	.weak	_ZTSZN8asiodnp313UpdateBuilder7AddMeasIN8opendnp36AnalogEEERS0_RKT_tNS2_9EventModeEEUlRNS2_14IUpdateHandlerEE_
	.section	.rodata._ZTSZN8asiodnp313UpdateBuilder7AddMeasIN8opendnp36AnalogEEERS0_RKT_tNS2_9EventModeEEUlRNS2_14IUpdateHandlerEE_,"aG",@progbits,_ZTSZN8asiodnp313UpdateBuilder7AddMeasIN8opendnp36AnalogEEERS0_RKT_tNS2_9EventModeEEUlRNS2_14IUpdateHandlerEE_,comdat
	.align 32
	.type	_ZTSZN8asiodnp313UpdateBuilder7AddMeasIN8opendnp36AnalogEEERS0_RKT_tNS2_9EventModeEEUlRNS2_14IUpdateHandlerEE_, @object
	.size	_ZTSZN8asiodnp313UpdateBuilder7AddMeasIN8opendnp36AnalogEEERS0_RKT_tNS2_9EventModeEEUlRNS2_14IUpdateHandlerEE_, 107
_ZTSZN8asiodnp313UpdateBuilder7AddMeasIN8opendnp36AnalogEEERS0_RKT_tNS2_9EventModeEEUlRNS2_14IUpdateHandlerEE_:
	.string	"ZN8asiodnp313UpdateBuilder7AddMeasIN8opendnp36AnalogEEERS0_RKT_tNS2_9EventModeEEUlRNS2_14IUpdateHandlerEE_"
	.weak	_ZTIZN8asiodnp313UpdateBuilder7AddMeasIN8opendnp36AnalogEEERS0_RKT_tNS2_9EventModeEEUlRNS2_14IUpdateHandlerEE_
	.section	.data.rel.ro._ZTIZN8asiodnp313UpdateBuilder7AddMeasIN8opendnp36AnalogEEERS0_RKT_tNS2_9EventModeEEUlRNS2_14IUpdateHandlerEE_,"awG",@progbits,_ZTIZN8asiodnp313UpdateBuilder7AddMeasIN8opendnp36AnalogEEERS0_RKT_tNS2_9EventModeEEUlRNS2_14IUpdateHandlerEE_,comdat
	.align 8
	.type	_ZTIZN8asiodnp313UpdateBuilder7AddMeasIN8opendnp36AnalogEEERS0_RKT_tNS2_9EventModeEEUlRNS2_14IUpdateHandlerEE_, @object
	.size	_ZTIZN8asiodnp313UpdateBuilder7AddMeasIN8opendnp36AnalogEEERS0_RKT_tNS2_9EventModeEEUlRNS2_14IUpdateHandlerEE_, 16
_ZTIZN8asiodnp313UpdateBuilder7AddMeasIN8opendnp36AnalogEEERS0_RKT_tNS2_9EventModeEEUlRNS2_14IUpdateHandlerEE_:
	.quad	_ZTVN10__cxxabiv117__class_type_infoE+16
	.quad	_ZTSZN8asiodnp313UpdateBuilder7AddMeasIN8opendnp36AnalogEEERS0_RKT_tNS2_9EventModeEEUlRNS2_14IUpdateHandlerEE_
	.weak	_ZTSZN8asiodnp313UpdateBuilder7AddMeasIN8opendnp37CounterEEERS0_RKT_tNS2_9EventModeEEUlRNS2_14IUpdateHandlerEE_
	.section	.rodata._ZTSZN8asiodnp313UpdateBuilder7AddMeasIN8opendnp37CounterEEERS0_RKT_tNS2_9EventModeEEUlRNS2_14IUpdateHandlerEE_,"aG",@progbits,_ZTSZN8asiodnp313UpdateBuilder7AddMeasIN8opendnp37CounterEEERS0_RKT_tNS2_9EventModeEEUlRNS2_14IUpdateHandlerEE_,comdat
	.align 32
	.type	_ZTSZN8asiodnp313UpdateBuilder7AddMeasIN8opendnp37CounterEEERS0_RKT_tNS2_9EventModeEEUlRNS2_14IUpdateHandlerEE_, @object
	.size	_ZTSZN8asiodnp313UpdateBuilder7AddMeasIN8opendnp37CounterEEERS0_RKT_tNS2_9EventModeEEUlRNS2_14IUpdateHandlerEE_, 108
_ZTSZN8asiodnp313UpdateBuilder7AddMeasIN8opendnp37CounterEEERS0_RKT_tNS2_9EventModeEEUlRNS2_14IUpdateHandlerEE_:
	.string	"ZN8asiodnp313UpdateBuilder7AddMeasIN8opendnp37CounterEEERS0_RKT_tNS2_9EventModeEEUlRNS2_14IUpdateHandlerEE_"
	.weak	_ZTIZN8asiodnp313UpdateBuilder7AddMeasIN8opendnp37CounterEEERS0_RKT_tNS2_9EventModeEEUlRNS2_14IUpdateHandlerEE_
	.section	.data.rel.ro._ZTIZN8asiodnp313UpdateBuilder7AddMeasIN8opendnp37CounterEEERS0_RKT_tNS2_9EventModeEEUlRNS2_14IUpdateHandlerEE_,"awG",@progbits,_ZTIZN8asiodnp313UpdateBuilder7AddMeasIN8opendnp37CounterEEERS0_RKT_tNS2_9EventModeEEUlRNS2_14IUpdateHandlerEE_,comdat
	.align 8
	.type	_ZTIZN8asiodnp313UpdateBuilder7AddMeasIN8opendnp37CounterEEERS0_RKT_tNS2_9EventModeEEUlRNS2_14IUpdateHandlerEE_, @object
	.size	_ZTIZN8asiodnp313UpdateBuilder7AddMeasIN8opendnp37CounterEEERS0_RKT_tNS2_9EventModeEEUlRNS2_14IUpdateHandlerEE_, 16
_ZTIZN8asiodnp313UpdateBuilder7AddMeasIN8opendnp37CounterEEERS0_RKT_tNS2_9EventModeEEUlRNS2_14IUpdateHandlerEE_:
	.quad	_ZTVN10__cxxabiv117__class_type_infoE+16
	.quad	_ZTSZN8asiodnp313UpdateBuilder7AddMeasIN8opendnp37CounterEEERS0_RKT_tNS2_9EventModeEEUlRNS2_14IUpdateHandlerEE_
	.weak	_ZTSZN8asiodnp313UpdateBuilder7AddMeasIN8opendnp313FrozenCounterEEERS0_RKT_tNS2_9EventModeEEUlRNS2_14IUpdateHandlerEE_
	.section	.rodata._ZTSZN8asiodnp313UpdateBuilder7AddMeasIN8opendnp313FrozenCounterEEERS0_RKT_tNS2_9EventModeEEUlRNS2_14IUpdateHandlerEE_,"aG",@progbits,_ZTSZN8asiodnp313UpdateBuilder7AddMeasIN8opendnp313FrozenCounterEEERS0_RKT_tNS2_9EventModeEEUlRNS2_14IUpdateHandlerEE_,comdat
	.align 32
	.type	_ZTSZN8asiodnp313UpdateBuilder7AddMeasIN8opendnp313FrozenCounterEEERS0_RKT_tNS2_9EventModeEEUlRNS2_14IUpdateHandlerEE_, @object
	.size	_ZTSZN8asiodnp313UpdateBuilder7AddMeasIN8opendnp313FrozenCounterEEERS0_RKT_tNS2_9EventModeEEUlRNS2_14IUpdateHandlerEE_, 115
_ZTSZN8asiodnp313UpdateBuilder7AddMeasIN8opendnp313FrozenCounterEEERS0_RKT_tNS2_9EventModeEEUlRNS2_14IUpdateHandlerEE_:
	.string	"ZN8asiodnp313UpdateBuilder7AddMeasIN8opendnp313FrozenCounterEEERS0_RKT_tNS2_9EventModeEEUlRNS2_14IUpdateHandlerEE_"
	.weak	_ZTIZN8asiodnp313UpdateBuilder7AddMeasIN8opendnp313FrozenCounterEEERS0_RKT_tNS2_9EventModeEEUlRNS2_14IUpdateHandlerEE_
	.section	.data.rel.ro._ZTIZN8asiodnp313UpdateBuilder7AddMeasIN8opendnp313FrozenCounterEEERS0_RKT_tNS2_9EventModeEEUlRNS2_14IUpdateHandlerEE_,"awG",@progbits,_ZTIZN8asiodnp313UpdateBuilder7AddMeasIN8opendnp313FrozenCounterEEERS0_RKT_tNS2_9EventModeEEUlRNS2_14IUpdateHandlerEE_,comdat
	.align 8
	.type	_ZTIZN8asiodnp313UpdateBuilder7AddMeasIN8opendnp313FrozenCounterEEERS0_RKT_tNS2_9EventModeEEUlRNS2_14IUpdateHandlerEE_, @object
	.size	_ZTIZN8asiodnp313UpdateBuilder7AddMeasIN8opendnp313FrozenCounterEEERS0_RKT_tNS2_9EventModeEEUlRNS2_14IUpdateHandlerEE_, 16
_ZTIZN8asiodnp313UpdateBuilder7AddMeasIN8opendnp313FrozenCounterEEERS0_RKT_tNS2_9EventModeEEUlRNS2_14IUpdateHandlerEE_:
	.quad	_ZTVN10__cxxabiv117__class_type_infoE+16
	.quad	_ZTSZN8asiodnp313UpdateBuilder7AddMeasIN8opendnp313FrozenCounterEEERS0_RKT_tNS2_9EventModeEEUlRNS2_14IUpdateHandlerEE_
	.weak	_ZTSZN8asiodnp313UpdateBuilder7AddMeasIN8opendnp318BinaryOutputStatusEEERS0_RKT_tNS2_9EventModeEEUlRNS2_14IUpdateHandlerEE_
	.section	.rodata._ZTSZN8asiodnp313UpdateBuilder7AddMeasIN8opendnp318BinaryOutputStatusEEERS0_RKT_tNS2_9EventModeEEUlRNS2_14IUpdateHandlerEE_,"aG",@progbits,_ZTSZN8asiodnp313UpdateBuilder7AddMeasIN8opendnp318BinaryOutputStatusEEERS0_RKT_tNS2_9EventModeEEUlRNS2_14IUpdateHandlerEE_,comdat
	.align 32
	.type	_ZTSZN8asiodnp313UpdateBuilder7AddMeasIN8opendnp318BinaryOutputStatusEEERS0_RKT_tNS2_9EventModeEEUlRNS2_14IUpdateHandlerEE_, @object
	.size	_ZTSZN8asiodnp313UpdateBuilder7AddMeasIN8opendnp318BinaryOutputStatusEEERS0_RKT_tNS2_9EventModeEEUlRNS2_14IUpdateHandlerEE_, 120
_ZTSZN8asiodnp313UpdateBuilder7AddMeasIN8opendnp318BinaryOutputStatusEEERS0_RKT_tNS2_9EventModeEEUlRNS2_14IUpdateHandlerEE_:
	.string	"ZN8asiodnp313UpdateBuilder7AddMeasIN8opendnp318BinaryOutputStatusEEERS0_RKT_tNS2_9EventModeEEUlRNS2_14IUpdateHandlerEE_"
	.weak	_ZTIZN8asiodnp313UpdateBuilder7AddMeasIN8opendnp318BinaryOutputStatusEEERS0_RKT_tNS2_9EventModeEEUlRNS2_14IUpdateHandlerEE_
	.section	.data.rel.ro._ZTIZN8asiodnp313UpdateBuilder7AddMeasIN8opendnp318BinaryOutputStatusEEERS0_RKT_tNS2_9EventModeEEUlRNS2_14IUpdateHandlerEE_,"awG",@progbits,_ZTIZN8asiodnp313UpdateBuilder7AddMeasIN8opendnp318BinaryOutputStatusEEERS0_RKT_tNS2_9EventModeEEUlRNS2_14IUpdateHandlerEE_,comdat
	.align 8
	.type	_ZTIZN8asiodnp313UpdateBuilder7AddMeasIN8opendnp318BinaryOutputStatusEEERS0_RKT_tNS2_9EventModeEEUlRNS2_14IUpdateHandlerEE_, @object
	.size	_ZTIZN8asiodnp313UpdateBuilder7AddMeasIN8opendnp318BinaryOutputStatusEEERS0_RKT_tNS2_9EventModeEEUlRNS2_14IUpdateHandlerEE_, 16
_ZTIZN8asiodnp313UpdateBuilder7AddMeasIN8opendnp318BinaryOutputStatusEEERS0_RKT_tNS2_9EventModeEEUlRNS2_14IUpdateHandlerEE_:
	.quad	_ZTVN10__cxxabiv117__class_type_infoE+16
	.quad	_ZTSZN8asiodnp313UpdateBuilder7AddMeasIN8opendnp318BinaryOutputStatusEEERS0_RKT_tNS2_9EventModeEEUlRNS2_14IUpdateHandlerEE_
	.weak	_ZTSZN8asiodnp313UpdateBuilder7AddMeasIN8opendnp318AnalogOutputStatusEEERS0_RKT_tNS2_9EventModeEEUlRNS2_14IUpdateHandlerEE_
	.section	.rodata._ZTSZN8asiodnp313UpdateBuilder7AddMeasIN8opendnp318AnalogOutputStatusEEERS0_RKT_tNS2_9EventModeEEUlRNS2_14IUpdateHandlerEE_,"aG",@progbits,_ZTSZN8asiodnp313UpdateBuilder7AddMeasIN8opendnp318AnalogOutputStatusEEERS0_RKT_tNS2_9EventModeEEUlRNS2_14IUpdateHandlerEE_,comdat
	.align 32
	.type	_ZTSZN8asiodnp313UpdateBuilder7AddMeasIN8opendnp318AnalogOutputStatusEEERS0_RKT_tNS2_9EventModeEEUlRNS2_14IUpdateHandlerEE_, @object
	.size	_ZTSZN8asiodnp313UpdateBuilder7AddMeasIN8opendnp318AnalogOutputStatusEEERS0_RKT_tNS2_9EventModeEEUlRNS2_14IUpdateHandlerEE_, 120
_ZTSZN8asiodnp313UpdateBuilder7AddMeasIN8opendnp318AnalogOutputStatusEEERS0_RKT_tNS2_9EventModeEEUlRNS2_14IUpdateHandlerEE_:
	.string	"ZN8asiodnp313UpdateBuilder7AddMeasIN8opendnp318AnalogOutputStatusEEERS0_RKT_tNS2_9EventModeEEUlRNS2_14IUpdateHandlerEE_"
	.weak	_ZTIZN8asiodnp313UpdateBuilder7AddMeasIN8opendnp318AnalogOutputStatusEEERS0_RKT_tNS2_9EventModeEEUlRNS2_14IUpdateHandlerEE_
	.section	.data.rel.ro._ZTIZN8asiodnp313UpdateBuilder7AddMeasIN8opendnp318AnalogOutputStatusEEERS0_RKT_tNS2_9EventModeEEUlRNS2_14IUpdateHandlerEE_,"awG",@progbits,_ZTIZN8asiodnp313UpdateBuilder7AddMeasIN8opendnp318AnalogOutputStatusEEERS0_RKT_tNS2_9EventModeEEUlRNS2_14IUpdateHandlerEE_,comdat
	.align 8
	.type	_ZTIZN8asiodnp313UpdateBuilder7AddMeasIN8opendnp318AnalogOutputStatusEEERS0_RKT_tNS2_9EventModeEEUlRNS2_14IUpdateHandlerEE_, @object
	.size	_ZTIZN8asiodnp313UpdateBuilder7AddMeasIN8opendnp318AnalogOutputStatusEEERS0_RKT_tNS2_9EventModeEEUlRNS2_14IUpdateHandlerEE_, 16
_ZTIZN8asiodnp313UpdateBuilder7AddMeasIN8opendnp318AnalogOutputStatusEEERS0_RKT_tNS2_9EventModeEEUlRNS2_14IUpdateHandlerEE_:
	.quad	_ZTVN10__cxxabiv117__class_type_infoE+16
	.quad	_ZTSZN8asiodnp313UpdateBuilder7AddMeasIN8opendnp318AnalogOutputStatusEEERS0_RKT_tNS2_9EventModeEEUlRNS2_14IUpdateHandlerEE_
	.weak	_ZTSSt23_Sp_counted_ptr_inplaceISt6vectorISt8functionIFvRN8opendnp314IUpdateHandlerEEESaIS6_EESaIS8_ELN9__gnu_cxx12_Lock_policyE2EE
	.section	.rodata._ZTSSt23_Sp_counted_ptr_inplaceISt6vectorISt8functionIFvRN8opendnp314IUpdateHandlerEEESaIS6_EESaIS8_ELN9__gnu_cxx12_Lock_policyE2EE,"aG",@progbits,_ZTSSt23_Sp_counted_ptr_inplaceISt6vectorISt8functionIFvRN8opendnp314IUpdateHandlerEEESaIS6_EESaIS8_ELN9__gnu_cxx12_Lock_policyE2EE,comdat
	.align 32
	.type	_ZTSSt23_Sp_counted_ptr_inplaceISt6vectorISt8functionIFvRN8opendnp314IUpdateHandlerEEESaIS6_EESaIS8_ELN9__gnu_cxx12_Lock_policyE2EE, @object
	.size	_ZTSSt23_Sp_counted_ptr_inplaceISt6vectorISt8functionIFvRN8opendnp314IUpdateHandlerEEESaIS6_EESaIS8_ELN9__gnu_cxx12_Lock_policyE2EE, 128
_ZTSSt23_Sp_counted_ptr_inplaceISt6vectorISt8functionIFvRN8opendnp314IUpdateHandlerEEESaIS6_EESaIS8_ELN9__gnu_cxx12_Lock_policyE2EE:
	.string	"St23_Sp_counted_ptr_inplaceISt6vectorISt8functionIFvRN8opendnp314IUpdateHandlerEEESaIS6_EESaIS8_ELN9__gnu_cxx12_Lock_policyE2EE"
	.weak	_ZTISt23_Sp_counted_ptr_inplaceISt6vectorISt8functionIFvRN8opendnp314IUpdateHandlerEEESaIS6_EESaIS8_ELN9__gnu_cxx12_Lock_policyE2EE
	.section	.data.rel.ro._ZTISt23_Sp_counted_ptr_inplaceISt6vectorISt8functionIFvRN8opendnp314IUpdateHandlerEEESaIS6_EESaIS8_ELN9__gnu_cxx12_Lock_policyE2EE,"awG",@progbits,_ZTISt23_Sp_counted_ptr_inplaceISt6vectorISt8functionIFvRN8opendnp314IUpdateHandlerEEESaIS6_EESaIS8_ELN9__gnu_cxx12_Lock_policyE2EE,comdat
	.align 8
	.type	_ZTISt23_Sp_counted_ptr_inplaceISt6vectorISt8functionIFvRN8opendnp314IUpdateHandlerEEESaIS6_EESaIS8_ELN9__gnu_cxx12_Lock_policyE2EE, @object
	.size	_ZTISt23_Sp_counted_ptr_inplaceISt6vectorISt8functionIFvRN8opendnp314IUpdateHandlerEEESaIS6_EESaIS8_ELN9__gnu_cxx12_Lock_policyE2EE, 24
_ZTISt23_Sp_counted_ptr_inplaceISt6vectorISt8functionIFvRN8opendnp314IUpdateHandlerEEESaIS6_EESaIS8_ELN9__gnu_cxx12_Lock_policyE2EE:
	.quad	_ZTVN10__cxxabiv120__si_class_type_infoE+16
	.quad	_ZTSSt23_Sp_counted_ptr_inplaceISt6vectorISt8functionIFvRN8opendnp314IUpdateHandlerEEESaIS6_EESaIS8_ELN9__gnu_cxx12_Lock_policyE2EE
	.quad	_ZTISt16_Sp_counted_baseILN9__gnu_cxx12_Lock_policyE2EE
	.weak	_ZTVSt23_Sp_counted_ptr_inplaceISt6vectorISt8functionIFvRN8opendnp314IUpdateHandlerEEESaIS6_EESaIS8_ELN9__gnu_cxx12_Lock_policyE2EE
	.section	.data.rel.ro._ZTVSt23_Sp_counted_ptr_inplaceISt6vectorISt8functionIFvRN8opendnp314IUpdateHandlerEEESaIS6_EESaIS8_ELN9__gnu_cxx12_Lock_policyE2EE,"awG",@progbits,_ZTVSt23_Sp_counted_ptr_inplaceISt6vectorISt8functionIFvRN8opendnp314IUpdateHandlerEEESaIS6_EESaIS8_ELN9__gnu_cxx12_Lock_policyE2EE,comdat
	.align 8
	.type	_ZTVSt23_Sp_counted_ptr_inplaceISt6vectorISt8functionIFvRN8opendnp314IUpdateHandlerEEESaIS6_EESaIS8_ELN9__gnu_cxx12_Lock_policyE2EE, @object
	.size	_ZTVSt23_Sp_counted_ptr_inplaceISt6vectorISt8functionIFvRN8opendnp314IUpdateHandlerEEESaIS6_EESaIS8_ELN9__gnu_cxx12_Lock_policyE2EE, 56
_ZTVSt23_Sp_counted_ptr_inplaceISt6vectorISt8functionIFvRN8opendnp314IUpdateHandlerEEESaIS6_EESaIS8_ELN9__gnu_cxx12_Lock_policyE2EE:
	.quad	0
	.quad	_ZTISt23_Sp_counted_ptr_inplaceISt6vectorISt8functionIFvRN8opendnp314IUpdateHandlerEEESaIS6_EESaIS8_ELN9__gnu_cxx12_Lock_policyE2EE
	.quad	_ZNSt23_Sp_counted_ptr_inplaceISt6vectorISt8functionIFvRN8opendnp314IUpdateHandlerEEESaIS6_EESaIS8_ELN9__gnu_cxx12_Lock_policyE2EED1Ev
	.quad	_ZNSt23_Sp_counted_ptr_inplaceISt6vectorISt8functionIFvRN8opendnp314IUpdateHandlerEEESaIS6_EESaIS8_ELN9__gnu_cxx12_Lock_policyE2EED0Ev
	.quad	_ZNSt23_Sp_counted_ptr_inplaceISt6vectorISt8functionIFvRN8opendnp314IUpdateHandlerEEESaIS6_EESaIS8_ELN9__gnu_cxx12_Lock_policyE2EE10_M_disposeEv
	.quad	_ZNSt23_Sp_counted_ptr_inplaceISt6vectorISt8functionIFvRN8opendnp314IUpdateHandlerEEESaIS6_EESaIS8_ELN9__gnu_cxx12_Lock_policyE2EE10_M_destroyEv
	.quad	_ZNSt23_Sp_counted_ptr_inplaceISt6vectorISt8functionIFvRN8opendnp314IUpdateHandlerEEESaIS6_EESaIS8_ELN9__gnu_cxx12_Lock_policyE2EE14_M_get_deleterERKSt9type_info
	.weak	_ZZNSt19_Sp_make_shared_tag5_S_tiEvE5__tag
	.section	.rodata._ZZNSt19_Sp_make_shared_tag5_S_tiEvE5__tag,"aG",@progbits,_ZZNSt19_Sp_make_shared_tag5_S_tiEvE5__tag,comdat
	.align 8
	.type	_ZZNSt19_Sp_make_shared_tag5_S_tiEvE5__tag, @gnu_unique_object
	.size	_ZZNSt19_Sp_make_shared_tag5_S_tiEvE5__tag, 16
_ZZNSt19_Sp_make_shared_tag5_S_tiEvE5__tag:
	.zero	16
	.weakref	_ZL28__gthrw___pthread_key_createPjPFvPvE,__pthread_key_create
	.section	.rodata.cst8,"aM",@progbits,8
	.align 8
.LC1:
	.long	1
	.long	1
	.hidden	DW.ref.__gxx_personality_v0
	.weak	DW.ref.__gxx_personality_v0
	.section	.data.rel.local.DW.ref.__gxx_personality_v0,"awG",@progbits,DW.ref.__gxx_personality_v0,comdat
	.align 8
	.type	DW.ref.__gxx_personality_v0, @object
	.size	DW.ref.__gxx_personality_v0, 8
DW.ref.__gxx_personality_v0:
	.quad	__gxx_personality_v0
	.ident	"GCC: (GNU) 10.3.1 20210703 (ALT Sisyphus 10.3.1-alt2)"
	.section	.note.GNU-stack,"",@progbits
