	.file	"DNP3Manager.cpp"
	.text
	.section	.rodata._ZNK4asio6detail15system_category4nameEv.str1.1,"aMS",@progbits,1
.LC0:
	.string	"asio.system"
	.section	.text._ZNK4asio6detail15system_category4nameEv,"axG",@progbits,_ZNK4asio6detail15system_category4nameEv,comdat
	.align 2
	.p2align 4
	.weak	_ZNK4asio6detail15system_category4nameEv
	.type	_ZNK4asio6detail15system_category4nameEv, @function
_ZNK4asio6detail15system_category4nameEv:
.LFB3493:
	.cfi_startproc
	leaq	.LC0(%rip), %rax
	ret
	.cfi_endproc
.LFE3493:
	.size	_ZNK4asio6detail15system_category4nameEv, .-_ZNK4asio6detail15system_category4nameEv
	.section	.rodata._ZNK4asio5error6detail14netdb_category4nameEv.str1.1,"aMS",@progbits,1
.LC1:
	.string	"asio.netdb"
	.section	.text._ZNK4asio5error6detail14netdb_category4nameEv,"axG",@progbits,_ZNK4asio5error6detail14netdb_category4nameEv,comdat
	.align 2
	.p2align 4
	.weak	_ZNK4asio5error6detail14netdb_category4nameEv
	.type	_ZNK4asio5error6detail14netdb_category4nameEv, @function
_ZNK4asio5error6detail14netdb_category4nameEv:
.LFB3533:
	.cfi_startproc
	leaq	.LC1(%rip), %rax
	ret
	.cfi_endproc
.LFE3533:
	.size	_ZNK4asio5error6detail14netdb_category4nameEv, .-_ZNK4asio5error6detail14netdb_category4nameEv
	.section	.rodata._ZNK4asio5error6detail17addrinfo_category4nameEv.str1.1,"aMS",@progbits,1
.LC2:
	.string	"asio.addrinfo"
	.section	.text._ZNK4asio5error6detail17addrinfo_category4nameEv,"axG",@progbits,_ZNK4asio5error6detail17addrinfo_category4nameEv,comdat
	.align 2
	.p2align 4
	.weak	_ZNK4asio5error6detail17addrinfo_category4nameEv
	.type	_ZNK4asio5error6detail17addrinfo_category4nameEv, @function
_ZNK4asio5error6detail17addrinfo_category4nameEv:
.LFB3539:
	.cfi_startproc
	leaq	.LC2(%rip), %rax
	ret
	.cfi_endproc
.LFE3539:
	.size	_ZNK4asio5error6detail17addrinfo_category4nameEv, .-_ZNK4asio5error6detail17addrinfo_category4nameEv
	.section	.rodata._ZNK4asio5error6detail13misc_category4nameEv.str1.1,"aMS",@progbits,1
.LC3:
	.string	"asio.misc"
	.section	.text._ZNK4asio5error6detail13misc_category4nameEv,"axG",@progbits,_ZNK4asio5error6detail13misc_category4nameEv,comdat
	.align 2
	.p2align 4
	.weak	_ZNK4asio5error6detail13misc_category4nameEv
	.type	_ZNK4asio5error6detail13misc_category4nameEv, @function
_ZNK4asio5error6detail13misc_category4nameEv:
.LFB3545:
	.cfi_startproc
	leaq	.LC3(%rip), %rax
	ret
	.cfi_endproc
.LFE3545:
	.size	_ZNK4asio5error6detail13misc_category4nameEv, .-_ZNK4asio5error6detail13misc_category4nameEv
	.section	.text._ZN4asio6detail7tss_ptrINS0_10call_stackINS0_15task_io_serviceENS0_27task_io_service_thread_infoEE7contextEED2Ev,"axG",@progbits,_ZN4asio6detail7tss_ptrINS0_10call_stackINS0_15task_io_serviceENS0_27task_io_service_thread_infoEE7contextEED5Ev,comdat
	.align 2
	.p2align 4
	.weak	_ZN4asio6detail7tss_ptrINS0_10call_stackINS0_15task_io_serviceENS0_27task_io_service_thread_infoEE7contextEED2Ev
	.type	_ZN4asio6detail7tss_ptrINS0_10call_stackINS0_15task_io_serviceENS0_27task_io_service_thread_infoEE7contextEED2Ev, @function
_ZN4asio6detail7tss_ptrINS0_10call_stackINS0_15task_io_serviceENS0_27task_io_service_thread_infoEE7contextEED2Ev:
.LFB10453:
	.cfi_startproc
	ret
	.cfi_endproc
.LFE10453:
	.size	_ZN4asio6detail7tss_ptrINS0_10call_stackINS0_15task_io_serviceENS0_27task_io_service_thread_infoEE7contextEED2Ev, .-_ZN4asio6detail7tss_ptrINS0_10call_stackINS0_15task_io_serviceENS0_27task_io_service_thread_infoEE7contextEED2Ev
	.weak	_ZN4asio6detail7tss_ptrINS0_10call_stackINS0_15task_io_serviceENS0_27task_io_service_thread_infoEE7contextEED1Ev
	.set	_ZN4asio6detail7tss_ptrINS0_10call_stackINS0_15task_io_serviceENS0_27task_io_service_thread_infoEE7contextEED1Ev,_ZN4asio6detail7tss_ptrINS0_10call_stackINS0_15task_io_serviceENS0_27task_io_service_thread_infoEE7contextEED2Ev
	.section	.text._ZN4asio6detail10service_idINS0_13epoll_reactorEED2Ev,"axG",@progbits,_ZN4asio6detail10service_idINS0_13epoll_reactorEED5Ev,comdat
	.align 2
	.p2align 4
	.weak	_ZN4asio6detail10service_idINS0_13epoll_reactorEED2Ev
	.type	_ZN4asio6detail10service_idINS0_13epoll_reactorEED2Ev, @function
_ZN4asio6detail10service_idINS0_13epoll_reactorEED2Ev:
.LFB10456:
	.cfi_startproc
	ret
	.cfi_endproc
.LFE10456:
	.size	_ZN4asio6detail10service_idINS0_13epoll_reactorEED2Ev, .-_ZN4asio6detail10service_idINS0_13epoll_reactorEED2Ev
	.weak	_ZN4asio6detail10service_idINS0_13epoll_reactorEED1Ev
	.set	_ZN4asio6detail10service_idINS0_13epoll_reactorEED1Ev,_ZN4asio6detail10service_idINS0_13epoll_reactorEED2Ev
	.section	.text._ZN4asio6detail10service_idINS0_15task_io_serviceEED2Ev,"axG",@progbits,_ZN4asio6detail10service_idINS0_15task_io_serviceEED5Ev,comdat
	.align 2
	.p2align 4
	.weak	_ZN4asio6detail10service_idINS0_15task_io_serviceEED2Ev
	.type	_ZN4asio6detail10service_idINS0_15task_io_serviceEED2Ev, @function
_ZN4asio6detail10service_idINS0_15task_io_serviceEED2Ev:
.LFB10459:
	.cfi_startproc
	ret
	.cfi_endproc
.LFE10459:
	.size	_ZN4asio6detail10service_idINS0_15task_io_serviceEED2Ev, .-_ZN4asio6detail10service_idINS0_15task_io_serviceEED2Ev
	.weak	_ZN4asio6detail10service_idINS0_15task_io_serviceEED1Ev
	.set	_ZN4asio6detail10service_idINS0_15task_io_serviceEED1Ev,_ZN4asio6detail10service_idINS0_15task_io_serviceEED2Ev
	.section	.text._ZN4asio6detail7tss_ptrINS0_10call_stackINS0_14strand_service11strand_implEhE7contextEED2Ev,"axG",@progbits,_ZN4asio6detail7tss_ptrINS0_10call_stackINS0_14strand_service11strand_implEhE7contextEED5Ev,comdat
	.align 2
	.p2align 4
	.weak	_ZN4asio6detail7tss_ptrINS0_10call_stackINS0_14strand_service11strand_implEhE7contextEED2Ev
	.type	_ZN4asio6detail7tss_ptrINS0_10call_stackINS0_14strand_service11strand_implEhE7contextEED2Ev, @function
_ZN4asio6detail7tss_ptrINS0_10call_stackINS0_14strand_service11strand_implEhE7contextEED2Ev:
.LFB10462:
	.cfi_startproc
	ret
	.cfi_endproc
.LFE10462:
	.size	_ZN4asio6detail7tss_ptrINS0_10call_stackINS0_14strand_service11strand_implEhE7contextEED2Ev, .-_ZN4asio6detail7tss_ptrINS0_10call_stackINS0_14strand_service11strand_implEhE7contextEED2Ev
	.weak	_ZN4asio6detail7tss_ptrINS0_10call_stackINS0_14strand_service11strand_implEhE7contextEED1Ev
	.set	_ZN4asio6detail7tss_ptrINS0_10call_stackINS0_14strand_service11strand_implEhE7contextEED1Ev,_ZN4asio6detail7tss_ptrINS0_10call_stackINS0_14strand_service11strand_implEhE7contextEED2Ev
	.section	.text._ZN4asio6detail10service_idINS0_14strand_serviceEED2Ev,"axG",@progbits,_ZN4asio6detail10service_idINS0_14strand_serviceEED5Ev,comdat
	.align 2
	.p2align 4
	.weak	_ZN4asio6detail10service_idINS0_14strand_serviceEED2Ev
	.type	_ZN4asio6detail10service_idINS0_14strand_serviceEED2Ev, @function
_ZN4asio6detail10service_idINS0_14strand_serviceEED2Ev:
.LFB10465:
	.cfi_startproc
	ret
	.cfi_endproc
.LFE10465:
	.size	_ZN4asio6detail10service_idINS0_14strand_serviceEED2Ev, .-_ZN4asio6detail10service_idINS0_14strand_serviceEED2Ev
	.weak	_ZN4asio6detail10service_idINS0_14strand_serviceEED1Ev
	.set	_ZN4asio6detail10service_idINS0_14strand_serviceEED1Ev,_ZN4asio6detail10service_idINS0_14strand_serviceEED2Ev
	.section	.text._ZN4asio6detail15system_categoryD2Ev,"axG",@progbits,_ZN4asio6detail15system_categoryD5Ev,comdat
	.align 2
	.p2align 4
	.weak	_ZN4asio6detail15system_categoryD2Ev
	.type	_ZN4asio6detail15system_categoryD2Ev, @function
_ZN4asio6detail15system_categoryD2Ev:
.LFB10428:
	.cfi_startproc
	movq	_ZTVN4asio6detail15system_categoryE@GOTPCREL(%rip), %rax
	addq	$16, %rax
	movq	%rax, (%rdi)
	jmp	_ZNSt3_V214error_categoryD2Ev@PLT
	.cfi_endproc
.LFE10428:
	.size	_ZN4asio6detail15system_categoryD2Ev, .-_ZN4asio6detail15system_categoryD2Ev
	.weak	_ZN4asio6detail15system_categoryD1Ev
	.set	_ZN4asio6detail15system_categoryD1Ev,_ZN4asio6detail15system_categoryD2Ev
	.section	.text._ZN4asio6detail15system_categoryD0Ev,"axG",@progbits,_ZN4asio6detail15system_categoryD5Ev,comdat
	.align 2
	.p2align 4
	.weak	_ZN4asio6detail15system_categoryD0Ev
	.type	_ZN4asio6detail15system_categoryD0Ev, @function
_ZN4asio6detail15system_categoryD0Ev:
.LFB10430:
	.cfi_startproc
	movq	_ZTVN4asio6detail15system_categoryE@GOTPCREL(%rip), %rax
	pushq	%rbp
	.cfi_def_cfa_offset 16
	.cfi_offset 6, -16
	movq	%rdi, %rbp
	addq	$16, %rax
	movq	%rax, (%rdi)
	call	_ZNSt3_V214error_categoryD2Ev@PLT
	movq	%rbp, %rdi
	movl	$8, %esi
	popq	%rbp
	.cfi_def_cfa_offset 8
	jmp	_ZdlPvm@PLT
	.cfi_endproc
.LFE10430:
	.size	_ZN4asio6detail15system_categoryD0Ev, .-_ZN4asio6detail15system_categoryD0Ev
	.section	.text._ZN4asio5error6detail14netdb_categoryD2Ev,"axG",@progbits,_ZN4asio5error6detail14netdb_categoryD5Ev,comdat
	.align 2
	.p2align 4
	.weak	_ZN4asio5error6detail14netdb_categoryD2Ev
	.type	_ZN4asio5error6detail14netdb_categoryD2Ev, @function
_ZN4asio5error6detail14netdb_categoryD2Ev:
.LFB10416:
	.cfi_startproc
	movq	_ZTVN4asio5error6detail14netdb_categoryE@GOTPCREL(%rip), %rax
	addq	$16, %rax
	movq	%rax, (%rdi)
	jmp	_ZNSt3_V214error_categoryD2Ev@PLT
	.cfi_endproc
.LFE10416:
	.size	_ZN4asio5error6detail14netdb_categoryD2Ev, .-_ZN4asio5error6detail14netdb_categoryD2Ev
	.weak	_ZN4asio5error6detail14netdb_categoryD1Ev
	.set	_ZN4asio5error6detail14netdb_categoryD1Ev,_ZN4asio5error6detail14netdb_categoryD2Ev
	.section	.text._ZN4asio5error6detail14netdb_categoryD0Ev,"axG",@progbits,_ZN4asio5error6detail14netdb_categoryD5Ev,comdat
	.align 2
	.p2align 4
	.weak	_ZN4asio5error6detail14netdb_categoryD0Ev
	.type	_ZN4asio5error6detail14netdb_categoryD0Ev, @function
_ZN4asio5error6detail14netdb_categoryD0Ev:
.LFB10418:
	.cfi_startproc
	movq	_ZTVN4asio5error6detail14netdb_categoryE@GOTPCREL(%rip), %rax
	pushq	%rbp
	.cfi_def_cfa_offset 16
	.cfi_offset 6, -16
	movq	%rdi, %rbp
	addq	$16, %rax
	movq	%rax, (%rdi)
	call	_ZNSt3_V214error_categoryD2Ev@PLT
	movq	%rbp, %rdi
	movl	$8, %esi
	popq	%rbp
	.cfi_def_cfa_offset 8
	jmp	_ZdlPvm@PLT
	.cfi_endproc
.LFE10418:
	.size	_ZN4asio5error6detail14netdb_categoryD0Ev, .-_ZN4asio5error6detail14netdb_categoryD0Ev
	.section	.text._ZN4asio5error6detail17addrinfo_categoryD2Ev,"axG",@progbits,_ZN4asio5error6detail17addrinfo_categoryD5Ev,comdat
	.align 2
	.p2align 4
	.weak	_ZN4asio5error6detail17addrinfo_categoryD2Ev
	.type	_ZN4asio5error6detail17addrinfo_categoryD2Ev, @function
_ZN4asio5error6detail17addrinfo_categoryD2Ev:
.LFB10412:
	.cfi_startproc
	movq	_ZTVN4asio5error6detail17addrinfo_categoryE@GOTPCREL(%rip), %rax
	addq	$16, %rax
	movq	%rax, (%rdi)
	jmp	_ZNSt3_V214error_categoryD2Ev@PLT
	.cfi_endproc
.LFE10412:
	.size	_ZN4asio5error6detail17addrinfo_categoryD2Ev, .-_ZN4asio5error6detail17addrinfo_categoryD2Ev
	.weak	_ZN4asio5error6detail17addrinfo_categoryD1Ev
	.set	_ZN4asio5error6detail17addrinfo_categoryD1Ev,_ZN4asio5error6detail17addrinfo_categoryD2Ev
	.section	.text._ZN4asio5error6detail17addrinfo_categoryD0Ev,"axG",@progbits,_ZN4asio5error6detail17addrinfo_categoryD5Ev,comdat
	.align 2
	.p2align 4
	.weak	_ZN4asio5error6detail17addrinfo_categoryD0Ev
	.type	_ZN4asio5error6detail17addrinfo_categoryD0Ev, @function
_ZN4asio5error6detail17addrinfo_categoryD0Ev:
.LFB10414:
	.cfi_startproc
	movq	_ZTVN4asio5error6detail17addrinfo_categoryE@GOTPCREL(%rip), %rax
	pushq	%rbp
	.cfi_def_cfa_offset 16
	.cfi_offset 6, -16
	movq	%rdi, %rbp
	addq	$16, %rax
	movq	%rax, (%rdi)
	call	_ZNSt3_V214error_categoryD2Ev@PLT
	movq	%rbp, %rdi
	movl	$8, %esi
	popq	%rbp
	.cfi_def_cfa_offset 8
	jmp	_ZdlPvm@PLT
	.cfi_endproc
.LFE10414:
	.size	_ZN4asio5error6detail17addrinfo_categoryD0Ev, .-_ZN4asio5error6detail17addrinfo_categoryD0Ev
	.section	.text._ZN4asio5error6detail13misc_categoryD2Ev,"axG",@progbits,_ZN4asio5error6detail13misc_categoryD5Ev,comdat
	.align 2
	.p2align 4
	.weak	_ZN4asio5error6detail13misc_categoryD2Ev
	.type	_ZN4asio5error6detail13misc_categoryD2Ev, @function
_ZN4asio5error6detail13misc_categoryD2Ev:
.LFB10408:
	.cfi_startproc
	movq	_ZTVN4asio5error6detail13misc_categoryE@GOTPCREL(%rip), %rax
	addq	$16, %rax
	movq	%rax, (%rdi)
	jmp	_ZNSt3_V214error_categoryD2Ev@PLT
	.cfi_endproc
.LFE10408:
	.size	_ZN4asio5error6detail13misc_categoryD2Ev, .-_ZN4asio5error6detail13misc_categoryD2Ev
	.weak	_ZN4asio5error6detail13misc_categoryD1Ev
	.set	_ZN4asio5error6detail13misc_categoryD1Ev,_ZN4asio5error6detail13misc_categoryD2Ev
	.section	.text._ZN4asio5error6detail13misc_categoryD0Ev,"axG",@progbits,_ZN4asio5error6detail13misc_categoryD5Ev,comdat
	.align 2
	.p2align 4
	.weak	_ZN4asio5error6detail13misc_categoryD0Ev
	.type	_ZN4asio5error6detail13misc_categoryD0Ev, @function
_ZN4asio5error6detail13misc_categoryD0Ev:
.LFB10410:
	.cfi_startproc
	movq	_ZTVN4asio5error6detail13misc_categoryE@GOTPCREL(%rip), %rax
	pushq	%rbp
	.cfi_def_cfa_offset 16
	.cfi_offset 6, -16
	movq	%rdi, %rbp
	addq	$16, %rax
	movq	%rax, (%rdi)
	call	_ZNSt3_V214error_categoryD2Ev@PLT
	movq	%rbp, %rdi
	movl	$8, %esi
	popq	%rbp
	.cfi_def_cfa_offset 8
	jmp	_ZdlPvm@PLT
	.cfi_endproc
.LFE10410:
	.size	_ZN4asio5error6detail13misc_categoryD0Ev, .-_ZN4asio5error6detail13misc_categoryD0Ev
	.section	.rodata._ZNK4asio6detail15system_category7messageB5cxx11Ei.str1.8,"aMS",@progbits,1
	.align 8
.LC4:
	.string	"basic_string::_M_construct null not valid"
	.section	.text._ZNK4asio6detail15system_category7messageB5cxx11Ei,"axG",@progbits,_ZNK4asio6detail15system_category7messageB5cxx11Ei,comdat
	.align 2
	.p2align 4
	.weak	_ZNK4asio6detail15system_category7messageB5cxx11Ei
	.type	_ZNK4asio6detail15system_category7messageB5cxx11Ei, @function
_ZNK4asio6detail15system_category7messageB5cxx11Ei:
.LFB3494:
	.cfi_startproc
	pushq	%r14
	.cfi_def_cfa_offset 16
	.cfi_offset 14, -16
	pushq	%r13
	.cfi_def_cfa_offset 24
	.cfi_offset 13, -24
	pushq	%r12
	.cfi_def_cfa_offset 32
	.cfi_offset 12, -32
	movq	%rdi, %r12
	pushq	%rbp
	.cfi_def_cfa_offset 40
	.cfi_offset 6, -40
	leaq	16(%rdi), %rbp
	subq	$296, %rsp
	.cfi_def_cfa_offset 336
	movq	%fs:40, %rax
	movq	%rax, 280(%rsp)
	xorl	%eax, %eax
	cmpl	$125, %edx
	je	.L38
	pxor	%xmm0, %xmm0
	movl	%edx, %edi
	leaq	16(%rsp), %rsi
	movl	$256, %edx
	movups	%xmm0, 16(%rsp)
	movups	%xmm0, 32(%rsp)
	movups	%xmm0, 48(%rsp)
	movups	%xmm0, 64(%rsp)
	movups	%xmm0, 80(%rsp)
	movups	%xmm0, 96(%rsp)
	movups	%xmm0, 112(%rsp)
	movups	%xmm0, 128(%rsp)
	movups	%xmm0, 144(%rsp)
	movups	%xmm0, 160(%rsp)
	movups	%xmm0, 176(%rsp)
	movups	%xmm0, 192(%rsp)
	movups	%xmm0, 208(%rsp)
	movups	%xmm0, 224(%rsp)
	movups	%xmm0, 240(%rsp)
	movups	%xmm0, 256(%rsp)
	call	strerror_r@PLT
	movq	%rbp, (%r12)
	movq	%rax, %r13
	testq	%rax, %rax
	je	.L26
	movq	%rax, %rdi
	call	strlen@PLT
	movq	%rax, 8(%rsp)
	movq	%rax, %r14
	cmpq	$15, %rax
	ja	.L39
	cmpq	$1, %rax
	jne	.L30
	movzbl	0(%r13), %edx
	movb	%dl, 16(%r12)
.L31:
	movq	%rax, 8(%r12)
	movb	$0, 0(%rbp,%rax)
.L23:
	movq	280(%rsp), %rax
	subq	%fs:40, %rax
	jne	.L40
	addq	$296, %rsp
	.cfi_remember_state
	.cfi_def_cfa_offset 40
	movq	%r12, %rax
	popq	%rbp
	.cfi_def_cfa_offset 32
	popq	%r12
	.cfi_def_cfa_offset 24
	popq	%r13
	.cfi_def_cfa_offset 16
	popq	%r14
	.cfi_def_cfa_offset 8
	ret
	.p2align 4,,10
	.p2align 3
.L39:
	.cfi_restore_state
	leaq	8(%rsp), %rsi
	xorl	%edx, %edx
	movq	%r12, %rdi
	call	_ZNSt7__cxx1112basic_stringIcSt11char_traitsIcESaIcEE9_M_createERmm@PLT
	movq	%rax, (%r12)
	movq	%rax, %rbp
	movq	8(%rsp), %rax
	movq	%rax, 16(%r12)
.L29:
	movq	%rbp, %rdi
	movq	%r14, %rdx
	movq	%r13, %rsi
	call	memcpy@PLT
	movq	8(%rsp), %rax
	movq	(%r12), %rbp
	jmp	.L31
	.p2align 4,,10
	.p2align 3
.L38:
	movq	%rbp, (%rdi)
	xorl	%edx, %edx
	leaq	8(%rsp), %rsi
	movq	$18, 8(%rsp)
	call	_ZNSt7__cxx1112basic_stringIcSt11char_traitsIcESaIcEE9_M_createERmm@PLT
	movq	8(%rsp), %rdx
	movdqa	.LC5(%rip), %xmm0
	movq	%rax, (%r12)
	movq	%rdx, 16(%r12)
	movl	$11876, %edx
	movw	%dx, 16(%rax)
	movups	%xmm0, (%rax)
	movq	8(%rsp), %rax
	movq	(%r12), %rdx
	movq	%rax, 8(%r12)
	movb	$0, (%rdx,%rax)
	jmp	.L23
	.p2align 4,,10
	.p2align 3
.L30:
	testq	%rax, %rax
	je	.L31
	jmp	.L29
.L26:
	leaq	.LC4(%rip), %rdi
	call	_ZSt19__throw_logic_errorPKc@PLT
.L40:
	call	__stack_chk_fail@PLT
	.cfi_endproc
.LFE3494:
	.size	_ZNK4asio6detail15system_category7messageB5cxx11Ei, .-_ZNK4asio6detail15system_category7messageB5cxx11Ei
	.section	.text._ZNK4asio5error6detail17addrinfo_category7messageB5cxx11Ei,"axG",@progbits,_ZNK4asio5error6detail17addrinfo_category7messageB5cxx11Ei,comdat
	.align 2
	.p2align 4
	.weak	_ZNK4asio5error6detail17addrinfo_category7messageB5cxx11Ei
	.type	_ZNK4asio5error6detail17addrinfo_category7messageB5cxx11Ei, @function
_ZNK4asio5error6detail17addrinfo_category7messageB5cxx11Ei:
.LFB3540:
	.cfi_startproc
	pushq	%r12
	.cfi_def_cfa_offset 16
	.cfi_offset 12, -16
	movq	%rdi, %r12
	subq	$16, %rsp
	.cfi_def_cfa_offset 32
	movq	%fs:40, %rax
	movq	%rax, 8(%rsp)
	xorl	%eax, %eax
	leaq	16(%rdi), %rax
	movq	%rax, (%rdi)
	cmpl	$-8, %edx
	je	.L47
	cmpl	$-7, %edx
	je	.L48
	xorl	%edx, %edx
	movq	%rsp, %rsi
	movq	$19, (%rsp)
	call	_ZNSt7__cxx1112basic_stringIcSt11char_traitsIcESaIcEE9_M_createERmm@PLT
	movq	(%rsp), %rdx
	movdqa	.LC8(%rip), %xmm0
	movq	%rax, (%r12)
	movq	%rdx, 16(%r12)
	movl	$28530, %edx
	movw	%dx, 16(%rax)
	movb	$114, 18(%rax)
	movups	%xmm0, (%rax)
	movq	(%rsp), %rax
	movq	(%r12), %rdx
	movq	%rax, 8(%r12)
	movb	$0, (%rdx,%rax)
.L41:
	movq	8(%rsp), %rax
	subq	%fs:40, %rax
	jne	.L49
	addq	$16, %rsp
	.cfi_remember_state
	.cfi_def_cfa_offset 16
	movq	%r12, %rax
	popq	%r12
	.cfi_def_cfa_offset 8
	ret
	.p2align 4,,10
	.p2align 3
.L48:
	.cfi_restore_state
	xorl	%edx, %edx
	movq	%rsp, %rsi
	movq	$25, (%rsp)
	call	_ZNSt7__cxx1112basic_stringIcSt11char_traitsIcESaIcEE9_M_createERmm@PLT
	movq	(%rsp), %rdx
	movdqa	.LC7(%rip), %xmm0
	movabsq	$7310593918082512243, %rcx
	movq	%rax, (%r12)
	movq	%rdx, 16(%r12)
	movq	%rcx, 16(%rax)
	movb	$100, 24(%rax)
	movups	%xmm0, (%rax)
	movq	(%rsp), %rax
	movq	(%r12), %rdx
	movq	%rax, 8(%r12)
	movb	$0, (%rdx,%rax)
	jmp	.L41
	.p2align 4,,10
	.p2align 3
.L47:
	xorl	%edx, %edx
	movq	%rsp, %rsi
	movq	$17, (%rsp)
	call	_ZNSt7__cxx1112basic_stringIcSt11char_traitsIcESaIcEE9_M_createERmm@PLT
	movq	(%rsp), %rdx
	movdqa	.LC6(%rip), %xmm0
	movq	%rax, (%r12)
	movq	%rdx, 16(%r12)
	movb	$100, 16(%rax)
	movups	%xmm0, (%rax)
	movq	(%rsp), %rax
	movq	(%r12), %rdx
	movq	%rax, 8(%r12)
	movb	$0, (%rdx,%rax)
	jmp	.L41
.L49:
	call	__stack_chk_fail@PLT
	.cfi_endproc
.LFE3540:
	.size	_ZNK4asio5error6detail17addrinfo_category7messageB5cxx11Ei, .-_ZNK4asio5error6detail17addrinfo_category7messageB5cxx11Ei
	.section	.text._ZNK4asio5error6detail14netdb_category7messageB5cxx11Ei,"axG",@progbits,_ZNK4asio5error6detail14netdb_category7messageB5cxx11Ei,comdat
	.align 2
	.p2align 4
	.weak	_ZNK4asio5error6detail14netdb_category7messageB5cxx11Ei
	.type	_ZNK4asio5error6detail14netdb_category7messageB5cxx11Ei, @function
_ZNK4asio5error6detail14netdb_category7messageB5cxx11Ei:
.LFB3534:
	.cfi_startproc
	pushq	%r12
	.cfi_def_cfa_offset 16
	.cfi_offset 12, -16
	movq	%rdi, %r12
	subq	$16, %rsp
	.cfi_def_cfa_offset 32
	movq	%fs:40, %rax
	movq	%rax, 8(%rsp)
	xorl	%eax, %eax
	leaq	16(%rdi), %rax
	movq	%rax, (%rdi)
	cmpl	$1, %edx
	je	.L58
	cmpl	$2, %edx
	je	.L59
	cmpl	$4, %edx
	je	.L60
	cmpl	$3, %edx
	je	.L61
	xorl	%edx, %edx
	movq	%rsp, %rsi
	movq	$16, (%rsp)
	call	_ZNSt7__cxx1112basic_stringIcSt11char_traitsIcESaIcEE9_M_createERmm@PLT
	movq	(%rsp), %rdx
	movdqa	.LC18(%rip), %xmm0
	movq	%rax, (%r12)
	movq	%rdx, 16(%r12)
	movups	%xmm0, (%rax)
	movq	(%rsp), %rax
	movq	(%r12), %rdx
	movq	%rax, 8(%r12)
	movb	$0, (%rdx,%rax)
.L50:
	movq	8(%rsp), %rax
	subq	%fs:40, %rax
	jne	.L62
	addq	$16, %rsp
	.cfi_remember_state
	.cfi_def_cfa_offset 16
	movq	%r12, %rax
	popq	%r12
	.cfi_def_cfa_offset 8
	ret
	.p2align 4,,10
	.p2align 3
.L58:
	.cfi_restore_state
	movq	%rsp, %rsi
	xorl	%edx, %edx
	movq	$30, (%rsp)
	call	_ZNSt7__cxx1112basic_stringIcSt11char_traitsIcESaIcEE9_M_createERmm@PLT
	movq	(%rsp), %rdx
	movl	$10597, %esi
	movdqa	.LC9(%rip), %xmm0
	movabsq	$8388361603773658465, %rcx
	movq	%rax, (%r12)
	movq	%rdx, 16(%r12)
	movq	%rcx, 16(%rax)
	movl	$1986622561, 24(%rax)
	movw	%si, 28(%rax)
	movups	%xmm0, (%rax)
	movq	(%rsp), %rax
	movq	(%r12), %rdx
	movq	%rax, 8(%r12)
	movb	$0, (%rdx,%rax)
	jmp	.L50
	.p2align 4,,10
	.p2align 3
.L61:
	xorl	%edx, %edx
	movq	%rsp, %rsi
	movq	$55, (%rsp)
	call	_ZNSt7__cxx1112basic_stringIcSt11char_traitsIcESaIcEE9_M_createERmm@PLT
	movq	(%rsp), %rdx
	movdqa	.LC15(%rip), %xmm0
	movq	%rax, (%r12)
	movq	%rdx, 16(%r12)
	movl	$30059, %edx
	movups	%xmm0, (%rax)
	movdqa	.LC16(%rip), %xmm0
	movl	$1869573152, 48(%rax)
	movups	%xmm0, 16(%rax)
	movdqa	.LC17(%rip), %xmm0
	movw	%dx, 52(%rax)
	movb	$112, 54(%rax)
	movups	%xmm0, 32(%rax)
	movq	(%rsp), %rax
	movq	(%r12), %rdx
	movq	%rax, 8(%r12)
	movb	$0, (%rdx,%rax)
	jmp	.L50
	.p2align 4,,10
	.p2align 3
.L59:
	xorl	%edx, %edx
	movq	%rsp, %rsi
	movq	$51, (%rsp)
	call	_ZNSt7__cxx1112basic_stringIcSt11char_traitsIcESaIcEE9_M_createERmm@PLT
	movq	(%rsp), %rdx
	movl	$25972, %ecx
	movdqa	.LC9(%rip), %xmm0
	movq	%rax, (%r12)
	movq	%rdx, 16(%r12)
	movups	%xmm0, (%rax)
	movdqa	.LC10(%rip), %xmm0
	movw	%cx, 48(%rax)
	movups	%xmm0, 16(%rax)
	movdqa	.LC11(%rip), %xmm0
	movb	$114, 50(%rax)
	movups	%xmm0, 32(%rax)
	movq	(%rsp), %rax
	movq	(%r12), %rdx
	movq	%rax, 8(%r12)
	movb	$0, (%rdx,%rax)
	jmp	.L50
	.p2align 4,,10
	.p2align 3
.L60:
	xorl	%edx, %edx
	movq	%rsp, %rsi
	movq	$56, (%rsp)
	call	_ZNSt7__cxx1112basic_stringIcSt11char_traitsIcESaIcEE9_M_createERmm@PLT
	movq	(%rsp), %rdx
	movdqa	.LC12(%rip), %xmm0
	movabsq	$7022344801645520244, %rcx
	movq	%rax, (%r12)
	movq	%rdx, 16(%r12)
	movups	%xmm0, (%rax)
	movdqa	.LC13(%rip), %xmm0
	movq	%rcx, 48(%rax)
	movups	%xmm0, 16(%rax)
	movdqa	.LC14(%rip), %xmm0
	movups	%xmm0, 32(%rax)
	movq	(%rsp), %rax
	movq	(%r12), %rdx
	movq	%rax, 8(%r12)
	movb	$0, (%rdx,%rax)
	jmp	.L50
.L62:
	call	__stack_chk_fail@PLT
	.cfi_endproc
.LFE3534:
	.size	_ZNK4asio5error6detail14netdb_category7messageB5cxx11Ei, .-_ZNK4asio5error6detail14netdb_category7messageB5cxx11Ei
	.section	.text._ZNK4asio5error6detail13misc_category7messageB5cxx11Ei,"axG",@progbits,_ZNK4asio5error6detail13misc_category7messageB5cxx11Ei,comdat
	.align 2
	.p2align 4
	.weak	_ZNK4asio5error6detail13misc_category7messageB5cxx11Ei
	.type	_ZNK4asio5error6detail13misc_category7messageB5cxx11Ei, @function
_ZNK4asio5error6detail13misc_category7messageB5cxx11Ei:
.LFB3546:
	.cfi_startproc
	pushq	%r12
	.cfi_def_cfa_offset 16
	.cfi_offset 12, -16
	movq	%rdi, %r12
	subq	$16, %rsp
	.cfi_def_cfa_offset 32
	movq	%fs:40, %rax
	movq	%rax, 8(%rsp)
	xorl	%eax, %eax
	leaq	16(%rdi), %rax
	movq	%rax, (%rdi)
	cmpl	$1, %edx
	je	.L71
	cmpl	$2, %edx
	je	.L72
	cmpl	$3, %edx
	je	.L73
	cmpl	$4, %edx
	je	.L74
	movabsq	$8316298233121436513, %rcx
	movl	$28530, %edx
	movq	%rcx, 16(%rdi)
	movl	$1919230051, 8(%rax)
	movw	%dx, 12(%rax)
	movb	$114, 14(%rax)
	movq	$15, 8(%rdi)
	movb	$0, 31(%rdi)
.L63:
	movq	8(%rsp), %rax
	subq	%fs:40, %rax
	jne	.L75
	addq	$16, %rsp
	.cfi_remember_state
	.cfi_def_cfa_offset 16
	movq	%r12, %rax
	popq	%r12
	.cfi_def_cfa_offset 8
	ret
	.p2align 4,,10
	.p2align 3
.L71:
	.cfi_restore_state
	movabsq	$2340011850872286273, %rcx
	movq	%rcx, 16(%rdi)
	movl	$1852141679, 8(%rax)
	movq	$12, 8(%rdi)
	movb	$0, 28(%rdi)
	jmp	.L63
	.p2align 4,,10
	.p2align 3
.L74:
	movq	%rsp, %rsi
	xorl	%edx, %edx
	movq	$57, (%rsp)
	call	_ZNSt7__cxx1112basic_stringIcSt11char_traitsIcESaIcEE9_M_createERmm@PLT
	movq	(%rsp), %rdx
	movdqa	.LC20(%rip), %xmm0
	movabsq	$7310291504967217959, %rsi
	movq	%rax, (%r12)
	movq	%rdx, 16(%r12)
	movups	%xmm0, (%rax)
	movdqa	.LC21(%rip), %xmm0
	movq	%rsi, 48(%rax)
	movups	%xmm0, 16(%rax)
	movdqa	.LC22(%rip), %xmm0
	movb	$116, 56(%rax)
	movups	%xmm0, 32(%rax)
	movq	(%rsp), %rax
	movq	(%r12), %rdx
	movq	%rax, 8(%r12)
	movb	$0, (%rdx,%rax)
	jmp	.L63
	.p2align 4,,10
	.p2align 3
.L72:
	movabsq	$7358994418594246213, %rcx
	movq	%rcx, 16(%rdi)
	movl	$27753, %ecx
	movw	%cx, 8(%rax)
	movb	$101, 10(%rax)
	movq	$11, 8(%rdi)
	movb	$0, 27(%rdi)
	jmp	.L63
	.p2align 4,,10
	.p2align 3
.L73:
	xorl	%edx, %edx
	movq	%rsp, %rsi
	movq	$17, (%rsp)
	call	_ZNSt7__cxx1112basic_stringIcSt11char_traitsIcESaIcEE9_M_createERmm@PLT
	movq	(%rsp), %rdx
	movdqa	.LC19(%rip), %xmm0
	movq	%rax, (%r12)
	movq	%rdx, 16(%r12)
	movb	$100, 16(%rax)
	movups	%xmm0, (%rax)
	movq	(%rsp), %rax
	movq	(%r12), %rdx
	movq	%rax, 8(%r12)
	movb	$0, (%rdx,%rax)
	jmp	.L63
.L75:
	call	__stack_chk_fail@PLT
	.cfi_endproc
.LFE3546:
	.size	_ZNK4asio5error6detail13misc_category7messageB5cxx11Ei, .-_ZNK4asio5error6detail13misc_category7messageB5cxx11Ei
	.text
	.align 2
	.p2align 4
	.globl	_ZN8asiodnp311DNP3ManagerD2Ev
	.type	_ZN8asiodnp311DNP3ManagerD2Ev, @function
_ZN8asiodnp311DNP3ManagerD2Ev:
.LFB7794:
	.cfi_startproc
	pushq	%rbp
	.cfi_def_cfa_offset 16
	.cfi_offset 6, -16
	movq	(%rdi), %rbp
	testq	%rbp, %rbp
	je	.L76
	movq	%rbp, %rdi
	call	_ZN8asiodnp315DNP3ManagerImplD1Ev@PLT
	movq	%rbp, %rdi
	movl	$272, %esi
	popq	%rbp
	.cfi_remember_state
	.cfi_def_cfa_offset 8
	jmp	_ZdlPvm@PLT
	.p2align 4,,10
	.p2align 3
.L76:
	.cfi_restore_state
	popq	%rbp
	.cfi_def_cfa_offset 8
	ret
	.cfi_endproc
.LFE7794:
	.size	_ZN8asiodnp311DNP3ManagerD2Ev, .-_ZN8asiodnp311DNP3ManagerD2Ev
	.globl	_ZN8asiodnp311DNP3ManagerD1Ev
	.set	_ZN8asiodnp311DNP3ManagerD1Ev,_ZN8asiodnp311DNP3ManagerD2Ev
	.align 2
	.p2align 4
	.globl	_ZN8asiodnp311DNP3Manager8ShutdownEv
	.type	_ZN8asiodnp311DNP3Manager8ShutdownEv, @function
_ZN8asiodnp311DNP3Manager8ShutdownEv:
.LFB7796:
	.cfi_startproc
	movq	(%rdi), %rdi
	jmp	_ZN8asiodnp315DNP3ManagerImpl8ShutdownEv@PLT
	.cfi_endproc
.LFE7796:
	.size	_ZN8asiodnp311DNP3Manager8ShutdownEv, .-_ZN8asiodnp311DNP3Manager8ShutdownEv
	.section	.text.unlikely,"ax",@progbits
	.align 2
.LCOLDB23:
	.text
.LHOTB23:
	.align 2
	.p2align 4
	.globl	_ZN8asiodnp311DNP3Manager14CreateListenerENSt7__cxx1112basic_stringIcSt11char_traitsIcESaIcEEEN7openpal10LogFiltersEN7asiopal10IPEndpointESt10shared_ptrINS_16IListenCallbacksEERSt10error_code
	.type	_ZN8asiodnp311DNP3Manager14CreateListenerENSt7__cxx1112basic_stringIcSt11char_traitsIcESaIcEEEN7openpal10LogFiltersEN7asiopal10IPEndpointESt10shared_ptrINS_16IListenCallbacksEERSt10error_code, @function
_ZN8asiodnp311DNP3Manager14CreateListenerENSt7__cxx1112basic_stringIcSt11char_traitsIcESaIcEEEN7openpal10LogFiltersEN7asiopal10IPEndpointESt10shared_ptrINS_16IListenCallbacksEERSt10error_code:
.LFB7828:
	.cfi_startproc
	.cfi_personality 0x9b,DW.ref.__gxx_personality_v0
	.cfi_lsda 0x1b,.LLSDA7828
	pushq	%rbp
	.cfi_def_cfa_offset 16
	.cfi_offset 6, -16
	movq	%rsp, %rbp
	.cfi_def_cfa_register 6
	pushq	%r15
	pushq	%r14
	.cfi_offset 15, -24
	.cfi_offset 14, -32
	movq	%r8, %r14
	pushq	%r13
	.cfi_offset 13, -40
	movq	%rdi, %r13
	pushq	%r12
	pushq	%rbx
	.cfi_offset 12, -48
	.cfi_offset 3, -56
	movq	%rdx, %rbx
	subq	$152, %rsp
	movq	16(%rbp), %rax
	movl	%ecx, -164(%rbp)
	movq	(%r8), %r15
	movq	8(%r8), %r12
	movq	%r9, -176(%rbp)
	movq	%rax, -184(%rbp)
	movq	%fs:40, %rax
	movq	%rax, -56(%rbp)
	movq	(%rsi), %rax
	movq	%rax, -160(%rbp)
	leaq	-80(%rbp), %rax
	movq	%rax, -152(%rbp)
	movq	%rax, -96(%rbp)
	movq	%r15, %rax
	addq	%r12, %rax
	je	.L81
	testq	%r15, %r15
	je	.L115
.L81:
	movq	%r12, -136(%rbp)
	cmpq	$15, %r12
	ja	.L116
	cmpq	$1, %r12
	jne	.L84
	movzbl	(%r15), %eax
	movb	%al, -80(%rbp)
	movq	-152(%rbp), %rax
.L85:
	movq	%r12, -88(%rbp)
	movb	$0, (%rax,%r12)
	movzwl	32(%r14), %eax
	leaq	-112(%rbp), %r14
	movq	(%rbx), %r15
	movq	8(%rbx), %r12
	movq	%r14, -128(%rbp)
	movw	%ax, -64(%rbp)
	movq	%r15, %rax
	addq	%r12, %rax
	je	.L86
	testq	%r15, %r15
	je	.L117
.L86:
	movq	%r12, -136(%rbp)
	cmpq	$15, %r12
	ja	.L118
	cmpq	$1, %r12
	jne	.L89
	movzbl	(%r15), %eax
	leaq	-128(%rbp), %rbx
	movb	%al, -112(%rbp)
	movq	%r14, %rax
.L90:
	movq	%r12, -120(%rbp)
	subq	$8, %rsp
	leaq	-96(%rbp), %r8
	movq	%rbx, %rdx
	movb	$0, (%rax,%r12)
	movl	-164(%rbp), %ecx
	movq	%r13, %rdi
	pushq	-184(%rbp)
	movq	-176(%rbp), %r9
	movq	-160(%rbp), %rsi
.LEHB0:
	.cfi_escape 0x2e,0x10
	call	_ZN8asiodnp315DNP3ManagerImpl14CreateListenerENSt7__cxx1112basic_stringIcSt11char_traitsIcESaIcEEEN7openpal10LogFiltersEN7asiopal10IPEndpointERKSt10shared_ptrINS_16IListenCallbacksEERSt10error_code@PLT
.LEHE0:
	movq	-128(%rbp), %rdi
	popq	%rax
	popq	%rdx
	cmpq	%r14, %rdi
	je	.L91
	movq	-112(%rbp), %rax
	leaq	1(%rax), %rsi
	call	_ZdlPvm@PLT
.L91:
	movq	-96(%rbp), %rdi
	cmpq	-152(%rbp), %rdi
	je	.L80
	movq	-80(%rbp), %rax
	leaq	1(%rax), %rsi
	call	_ZdlPvm@PLT
.L80:
	movq	-56(%rbp), %rax
	subq	%fs:40, %rax
	jne	.L119
	leaq	-40(%rbp), %rsp
	movq	%r13, %rax
	popq	%rbx
	popq	%r12
	popq	%r13
	popq	%r14
	popq	%r15
	popq	%rbp
	.cfi_remember_state
	.cfi_def_cfa 7, 8
	ret
	.p2align 4,,10
	.p2align 3
.L84:
	.cfi_restore_state
	testq	%r12, %r12
	jne	.L120
	movq	-152(%rbp), %rax
	jmp	.L85
	.p2align 4,,10
	.p2align 3
.L89:
	testq	%r12, %r12
	jne	.L121
	movq	%r14, %rax
	leaq	-128(%rbp), %rbx
	jmp	.L90
	.p2align 4,,10
	.p2align 3
.L116:
	leaq	-96(%rbp), %rdi
	leaq	-136(%rbp), %rsi
	xorl	%edx, %edx
.LEHB1:
	call	_ZNSt7__cxx1112basic_stringIcSt11char_traitsIcESaIcEE9_M_createERmm@PLT
.LEHE1:
	movq	%rax, -96(%rbp)
	movq	%rax, %rdi
	movq	-136(%rbp), %rax
	movq	%rax, -80(%rbp)
.L83:
	movq	%r12, %rdx
	movq	%r15, %rsi
	call	memcpy@PLT
	movq	-136(%rbp), %r12
	movq	-96(%rbp), %rax
	jmp	.L85
	.p2align 4,,10
	.p2align 3
.L118:
	leaq	-128(%rbp), %rbx
	leaq	-136(%rbp), %rsi
	xorl	%edx, %edx
	movq	%rbx, %rdi
.LEHB2:
	.cfi_escape 0x2e,0
	call	_ZNSt7__cxx1112basic_stringIcSt11char_traitsIcESaIcEE9_M_createERmm@PLT
.LEHE2:
	movq	%rax, -128(%rbp)
	movq	%rax, %rdi
	movq	-136(%rbp), %rax
	movq	%rax, -112(%rbp)
.L88:
	movq	%r12, %rdx
	movq	%r15, %rsi
	call	memcpy@PLT
	movq	-136(%rbp), %r12
	movq	-128(%rbp), %rax
	jmp	.L90
.L115:
	leaq	.LC4(%rip), %rdi
.LEHB3:
	call	_ZSt19__throw_logic_errorPKc@PLT
.LEHE3:
.L119:
	call	__stack_chk_fail@PLT
.L117:
	leaq	.LC4(%rip), %rdi
.LEHB4:
	call	_ZSt19__throw_logic_errorPKc@PLT
.LEHE4:
.L121:
	movq	%r14, %rdi
	leaq	-128(%rbp), %rbx
	jmp	.L88
.L120:
	movq	-152(%rbp), %rdi
	jmp	.L83
.L100:
	movq	%rax, %r12
	jmp	.L95
.L101:
	movq	%rax, %r12
	jmp	.L93
	.globl	__gxx_personality_v0
	.section	.gcc_except_table,"a",@progbits
.LLSDA7828:
	.byte	0xff
	.byte	0xff
	.byte	0x1
	.uleb128 .LLSDACSE7828-.LLSDACSB7828
.LLSDACSB7828:
	.uleb128 .LEHB0-.LFB7828
	.uleb128 .LEHE0-.LEHB0
	.uleb128 .L101-.LFB7828
	.uleb128 0
	.uleb128 .LEHB1-.LFB7828
	.uleb128 .LEHE1-.LEHB1
	.uleb128 0
	.uleb128 0
	.uleb128 .LEHB2-.LFB7828
	.uleb128 .LEHE2-.LEHB2
	.uleb128 .L100-.LFB7828
	.uleb128 0
	.uleb128 .LEHB3-.LFB7828
	.uleb128 .LEHE3-.LEHB3
	.uleb128 0
	.uleb128 0
	.uleb128 .LEHB4-.LFB7828
	.uleb128 .LEHE4-.LEHB4
	.uleb128 .L100-.LFB7828
	.uleb128 0
.LLSDACSE7828:
	.text
	.cfi_endproc
	.section	.text.unlikely
	.cfi_startproc
	.cfi_personality 0x9b,DW.ref.__gxx_personality_v0
	.cfi_lsda 0x1b,.LLSDAC7828
	.type	_ZN8asiodnp311DNP3Manager14CreateListenerENSt7__cxx1112basic_stringIcSt11char_traitsIcESaIcEEEN7openpal10LogFiltersEN7asiopal10IPEndpointESt10shared_ptrINS_16IListenCallbacksEERSt10error_code.cold, @function
_ZN8asiodnp311DNP3Manager14CreateListenerENSt7__cxx1112basic_stringIcSt11char_traitsIcESaIcEEEN7openpal10LogFiltersEN7asiopal10IPEndpointESt10shared_ptrINS_16IListenCallbacksEERSt10error_code.cold:
.LFSB7828:
.L93:
	.cfi_def_cfa 6, 16
	.cfi_offset 3, -56
	.cfi_offset 6, -16
	.cfi_offset 12, -48
	.cfi_offset 13, -40
	.cfi_offset 14, -32
	.cfi_offset 15, -24
	movq	-128(%rbp), %rdi
	cmpq	%r14, %rdi
	je	.L95
	movq	-112(%rbp), %rax
	leaq	1(%rax), %rsi
	call	_ZdlPvm@PLT
.L95:
	movq	-96(%rbp), %rdi
	cmpq	-152(%rbp), %rdi
	je	.L96
	movq	-80(%rbp), %rax
	leaq	1(%rax), %rsi
	call	_ZdlPvm@PLT
.L96:
	movq	%r12, %rdi
.LEHB5:
	call	_Unwind_Resume@PLT
.LEHE5:
	.cfi_endproc
.LFE7828:
	.section	.gcc_except_table
.LLSDAC7828:
	.byte	0xff
	.byte	0xff
	.byte	0x1
	.uleb128 .LLSDACSEC7828-.LLSDACSBC7828
.LLSDACSBC7828:
	.uleb128 .LEHB5-.LCOLDB23
	.uleb128 .LEHE5-.LEHB5
	.uleb128 0
	.uleb128 0
.LLSDACSEC7828:
	.section	.text.unlikely
	.text
	.size	_ZN8asiodnp311DNP3Manager14CreateListenerENSt7__cxx1112basic_stringIcSt11char_traitsIcESaIcEEEN7openpal10LogFiltersEN7asiopal10IPEndpointESt10shared_ptrINS_16IListenCallbacksEERSt10error_code, .-_ZN8asiodnp311DNP3Manager14CreateListenerENSt7__cxx1112basic_stringIcSt11char_traitsIcESaIcEEEN7openpal10LogFiltersEN7asiopal10IPEndpointESt10shared_ptrINS_16IListenCallbacksEERSt10error_code
	.section	.text.unlikely
	.size	_ZN8asiodnp311DNP3Manager14CreateListenerENSt7__cxx1112basic_stringIcSt11char_traitsIcESaIcEEEN7openpal10LogFiltersEN7asiopal10IPEndpointESt10shared_ptrINS_16IListenCallbacksEERSt10error_code.cold, .-_ZN8asiodnp311DNP3Manager14CreateListenerENSt7__cxx1112basic_stringIcSt11char_traitsIcESaIcEEEN7openpal10LogFiltersEN7asiopal10IPEndpointESt10shared_ptrINS_16IListenCallbacksEERSt10error_code.cold
.LCOLDE23:
	.text
.LHOTE23:
	.section	.text.unlikely
	.align 2
.LCOLDB24:
	.text
.LHOTB24:
	.align 2
	.p2align 4
	.globl	_ZN8asiodnp311DNP3Manager14CreateListenerENSt7__cxx1112basic_stringIcSt11char_traitsIcESaIcEEEN7openpal10LogFiltersEN7asiopal10IPEndpointERKNS9_9TLSConfigESt10shared_ptrINS_16IListenCallbacksEERSt10error_code
	.type	_ZN8asiodnp311DNP3Manager14CreateListenerENSt7__cxx1112basic_stringIcSt11char_traitsIcESaIcEEEN7openpal10LogFiltersEN7asiopal10IPEndpointERKNS9_9TLSConfigESt10shared_ptrINS_16IListenCallbacksEERSt10error_code, @function
_ZN8asiodnp311DNP3Manager14CreateListenerENSt7__cxx1112basic_stringIcSt11char_traitsIcESaIcEEEN7openpal10LogFiltersEN7asiopal10IPEndpointERKNS9_9TLSConfigESt10shared_ptrINS_16IListenCallbacksEERSt10error_code:
.LFB7839:
	.cfi_startproc
	.cfi_personality 0x9b,DW.ref.__gxx_personality_v0
	.cfi_lsda 0x1b,.LLSDA7839
	pushq	%rbp
	.cfi_def_cfa_offset 16
	.cfi_offset 6, -16
	movq	%rsp, %rbp
	.cfi_def_cfa_register 6
	pushq	%r15
	pushq	%r14
	.cfi_offset 15, -24
	.cfi_offset 14, -32
	movq	%r8, %r14
	pushq	%r13
	.cfi_offset 13, -40
	movq	%rdi, %r13
	pushq	%r12
	pushq	%rbx
	.cfi_offset 12, -48
	.cfi_offset 3, -56
	movq	%rdx, %rbx
	subq	$152, %rsp
	movq	16(%rbp), %rax
	movl	%ecx, -164(%rbp)
	movq	(%r8), %r15
	movq	8(%r8), %r12
	movq	%r9, -176(%rbp)
	movq	%rax, -184(%rbp)
	movq	24(%rbp), %rax
	movq	%rax, -192(%rbp)
	movq	%fs:40, %rax
	movq	%rax, -56(%rbp)
	movq	(%rsi), %rax
	movq	%rax, -160(%rbp)
	leaq	-80(%rbp), %rax
	movq	%rax, -152(%rbp)
	movq	%rax, -96(%rbp)
	movq	%r15, %rax
	addq	%r12, %rax
	je	.L123
	testq	%r15, %r15
	je	.L157
.L123:
	movq	%r12, -136(%rbp)
	cmpq	$15, %r12
	ja	.L158
	cmpq	$1, %r12
	jne	.L126
	movzbl	(%r15), %eax
	movb	%al, -80(%rbp)
	movq	-152(%rbp), %rax
.L127:
	movq	%r12, -88(%rbp)
	movb	$0, (%rax,%r12)
	movzwl	32(%r14), %eax
	leaq	-112(%rbp), %r14
	movq	(%rbx), %r15
	movq	8(%rbx), %r12
	movq	%r14, -128(%rbp)
	movw	%ax, -64(%rbp)
	movq	%r15, %rax
	addq	%r12, %rax
	je	.L128
	testq	%r15, %r15
	je	.L159
.L128:
	movq	%r12, -136(%rbp)
	cmpq	$15, %r12
	ja	.L160
	cmpq	$1, %r12
	jne	.L131
	movzbl	(%r15), %eax
	leaq	-128(%rbp), %rbx
	movb	%al, -112(%rbp)
	movq	%r14, %rax
.L132:
	movq	%r12, -120(%rbp)
	movl	-164(%rbp), %ecx
	movq	%rbx, %rdx
	movq	%r13, %rdi
	movb	$0, (%rax,%r12)
	movq	-176(%rbp), %r9
	leaq	-96(%rbp), %r8
	pushq	-192(%rbp)
	movq	-160(%rbp), %rsi
	pushq	-184(%rbp)
.LEHB6:
	.cfi_escape 0x2e,0x10
	call	_ZN8asiodnp315DNP3ManagerImpl14CreateListenerENSt7__cxx1112basic_stringIcSt11char_traitsIcESaIcEEEN7openpal10LogFiltersEN7asiopal10IPEndpointERKNS9_9TLSConfigERKSt10shared_ptrINS_16IListenCallbacksEERSt10error_code@PLT
.LEHE6:
	movq	-128(%rbp), %rdi
	popq	%rax
	popq	%rdx
	cmpq	%r14, %rdi
	je	.L133
	movq	-112(%rbp), %rax
	leaq	1(%rax), %rsi
	call	_ZdlPvm@PLT
.L133:
	movq	-96(%rbp), %rdi
	cmpq	-152(%rbp), %rdi
	je	.L122
	movq	-80(%rbp), %rax
	leaq	1(%rax), %rsi
	call	_ZdlPvm@PLT
.L122:
	movq	-56(%rbp), %rax
	subq	%fs:40, %rax
	jne	.L161
	leaq	-40(%rbp), %rsp
	movq	%r13, %rax
	popq	%rbx
	popq	%r12
	popq	%r13
	popq	%r14
	popq	%r15
	popq	%rbp
	.cfi_remember_state
	.cfi_def_cfa 7, 8
	ret
	.p2align 4,,10
	.p2align 3
.L126:
	.cfi_restore_state
	testq	%r12, %r12
	jne	.L162
	movq	-152(%rbp), %rax
	jmp	.L127
	.p2align 4,,10
	.p2align 3
.L131:
	testq	%r12, %r12
	jne	.L163
	movq	%r14, %rax
	leaq	-128(%rbp), %rbx
	jmp	.L132
	.p2align 4,,10
	.p2align 3
.L158:
	leaq	-96(%rbp), %rdi
	leaq	-136(%rbp), %rsi
	xorl	%edx, %edx
.LEHB7:
	call	_ZNSt7__cxx1112basic_stringIcSt11char_traitsIcESaIcEE9_M_createERmm@PLT
.LEHE7:
	movq	%rax, -96(%rbp)
	movq	%rax, %rdi
	movq	-136(%rbp), %rax
	movq	%rax, -80(%rbp)
.L125:
	movq	%r12, %rdx
	movq	%r15, %rsi
	call	memcpy@PLT
	movq	-136(%rbp), %r12
	movq	-96(%rbp), %rax
	jmp	.L127
	.p2align 4,,10
	.p2align 3
.L160:
	leaq	-128(%rbp), %rbx
	leaq	-136(%rbp), %rsi
	xorl	%edx, %edx
	movq	%rbx, %rdi
.LEHB8:
	.cfi_escape 0x2e,0
	call	_ZNSt7__cxx1112basic_stringIcSt11char_traitsIcESaIcEE9_M_createERmm@PLT
.LEHE8:
	movq	%rax, -128(%rbp)
	movq	%rax, %rdi
	movq	-136(%rbp), %rax
	movq	%rax, -112(%rbp)
.L130:
	movq	%r12, %rdx
	movq	%r15, %rsi
	call	memcpy@PLT
	movq	-136(%rbp), %r12
	movq	-128(%rbp), %rax
	jmp	.L132
.L157:
	leaq	.LC4(%rip), %rdi
.LEHB9:
	call	_ZSt19__throw_logic_errorPKc@PLT
.LEHE9:
.L161:
	call	__stack_chk_fail@PLT
.L159:
	leaq	.LC4(%rip), %rdi
.LEHB10:
	call	_ZSt19__throw_logic_errorPKc@PLT
.LEHE10:
.L163:
	movq	%r14, %rdi
	leaq	-128(%rbp), %rbx
	jmp	.L130
.L162:
	movq	-152(%rbp), %rdi
	jmp	.L125
.L142:
	movq	%rax, %r12
	jmp	.L137
.L143:
	movq	%rax, %r12
	jmp	.L135
	.section	.gcc_except_table
.LLSDA7839:
	.byte	0xff
	.byte	0xff
	.byte	0x1
	.uleb128 .LLSDACSE7839-.LLSDACSB7839
.LLSDACSB7839:
	.uleb128 .LEHB6-.LFB7839
	.uleb128 .LEHE6-.LEHB6
	.uleb128 .L143-.LFB7839
	.uleb128 0
	.uleb128 .LEHB7-.LFB7839
	.uleb128 .LEHE7-.LEHB7
	.uleb128 0
	.uleb128 0
	.uleb128 .LEHB8-.LFB7839
	.uleb128 .LEHE8-.LEHB8
	.uleb128 .L142-.LFB7839
	.uleb128 0
	.uleb128 .LEHB9-.LFB7839
	.uleb128 .LEHE9-.LEHB9
	.uleb128 0
	.uleb128 0
	.uleb128 .LEHB10-.LFB7839
	.uleb128 .LEHE10-.LEHB10
	.uleb128 .L142-.LFB7839
	.uleb128 0
.LLSDACSE7839:
	.text
	.cfi_endproc
	.section	.text.unlikely
	.cfi_startproc
	.cfi_personality 0x9b,DW.ref.__gxx_personality_v0
	.cfi_lsda 0x1b,.LLSDAC7839
	.type	_ZN8asiodnp311DNP3Manager14CreateListenerENSt7__cxx1112basic_stringIcSt11char_traitsIcESaIcEEEN7openpal10LogFiltersEN7asiopal10IPEndpointERKNS9_9TLSConfigESt10shared_ptrINS_16IListenCallbacksEERSt10error_code.cold, @function
_ZN8asiodnp311DNP3Manager14CreateListenerENSt7__cxx1112basic_stringIcSt11char_traitsIcESaIcEEEN7openpal10LogFiltersEN7asiopal10IPEndpointERKNS9_9TLSConfigESt10shared_ptrINS_16IListenCallbacksEERSt10error_code.cold:
.LFSB7839:
.L135:
	.cfi_def_cfa 6, 16
	.cfi_offset 3, -56
	.cfi_offset 6, -16
	.cfi_offset 12, -48
	.cfi_offset 13, -40
	.cfi_offset 14, -32
	.cfi_offset 15, -24
	movq	-128(%rbp), %rdi
	cmpq	%r14, %rdi
	je	.L137
	movq	-112(%rbp), %rax
	leaq	1(%rax), %rsi
	call	_ZdlPvm@PLT
.L137:
	movq	-96(%rbp), %rdi
	cmpq	-152(%rbp), %rdi
	je	.L138
	movq	-80(%rbp), %rax
	leaq	1(%rax), %rsi
	call	_ZdlPvm@PLT
.L138:
	movq	%r12, %rdi
.LEHB11:
	call	_Unwind_Resume@PLT
.LEHE11:
	.cfi_endproc
.LFE7839:
	.section	.gcc_except_table
.LLSDAC7839:
	.byte	0xff
	.byte	0xff
	.byte	0x1
	.uleb128 .LLSDACSEC7839-.LLSDACSBC7839
.LLSDACSBC7839:
	.uleb128 .LEHB11-.LCOLDB24
	.uleb128 .LEHE11-.LEHB11
	.uleb128 0
	.uleb128 0
.LLSDACSEC7839:
	.section	.text.unlikely
	.text
	.size	_ZN8asiodnp311DNP3Manager14CreateListenerENSt7__cxx1112basic_stringIcSt11char_traitsIcESaIcEEEN7openpal10LogFiltersEN7asiopal10IPEndpointERKNS9_9TLSConfigESt10shared_ptrINS_16IListenCallbacksEERSt10error_code, .-_ZN8asiodnp311DNP3Manager14CreateListenerENSt7__cxx1112basic_stringIcSt11char_traitsIcESaIcEEEN7openpal10LogFiltersEN7asiopal10IPEndpointERKNS9_9TLSConfigESt10shared_ptrINS_16IListenCallbacksEERSt10error_code
	.section	.text.unlikely
	.size	_ZN8asiodnp311DNP3Manager14CreateListenerENSt7__cxx1112basic_stringIcSt11char_traitsIcESaIcEEEN7openpal10LogFiltersEN7asiopal10IPEndpointERKNS9_9TLSConfigESt10shared_ptrINS_16IListenCallbacksEERSt10error_code.cold, .-_ZN8asiodnp311DNP3Manager14CreateListenerENSt7__cxx1112basic_stringIcSt11char_traitsIcESaIcEEEN7openpal10LogFiltersEN7asiopal10IPEndpointERKNS9_9TLSConfigESt10shared_ptrINS_16IListenCallbacksEERSt10error_code.cold
.LCOLDE24:
	.text
.LHOTE24:
	.section	.text._ZNSt16_Sp_counted_baseILN9__gnu_cxx12_Lock_policyE2EE10_M_releaseEv,"axG",@progbits,_ZNSt16_Sp_counted_baseILN9__gnu_cxx12_Lock_policyE2EE10_M_releaseEv,comdat
	.align 2
	.p2align 4
	.weak	_ZNSt16_Sp_counted_baseILN9__gnu_cxx12_Lock_policyE2EE10_M_releaseEv
	.type	_ZNSt16_Sp_counted_baseILN9__gnu_cxx12_Lock_policyE2EE10_M_releaseEv, @function
_ZNSt16_Sp_counted_baseILN9__gnu_cxx12_Lock_policyE2EE10_M_releaseEv:
.LFB8922:
	.cfi_startproc
	pushq	%rbp
	.cfi_def_cfa_offset 16
	.cfi_offset 6, -16
	movq	%rdi, %rbp
	pushq	%rbx
	.cfi_def_cfa_offset 24
	.cfi_offset 3, -24
	subq	$8, %rsp
	.cfi_def_cfa_offset 32
	movq	_ZL28__gthrw___pthread_key_createPjPFvPvE@GOTPCREL(%rip), %rbx
	testq	%rbx, %rbx
	jne	.L173
	movl	8(%rdi), %eax
	leal	-1(%rax), %edx
	movl	%edx, 8(%rdi)
.L166:
	cmpl	$1, %eax
	je	.L174
.L164:
	addq	$8, %rsp
	.cfi_remember_state
	.cfi_def_cfa_offset 24
	popq	%rbx
	.cfi_def_cfa_offset 16
	popq	%rbp
	.cfi_def_cfa_offset 8
	ret
	.p2align 4,,10
	.p2align 3
.L174:
	.cfi_restore_state
	movq	0(%rbp), %rax
	movq	%rbp, %rdi
	call	*16(%rax)
	testq	%rbx, %rbx
	jne	.L175
	movl	12(%rbp), %eax
	leal	-1(%rax), %edx
	movl	%edx, 12(%rbp)
.L170:
	cmpl	$1, %eax
	jne	.L164
	movq	0(%rbp), %rax
	movq	%rbp, %rdi
	movq	24(%rax), %rax
	addq	$8, %rsp
	.cfi_remember_state
	.cfi_def_cfa_offset 24
	popq	%rbx
	.cfi_def_cfa_offset 16
	popq	%rbp
	.cfi_def_cfa_offset 8
	jmp	*%rax
	.p2align 4,,10
	.p2align 3
.L173:
	.cfi_restore_state
	movl	$-1, %eax
	lock xaddl	%eax, 8(%rdi)
	jmp	.L166
	.p2align 4,,10
	.p2align 3
.L175:
	movl	$-1, %eax
	lock xaddl	%eax, 12(%rbp)
	jmp	.L170
	.cfi_endproc
.LFE8922:
	.size	_ZNSt16_Sp_counted_baseILN9__gnu_cxx12_Lock_policyE2EE10_M_releaseEv, .-_ZNSt16_Sp_counted_baseILN9__gnu_cxx12_Lock_policyE2EE10_M_releaseEv
	.section	.text.unlikely
	.align 2
.LCOLDB25:
	.text
.LHOTB25:
	.align 2
	.p2align 4
	.globl	_ZN8asiodnp311DNP3Manager12AddTCPClientERKNSt7__cxx1112basic_stringIcSt11char_traitsIcESaIcEEEjRKN7asiopal12ChannelRetryES8_S8_tSt10shared_ptrINS_16IChannelListenerEE
	.type	_ZN8asiodnp311DNP3Manager12AddTCPClientERKNSt7__cxx1112basic_stringIcSt11char_traitsIcESaIcEEEjRKN7asiopal12ChannelRetryES8_S8_tSt10shared_ptrINS_16IChannelListenerEE, @function
_ZN8asiodnp311DNP3Manager12AddTCPClientERKNSt7__cxx1112basic_stringIcSt11char_traitsIcESaIcEEEjRKN7asiopal12ChannelRetryES8_S8_tSt10shared_ptrINS_16IChannelListenerEE:
.LFB7797:
	.cfi_startproc
	.cfi_personality 0x9b,DW.ref.__gxx_personality_v0
	.cfi_lsda 0x1b,.LLSDA7797
	pushq	%rbp
	.cfi_def_cfa_offset 16
	.cfi_offset 6, -16
	movq	%rsp, %rbp
	.cfi_def_cfa_register 6
	pushq	%r14
	pushq	%r12
	.cfi_offset 14, -24
	.cfi_offset 12, -32
	movq	%rdi, %r12
	pushq	%rbx
	subq	$40, %rsp
	.cfi_offset 3, -40
	movq	32(%rbp), %rdi
	movq	(%rsi), %r10
	movq	%fs:40, %rbx
	movq	%rbx, -40(%rbp)
	xorl	%ebx, %ebx
	movq	16(%rbp), %r11
	movl	24(%rbp), %eax
	movdqu	(%rdi), %xmm0
	movq	8(%rdi), %rsi
	movaps	%xmm0, -64(%rbp)
	testq	%rsi, %rsi
	je	.L177
	cmpq	$0, _ZL28__gthrw___pthread_key_createPjPFvPvE@GOTPCREL(%rip)
	jne	.L197
	addl	$1, 8(%rsi)
.L177:
	subq	$8, %rsp
	leaq	-64(%rbp), %rsi
	movzwl	%ax, %eax
	movq	%r12, %rdi
	pushq	%rsi
	movq	%r10, %rsi
	pushq	%rax
	pushq	%r11
.LEHB12:
	.cfi_escape 0x2e,0x20
	call	_ZN8asiodnp315DNP3ManagerImpl12AddTCPClientERKNSt7__cxx1112basic_stringIcSt11char_traitsIcESaIcEEEjRKN7asiopal12ChannelRetryES8_S8_tSt10shared_ptrINS_16IChannelListenerEE@PLT
.LEHE12:
	movq	-56(%rbp), %rax
	addq	$32, %rsp
	movq	%rax, %r14
	testq	%rax, %rax
	je	.L176
	movq	_ZL28__gthrw___pthread_key_createPjPFvPvE@GOTPCREL(%rip), %rbx
	testq	%rbx, %rbx
	jne	.L198
	movl	8(%rax), %eax
	leal	-1(%rax), %edx
	movl	%edx, 8(%r14)
.L182:
	cmpl	$1, %eax
	je	.L199
.L176:
	movq	-40(%rbp), %rax
	subq	%fs:40, %rax
	jne	.L200
	leaq	-24(%rbp), %rsp
	movq	%r12, %rax
	popq	%rbx
	popq	%r12
	popq	%r14
	popq	%rbp
	.cfi_remember_state
	.cfi_def_cfa 7, 8
	ret
	.p2align 4,,10
	.p2align 3
.L199:
	.cfi_restore_state
	movq	(%r14), %rax
	movq	%r14, %rdi
	call	*16(%rax)
	testq	%rbx, %rbx
	jne	.L201
	movl	12(%r14), %eax
	leal	-1(%rax), %edx
	movl	%edx, 12(%r14)
.L185:
	cmpl	$1, %eax
	jne	.L176
	movq	(%r14), %rax
	movq	%r14, %rdi
	call	*24(%rax)
	jmp	.L176
	.p2align 4,,10
	.p2align 3
.L198:
	movl	$-1, %eax
	lock xaddl	%eax, 8(%r14)
	jmp	.L182
	.p2align 4,,10
	.p2align 3
.L197:
	lock addl	$1, 8(%rsi)
	jmp	.L177
	.p2align 4,,10
	.p2align 3
.L201:
	movl	$-1, %eax
	lock xaddl	%eax, 12(%r14)
	jmp	.L185
.L200:
	call	__stack_chk_fail@PLT
.L189:
	movq	%rax, %rbx
	jmp	.L186
	.section	.gcc_except_table
.LLSDA7797:
	.byte	0xff
	.byte	0xff
	.byte	0x1
	.uleb128 .LLSDACSE7797-.LLSDACSB7797
.LLSDACSB7797:
	.uleb128 .LEHB12-.LFB7797
	.uleb128 .LEHE12-.LEHB12
	.uleb128 .L189-.LFB7797
	.uleb128 0
.LLSDACSE7797:
	.text
	.cfi_endproc
	.section	.text.unlikely
	.cfi_startproc
	.cfi_personality 0x9b,DW.ref.__gxx_personality_v0
	.cfi_lsda 0x1b,.LLSDAC7797
	.type	_ZN8asiodnp311DNP3Manager12AddTCPClientERKNSt7__cxx1112basic_stringIcSt11char_traitsIcESaIcEEEjRKN7asiopal12ChannelRetryES8_S8_tSt10shared_ptrINS_16IChannelListenerEE.cold, @function
_ZN8asiodnp311DNP3Manager12AddTCPClientERKNSt7__cxx1112basic_stringIcSt11char_traitsIcESaIcEEEjRKN7asiopal12ChannelRetryES8_S8_tSt10shared_ptrINS_16IChannelListenerEE.cold:
.LFSB7797:
.L186:
	.cfi_def_cfa 6, 16
	.cfi_offset 3, -40
	.cfi_offset 6, -16
	.cfi_offset 12, -32
	.cfi_offset 14, -24
	movq	-56(%rbp), %rdi
	testq	%rdi, %rdi
	je	.L187
	call	_ZNSt16_Sp_counted_baseILN9__gnu_cxx12_Lock_policyE2EE10_M_releaseEv@PLT
.L187:
	movq	%rbx, %rdi
.LEHB13:
	call	_Unwind_Resume@PLT
.LEHE13:
	.cfi_endproc
.LFE7797:
	.section	.gcc_except_table
.LLSDAC7797:
	.byte	0xff
	.byte	0xff
	.byte	0x1
	.uleb128 .LLSDACSEC7797-.LLSDACSBC7797
.LLSDACSBC7797:
	.uleb128 .LEHB13-.LCOLDB25
	.uleb128 .LEHE13-.LEHB13
	.uleb128 0
	.uleb128 0
.LLSDACSEC7797:
	.section	.text.unlikely
	.text
	.size	_ZN8asiodnp311DNP3Manager12AddTCPClientERKNSt7__cxx1112basic_stringIcSt11char_traitsIcESaIcEEEjRKN7asiopal12ChannelRetryES8_S8_tSt10shared_ptrINS_16IChannelListenerEE, .-_ZN8asiodnp311DNP3Manager12AddTCPClientERKNSt7__cxx1112basic_stringIcSt11char_traitsIcESaIcEEEjRKN7asiopal12ChannelRetryES8_S8_tSt10shared_ptrINS_16IChannelListenerEE
	.section	.text.unlikely
	.size	_ZN8asiodnp311DNP3Manager12AddTCPClientERKNSt7__cxx1112basic_stringIcSt11char_traitsIcESaIcEEEjRKN7asiopal12ChannelRetryES8_S8_tSt10shared_ptrINS_16IChannelListenerEE.cold, .-_ZN8asiodnp311DNP3Manager12AddTCPClientERKNSt7__cxx1112basic_stringIcSt11char_traitsIcESaIcEEEjRKN7asiopal12ChannelRetryES8_S8_tSt10shared_ptrINS_16IChannelListenerEE.cold
.LCOLDE25:
	.text
.LHOTE25:
	.section	.text.unlikely
	.align 2
.LCOLDB26:
	.text
.LHOTB26:
	.align 2
	.p2align 4
	.globl	_ZN8asiodnp311DNP3Manager12AddTCPServerERKNSt7__cxx1112basic_stringIcSt11char_traitsIcESaIcEEEjRKN7asiopal12ChannelRetryES8_tSt10shared_ptrINS_16IChannelListenerEE
	.type	_ZN8asiodnp311DNP3Manager12AddTCPServerERKNSt7__cxx1112basic_stringIcSt11char_traitsIcESaIcEEEjRKN7asiopal12ChannelRetryES8_tSt10shared_ptrINS_16IChannelListenerEE, @function
_ZN8asiodnp311DNP3Manager12AddTCPServerERKNSt7__cxx1112basic_stringIcSt11char_traitsIcESaIcEEEjRKN7asiopal12ChannelRetryES8_tSt10shared_ptrINS_16IChannelListenerEE:
.LFB7818:
	.cfi_startproc
	.cfi_personality 0x9b,DW.ref.__gxx_personality_v0
	.cfi_lsda 0x1b,.LLSDA7818
	pushq	%rbp
	.cfi_def_cfa_offset 16
	.cfi_offset 6, -16
	movq	%rsp, %rbp
	.cfi_def_cfa_register 6
	pushq	%r14
	pushq	%r12
	.cfi_offset 14, -24
	.cfi_offset 12, -32
	movq	%rdi, %r12
	pushq	%rbx
	subq	$40, %rsp
	.cfi_offset 3, -40
	movq	24(%rbp), %rdi
	movq	(%rsi), %r10
	movq	%fs:40, %rbx
	movq	%rbx, -40(%rbp)
	xorl	%ebx, %ebx
	movl	16(%rbp), %eax
	movdqu	(%rdi), %xmm0
	movq	8(%rdi), %rsi
	movaps	%xmm0, -64(%rbp)
	testq	%rsi, %rsi
	je	.L203
	cmpq	$0, _ZL28__gthrw___pthread_key_createPjPFvPvE@GOTPCREL(%rip)
	jne	.L223
	addl	$1, 8(%rsi)
.L203:
	leaq	-64(%rbp), %rsi
	movzwl	%ax, %eax
	movq	%r12, %rdi
	pushq	%rsi
	movq	%r10, %rsi
	pushq	%rax
.LEHB14:
	.cfi_escape 0x2e,0x10
	call	_ZN8asiodnp315DNP3ManagerImpl12AddTCPServerERKNSt7__cxx1112basic_stringIcSt11char_traitsIcESaIcEEEjRKN7asiopal12ChannelRetryES8_tSt10shared_ptrINS_16IChannelListenerEE@PLT
.LEHE14:
	popq	%rax
	movq	-56(%rbp), %rax
	popq	%rdx
	movq	%rax, %r14
	testq	%rax, %rax
	je	.L202
	movq	_ZL28__gthrw___pthread_key_createPjPFvPvE@GOTPCREL(%rip), %rbx
	testq	%rbx, %rbx
	jne	.L224
	movl	8(%rax), %eax
	leal	-1(%rax), %edx
	movl	%edx, 8(%r14)
.L208:
	cmpl	$1, %eax
	je	.L225
.L202:
	movq	-40(%rbp), %rax
	subq	%fs:40, %rax
	jne	.L226
	leaq	-24(%rbp), %rsp
	movq	%r12, %rax
	popq	%rbx
	popq	%r12
	popq	%r14
	popq	%rbp
	.cfi_remember_state
	.cfi_def_cfa 7, 8
	ret
	.p2align 4,,10
	.p2align 3
.L225:
	.cfi_restore_state
	movq	(%r14), %rax
	movq	%r14, %rdi
	call	*16(%rax)
	testq	%rbx, %rbx
	jne	.L227
	movl	12(%r14), %eax
	leal	-1(%rax), %edx
	movl	%edx, 12(%r14)
.L211:
	cmpl	$1, %eax
	jne	.L202
	movq	(%r14), %rax
	movq	%r14, %rdi
	call	*24(%rax)
	jmp	.L202
	.p2align 4,,10
	.p2align 3
.L224:
	movl	$-1, %eax
	lock xaddl	%eax, 8(%r14)
	jmp	.L208
	.p2align 4,,10
	.p2align 3
.L223:
	lock addl	$1, 8(%rsi)
	jmp	.L203
	.p2align 4,,10
	.p2align 3
.L227:
	movl	$-1, %eax
	lock xaddl	%eax, 12(%r14)
	jmp	.L211
.L226:
	call	__stack_chk_fail@PLT
.L215:
	movq	%rax, %rbx
	jmp	.L212
	.section	.gcc_except_table
.LLSDA7818:
	.byte	0xff
	.byte	0xff
	.byte	0x1
	.uleb128 .LLSDACSE7818-.LLSDACSB7818
.LLSDACSB7818:
	.uleb128 .LEHB14-.LFB7818
	.uleb128 .LEHE14-.LEHB14
	.uleb128 .L215-.LFB7818
	.uleb128 0
.LLSDACSE7818:
	.text
	.cfi_endproc
	.section	.text.unlikely
	.cfi_startproc
	.cfi_personality 0x9b,DW.ref.__gxx_personality_v0
	.cfi_lsda 0x1b,.LLSDAC7818
	.type	_ZN8asiodnp311DNP3Manager12AddTCPServerERKNSt7__cxx1112basic_stringIcSt11char_traitsIcESaIcEEEjRKN7asiopal12ChannelRetryES8_tSt10shared_ptrINS_16IChannelListenerEE.cold, @function
_ZN8asiodnp311DNP3Manager12AddTCPServerERKNSt7__cxx1112basic_stringIcSt11char_traitsIcESaIcEEEjRKN7asiopal12ChannelRetryES8_tSt10shared_ptrINS_16IChannelListenerEE.cold:
.LFSB7818:
.L212:
	.cfi_def_cfa 6, 16
	.cfi_offset 3, -40
	.cfi_offset 6, -16
	.cfi_offset 12, -32
	.cfi_offset 14, -24
	movq	-56(%rbp), %rdi
	testq	%rdi, %rdi
	je	.L213
	call	_ZNSt16_Sp_counted_baseILN9__gnu_cxx12_Lock_policyE2EE10_M_releaseEv@PLT
.L213:
	movq	%rbx, %rdi
.LEHB15:
	call	_Unwind_Resume@PLT
.LEHE15:
	.cfi_endproc
.LFE7818:
	.section	.gcc_except_table
.LLSDAC7818:
	.byte	0xff
	.byte	0xff
	.byte	0x1
	.uleb128 .LLSDACSEC7818-.LLSDACSBC7818
.LLSDACSBC7818:
	.uleb128 .LEHB15-.LCOLDB26
	.uleb128 .LEHE15-.LEHB15
	.uleb128 0
	.uleb128 0
.LLSDACSEC7818:
	.section	.text.unlikely
	.text
	.size	_ZN8asiodnp311DNP3Manager12AddTCPServerERKNSt7__cxx1112basic_stringIcSt11char_traitsIcESaIcEEEjRKN7asiopal12ChannelRetryES8_tSt10shared_ptrINS_16IChannelListenerEE, .-_ZN8asiodnp311DNP3Manager12AddTCPServerERKNSt7__cxx1112basic_stringIcSt11char_traitsIcESaIcEEEjRKN7asiopal12ChannelRetryES8_tSt10shared_ptrINS_16IChannelListenerEE
	.section	.text.unlikely
	.size	_ZN8asiodnp311DNP3Manager12AddTCPServerERKNSt7__cxx1112basic_stringIcSt11char_traitsIcESaIcEEEjRKN7asiopal12ChannelRetryES8_tSt10shared_ptrINS_16IChannelListenerEE.cold, .-_ZN8asiodnp311DNP3Manager12AddTCPServerERKNSt7__cxx1112basic_stringIcSt11char_traitsIcESaIcEEEjRKN7asiopal12ChannelRetryES8_tSt10shared_ptrINS_16IChannelListenerEE.cold
.LCOLDE26:
	.text
.LHOTE26:
	.section	.text.unlikely
	.align 2
.LCOLDB27:
	.text
.LHOTB27:
	.align 2
	.p2align 4
	.globl	_ZN8asiodnp311DNP3Manager12AddTLSClientERKNSt7__cxx1112basic_stringIcSt11char_traitsIcESaIcEEEjRKN7asiopal12ChannelRetryES8_S8_tRKNS9_9TLSConfigESt10shared_ptrINS_16IChannelListenerEERSt10error_code
	.type	_ZN8asiodnp311DNP3Manager12AddTLSClientERKNSt7__cxx1112basic_stringIcSt11char_traitsIcESaIcEEEjRKN7asiopal12ChannelRetryES8_S8_tRKNS9_9TLSConfigESt10shared_ptrINS_16IChannelListenerEERSt10error_code, @function
_ZN8asiodnp311DNP3Manager12AddTLSClientERKNSt7__cxx1112basic_stringIcSt11char_traitsIcESaIcEEEjRKN7asiopal12ChannelRetryES8_S8_tRKNS9_9TLSConfigESt10shared_ptrINS_16IChannelListenerEERSt10error_code:
.LFB7826:
	.cfi_startproc
	.cfi_personality 0x9b,DW.ref.__gxx_personality_v0
	.cfi_lsda 0x1b,.LLSDA7826
	pushq	%rbp
	.cfi_def_cfa_offset 16
	.cfi_offset 6, -16
	movq	%rsp, %rbp
	.cfi_def_cfa_register 6
	pushq	%r14
	pushq	%r12
	.cfi_offset 14, -24
	.cfi_offset 12, -32
	movq	%rdi, %r12
	pushq	%rbx
	subq	$40, %rsp
	.cfi_offset 3, -40
	movq	40(%rbp), %rdi
	movq	32(%rbp), %rbx
	movq	%fs:40, %r10
	movq	%r10, -40(%rbp)
	movq	(%rsi), %r10
	movq	16(%rbp), %r11
	movl	24(%rbp), %eax
	movdqu	(%rdi), %xmm0
	movq	8(%rdi), %rsi
	movq	%rbx, %r14
	movq	48(%rbp), %rbx
	movaps	%xmm0, -64(%rbp)
	testq	%rsi, %rsi
	je	.L229
	cmpq	$0, _ZL28__gthrw___pthread_key_createPjPFvPvE@GOTPCREL(%rip)
	jne	.L249
	addl	$1, 8(%rsi)
.L229:
	subq	$8, %rsp
	leaq	-64(%rbp), %rsi
	movzwl	%ax, %eax
	movq	%r12, %rdi
	pushq	%rbx
	pushq	%rsi
	movq	%r10, %rsi
	pushq	%r14
	pushq	%rax
	pushq	%r11
.LEHB16:
	.cfi_escape 0x2e,0x30
	call	_ZN8asiodnp315DNP3ManagerImpl12AddTLSClientERKNSt7__cxx1112basic_stringIcSt11char_traitsIcESaIcEEEjRKN7asiopal12ChannelRetryES8_S8_tRKNS9_9TLSConfigESt10shared_ptrINS_16IChannelListenerEERSt10error_code@PLT
.LEHE16:
	movq	-56(%rbp), %rax
	addq	$48, %rsp
	movq	%rax, %r14
	testq	%rax, %rax
	je	.L228
	movq	_ZL28__gthrw___pthread_key_createPjPFvPvE@GOTPCREL(%rip), %rbx
	testq	%rbx, %rbx
	jne	.L250
	movl	8(%rax), %eax
	leal	-1(%rax), %edx
	movl	%edx, 8(%r14)
.L234:
	cmpl	$1, %eax
	je	.L251
.L228:
	movq	-40(%rbp), %rax
	subq	%fs:40, %rax
	jne	.L252
	leaq	-24(%rbp), %rsp
	movq	%r12, %rax
	popq	%rbx
	popq	%r12
	popq	%r14
	popq	%rbp
	.cfi_remember_state
	.cfi_def_cfa 7, 8
	ret
	.p2align 4,,10
	.p2align 3
.L251:
	.cfi_restore_state
	movq	(%r14), %rax
	movq	%r14, %rdi
	call	*16(%rax)
	testq	%rbx, %rbx
	jne	.L253
	movl	12(%r14), %eax
	leal	-1(%rax), %edx
	movl	%edx, 12(%r14)
.L237:
	cmpl	$1, %eax
	jne	.L228
	movq	(%r14), %rax
	movq	%r14, %rdi
	call	*24(%rax)
	jmp	.L228
	.p2align 4,,10
	.p2align 3
.L250:
	movl	$-1, %eax
	lock xaddl	%eax, 8(%r14)
	jmp	.L234
	.p2align 4,,10
	.p2align 3
.L249:
	lock addl	$1, 8(%rsi)
	jmp	.L229
	.p2align 4,,10
	.p2align 3
.L253:
	movl	$-1, %eax
	lock xaddl	%eax, 12(%r14)
	jmp	.L237
.L252:
	call	__stack_chk_fail@PLT
.L241:
	movq	%rax, %rbx
	jmp	.L238
	.section	.gcc_except_table
.LLSDA7826:
	.byte	0xff
	.byte	0xff
	.byte	0x1
	.uleb128 .LLSDACSE7826-.LLSDACSB7826
.LLSDACSB7826:
	.uleb128 .LEHB16-.LFB7826
	.uleb128 .LEHE16-.LEHB16
	.uleb128 .L241-.LFB7826
	.uleb128 0
.LLSDACSE7826:
	.text
	.cfi_endproc
	.section	.text.unlikely
	.cfi_startproc
	.cfi_personality 0x9b,DW.ref.__gxx_personality_v0
	.cfi_lsda 0x1b,.LLSDAC7826
	.type	_ZN8asiodnp311DNP3Manager12AddTLSClientERKNSt7__cxx1112basic_stringIcSt11char_traitsIcESaIcEEEjRKN7asiopal12ChannelRetryES8_S8_tRKNS9_9TLSConfigESt10shared_ptrINS_16IChannelListenerEERSt10error_code.cold, @function
_ZN8asiodnp311DNP3Manager12AddTLSClientERKNSt7__cxx1112basic_stringIcSt11char_traitsIcESaIcEEEjRKN7asiopal12ChannelRetryES8_S8_tRKNS9_9TLSConfigESt10shared_ptrINS_16IChannelListenerEERSt10error_code.cold:
.LFSB7826:
.L238:
	.cfi_def_cfa 6, 16
	.cfi_offset 3, -40
	.cfi_offset 6, -16
	.cfi_offset 12, -32
	.cfi_offset 14, -24
	movq	-56(%rbp), %rdi
	testq	%rdi, %rdi
	je	.L239
	call	_ZNSt16_Sp_counted_baseILN9__gnu_cxx12_Lock_policyE2EE10_M_releaseEv@PLT
.L239:
	movq	%rbx, %rdi
.LEHB17:
	call	_Unwind_Resume@PLT
.LEHE17:
	.cfi_endproc
.LFE7826:
	.section	.gcc_except_table
.LLSDAC7826:
	.byte	0xff
	.byte	0xff
	.byte	0x1
	.uleb128 .LLSDACSEC7826-.LLSDACSBC7826
.LLSDACSBC7826:
	.uleb128 .LEHB17-.LCOLDB27
	.uleb128 .LEHE17-.LEHB17
	.uleb128 0
	.uleb128 0
.LLSDACSEC7826:
	.section	.text.unlikely
	.text
	.size	_ZN8asiodnp311DNP3Manager12AddTLSClientERKNSt7__cxx1112basic_stringIcSt11char_traitsIcESaIcEEEjRKN7asiopal12ChannelRetryES8_S8_tRKNS9_9TLSConfigESt10shared_ptrINS_16IChannelListenerEERSt10error_code, .-_ZN8asiodnp311DNP3Manager12AddTLSClientERKNSt7__cxx1112basic_stringIcSt11char_traitsIcESaIcEEEjRKN7asiopal12ChannelRetryES8_S8_tRKNS9_9TLSConfigESt10shared_ptrINS_16IChannelListenerEERSt10error_code
	.section	.text.unlikely
	.size	_ZN8asiodnp311DNP3Manager12AddTLSClientERKNSt7__cxx1112basic_stringIcSt11char_traitsIcESaIcEEEjRKN7asiopal12ChannelRetryES8_S8_tRKNS9_9TLSConfigESt10shared_ptrINS_16IChannelListenerEERSt10error_code.cold, .-_ZN8asiodnp311DNP3Manager12AddTLSClientERKNSt7__cxx1112basic_stringIcSt11char_traitsIcESaIcEEEjRKN7asiopal12ChannelRetryES8_S8_tRKNS9_9TLSConfigESt10shared_ptrINS_16IChannelListenerEERSt10error_code.cold
.LCOLDE27:
	.text
.LHOTE27:
	.section	.text.unlikely
	.align 2
.LCOLDB28:
	.text
.LHOTB28:
	.align 2
	.p2align 4
	.globl	_ZN8asiodnp311DNP3Manager12AddTLSServerERKNSt7__cxx1112basic_stringIcSt11char_traitsIcESaIcEEEjRKN7asiopal12ChannelRetryES8_tRKNS9_9TLSConfigESt10shared_ptrINS_16IChannelListenerEERSt10error_code
	.type	_ZN8asiodnp311DNP3Manager12AddTLSServerERKNSt7__cxx1112basic_stringIcSt11char_traitsIcESaIcEEEjRKN7asiopal12ChannelRetryES8_tRKNS9_9TLSConfigESt10shared_ptrINS_16IChannelListenerEERSt10error_code, @function
_ZN8asiodnp311DNP3Manager12AddTLSServerERKNSt7__cxx1112basic_stringIcSt11char_traitsIcESaIcEEEjRKN7asiopal12ChannelRetryES8_tRKNS9_9TLSConfigESt10shared_ptrINS_16IChannelListenerEERSt10error_code:
.LFB7827:
	.cfi_startproc
	.cfi_personality 0x9b,DW.ref.__gxx_personality_v0
	.cfi_lsda 0x1b,.LLSDA7827
	pushq	%rbp
	.cfi_def_cfa_offset 16
	.cfi_offset 6, -16
	movq	%rsp, %rbp
	.cfi_def_cfa_register 6
	pushq	%r14
	pushq	%r12
	.cfi_offset 14, -24
	.cfi_offset 12, -32
	movq	%rdi, %r12
	pushq	%rbx
	subq	$40, %rsp
	.cfi_offset 3, -40
	movq	32(%rbp), %rdi
	movq	40(%rbp), %rbx
	movq	(%rsi), %r10
	movl	16(%rbp), %eax
	movdqu	(%rdi), %xmm0
	movq	8(%rdi), %rsi
	movq	%rbx, %r14
	movq	%fs:40, %rbx
	movq	%rbx, -40(%rbp)
	xorl	%ebx, %ebx
	movq	24(%rbp), %r11
	movaps	%xmm0, -64(%rbp)
	testq	%rsi, %rsi
	je	.L255
	cmpq	$0, _ZL28__gthrw___pthread_key_createPjPFvPvE@GOTPCREL(%rip)
	jne	.L275
	addl	$1, 8(%rsi)
.L255:
	leaq	-64(%rbp), %rsi
	movzwl	%ax, %eax
	pushq	%r14
	movq	%r12, %rdi
	pushq	%rsi
	movq	%r10, %rsi
	pushq	%r11
	pushq	%rax
.LEHB18:
	.cfi_escape 0x2e,0x20
	call	_ZN8asiodnp315DNP3ManagerImpl12AddTLSServerERKNSt7__cxx1112basic_stringIcSt11char_traitsIcESaIcEEEjRKN7asiopal12ChannelRetryES8_tRKNS9_9TLSConfigESt10shared_ptrINS_16IChannelListenerEERSt10error_code@PLT
.LEHE18:
	movq	-56(%rbp), %rax
	addq	$32, %rsp
	movq	%rax, %r14
	testq	%rax, %rax
	je	.L254
	movq	_ZL28__gthrw___pthread_key_createPjPFvPvE@GOTPCREL(%rip), %rbx
	testq	%rbx, %rbx
	jne	.L276
	movl	8(%rax), %eax
	leal	-1(%rax), %edx
	movl	%edx, 8(%r14)
.L260:
	cmpl	$1, %eax
	je	.L277
.L254:
	movq	-40(%rbp), %rax
	subq	%fs:40, %rax
	jne	.L278
	leaq	-24(%rbp), %rsp
	movq	%r12, %rax
	popq	%rbx
	popq	%r12
	popq	%r14
	popq	%rbp
	.cfi_remember_state
	.cfi_def_cfa 7, 8
	ret
	.p2align 4,,10
	.p2align 3
.L277:
	.cfi_restore_state
	movq	(%r14), %rax
	movq	%r14, %rdi
	call	*16(%rax)
	testq	%rbx, %rbx
	jne	.L279
	movl	12(%r14), %eax
	leal	-1(%rax), %edx
	movl	%edx, 12(%r14)
.L263:
	cmpl	$1, %eax
	jne	.L254
	movq	(%r14), %rax
	movq	%r14, %rdi
	call	*24(%rax)
	jmp	.L254
	.p2align 4,,10
	.p2align 3
.L276:
	movl	$-1, %eax
	lock xaddl	%eax, 8(%r14)
	jmp	.L260
	.p2align 4,,10
	.p2align 3
.L275:
	lock addl	$1, 8(%rsi)
	jmp	.L255
	.p2align 4,,10
	.p2align 3
.L279:
	movl	$-1, %eax
	lock xaddl	%eax, 12(%r14)
	jmp	.L263
.L278:
	call	__stack_chk_fail@PLT
.L267:
	movq	%rax, %rbx
	jmp	.L264
	.section	.gcc_except_table
.LLSDA7827:
	.byte	0xff
	.byte	0xff
	.byte	0x1
	.uleb128 .LLSDACSE7827-.LLSDACSB7827
.LLSDACSB7827:
	.uleb128 .LEHB18-.LFB7827
	.uleb128 .LEHE18-.LEHB18
	.uleb128 .L267-.LFB7827
	.uleb128 0
.LLSDACSE7827:
	.text
	.cfi_endproc
	.section	.text.unlikely
	.cfi_startproc
	.cfi_personality 0x9b,DW.ref.__gxx_personality_v0
	.cfi_lsda 0x1b,.LLSDAC7827
	.type	_ZN8asiodnp311DNP3Manager12AddTLSServerERKNSt7__cxx1112basic_stringIcSt11char_traitsIcESaIcEEEjRKN7asiopal12ChannelRetryES8_tRKNS9_9TLSConfigESt10shared_ptrINS_16IChannelListenerEERSt10error_code.cold, @function
_ZN8asiodnp311DNP3Manager12AddTLSServerERKNSt7__cxx1112basic_stringIcSt11char_traitsIcESaIcEEEjRKN7asiopal12ChannelRetryES8_tRKNS9_9TLSConfigESt10shared_ptrINS_16IChannelListenerEERSt10error_code.cold:
.LFSB7827:
.L264:
	.cfi_def_cfa 6, 16
	.cfi_offset 3, -40
	.cfi_offset 6, -16
	.cfi_offset 12, -32
	.cfi_offset 14, -24
	movq	-56(%rbp), %rdi
	testq	%rdi, %rdi
	je	.L265
	call	_ZNSt16_Sp_counted_baseILN9__gnu_cxx12_Lock_policyE2EE10_M_releaseEv@PLT
.L265:
	movq	%rbx, %rdi
.LEHB19:
	call	_Unwind_Resume@PLT
.LEHE19:
	.cfi_endproc
.LFE7827:
	.section	.gcc_except_table
.LLSDAC7827:
	.byte	0xff
	.byte	0xff
	.byte	0x1
	.uleb128 .LLSDACSEC7827-.LLSDACSBC7827
.LLSDACSBC7827:
	.uleb128 .LEHB19-.LCOLDB28
	.uleb128 .LEHE19-.LEHB19
	.uleb128 0
	.uleb128 0
.LLSDACSEC7827:
	.section	.text.unlikely
	.text
	.size	_ZN8asiodnp311DNP3Manager12AddTLSServerERKNSt7__cxx1112basic_stringIcSt11char_traitsIcESaIcEEEjRKN7asiopal12ChannelRetryES8_tRKNS9_9TLSConfigESt10shared_ptrINS_16IChannelListenerEERSt10error_code, .-_ZN8asiodnp311DNP3Manager12AddTLSServerERKNSt7__cxx1112basic_stringIcSt11char_traitsIcESaIcEEEjRKN7asiopal12ChannelRetryES8_tRKNS9_9TLSConfigESt10shared_ptrINS_16IChannelListenerEERSt10error_code
	.section	.text.unlikely
	.size	_ZN8asiodnp311DNP3Manager12AddTLSServerERKNSt7__cxx1112basic_stringIcSt11char_traitsIcESaIcEEEjRKN7asiopal12ChannelRetryES8_tRKNS9_9TLSConfigESt10shared_ptrINS_16IChannelListenerEERSt10error_code.cold, .-_ZN8asiodnp311DNP3Manager12AddTLSServerERKNSt7__cxx1112basic_stringIcSt11char_traitsIcESaIcEEEjRKN7asiopal12ChannelRetryES8_tRKNS9_9TLSConfigESt10shared_ptrINS_16IChannelListenerEERSt10error_code.cold
.LCOLDE28:
	.text
.LHOTE28:
	.section	.text.unlikely
	.align 2
.LCOLDB29:
	.text
.LHOTB29:
	.align 2
	.p2align 4
	.globl	_ZN8asiodnp311DNP3Manager9AddSerialERKNSt7__cxx1112basic_stringIcSt11char_traitsIcESaIcEEEjRKN7asiopal12ChannelRetryENS9_14SerialSettingsESt10shared_ptrINS_16IChannelListenerEE
	.type	_ZN8asiodnp311DNP3Manager9AddSerialERKNSt7__cxx1112basic_stringIcSt11char_traitsIcESaIcEEEjRKN7asiopal12ChannelRetryENS9_14SerialSettingsESt10shared_ptrINS_16IChannelListenerEE, @function
_ZN8asiodnp311DNP3Manager9AddSerialERKNSt7__cxx1112basic_stringIcSt11char_traitsIcESaIcEEEjRKN7asiopal12ChannelRetryENS9_14SerialSettingsESt10shared_ptrINS_16IChannelListenerEE:
.LFB7819:
	.cfi_startproc
	.cfi_personality 0x9b,DW.ref.__gxx_personality_v0
	.cfi_lsda 0x1b,.LLSDA7819
	pushq	%rbp
	.cfi_def_cfa_offset 16
	.cfi_offset 6, -16
	movq	%rsp, %rbp
	.cfi_def_cfa_register 6
	pushq	%r15
	pushq	%r14
	pushq	%r13
	.cfi_offset 15, -24
	.cfi_offset 14, -32
	.cfi_offset 13, -40
	movq	%rdi, %r13
	pushq	%r12
	pushq	%rbx
	.cfi_offset 12, -48
	.cfi_offset 3, -56
	movq	%r9, %rbx
	subq	$152, %rsp
	movq	%rdx, -168(%rbp)
	movq	16(%rbp), %rdx
	movl	%ecx, -172(%rbp)
	movq	%r8, -184(%rbp)
	movdqu	(%rdx), %xmm0
	movq	%fs:40, %rax
	movq	%rax, -56(%rbp)
	movq	(%rsi), %rax
	movaps	%xmm0, -128(%rbp)
	movq	%rax, -160(%rbp)
	movq	8(%rdx), %rax
	testq	%rax, %rax
	je	.L281
	cmpq	$0, _ZL28__gthrw___pthread_key_createPjPFvPvE@GOTPCREL(%rip)
	jne	.L317
	addl	$1, 8(%rax)
.L281:
	movq	(%rbx), %r14
	leaq	-96(%rbp), %rax
	movq	8(%rbx), %r12
	movq	%rax, -152(%rbp)
	movq	%rax, -112(%rbp)
	movq	%r14, %rax
	addq	%r12, %rax
	je	.L283
	testq	%r14, %r14
	je	.L318
.L283:
	movq	%r12, -136(%rbp)
	cmpq	$15, %r12
	ja	.L319
	cmpq	$1, %r12
	jne	.L286
	movzbl	(%r14), %eax
	leaq	-112(%rbp), %r15
	movb	%al, -96(%rbp)
	movq	-152(%rbp), %rax
.L287:
	movq	%r12, -104(%rbp)
	movl	-172(%rbp), %ecx
	movq	%r15, %r9
	movq	%r13, %rdi
	movb	$0, (%rax,%r12)
	movq	32(%rbx), %rax
	subq	$8, %rsp
	movq	-184(%rbp), %r8
	movq	-168(%rbp), %rdx
	movq	%rax, -80(%rbp)
	movzwl	40(%rbx), %eax
	movq	-160(%rbp), %rsi
	movw	%ax, -72(%rbp)
	movzbl	42(%rbx), %eax
	movb	%al, -70(%rbp)
	movq	48(%rbx), %rax
	movq	%rax, -64(%rbp)
	leaq	-128(%rbp), %rax
	pushq	%rax
.LEHB20:
	.cfi_escape 0x2e,0x10
	call	_ZN8asiodnp315DNP3ManagerImpl9AddSerialERKNSt7__cxx1112basic_stringIcSt11char_traitsIcESaIcEEEjRKN7asiopal12ChannelRetryENS9_14SerialSettingsESt10shared_ptrINS_16IChannelListenerEE@PLT
.LEHE20:
	popq	%rax
	movq	-112(%rbp), %rdi
	popq	%rdx
	cmpq	-152(%rbp), %rdi
	je	.L288
	movq	-96(%rbp), %rax
	leaq	1(%rax), %rsi
	call	_ZdlPvm@PLT
.L288:
	movq	-120(%rbp), %rax
	movq	%rax, %r15
	testq	%rax, %rax
	je	.L280
	movq	_ZL28__gthrw___pthread_key_createPjPFvPvE@GOTPCREL(%rip), %rbx
	testq	%rbx, %rbx
	jne	.L320
	movl	8(%rax), %eax
	leal	-1(%rax), %edx
	movl	%edx, 8(%r15)
.L292:
	cmpl	$1, %eax
	je	.L321
.L280:
	movq	-56(%rbp), %rax
	subq	%fs:40, %rax
	jne	.L322
	leaq	-40(%rbp), %rsp
	movq	%r13, %rax
	popq	%rbx
	popq	%r12
	popq	%r13
	popq	%r14
	popq	%r15
	popq	%rbp
	.cfi_remember_state
	.cfi_def_cfa 7, 8
	ret
	.p2align 4,,10
	.p2align 3
.L286:
	.cfi_restore_state
	testq	%r12, %r12
	jne	.L323
	movq	-152(%rbp), %rax
	leaq	-112(%rbp), %r15
	jmp	.L287
	.p2align 4,,10
	.p2align 3
.L319:
	leaq	-112(%rbp), %r15
	leaq	-136(%rbp), %rsi
	xorl	%edx, %edx
	movq	%r15, %rdi
.LEHB21:
	.cfi_escape 0x2e,0
	call	_ZNSt7__cxx1112basic_stringIcSt11char_traitsIcESaIcEE9_M_createERmm@PLT
	movq	%rax, -112(%rbp)
	movq	%rax, %rdi
	movq	-136(%rbp), %rax
	movq	%rax, -96(%rbp)
.L285:
	movq	%r12, %rdx
	movq	%r14, %rsi
	call	memcpy@PLT
	movq	-136(%rbp), %r12
	movq	-112(%rbp), %rax
	jmp	.L287
	.p2align 4,,10
	.p2align 3
.L321:
	movq	(%r15), %rax
	movq	%r15, %rdi
	call	*16(%rax)
	testq	%rbx, %rbx
	jne	.L324
	movl	12(%r15), %eax
	leal	-1(%rax), %edx
	movl	%edx, 12(%r15)
.L295:
	cmpl	$1, %eax
	jne	.L280
	movq	(%r15), %rax
	movq	%r15, %rdi
	call	*24(%rax)
	jmp	.L280
	.p2align 4,,10
	.p2align 3
.L320:
	movl	$-1, %eax
	lock xaddl	%eax, 8(%r15)
	jmp	.L292
	.p2align 4,,10
	.p2align 3
.L317:
	lock addl	$1, 8(%rax)
	jmp	.L281
	.p2align 4,,10
	.p2align 3
.L324:
	movl	$-1, %eax
	lock xaddl	%eax, 12(%r15)
	jmp	.L295
.L318:
	leaq	.LC4(%rip), %rdi
	call	_ZSt19__throw_logic_errorPKc@PLT
.LEHE21:
.L322:
	call	__stack_chk_fail@PLT
.L323:
	movq	-152(%rbp), %rdi
	leaq	-112(%rbp), %r15
	jmp	.L285
.L303:
	movq	%rax, %rbx
	jmp	.L296
.L302:
	movq	%rax, %rbx
	jmp	.L298
	.section	.gcc_except_table
.LLSDA7819:
	.byte	0xff
	.byte	0xff
	.byte	0x1
	.uleb128 .LLSDACSE7819-.LLSDACSB7819
.LLSDACSB7819:
	.uleb128 .LEHB20-.LFB7819
	.uleb128 .LEHE20-.LEHB20
	.uleb128 .L303-.LFB7819
	.uleb128 0
	.uleb128 .LEHB21-.LFB7819
	.uleb128 .LEHE21-.LEHB21
	.uleb128 .L302-.LFB7819
	.uleb128 0
.LLSDACSE7819:
	.text
	.cfi_endproc
	.section	.text.unlikely
	.cfi_startproc
	.cfi_personality 0x9b,DW.ref.__gxx_personality_v0
	.cfi_lsda 0x1b,.LLSDAC7819
	.type	_ZN8asiodnp311DNP3Manager9AddSerialERKNSt7__cxx1112basic_stringIcSt11char_traitsIcESaIcEEEjRKN7asiopal12ChannelRetryENS9_14SerialSettingsESt10shared_ptrINS_16IChannelListenerEE.cold, @function
_ZN8asiodnp311DNP3Manager9AddSerialERKNSt7__cxx1112basic_stringIcSt11char_traitsIcESaIcEEEjRKN7asiopal12ChannelRetryENS9_14SerialSettingsESt10shared_ptrINS_16IChannelListenerEE.cold:
.LFSB7819:
.L296:
	.cfi_def_cfa 6, 16
	.cfi_offset 3, -56
	.cfi_offset 6, -16
	.cfi_offset 12, -48
	.cfi_offset 13, -40
	.cfi_offset 14, -32
	.cfi_offset 15, -24
	movq	-112(%rbp), %rdi
	cmpq	-152(%rbp), %rdi
	je	.L298
	movq	-96(%rbp), %rax
	leaq	1(%rax), %rsi
	call	_ZdlPvm@PLT
.L298:
	movq	-120(%rbp), %rdi
	testq	%rdi, %rdi
	je	.L299
	call	_ZNSt16_Sp_counted_baseILN9__gnu_cxx12_Lock_policyE2EE10_M_releaseEv@PLT
.L299:
	movq	%rbx, %rdi
.LEHB22:
	call	_Unwind_Resume@PLT
.LEHE22:
	.cfi_endproc
.LFE7819:
	.section	.gcc_except_table
.LLSDAC7819:
	.byte	0xff
	.byte	0xff
	.byte	0x1
	.uleb128 .LLSDACSEC7819-.LLSDACSBC7819
.LLSDACSBC7819:
	.uleb128 .LEHB22-.LCOLDB29
	.uleb128 .LEHE22-.LEHB22
	.uleb128 0
	.uleb128 0
.LLSDACSEC7819:
	.section	.text.unlikely
	.text
	.size	_ZN8asiodnp311DNP3Manager9AddSerialERKNSt7__cxx1112basic_stringIcSt11char_traitsIcESaIcEEEjRKN7asiopal12ChannelRetryENS9_14SerialSettingsESt10shared_ptrINS_16IChannelListenerEE, .-_ZN8asiodnp311DNP3Manager9AddSerialERKNSt7__cxx1112basic_stringIcSt11char_traitsIcESaIcEEEjRKN7asiopal12ChannelRetryENS9_14SerialSettingsESt10shared_ptrINS_16IChannelListenerEE
	.section	.text.unlikely
	.size	_ZN8asiodnp311DNP3Manager9AddSerialERKNSt7__cxx1112basic_stringIcSt11char_traitsIcESaIcEEEjRKN7asiopal12ChannelRetryENS9_14SerialSettingsESt10shared_ptrINS_16IChannelListenerEE.cold, .-_ZN8asiodnp311DNP3Manager9AddSerialERKNSt7__cxx1112basic_stringIcSt11char_traitsIcESaIcEEEjRKN7asiopal12ChannelRetryENS9_14SerialSettingsESt10shared_ptrINS_16IChannelListenerEE.cold
.LCOLDE29:
	.text
.LHOTE29:
	.section	.text.unlikely
	.align 2
.LCOLDB30:
	.text
.LHOTB30:
	.align 2
	.p2align 4
	.globl	_ZN8asiodnp311DNP3ManagerC2EjSt10shared_ptrIN7openpal11ILogHandlerEESt8functionIFvvEES7_
	.type	_ZN8asiodnp311DNP3ManagerC2EjSt10shared_ptrIN7openpal11ILogHandlerEESt8functionIFvvEES7_, @function
_ZN8asiodnp311DNP3ManagerC2EjSt10shared_ptrIN7openpal11ILogHandlerEESt8functionIFvvEES7_:
.LFB7791:
	.cfi_startproc
	.cfi_personality 0x9b,DW.ref.__gxx_personality_v0
	.cfi_lsda 0x1b,.LLSDA7791
	pushq	%r15
	.cfi_def_cfa_offset 16
	.cfi_offset 15, -16
	pushq	%r14
	.cfi_def_cfa_offset 24
	.cfi_offset 14, -24
	pushq	%r13
	.cfi_def_cfa_offset 32
	.cfi_offset 13, -32
	movl	%esi, %r13d
	pushq	%r12
	.cfi_def_cfa_offset 40
	.cfi_offset 12, -40
	movq	%rdi, %r12
	pushq	%rbp
	.cfi_def_cfa_offset 48
	.cfi_offset 6, -48
	movq	%rcx, %rbp
	pushq	%rbx
	.cfi_def_cfa_offset 56
	.cfi_offset 3, -56
	movq	%r8, %rbx
	subq	$104, %rsp
	.cfi_def_cfa_offset 160
	movdqu	(%rdx), %xmm0
	movq	%fs:40, %rax
	movq	%rax, 88(%rsp)
	movq	8(%rdx), %rax
	movaps	%xmm0, (%rsp)
	testq	%rax, %rax
	je	.L326
	cmpq	$0, _ZL28__gthrw___pthread_key_createPjPFvPvE@GOTPCREL(%rip)
	jne	.L386
	addl	$1, 8(%rax)
.L326:
	movq	$0, 32(%rsp)
	movq	16(%rbp), %rax
	testq	%rax, %rax
	je	.L328
	leaq	16(%rsp), %r14
	movl	$2, %edx
	movq	%rbp, %rsi
	movq	%r14, %rdi
.LEHB23:
	call	*%rax
.LEHE23:
	movdqu	16(%rbp), %xmm1
	movaps	%xmm1, 32(%rsp)
.L328:
	movq	$0, 64(%rsp)
	movq	16(%rbx), %rax
	testq	%rax, %rax
	je	.L330
	leaq	48(%rsp), %r15
	movl	$2, %edx
	movq	%rbx, %rsi
	movq	%r15, %rdi
.LEHB24:
	call	*%rax
.LEHE24:
	movdqu	16(%rbx), %xmm2
	movaps	%xmm2, 64(%rsp)
.L330:
	movl	$272, %edi
.LEHB25:
	call	_Znwm@PLT
.LEHE25:
	leaq	48(%rsp), %r15
	leaq	16(%rsp), %r14
	movq	%rsp, %rdx
	movl	%r13d, %esi
	movq	%r15, %r8
	movq	%r14, %rcx
	movq	%rax, %rdi
	movq	%rax, %rbp
.LEHB26:
	call	_ZN8asiodnp315DNP3ManagerImplC1EjSt10shared_ptrIN7openpal11ILogHandlerEESt8functionIFvvEES7_@PLT
.LEHE26:
	movq	64(%rsp), %rax
	movq	%rbp, (%r12)
	testq	%rax, %rax
	je	.L338
	movl	$3, %edx
	movq	%r15, %rsi
	movq	%r15, %rdi
	call	*%rax
.L338:
	movq	32(%rsp), %rax
	testq	%rax, %rax
	je	.L339
	movl	$3, %edx
	movq	%r14, %rsi
	movq	%r14, %rdi
	call	*%rax
.L339:
	movq	8(%rsp), %rbp
	testq	%rbp, %rbp
	je	.L325
	movq	_ZL28__gthrw___pthread_key_createPjPFvPvE@GOTPCREL(%rip), %rbx
	testq	%rbx, %rbx
	jne	.L387
	movl	8(%rbp), %eax
	leal	-1(%rax), %edx
	movl	%edx, 8(%rbp)
.L343:
	cmpl	$1, %eax
	je	.L388
.L325:
	movq	88(%rsp), %rax
	subq	%fs:40, %rax
	jne	.L389
	addq	$104, %rsp
	.cfi_remember_state
	.cfi_def_cfa_offset 56
	popq	%rbx
	.cfi_def_cfa_offset 48
	popq	%rbp
	.cfi_def_cfa_offset 40
	popq	%r12
	.cfi_def_cfa_offset 32
	popq	%r13
	.cfi_def_cfa_offset 24
	popq	%r14
	.cfi_def_cfa_offset 16
	popq	%r15
	.cfi_def_cfa_offset 8
	ret
	.p2align 4,,10
	.p2align 3
.L388:
	.cfi_restore_state
	movq	0(%rbp), %rax
	movq	%rbp, %rdi
	call	*16(%rax)
	testq	%rbx, %rbx
	jne	.L390
	movl	12(%rbp), %eax
	leal	-1(%rax), %edx
	movl	%edx, 12(%rbp)
.L346:
	cmpl	$1, %eax
	jne	.L325
	movq	0(%rbp), %rax
	movq	%rbp, %rdi
	call	*24(%rax)
	jmp	.L325
	.p2align 4,,10
	.p2align 3
.L387:
	movl	$-1, %eax
	lock xaddl	%eax, 8(%rbp)
	jmp	.L343
	.p2align 4,,10
	.p2align 3
.L386:
	lock addl	$1, 8(%rax)
	jmp	.L326
	.p2align 4,,10
	.p2align 3
.L390:
	movl	$-1, %eax
	lock xaddl	%eax, 12(%rbp)
	jmp	.L346
.L389:
	call	__stack_chk_fail@PLT
.L353:
	movq	%rax, %rbx
	jmp	.L348
.L356:
	movq	%rax, %rbx
	jmp	.L335
.L354:
	movq	%rax, %rbx
	jmp	.L347
.L355:
	movq	%rax, %rbx
	jmp	.L331
	.section	.gcc_except_table
.LLSDA7791:
	.byte	0xff
	.byte	0xff
	.byte	0x1
	.uleb128 .LLSDACSE7791-.LLSDACSB7791
.LLSDACSB7791:
	.uleb128 .LEHB23-.LFB7791
	.uleb128 .LEHE23-.LEHB23
	.uleb128 .L355-.LFB7791
	.uleb128 0
	.uleb128 .LEHB24-.LFB7791
	.uleb128 .LEHE24-.LEHB24
	.uleb128 .L356-.LFB7791
	.uleb128 0
	.uleb128 .LEHB25-.LFB7791
	.uleb128 .LEHE25-.LEHB25
	.uleb128 .L353-.LFB7791
	.uleb128 0
	.uleb128 .LEHB26-.LFB7791
	.uleb128 .LEHE26-.LEHB26
	.uleb128 .L354-.LFB7791
	.uleb128 0
.LLSDACSE7791:
	.text
	.cfi_endproc
	.section	.text.unlikely
	.cfi_startproc
	.cfi_personality 0x9b,DW.ref.__gxx_personality_v0
	.cfi_lsda 0x1b,.LLSDAC7791
	.type	_ZN8asiodnp311DNP3ManagerC2EjSt10shared_ptrIN7openpal11ILogHandlerEESt8functionIFvvEES7_.cold, @function
_ZN8asiodnp311DNP3ManagerC2EjSt10shared_ptrIN7openpal11ILogHandlerEESt8functionIFvvEES7_.cold:
.LFSB7791:
.L347:
	.cfi_def_cfa_offset 160
	.cfi_offset 3, -56
	.cfi_offset 6, -48
	.cfi_offset 12, -40
	.cfi_offset 13, -32
	.cfi_offset 14, -24
	.cfi_offset 15, -16
	movl	$272, %esi
	movq	%rbp, %rdi
	call	_ZdlPvm@PLT
.L348:
	movq	64(%rsp), %rax
	testq	%rax, %rax
	je	.L337
	leaq	48(%rsp), %rdi
	movl	$3, %edx
	movq	%rdi, %rsi
	call	*%rax
.L337:
	movq	32(%rsp), %rax
	testq	%rax, %rax
	je	.L333
	leaq	16(%rsp), %rdi
	movl	$3, %edx
	movq	%rdi, %rsi
	call	*%rax
.L333:
	movq	8(%rsp), %rdi
	testq	%rdi, %rdi
	je	.L351
	call	_ZNSt16_Sp_counted_baseILN9__gnu_cxx12_Lock_policyE2EE10_M_releaseEv@PLT
.L351:
	movq	%rbx, %rdi
.LEHB27:
	call	_Unwind_Resume@PLT
.LEHE27:
.L335:
	movq	64(%rsp), %rax
	testq	%rax, %rax
	je	.L337
	movl	$3, %edx
	movq	%r15, %rsi
	movq	%r15, %rdi
	call	*%rax
	jmp	.L337
.L331:
	movq	32(%rsp), %rax
	testq	%rax, %rax
	je	.L333
	movl	$3, %edx
	movq	%r14, %rsi
	movq	%r14, %rdi
	call	*%rax
	jmp	.L333
	.cfi_endproc
.LFE7791:
	.section	.gcc_except_table
.LLSDAC7791:
	.byte	0xff
	.byte	0xff
	.byte	0x1
	.uleb128 .LLSDACSEC7791-.LLSDACSBC7791
.LLSDACSBC7791:
	.uleb128 .LEHB27-.LCOLDB30
	.uleb128 .LEHE27-.LEHB27
	.uleb128 0
	.uleb128 0
.LLSDACSEC7791:
	.section	.text.unlikely
	.text
	.size	_ZN8asiodnp311DNP3ManagerC2EjSt10shared_ptrIN7openpal11ILogHandlerEESt8functionIFvvEES7_, .-_ZN8asiodnp311DNP3ManagerC2EjSt10shared_ptrIN7openpal11ILogHandlerEESt8functionIFvvEES7_
	.section	.text.unlikely
	.size	_ZN8asiodnp311DNP3ManagerC2EjSt10shared_ptrIN7openpal11ILogHandlerEESt8functionIFvvEES7_.cold, .-_ZN8asiodnp311DNP3ManagerC2EjSt10shared_ptrIN7openpal11ILogHandlerEESt8functionIFvvEES7_.cold
.LCOLDE30:
	.text
.LHOTE30:
	.globl	_ZN8asiodnp311DNP3ManagerC1EjSt10shared_ptrIN7openpal11ILogHandlerEESt8functionIFvvEES7_
	.set	_ZN8asiodnp311DNP3ManagerC1EjSt10shared_ptrIN7openpal11ILogHandlerEESt8functionIFvvEES7_,_ZN8asiodnp311DNP3ManagerC2EjSt10shared_ptrIN7openpal11ILogHandlerEESt8functionIFvvEES7_
	.section	.text.startup,"ax",@progbits
	.p2align 4
	.type	_GLOBAL__sub_I_DNP3Manager.cpp, @function
_GLOBAL__sub_I_DNP3Manager.cpp:
.LFB10572:
	.cfi_startproc
	pushq	%rbp
	.cfi_def_cfa_offset 16
	.cfi_offset 6, -16
	movl	$5000, %edi
	call	_ZN7openpal12TimeDuration12MillisecondsEl@PLT
	movq	_ZGVZN4asio15system_categoryEvE8instance@GOTPCREL(%rip), %rbp
	movzbl	0(%rbp), %eax
	testb	%al, %al
	je	.L422
.L393:
	movq	_ZGVZN4asio5error18get_netdb_categoryEvE8instance@GOTPCREL(%rip), %rbp
	movzbl	0(%rbp), %eax
	testb	%al, %al
	je	.L423
.L396:
	movq	_ZGVZN4asio5error21get_addrinfo_categoryEvE8instance@GOTPCREL(%rip), %rbp
	movzbl	0(%rbp), %eax
	testb	%al, %al
	je	.L424
.L399:
	movq	_ZGVZN4asio5error17get_misc_categoryEvE8instance@GOTPCREL(%rip), %rbp
	movzbl	0(%rbp), %eax
	testb	%al, %al
	je	.L425
.L402:
	movq	_ZGVN4asio6detail10call_stackINS0_15task_io_serviceENS0_27task_io_service_thread_infoEE4top_E@GOTPCREL(%rip), %rax
	cmpb	$0, (%rax)
	je	.L426
.L404:
	movq	_ZGVN4asio6detail12service_baseINS0_13epoll_reactorEE2idE@GOTPCREL(%rip), %rax
	cmpb	$0, (%rax)
	je	.L427
.L405:
	movq	_ZGVN4asio6detail12service_baseINS0_15task_io_serviceEE2idE@GOTPCREL(%rip), %rax
	cmpb	$0, (%rax)
	je	.L428
.L406:
	movq	_ZGVN4asio6detail10call_stackINS0_14strand_service11strand_implEhE4top_E@GOTPCREL(%rip), %rax
	cmpb	$0, (%rax)
	je	.L429
.L407:
	movq	_ZGVN4asio6detail12service_baseINS0_14strand_serviceEE2idE@GOTPCREL(%rip), %rax
	cmpb	$0, (%rax)
	je	.L430
	popq	%rbp
	.cfi_remember_state
	.cfi_def_cfa_offset 8
	ret
.L422:
	.cfi_restore_state
	movq	%rbp, %rdi
	call	__cxa_guard_acquire@PLT
	testl	%eax, %eax
	je	.L393
	movq	_ZZN4asio15system_categoryEvE8instance@GOTPCREL(%rip), %rsi
	movq	_ZN4asio6detail15system_categoryD1Ev@GOTPCREL(%rip), %rdi
	leaq	__dso_handle(%rip), %rdx
	call	__cxa_atexit@PLT
	movq	%rbp, %rdi
	call	__cxa_guard_release@PLT
	jmp	.L393
.L430:
	movb	$1, (%rax)
	leaq	__dso_handle(%rip), %rdx
	movq	_ZN4asio6detail12service_baseINS0_14strand_serviceEE2idE@GOTPCREL(%rip), %rsi
	movq	_ZN4asio6detail10service_idINS0_14strand_serviceEED1Ev@GOTPCREL(%rip), %rdi
	popq	%rbp
	.cfi_remember_state
	.cfi_def_cfa_offset 8
	jmp	__cxa_atexit@PLT
.L429:
	.cfi_restore_state
	movb	$1, (%rax)
	movq	_ZN4asio6detail10call_stackINS0_14strand_service11strand_implEhE4top_E@GOTPCREL(%rip), %rsi
	leaq	__dso_handle(%rip), %rdx
	movq	_ZN4asio6detail7tss_ptrINS0_10call_stackINS0_14strand_service11strand_implEhE7contextEED1Ev@GOTPCREL(%rip), %rdi
	call	__cxa_atexit@PLT
	jmp	.L407
.L428:
	movb	$1, (%rax)
	movq	_ZN4asio6detail12service_baseINS0_15task_io_serviceEE2idE@GOTPCREL(%rip), %rsi
	leaq	__dso_handle(%rip), %rdx
	movq	_ZN4asio6detail10service_idINS0_15task_io_serviceEED1Ev@GOTPCREL(%rip), %rdi
	call	__cxa_atexit@PLT
	jmp	.L406
.L427:
	movb	$1, (%rax)
	movq	_ZN4asio6detail12service_baseINS0_13epoll_reactorEE2idE@GOTPCREL(%rip), %rsi
	leaq	__dso_handle(%rip), %rdx
	movq	_ZN4asio6detail10service_idINS0_13epoll_reactorEED1Ev@GOTPCREL(%rip), %rdi
	call	__cxa_atexit@PLT
	jmp	.L405
.L426:
	movb	$1, (%rax)
	movq	_ZN4asio6detail10call_stackINS0_15task_io_serviceENS0_27task_io_service_thread_infoEE4top_E@GOTPCREL(%rip), %rsi
	leaq	__dso_handle(%rip), %rdx
	movq	_ZN4asio6detail7tss_ptrINS0_10call_stackINS0_15task_io_serviceENS0_27task_io_service_thread_infoEE7contextEED1Ev@GOTPCREL(%rip), %rdi
	call	__cxa_atexit@PLT
	jmp	.L404
.L425:
	movq	%rbp, %rdi
	call	__cxa_guard_acquire@PLT
	testl	%eax, %eax
	je	.L402
	movq	_ZZN4asio5error17get_misc_categoryEvE8instance@GOTPCREL(%rip), %rsi
	movq	_ZN4asio5error6detail13misc_categoryD1Ev@GOTPCREL(%rip), %rdi
	leaq	__dso_handle(%rip), %rdx
	call	__cxa_atexit@PLT
	movq	%rbp, %rdi
	call	__cxa_guard_release@PLT
	jmp	.L402
.L424:
	movq	%rbp, %rdi
	call	__cxa_guard_acquire@PLT
	testl	%eax, %eax
	je	.L399
	movq	_ZZN4asio5error21get_addrinfo_categoryEvE8instance@GOTPCREL(%rip), %rsi
	movq	_ZN4asio5error6detail17addrinfo_categoryD1Ev@GOTPCREL(%rip), %rdi
	leaq	__dso_handle(%rip), %rdx
	call	__cxa_atexit@PLT
	movq	%rbp, %rdi
	call	__cxa_guard_release@PLT
	jmp	.L399
.L423:
	movq	%rbp, %rdi
	call	__cxa_guard_acquire@PLT
	testl	%eax, %eax
	je	.L396
	movq	_ZZN4asio5error18get_netdb_categoryEvE8instance@GOTPCREL(%rip), %rsi
	movq	_ZN4asio5error6detail14netdb_categoryD1Ev@GOTPCREL(%rip), %rdi
	leaq	__dso_handle(%rip), %rdx
	call	__cxa_atexit@PLT
	movq	%rbp, %rdi
	call	__cxa_guard_release@PLT
	jmp	.L396
	.cfi_endproc
.LFE10572:
	.size	_GLOBAL__sub_I_DNP3Manager.cpp, .-_GLOBAL__sub_I_DNP3Manager.cpp
	.section	.init_array,"aw"
	.align 8
	.quad	_GLOBAL__sub_I_DNP3Manager.cpp
	.weak	_ZGVN4asio6detail12service_baseINS0_14strand_serviceEE2idE
	.section	.bss._ZGVN4asio6detail12service_baseINS0_14strand_serviceEE2idE,"awG",@nobits,_ZGVN4asio6detail12service_baseINS0_14strand_serviceEE2idE,comdat
	.align 8
	.type	_ZGVN4asio6detail12service_baseINS0_14strand_serviceEE2idE, @gnu_unique_object
	.size	_ZGVN4asio6detail12service_baseINS0_14strand_serviceEE2idE, 8
_ZGVN4asio6detail12service_baseINS0_14strand_serviceEE2idE:
	.zero	8
	.weak	_ZGVN4asio6detail10call_stackINS0_14strand_service11strand_implEhE4top_E
	.section	.bss._ZGVN4asio6detail10call_stackINS0_14strand_service11strand_implEhE4top_E,"awG",@nobits,_ZGVN4asio6detail10call_stackINS0_14strand_service11strand_implEhE4top_E,comdat
	.align 8
	.type	_ZGVN4asio6detail10call_stackINS0_14strand_service11strand_implEhE4top_E, @gnu_unique_object
	.size	_ZGVN4asio6detail10call_stackINS0_14strand_service11strand_implEhE4top_E, 8
_ZGVN4asio6detail10call_stackINS0_14strand_service11strand_implEhE4top_E:
	.zero	8
	.weak	_ZGVN4asio6detail12service_baseINS0_15task_io_serviceEE2idE
	.section	.bss._ZGVN4asio6detail12service_baseINS0_15task_io_serviceEE2idE,"awG",@nobits,_ZGVN4asio6detail12service_baseINS0_15task_io_serviceEE2idE,comdat
	.align 8
	.type	_ZGVN4asio6detail12service_baseINS0_15task_io_serviceEE2idE, @gnu_unique_object
	.size	_ZGVN4asio6detail12service_baseINS0_15task_io_serviceEE2idE, 8
_ZGVN4asio6detail12service_baseINS0_15task_io_serviceEE2idE:
	.zero	8
	.weak	_ZGVN4asio6detail12service_baseINS0_13epoll_reactorEE2idE
	.section	.bss._ZGVN4asio6detail12service_baseINS0_13epoll_reactorEE2idE,"awG",@nobits,_ZGVN4asio6detail12service_baseINS0_13epoll_reactorEE2idE,comdat
	.align 8
	.type	_ZGVN4asio6detail12service_baseINS0_13epoll_reactorEE2idE, @gnu_unique_object
	.size	_ZGVN4asio6detail12service_baseINS0_13epoll_reactorEE2idE, 8
_ZGVN4asio6detail12service_baseINS0_13epoll_reactorEE2idE:
	.zero	8
	.weak	_ZGVN4asio6detail10call_stackINS0_15task_io_serviceENS0_27task_io_service_thread_infoEE4top_E
	.section	.bss._ZGVN4asio6detail10call_stackINS0_15task_io_serviceENS0_27task_io_service_thread_infoEE4top_E,"awG",@nobits,_ZGVN4asio6detail10call_stackINS0_15task_io_serviceENS0_27task_io_service_thread_infoEE4top_E,comdat
	.align 8
	.type	_ZGVN4asio6detail10call_stackINS0_15task_io_serviceENS0_27task_io_service_thread_infoEE4top_E, @gnu_unique_object
	.size	_ZGVN4asio6detail10call_stackINS0_15task_io_serviceENS0_27task_io_service_thread_infoEE4top_E, 8
_ZGVN4asio6detail10call_stackINS0_15task_io_serviceENS0_27task_io_service_thread_infoEE4top_E:
	.zero	8
	.weak	_ZN4asio6detail12service_baseINS0_14strand_serviceEE2idE
	.section	.bss._ZN4asio6detail12service_baseINS0_14strand_serviceEE2idE,"awG",@nobits,_ZN4asio6detail12service_baseINS0_14strand_serviceEE2idE,comdat
	.type	_ZN4asio6detail12service_baseINS0_14strand_serviceEE2idE, @gnu_unique_object
	.size	_ZN4asio6detail12service_baseINS0_14strand_serviceEE2idE, 1
_ZN4asio6detail12service_baseINS0_14strand_serviceEE2idE:
	.zero	1
	.weak	_ZN4asio6detail10call_stackINS0_14strand_service11strand_implEhE4top_E
	.section	.bss._ZN4asio6detail10call_stackINS0_14strand_service11strand_implEhE4top_E,"awG",@nobits,_ZN4asio6detail10call_stackINS0_14strand_service11strand_implEhE4top_E,comdat
	.type	_ZN4asio6detail10call_stackINS0_14strand_service11strand_implEhE4top_E, @gnu_unique_object
	.size	_ZN4asio6detail10call_stackINS0_14strand_service11strand_implEhE4top_E, 1
_ZN4asio6detail10call_stackINS0_14strand_service11strand_implEhE4top_E:
	.zero	1
	.weak	_ZN4asio6detail12service_baseINS0_15task_io_serviceEE2idE
	.section	.bss._ZN4asio6detail12service_baseINS0_15task_io_serviceEE2idE,"awG",@nobits,_ZN4asio6detail12service_baseINS0_15task_io_serviceEE2idE,comdat
	.type	_ZN4asio6detail12service_baseINS0_15task_io_serviceEE2idE, @gnu_unique_object
	.size	_ZN4asio6detail12service_baseINS0_15task_io_serviceEE2idE, 1
_ZN4asio6detail12service_baseINS0_15task_io_serviceEE2idE:
	.zero	1
	.weak	_ZN4asio6detail12service_baseINS0_13epoll_reactorEE2idE
	.section	.bss._ZN4asio6detail12service_baseINS0_13epoll_reactorEE2idE,"awG",@nobits,_ZN4asio6detail12service_baseINS0_13epoll_reactorEE2idE,comdat
	.type	_ZN4asio6detail12service_baseINS0_13epoll_reactorEE2idE, @gnu_unique_object
	.size	_ZN4asio6detail12service_baseINS0_13epoll_reactorEE2idE, 1
_ZN4asio6detail12service_baseINS0_13epoll_reactorEE2idE:
	.zero	1
	.weak	_ZN4asio6detail10call_stackINS0_15task_io_serviceENS0_27task_io_service_thread_infoEE4top_E
	.section	.bss._ZN4asio6detail10call_stackINS0_15task_io_serviceENS0_27task_io_service_thread_infoEE4top_E,"awG",@nobits,_ZN4asio6detail10call_stackINS0_15task_io_serviceENS0_27task_io_service_thread_infoEE4top_E,comdat
	.type	_ZN4asio6detail10call_stackINS0_15task_io_serviceENS0_27task_io_service_thread_infoEE4top_E, @gnu_unique_object
	.size	_ZN4asio6detail10call_stackINS0_15task_io_serviceENS0_27task_io_service_thread_infoEE4top_E, 1
_ZN4asio6detail10call_stackINS0_15task_io_serviceENS0_27task_io_service_thread_infoEE4top_E:
	.zero	1
	.weak	_ZTSN4asio6detail15system_categoryE
	.section	.rodata._ZTSN4asio6detail15system_categoryE,"aG",@progbits,_ZTSN4asio6detail15system_categoryE,comdat
	.align 32
	.type	_ZTSN4asio6detail15system_categoryE, @object
	.size	_ZTSN4asio6detail15system_categoryE, 32
_ZTSN4asio6detail15system_categoryE:
	.string	"N4asio6detail15system_categoryE"
	.weak	_ZTIN4asio6detail15system_categoryE
	.section	.data.rel.ro._ZTIN4asio6detail15system_categoryE,"awG",@progbits,_ZTIN4asio6detail15system_categoryE,comdat
	.align 8
	.type	_ZTIN4asio6detail15system_categoryE, @object
	.size	_ZTIN4asio6detail15system_categoryE, 24
_ZTIN4asio6detail15system_categoryE:
	.quad	_ZTVN10__cxxabiv120__si_class_type_infoE+16
	.quad	_ZTSN4asio6detail15system_categoryE
	.quad	_ZTINSt3_V214error_categoryE
	.weak	_ZTSN4asio5error6detail14netdb_categoryE
	.section	.rodata._ZTSN4asio5error6detail14netdb_categoryE,"aG",@progbits,_ZTSN4asio5error6detail14netdb_categoryE,comdat
	.align 32
	.type	_ZTSN4asio5error6detail14netdb_categoryE, @object
	.size	_ZTSN4asio5error6detail14netdb_categoryE, 37
_ZTSN4asio5error6detail14netdb_categoryE:
	.string	"N4asio5error6detail14netdb_categoryE"
	.weak	_ZTIN4asio5error6detail14netdb_categoryE
	.section	.data.rel.ro._ZTIN4asio5error6detail14netdb_categoryE,"awG",@progbits,_ZTIN4asio5error6detail14netdb_categoryE,comdat
	.align 8
	.type	_ZTIN4asio5error6detail14netdb_categoryE, @object
	.size	_ZTIN4asio5error6detail14netdb_categoryE, 24
_ZTIN4asio5error6detail14netdb_categoryE:
	.quad	_ZTVN10__cxxabiv120__si_class_type_infoE+16
	.quad	_ZTSN4asio5error6detail14netdb_categoryE
	.quad	_ZTINSt3_V214error_categoryE
	.weak	_ZTSN4asio5error6detail17addrinfo_categoryE
	.section	.rodata._ZTSN4asio5error6detail17addrinfo_categoryE,"aG",@progbits,_ZTSN4asio5error6detail17addrinfo_categoryE,comdat
	.align 32
	.type	_ZTSN4asio5error6detail17addrinfo_categoryE, @object
	.size	_ZTSN4asio5error6detail17addrinfo_categoryE, 40
_ZTSN4asio5error6detail17addrinfo_categoryE:
	.string	"N4asio5error6detail17addrinfo_categoryE"
	.weak	_ZTIN4asio5error6detail17addrinfo_categoryE
	.section	.data.rel.ro._ZTIN4asio5error6detail17addrinfo_categoryE,"awG",@progbits,_ZTIN4asio5error6detail17addrinfo_categoryE,comdat
	.align 8
	.type	_ZTIN4asio5error6detail17addrinfo_categoryE, @object
	.size	_ZTIN4asio5error6detail17addrinfo_categoryE, 24
_ZTIN4asio5error6detail17addrinfo_categoryE:
	.quad	_ZTVN10__cxxabiv120__si_class_type_infoE+16
	.quad	_ZTSN4asio5error6detail17addrinfo_categoryE
	.quad	_ZTINSt3_V214error_categoryE
	.weak	_ZTSN4asio5error6detail13misc_categoryE
	.section	.rodata._ZTSN4asio5error6detail13misc_categoryE,"aG",@progbits,_ZTSN4asio5error6detail13misc_categoryE,comdat
	.align 32
	.type	_ZTSN4asio5error6detail13misc_categoryE, @object
	.size	_ZTSN4asio5error6detail13misc_categoryE, 36
_ZTSN4asio5error6detail13misc_categoryE:
	.string	"N4asio5error6detail13misc_categoryE"
	.weak	_ZTIN4asio5error6detail13misc_categoryE
	.section	.data.rel.ro._ZTIN4asio5error6detail13misc_categoryE,"awG",@progbits,_ZTIN4asio5error6detail13misc_categoryE,comdat
	.align 8
	.type	_ZTIN4asio5error6detail13misc_categoryE, @object
	.size	_ZTIN4asio5error6detail13misc_categoryE, 24
_ZTIN4asio5error6detail13misc_categoryE:
	.quad	_ZTVN10__cxxabiv120__si_class_type_infoE+16
	.quad	_ZTSN4asio5error6detail13misc_categoryE
	.quad	_ZTINSt3_V214error_categoryE
	.weak	_ZTVN4asio6detail15system_categoryE
	.section	.data.rel.ro._ZTVN4asio6detail15system_categoryE,"awG",@progbits,_ZTVN4asio6detail15system_categoryE,comdat
	.align 8
	.type	_ZTVN4asio6detail15system_categoryE, @object
	.size	_ZTVN4asio6detail15system_categoryE, 80
_ZTVN4asio6detail15system_categoryE:
	.quad	0
	.quad	_ZTIN4asio6detail15system_categoryE
	.quad	_ZN4asio6detail15system_categoryD1Ev
	.quad	_ZN4asio6detail15system_categoryD0Ev
	.quad	_ZNK4asio6detail15system_category4nameEv
	.quad	_ZNKSt3_V214error_category10_M_messageB5cxx11Ei
	.quad	_ZNK4asio6detail15system_category7messageB5cxx11Ei
	.quad	_ZNKSt3_V214error_category23default_error_conditionEi
	.quad	_ZNKSt3_V214error_category10equivalentEiRKSt15error_condition
	.quad	_ZNKSt3_V214error_category10equivalentERKSt10error_codei
	.weak	_ZTVN4asio5error6detail14netdb_categoryE
	.section	.data.rel.ro._ZTVN4asio5error6detail14netdb_categoryE,"awG",@progbits,_ZTVN4asio5error6detail14netdb_categoryE,comdat
	.align 8
	.type	_ZTVN4asio5error6detail14netdb_categoryE, @object
	.size	_ZTVN4asio5error6detail14netdb_categoryE, 80
_ZTVN4asio5error6detail14netdb_categoryE:
	.quad	0
	.quad	_ZTIN4asio5error6detail14netdb_categoryE
	.quad	_ZN4asio5error6detail14netdb_categoryD1Ev
	.quad	_ZN4asio5error6detail14netdb_categoryD0Ev
	.quad	_ZNK4asio5error6detail14netdb_category4nameEv
	.quad	_ZNKSt3_V214error_category10_M_messageB5cxx11Ei
	.quad	_ZNK4asio5error6detail14netdb_category7messageB5cxx11Ei
	.quad	_ZNKSt3_V214error_category23default_error_conditionEi
	.quad	_ZNKSt3_V214error_category10equivalentEiRKSt15error_condition
	.quad	_ZNKSt3_V214error_category10equivalentERKSt10error_codei
	.weak	_ZTVN4asio5error6detail17addrinfo_categoryE
	.section	.data.rel.ro._ZTVN4asio5error6detail17addrinfo_categoryE,"awG",@progbits,_ZTVN4asio5error6detail17addrinfo_categoryE,comdat
	.align 8
	.type	_ZTVN4asio5error6detail17addrinfo_categoryE, @object
	.size	_ZTVN4asio5error6detail17addrinfo_categoryE, 80
_ZTVN4asio5error6detail17addrinfo_categoryE:
	.quad	0
	.quad	_ZTIN4asio5error6detail17addrinfo_categoryE
	.quad	_ZN4asio5error6detail17addrinfo_categoryD1Ev
	.quad	_ZN4asio5error6detail17addrinfo_categoryD0Ev
	.quad	_ZNK4asio5error6detail17addrinfo_category4nameEv
	.quad	_ZNKSt3_V214error_category10_M_messageB5cxx11Ei
	.quad	_ZNK4asio5error6detail17addrinfo_category7messageB5cxx11Ei
	.quad	_ZNKSt3_V214error_category23default_error_conditionEi
	.quad	_ZNKSt3_V214error_category10equivalentEiRKSt15error_condition
	.quad	_ZNKSt3_V214error_category10equivalentERKSt10error_codei
	.weak	_ZTVN4asio5error6detail13misc_categoryE
	.section	.data.rel.ro._ZTVN4asio5error6detail13misc_categoryE,"awG",@progbits,_ZTVN4asio5error6detail13misc_categoryE,comdat
	.align 8
	.type	_ZTVN4asio5error6detail13misc_categoryE, @object
	.size	_ZTVN4asio5error6detail13misc_categoryE, 80
_ZTVN4asio5error6detail13misc_categoryE:
	.quad	0
	.quad	_ZTIN4asio5error6detail13misc_categoryE
	.quad	_ZN4asio5error6detail13misc_categoryD1Ev
	.quad	_ZN4asio5error6detail13misc_categoryD0Ev
	.quad	_ZNK4asio5error6detail13misc_category4nameEv
	.quad	_ZNKSt3_V214error_category10_M_messageB5cxx11Ei
	.quad	_ZNK4asio5error6detail13misc_category7messageB5cxx11Ei
	.quad	_ZNKSt3_V214error_category23default_error_conditionEi
	.quad	_ZNKSt3_V214error_category10equivalentEiRKSt15error_condition
	.quad	_ZNKSt3_V214error_category10equivalentERKSt10error_codei
	.weak	_ZGVZN4asio5error17get_misc_categoryEvE8instance
	.section	.bss._ZGVZN4asio5error17get_misc_categoryEvE8instance,"awG",@nobits,_ZGVZN4asio5error17get_misc_categoryEvE8instance,comdat
	.align 8
	.type	_ZGVZN4asio5error17get_misc_categoryEvE8instance, @gnu_unique_object
	.size	_ZGVZN4asio5error17get_misc_categoryEvE8instance, 8
_ZGVZN4asio5error17get_misc_categoryEvE8instance:
	.zero	8
	.weak	_ZZN4asio5error17get_misc_categoryEvE8instance
	.section	.data.rel._ZZN4asio5error17get_misc_categoryEvE8instance,"awG",@progbits,_ZZN4asio5error17get_misc_categoryEvE8instance,comdat
	.align 8
	.type	_ZZN4asio5error17get_misc_categoryEvE8instance, @gnu_unique_object
	.size	_ZZN4asio5error17get_misc_categoryEvE8instance, 8
_ZZN4asio5error17get_misc_categoryEvE8instance:
	.quad	_ZTVN4asio5error6detail13misc_categoryE+16
	.weak	_ZGVZN4asio5error21get_addrinfo_categoryEvE8instance
	.section	.bss._ZGVZN4asio5error21get_addrinfo_categoryEvE8instance,"awG",@nobits,_ZGVZN4asio5error21get_addrinfo_categoryEvE8instance,comdat
	.align 8
	.type	_ZGVZN4asio5error21get_addrinfo_categoryEvE8instance, @gnu_unique_object
	.size	_ZGVZN4asio5error21get_addrinfo_categoryEvE8instance, 8
_ZGVZN4asio5error21get_addrinfo_categoryEvE8instance:
	.zero	8
	.weak	_ZZN4asio5error21get_addrinfo_categoryEvE8instance
	.section	.data.rel._ZZN4asio5error21get_addrinfo_categoryEvE8instance,"awG",@progbits,_ZZN4asio5error21get_addrinfo_categoryEvE8instance,comdat
	.align 8
	.type	_ZZN4asio5error21get_addrinfo_categoryEvE8instance, @gnu_unique_object
	.size	_ZZN4asio5error21get_addrinfo_categoryEvE8instance, 8
_ZZN4asio5error21get_addrinfo_categoryEvE8instance:
	.quad	_ZTVN4asio5error6detail17addrinfo_categoryE+16
	.weak	_ZGVZN4asio5error18get_netdb_categoryEvE8instance
	.section	.bss._ZGVZN4asio5error18get_netdb_categoryEvE8instance,"awG",@nobits,_ZGVZN4asio5error18get_netdb_categoryEvE8instance,comdat
	.align 8
	.type	_ZGVZN4asio5error18get_netdb_categoryEvE8instance, @gnu_unique_object
	.size	_ZGVZN4asio5error18get_netdb_categoryEvE8instance, 8
_ZGVZN4asio5error18get_netdb_categoryEvE8instance:
	.zero	8
	.weak	_ZZN4asio5error18get_netdb_categoryEvE8instance
	.section	.data.rel._ZZN4asio5error18get_netdb_categoryEvE8instance,"awG",@progbits,_ZZN4asio5error18get_netdb_categoryEvE8instance,comdat
	.align 8
	.type	_ZZN4asio5error18get_netdb_categoryEvE8instance, @gnu_unique_object
	.size	_ZZN4asio5error18get_netdb_categoryEvE8instance, 8
_ZZN4asio5error18get_netdb_categoryEvE8instance:
	.quad	_ZTVN4asio5error6detail14netdb_categoryE+16
	.weak	_ZGVZN4asio15system_categoryEvE8instance
	.section	.bss._ZGVZN4asio15system_categoryEvE8instance,"awG",@nobits,_ZGVZN4asio15system_categoryEvE8instance,comdat
	.align 8
	.type	_ZGVZN4asio15system_categoryEvE8instance, @gnu_unique_object
	.size	_ZGVZN4asio15system_categoryEvE8instance, 8
_ZGVZN4asio15system_categoryEvE8instance:
	.zero	8
	.weak	_ZZN4asio15system_categoryEvE8instance
	.section	.data.rel._ZZN4asio15system_categoryEvE8instance,"awG",@progbits,_ZZN4asio15system_categoryEvE8instance,comdat
	.align 8
	.type	_ZZN4asio15system_categoryEvE8instance, @gnu_unique_object
	.size	_ZZN4asio15system_categoryEvE8instance, 8
_ZZN4asio15system_categoryEvE8instance:
	.quad	_ZTVN4asio6detail15system_categoryE+16
	.weakref	_ZL28__gthrw___pthread_key_createPjPFvPvE,__pthread_key_create
	.section	.rodata.cst16,"aM",@progbits,16
	.align 16
.LC5:
	.quad	8028075772644520015
	.quad	7310593917846626414
	.align 16
.LC6:
	.quad	2334381286471394643
	.quad	7959390400869068654
	.align 16
.LC7:
	.quad	8367816086596579155
	.quad	2338616625292734585
	.align 16
.LC8:
	.quad	7234013753529430881
	.quad	8243030355803531634
	.align 16
.LC9:
	.quad	8390045716486254408
	.quad	2891421386351273504
	.align 16
.LC10:
	.quad	7526769937477431150
	.quad	8532478930943832687
	.align 16
.LC11:
	.quad	2340027324477221221
	.quad	7020021577750243169
	.align 16
.LC12:
	.quad	8243123821706831956
	.quad	7809653110584451193
	.align 16
.LC13:
	.quad	2338623170819155049
	.quad	2338324160631043177
	.align 16
.LC14:
	.quad	7311138144931573614
	.quad	7019250824563089696
	.align 16
.LC15:
	.quad	7309955097514876993
	.quad	7809911847770287971
	.align 16
.LC16:
	.quad	2338053693894893669
	.quad	7234314212361855855
	.align 16
.LC17:
	.quad	2334956330985808928
	.quad	7310293695322153316
	.align 16
.LC18:
	.quad	8387231026764149601
	.quad	8245935278387126884
	.align 16
.LC19:
	.quad	2338615488418245701
	.quad	7959390400869068654
	.align 16
.LC20:
	.quad	7166182912791242836
	.quad	7214892426067994994
	.align 16
.LC21:
	.quad	2338616625293649263
	.quad	8031165433303558502
	.align 16
.LC22:
	.quad	7810775711721485344
	.quad	7812726531955123045
	.hidden	DW.ref.__gxx_personality_v0
	.weak	DW.ref.__gxx_personality_v0
	.section	.data.rel.local.DW.ref.__gxx_personality_v0,"awG",@progbits,DW.ref.__gxx_personality_v0,comdat
	.align 8
	.type	DW.ref.__gxx_personality_v0, @object
	.size	DW.ref.__gxx_personality_v0, 8
DW.ref.__gxx_personality_v0:
	.quad	__gxx_personality_v0
	.hidden	__dso_handle
	.ident	"GCC: (GNU) 10.3.1 20210703 (ALT Sisyphus 10.3.1-alt2)"
	.section	.note.GNU-stack,"",@progbits
