	.file	"EnableUnsolicitedTask.cpp"
	.text
	.section	.text._ZNK8opendnp311IMasterTask10IsAuthTaskEv,"axG",@progbits,_ZNK8opendnp311IMasterTask10IsAuthTaskEv,comdat
	.align 2
	.p2align 4
	.weak	_ZNK8opendnp311IMasterTask10IsAuthTaskEv
	.type	_ZNK8opendnp311IMasterTask10IsAuthTaskEv, @function
_ZNK8opendnp311IMasterTask10IsAuthTaskEv:
.LFB2433:
	.cfi_startproc
	xorl	%eax, %eax
	ret
	.cfi_endproc
.LFE2433:
	.size	_ZNK8opendnp311IMasterTask10IsAuthTaskEv, .-_ZNK8opendnp311IMasterTask10IsAuthTaskEv
	.section	.text._ZN8opendnp311IMasterTask10InitializeEv,"axG",@progbits,_ZN8opendnp311IMasterTask10InitializeEv,comdat
	.align 2
	.p2align 4
	.weak	_ZN8opendnp311IMasterTask10InitializeEv
	.type	_ZN8opendnp311IMasterTask10InitializeEv, @function
_ZN8opendnp311IMasterTask10InitializeEv:
.LFB2434:
	.cfi_startproc
	ret
	.cfi_endproc
.LFE2434:
	.size	_ZN8opendnp311IMasterTask10InitializeEv, .-_ZN8opendnp311IMasterTask10InitializeEv
	.section	.text._ZNK8opendnp321EnableUnsolicitedTask11IsRecurringEv,"axG",@progbits,_ZNK8opendnp321EnableUnsolicitedTask11IsRecurringEv,comdat
	.align 2
	.p2align 4
	.weak	_ZNK8opendnp321EnableUnsolicitedTask11IsRecurringEv
	.type	_ZNK8opendnp321EnableUnsolicitedTask11IsRecurringEv, @function
_ZNK8opendnp321EnableUnsolicitedTask11IsRecurringEv:
.LFB2435:
	.cfi_startproc
	movl	$1, %eax
	ret
	.cfi_endproc
.LFE2435:
	.size	_ZNK8opendnp321EnableUnsolicitedTask11IsRecurringEv, .-_ZNK8opendnp321EnableUnsolicitedTask11IsRecurringEv
	.section	.rodata._ZNK8opendnp321EnableUnsolicitedTask4NameEv.str1.1,"aMS",@progbits,1
.LC0:
	.string	"Enable Unsolicited"
	.section	.text._ZNK8opendnp321EnableUnsolicitedTask4NameEv,"axG",@progbits,_ZNK8opendnp321EnableUnsolicitedTask4NameEv,comdat
	.align 2
	.p2align 4
	.weak	_ZNK8opendnp321EnableUnsolicitedTask4NameEv
	.type	_ZNK8opendnp321EnableUnsolicitedTask4NameEv, @function
_ZNK8opendnp321EnableUnsolicitedTask4NameEv:
.LFB2436:
	.cfi_startproc
	leaq	.LC0(%rip), %rax
	ret
	.cfi_endproc
.LFE2436:
	.size	_ZNK8opendnp321EnableUnsolicitedTask4NameEv, .-_ZNK8opendnp321EnableUnsolicitedTask4NameEv
	.section	.text._ZNK8opendnp321EnableUnsolicitedTask8PriorityEv,"axG",@progbits,_ZNK8opendnp321EnableUnsolicitedTask8PriorityEv,comdat
	.align 2
	.p2align 4
	.weak	_ZNK8opendnp321EnableUnsolicitedTask8PriorityEv
	.type	_ZNK8opendnp321EnableUnsolicitedTask8PriorityEv, @function
_ZNK8opendnp321EnableUnsolicitedTask8PriorityEv:
.LFB2437:
	.cfi_startproc
	movl	$170, %eax
	ret
	.cfi_endproc
.LFE2437:
	.size	_ZNK8opendnp321EnableUnsolicitedTask8PriorityEv, .-_ZNK8opendnp321EnableUnsolicitedTask8PriorityEv
	.section	.text._ZNK8opendnp321EnableUnsolicitedTask19BlocksLowerPriorityEv,"axG",@progbits,_ZNK8opendnp321EnableUnsolicitedTask19BlocksLowerPriorityEv,comdat
	.align 2
	.p2align 4
	.weak	_ZNK8opendnp321EnableUnsolicitedTask19BlocksLowerPriorityEv
	.type	_ZNK8opendnp321EnableUnsolicitedTask19BlocksLowerPriorityEv, @function
_ZNK8opendnp321EnableUnsolicitedTask19BlocksLowerPriorityEv:
.LFB2438:
	.cfi_startproc
	movl	$1, %eax
	ret
	.cfi_endproc
.LFE2438:
	.size	_ZNK8opendnp321EnableUnsolicitedTask19BlocksLowerPriorityEv, .-_ZNK8opendnp321EnableUnsolicitedTask19BlocksLowerPriorityEv
	.section	.text._ZNK8opendnp321EnableUnsolicitedTask11GetTaskTypeEv,"axG",@progbits,_ZNK8opendnp321EnableUnsolicitedTask11GetTaskTypeEv,comdat
	.align 2
	.p2align 4
	.weak	_ZNK8opendnp321EnableUnsolicitedTask11GetTaskTypeEv
	.type	_ZNK8opendnp321EnableUnsolicitedTask11GetTaskTypeEv, @function
_ZNK8opendnp321EnableUnsolicitedTask11GetTaskTypeEv:
.LFB2439:
	.cfi_startproc
	movl	$5, %eax
	ret
	.cfi_endproc
.LFE2439:
	.size	_ZNK8opendnp321EnableUnsolicitedTask11GetTaskTypeEv, .-_ZNK8opendnp321EnableUnsolicitedTask11GetTaskTypeEv
	.text
	.align 2
	.p2align 4
	.globl	_ZN8opendnp321EnableUnsolicitedTask12BuildRequestERNS_11APDURequestEh
	.type	_ZN8opendnp321EnableUnsolicitedTask12BuildRequestERNS_11APDURequestEh, @function
_ZN8opendnp321EnableUnsolicitedTask12BuildRequestERNS_11APDURequestEh:
.LFB3027:
	.cfi_startproc
	pushq	%rbp
	.cfi_def_cfa_offset 16
	.cfi_offset 6, -16
	addq	$88, %rdi
	movq	%rsi, %rbp
	pushq	%rbx
	.cfi_def_cfa_offset 24
	.cfi_offset 3, -24
	movl	%edx, %ebx
	subq	$24, %rsp
	.cfi_def_cfa_offset 48
	movq	%fs:40, %rax
	movq	%rax, 8(%rsp)
	xorl	%eax, %eax
	call	_ZNK8opendnp310ClassField16OnlyEventClassesEv@PLT
	movzbl	%bl, %edx
	leaq	7(%rsp), %rsi
	movq	%rbp, %rdi
	movb	%al, 7(%rsp)
	call	_ZN8opendnp35build17EnableUnsolicitedERNS_11APDURequestERKNS_10ClassFieldEh@PLT
	movq	8(%rsp), %rax
	subq	%fs:40, %rax
	jne	.L12
	addq	$24, %rsp
	.cfi_remember_state
	.cfi_def_cfa_offset 24
	movl	$1, %eax
	popq	%rbx
	.cfi_def_cfa_offset 16
	popq	%rbp
	.cfi_def_cfa_offset 8
	ret
.L12:
	.cfi_restore_state
	call	__stack_chk_fail@PLT
	.cfi_endproc
.LFE3027:
	.size	_ZN8opendnp321EnableUnsolicitedTask12BuildRequestERNS_11APDURequestEh, .-_ZN8opendnp321EnableUnsolicitedTask12BuildRequestERNS_11APDURequestEh
	.align 2
	.p2align 4
	.globl	_ZNK8opendnp321EnableUnsolicitedTask9IsEnabledEv
	.type	_ZNK8opendnp321EnableUnsolicitedTask9IsEnabledEv, @function
_ZNK8opendnp321EnableUnsolicitedTask9IsEnabledEv:
.LFB3028:
	.cfi_startproc
	addq	$88, %rdi
	jmp	_ZNK8opendnp310ClassField13HasEventClassEv@PLT
	.cfi_endproc
.LFE3028:
	.size	_ZNK8opendnp321EnableUnsolicitedTask9IsEnabledEv, .-_ZNK8opendnp321EnableUnsolicitedTask9IsEnabledEv
	.align 2
	.p2align 4
	.globl	_ZN8opendnp321EnableUnsolicitedTask15ProcessResponseERKNS_18APDUResponseHeaderERKN7openpal6RSliceE
	.type	_ZN8opendnp321EnableUnsolicitedTask15ProcessResponseERKNS_18APDUResponseHeaderERKN7openpal6RSliceE, @function
_ZN8opendnp321EnableUnsolicitedTask15ProcessResponseERKNS_18APDUResponseHeaderERKN7openpal6RSliceE:
.LFB3029:
	.cfi_startproc
	subq	$8, %rsp
	.cfi_def_cfa_offset 16
	call	_ZN8opendnp311IMasterTask20ValidateNullResponseERKNS_18APDUResponseHeaderERKN7openpal6RSliceE@PLT
	testb	%al, %al
	setne	%al
	addq	$8, %rsp
	.cfi_def_cfa_offset 8
	addl	%eax, %eax
	ret
	.cfi_endproc
.LFE3029:
	.size	_ZN8opendnp321EnableUnsolicitedTask15ProcessResponseERKNS_18APDUResponseHeaderERKN7openpal6RSliceE, .-_ZN8opendnp321EnableUnsolicitedTask15ProcessResponseERKNS_18APDUResponseHeaderERKN7openpal6RSliceE
	.section	.text._ZN8opendnp321EnableUnsolicitedTaskD2Ev,"axG",@progbits,_ZN8opendnp321EnableUnsolicitedTaskD5Ev,comdat
	.align 2
	.p2align 4
	.weak	_ZN8opendnp321EnableUnsolicitedTaskD2Ev
	.type	_ZN8opendnp321EnableUnsolicitedTaskD2Ev, @function
_ZN8opendnp321EnableUnsolicitedTaskD2Ev:
.LFB3695:
	.cfi_startproc
	movq	_ZTVN8opendnp321EnableUnsolicitedTaskE@GOTPCREL(%rip), %rax
	addq	$16, %rax
	movq	%rax, (%rdi)
	jmp	_ZN8opendnp311IMasterTaskD2Ev@PLT
	.cfi_endproc
.LFE3695:
	.size	_ZN8opendnp321EnableUnsolicitedTaskD2Ev, .-_ZN8opendnp321EnableUnsolicitedTaskD2Ev
	.weak	_ZN8opendnp321EnableUnsolicitedTaskD1Ev
	.set	_ZN8opendnp321EnableUnsolicitedTaskD1Ev,_ZN8opendnp321EnableUnsolicitedTaskD2Ev
	.section	.text._ZN8opendnp321EnableUnsolicitedTaskD0Ev,"axG",@progbits,_ZN8opendnp321EnableUnsolicitedTaskD5Ev,comdat
	.align 2
	.p2align 4
	.weak	_ZN8opendnp321EnableUnsolicitedTaskD0Ev
	.type	_ZN8opendnp321EnableUnsolicitedTaskD0Ev, @function
_ZN8opendnp321EnableUnsolicitedTaskD0Ev:
.LFB3697:
	.cfi_startproc
	movq	_ZTVN8opendnp321EnableUnsolicitedTaskE@GOTPCREL(%rip), %rax
	pushq	%rbp
	.cfi_def_cfa_offset 16
	.cfi_offset 6, -16
	movq	%rdi, %rbp
	addq	$16, %rax
	movq	%rax, (%rdi)
	call	_ZN8opendnp311IMasterTaskD2Ev@PLT
	movq	%rbp, %rdi
	movl	$104, %esi
	popq	%rbp
	.cfi_def_cfa_offset 8
	jmp	_ZdlPvm@PLT
	.cfi_endproc
.LFE3697:
	.size	_ZN8opendnp321EnableUnsolicitedTaskD0Ev, .-_ZN8opendnp321EnableUnsolicitedTaskD0Ev
	.text
	.align 2
	.p2align 4
	.globl	_ZN8opendnp321EnableUnsolicitedTask14OnTaskCompleteENS_14TaskCompletionEN7openpal18MonotonicTimestampE
	.type	_ZN8opendnp321EnableUnsolicitedTask14OnTaskCompleteENS_14TaskCompletionEN7openpal18MonotonicTimestampE, @function
_ZN8opendnp321EnableUnsolicitedTask14OnTaskCompleteENS_14TaskCompletionEN7openpal18MonotonicTimestampE:
.LFB3030:
	.cfi_startproc
	subq	$40, %rsp
	.cfi_def_cfa_offset 48
	movq	%rdx, 8(%rsp)
	movq	%fs:40, %rax
	movq	%rax, 24(%rsp)
	xorl	%eax, %eax
	cmpb	$2, %sil
	je	.L22
	cmpb	$-1, %sil
	je	.L23
	cmpb	$1, %sil
	je	.L28
	call	_ZN7openpal18MonotonicTimestamp3MaxEv@PLT
	movq	%rax, %rdx
	xorl	%eax, %eax
.L25:
	movq	24(%rsp), %rcx
	subq	%fs:40, %rcx
	jne	.L29
	addq	$40, %rsp
	.cfi_remember_state
	.cfi_def_cfa_offset 8
	ret
	.p2align 4,,10
	.p2align 3
.L22:
	.cfi_restore_state
	leaq	96(%rdi), %rsi
	leaq	8(%rsp), %rdi
	call	_ZNK7openpal18MonotonicTimestamp3AddERKNS_12TimeDurationE@PLT
	movq	%rax, %rdx
	xorl	%eax, %eax
	jmp	.L25
	.p2align 4,,10
	.p2align 3
.L28:
	call	_ZN7openpal18MonotonicTimestamp3MaxEv@PLT
	movq	%rax, %rdx
	movl	$1, %eax
	jmp	.L25
	.p2align 4,,10
	.p2align 3
.L23:
	leaq	16(%rsp), %rdi
	xorl	%esi, %esi
	call	_ZN7openpal18MonotonicTimestampC1El@PLT
	movq	16(%rsp), %rdx
	xorl	%eax, %eax
	jmp	.L25
.L29:
	call	__stack_chk_fail@PLT
	.cfi_endproc
.LFE3030:
	.size	_ZN8opendnp321EnableUnsolicitedTask14OnTaskCompleteENS_14TaskCompletionEN7openpal18MonotonicTimestampE, .-_ZN8opendnp321EnableUnsolicitedTask14OnTaskCompleteENS_14TaskCompletionEN7openpal18MonotonicTimestampE
	.section	.text._ZN7openpal6LoggerD2Ev,"axG",@progbits,_ZN7openpal6LoggerD5Ev,comdat
	.align 2
	.p2align 4
	.weak	_ZN7openpal6LoggerD2Ev
	.type	_ZN7openpal6LoggerD2Ev, @function
_ZN7openpal6LoggerD2Ev:
.LFB2044:
	.cfi_startproc
	pushq	%r12
	.cfi_def_cfa_offset 16
	.cfi_offset 12, -16
	pushq	%rbp
	.cfi_def_cfa_offset 24
	.cfi_offset 6, -24
	pushq	%rbx
	.cfi_def_cfa_offset 32
	.cfi_offset 3, -32
	movq	24(%rdi), %rbp
	movq	%rdi, %rbx
	testq	%rbp, %rbp
	je	.L32
	movq	_ZL28__gthrw___pthread_key_createPjPFvPvE@GOTPCREL(%rip), %r12
	testq	%r12, %r12
	jne	.L46
	movl	8(%rbp), %eax
	leal	-1(%rax), %edx
	movl	%edx, 8(%rbp)
.L34:
	cmpl	$1, %eax
	je	.L47
.L32:
	movq	8(%rbx), %rbp
	testq	%rbp, %rbp
	je	.L30
	movq	_ZL28__gthrw___pthread_key_createPjPFvPvE@GOTPCREL(%rip), %r12
	testq	%r12, %r12
	jne	.L48
	movl	8(%rbp), %eax
	leal	-1(%rax), %edx
	movl	%edx, 8(%rbp)
.L41:
	cmpl	$1, %eax
	je	.L49
.L30:
	popq	%rbx
	.cfi_remember_state
	.cfi_def_cfa_offset 24
	popq	%rbp
	.cfi_def_cfa_offset 16
	popq	%r12
	.cfi_def_cfa_offset 8
	ret
	.p2align 4,,10
	.p2align 3
.L47:
	.cfi_restore_state
	movq	0(%rbp), %rax
	movq	%rbp, %rdi
	call	*16(%rax)
	testq	%r12, %r12
	jne	.L50
	movl	12(%rbp), %eax
	leal	-1(%rax), %edx
	movl	%edx, 12(%rbp)
.L37:
	cmpl	$1, %eax
	jne	.L32
	movq	0(%rbp), %rax
	movq	%rbp, %rdi
	call	*24(%rax)
	jmp	.L32
	.p2align 4,,10
	.p2align 3
.L49:
	movq	0(%rbp), %rax
	movq	%rbp, %rdi
	call	*16(%rax)
	testq	%r12, %r12
	jne	.L51
	movl	12(%rbp), %eax
	leal	-1(%rax), %edx
	movl	%edx, 12(%rbp)
.L44:
	cmpl	$1, %eax
	jne	.L30
	movq	0(%rbp), %rax
	popq	%rbx
	.cfi_remember_state
	.cfi_def_cfa_offset 24
	movq	%rbp, %rdi
	popq	%rbp
	.cfi_def_cfa_offset 16
	popq	%r12
	.cfi_def_cfa_offset 8
	movq	24(%rax), %rax
	jmp	*%rax
	.p2align 4,,10
	.p2align 3
.L46:
	.cfi_restore_state
	movl	$-1, %eax
	lock xaddl	%eax, 8(%rbp)
	jmp	.L34
	.p2align 4,,10
	.p2align 3
.L48:
	movl	$-1, %eax
	lock xaddl	%eax, 8(%rbp)
	jmp	.L41
	.p2align 4,,10
	.p2align 3
.L50:
	movl	$-1, %eax
	lock xaddl	%eax, 12(%rbp)
	jmp	.L37
	.p2align 4,,10
	.p2align 3
.L51:
	movl	$-1, %eax
	lock xaddl	%eax, 12(%rbp)
	jmp	.L44
	.cfi_endproc
.LFE2044:
	.size	_ZN7openpal6LoggerD2Ev, .-_ZN7openpal6LoggerD2Ev
	.weak	_ZN7openpal6LoggerD1Ev
	.set	_ZN7openpal6LoggerD1Ev,_ZN7openpal6LoggerD2Ev
	.section	.text.unlikely,"ax",@progbits
	.align 2
.LCOLDB1:
	.text
.LHOTB1:
	.align 2
	.p2align 4
	.globl	_ZN8opendnp321EnableUnsolicitedTaskC2ERNS_18IMasterApplicationENS_10ClassFieldEN7openpal12TimeDurationENS4_6LoggerE
	.type	_ZN8opendnp321EnableUnsolicitedTaskC2ERNS_18IMasterApplicationENS_10ClassFieldEN7openpal12TimeDurationENS4_6LoggerE, @function
_ZN8opendnp321EnableUnsolicitedTaskC2ERNS_18IMasterApplicationENS_10ClassFieldEN7openpal12TimeDurationENS4_6LoggerE:
.LFB3025:
	.cfi_startproc
	.cfi_personality 0x9b,DW.ref.__gxx_personality_v0
	.cfi_lsda 0x1b,.LLSDA3025
	pushq	%r14
	.cfi_def_cfa_offset 16
	.cfi_offset 14, -16
	pushq	%r13
	.cfi_def_cfa_offset 24
	.cfi_offset 13, -24
	movl	%edx, %r13d
	pushq	%r12
	.cfi_def_cfa_offset 32
	.cfi_offset 12, -32
	movq	%rcx, %r12
	pushq	%rbp
	.cfi_def_cfa_offset 40
	.cfi_offset 6, -40
	movq	%rsi, %rbp
	pushq	%rbx
	.cfi_def_cfa_offset 48
	.cfi_offset 3, -48
	movq	%rdi, %rbx
	subq	$64, %rsp
	.cfi_def_cfa_offset 112
	movdqu	(%r8), %xmm0
	movq	%fs:40, %rax
	movq	%rax, 56(%rsp)
	movq	8(%r8), %rax
	movaps	%xmm0, 16(%rsp)
	testq	%rax, %rax
	je	.L53
	cmpq	$0, _ZL28__gthrw___pthread_key_createPjPFvPvE@GOTPCREL(%rip)
	jne	.L82
	addl	$1, 8(%rax)
.L53:
	movdqu	16(%r8), %xmm1
	movq	24(%r8), %rax
	movaps	%xmm1, 32(%rsp)
	testq	%rax, %rax
	je	.L55
	cmpq	$0, _ZL28__gthrw___pthread_key_createPjPFvPvE@GOTPCREL(%rip)
	jne	.L83
	addl	$1, 8(%rax)
.L55:
	leaq	8(%rsp), %rdi
	xorl	%esi, %esi
	leaq	16(%rsp), %r14
.LEHB0:
	call	_ZN7openpal18MonotonicTimestampC1El@PLT
	movq	8(%rsp), %rdx
	xorl	%r9d, %r9d
	movq	%r14, %rcx
	movq	%rbp, %rsi
	movl	$4294967295, %r8d
	movq	%rbx, %rdi
	call	_ZN8opendnp311IMasterTaskC2ERNS_18IMasterApplicationEN7openpal18MonotonicTimestampENS3_6LoggerENS_10TaskConfigE@PLT
.LEHE0:
	movq	40(%rsp), %rbp
	testq	%rbp, %rbp
	je	.L58
	movq	_ZL28__gthrw___pthread_key_createPjPFvPvE@GOTPCREL(%rip), %r14
	testq	%r14, %r14
	jne	.L84
	movl	8(%rbp), %eax
	leal	-1(%rax), %edx
	movl	%edx, 8(%rbp)
.L60:
	cmpl	$1, %eax
	je	.L85
.L58:
	movq	24(%rsp), %rbp
	testq	%rbp, %rbp
	je	.L65
	movq	_ZL28__gthrw___pthread_key_createPjPFvPvE@GOTPCREL(%rip), %r14
	testq	%r14, %r14
	jne	.L86
	movl	8(%rbp), %eax
	leal	-1(%rax), %edx
	movl	%edx, 8(%rbp)
.L67:
	cmpl	$1, %eax
	je	.L87
.L65:
	movq	_ZTVN8opendnp321EnableUnsolicitedTaskE@GOTPCREL(%rip), %rax
	movb	%r13b, 88(%rbx)
	movq	%r12, 96(%rbx)
	addq	$16, %rax
	movq	%rax, (%rbx)
	movq	56(%rsp), %rax
	subq	%fs:40, %rax
	jne	.L88
	addq	$64, %rsp
	.cfi_remember_state
	.cfi_def_cfa_offset 48
	popq	%rbx
	.cfi_def_cfa_offset 40
	popq	%rbp
	.cfi_def_cfa_offset 32
	popq	%r12
	.cfi_def_cfa_offset 24
	popq	%r13
	.cfi_def_cfa_offset 16
	popq	%r14
	.cfi_def_cfa_offset 8
	ret
	.p2align 4,,10
	.p2align 3
.L85:
	.cfi_restore_state
	movq	0(%rbp), %rax
	movq	%rbp, %rdi
	call	*16(%rax)
	testq	%r14, %r14
	jne	.L89
	movl	12(%rbp), %eax
	leal	-1(%rax), %edx
	movl	%edx, 12(%rbp)
.L63:
	cmpl	$1, %eax
	jne	.L58
	movq	0(%rbp), %rax
	movq	%rbp, %rdi
	call	*24(%rax)
	jmp	.L58
	.p2align 4,,10
	.p2align 3
.L87:
	movq	0(%rbp), %rax
	movq	%rbp, %rdi
	call	*16(%rax)
	testq	%r14, %r14
	jne	.L90
	movl	12(%rbp), %eax
	leal	-1(%rax), %edx
	movl	%edx, 12(%rbp)
.L70:
	cmpl	$1, %eax
	jne	.L65
	movq	0(%rbp), %rax
	movq	%rbp, %rdi
	call	*24(%rax)
	jmp	.L65
	.p2align 4,,10
	.p2align 3
.L84:
	movl	$-1, %eax
	lock xaddl	%eax, 8(%rbp)
	jmp	.L60
	.p2align 4,,10
	.p2align 3
.L86:
	movl	$-1, %eax
	lock xaddl	%eax, 8(%rbp)
	jmp	.L67
	.p2align 4,,10
	.p2align 3
.L82:
	lock addl	$1, 8(%rax)
	jmp	.L53
	.p2align 4,,10
	.p2align 3
.L83:
	lock addl	$1, 8(%rax)
	jmp	.L55
	.p2align 4,,10
	.p2align 3
.L89:
	movl	$-1, %eax
	lock xaddl	%eax, 12(%rbp)
	jmp	.L63
	.p2align 4,,10
	.p2align 3
.L90:
	movl	$-1, %eax
	lock xaddl	%eax, 12(%rbp)
	jmp	.L70
.L88:
	call	__stack_chk_fail@PLT
.L73:
	movq	%rax, %rbp
	jmp	.L71
	.globl	__gxx_personality_v0
	.section	.gcc_except_table,"a",@progbits
.LLSDA3025:
	.byte	0xff
	.byte	0xff
	.byte	0x1
	.uleb128 .LLSDACSE3025-.LLSDACSB3025
.LLSDACSB3025:
	.uleb128 .LEHB0-.LFB3025
	.uleb128 .LEHE0-.LEHB0
	.uleb128 .L73-.LFB3025
	.uleb128 0
.LLSDACSE3025:
	.text
	.cfi_endproc
	.section	.text.unlikely
	.cfi_startproc
	.cfi_personality 0x9b,DW.ref.__gxx_personality_v0
	.cfi_lsda 0x1b,.LLSDAC3025
	.type	_ZN8opendnp321EnableUnsolicitedTaskC2ERNS_18IMasterApplicationENS_10ClassFieldEN7openpal12TimeDurationENS4_6LoggerE.cold, @function
_ZN8opendnp321EnableUnsolicitedTaskC2ERNS_18IMasterApplicationENS_10ClassFieldEN7openpal12TimeDurationENS4_6LoggerE.cold:
.LFSB3025:
.L71:
	.cfi_def_cfa_offset 112
	.cfi_offset 3, -48
	.cfi_offset 6, -40
	.cfi_offset 12, -32
	.cfi_offset 13, -24
	.cfi_offset 14, -16
	movq	%r14, %rdi
	call	_ZN7openpal6LoggerD1Ev@PLT
	movq	%rbp, %rdi
.LEHB1:
	call	_Unwind_Resume@PLT
.LEHE1:
	.cfi_endproc
.LFE3025:
	.section	.gcc_except_table
.LLSDAC3025:
	.byte	0xff
	.byte	0xff
	.byte	0x1
	.uleb128 .LLSDACSEC3025-.LLSDACSBC3025
.LLSDACSBC3025:
	.uleb128 .LEHB1-.LCOLDB1
	.uleb128 .LEHE1-.LEHB1
	.uleb128 0
	.uleb128 0
.LLSDACSEC3025:
	.section	.text.unlikely
	.text
	.size	_ZN8opendnp321EnableUnsolicitedTaskC2ERNS_18IMasterApplicationENS_10ClassFieldEN7openpal12TimeDurationENS4_6LoggerE, .-_ZN8opendnp321EnableUnsolicitedTaskC2ERNS_18IMasterApplicationENS_10ClassFieldEN7openpal12TimeDurationENS4_6LoggerE
	.section	.text.unlikely
	.size	_ZN8opendnp321EnableUnsolicitedTaskC2ERNS_18IMasterApplicationENS_10ClassFieldEN7openpal12TimeDurationENS4_6LoggerE.cold, .-_ZN8opendnp321EnableUnsolicitedTaskC2ERNS_18IMasterApplicationENS_10ClassFieldEN7openpal12TimeDurationENS4_6LoggerE.cold
.LCOLDE1:
	.text
.LHOTE1:
	.globl	_ZN8opendnp321EnableUnsolicitedTaskC1ERNS_18IMasterApplicationENS_10ClassFieldEN7openpal12TimeDurationENS4_6LoggerE
	.set	_ZN8opendnp321EnableUnsolicitedTaskC1ERNS_18IMasterApplicationENS_10ClassFieldEN7openpal12TimeDurationENS4_6LoggerE,_ZN8opendnp321EnableUnsolicitedTaskC2ERNS_18IMasterApplicationENS_10ClassFieldEN7openpal12TimeDurationENS4_6LoggerE
	.section	.text.startup,"ax",@progbits
	.p2align 4
	.type	_GLOBAL__sub_I_EnableUnsolicitedTask.cpp, @function
_GLOBAL__sub_I_EnableUnsolicitedTask.cpp:
.LFB3729:
	.cfi_startproc
	movl	$5000, %edi
	jmp	_ZN7openpal12TimeDuration12MillisecondsEl@PLT
	.cfi_endproc
.LFE3729:
	.size	_GLOBAL__sub_I_EnableUnsolicitedTask.cpp, .-_GLOBAL__sub_I_EnableUnsolicitedTask.cpp
	.section	.init_array,"aw"
	.align 8
	.quad	_GLOBAL__sub_I_EnableUnsolicitedTask.cpp
	.weak	_ZTSN8opendnp321EnableUnsolicitedTaskE
	.section	.rodata._ZTSN8opendnp321EnableUnsolicitedTaskE,"aG",@progbits,_ZTSN8opendnp321EnableUnsolicitedTaskE,comdat
	.align 32
	.type	_ZTSN8opendnp321EnableUnsolicitedTaskE, @object
	.size	_ZTSN8opendnp321EnableUnsolicitedTaskE, 35
_ZTSN8opendnp321EnableUnsolicitedTaskE:
	.string	"N8opendnp321EnableUnsolicitedTaskE"
	.weak	_ZTIN8opendnp321EnableUnsolicitedTaskE
	.section	.data.rel.ro._ZTIN8opendnp321EnableUnsolicitedTaskE,"awG",@progbits,_ZTIN8opendnp321EnableUnsolicitedTaskE,comdat
	.align 8
	.type	_ZTIN8opendnp321EnableUnsolicitedTaskE, @object
	.size	_ZTIN8opendnp321EnableUnsolicitedTaskE, 24
_ZTIN8opendnp321EnableUnsolicitedTaskE:
	.quad	_ZTVN10__cxxabiv120__si_class_type_infoE+16
	.quad	_ZTSN8opendnp321EnableUnsolicitedTaskE
	.quad	_ZTIN8opendnp311IMasterTaskE
	.weak	_ZTVN8opendnp321EnableUnsolicitedTaskE
	.section	.data.rel.ro._ZTVN8opendnp321EnableUnsolicitedTaskE,"awG",@progbits,_ZTVN8opendnp321EnableUnsolicitedTaskE,comdat
	.align 8
	.type	_ZTVN8opendnp321EnableUnsolicitedTaskE, @object
	.size	_ZTVN8opendnp321EnableUnsolicitedTaskE, 120
_ZTVN8opendnp321EnableUnsolicitedTaskE:
	.quad	0
	.quad	_ZTIN8opendnp321EnableUnsolicitedTaskE
	.quad	_ZN8opendnp321EnableUnsolicitedTaskD1Ev
	.quad	_ZN8opendnp321EnableUnsolicitedTaskD0Ev
	.quad	_ZNK8opendnp311IMasterTask10IsAuthTaskEv
	.quad	_ZNK8opendnp321EnableUnsolicitedTask4NameEv
	.quad	_ZNK8opendnp321EnableUnsolicitedTask8PriorityEv
	.quad	_ZNK8opendnp321EnableUnsolicitedTask19BlocksLowerPriorityEv
	.quad	_ZNK8opendnp321EnableUnsolicitedTask11IsRecurringEv
	.quad	_ZN8opendnp321EnableUnsolicitedTask12BuildRequestERNS_11APDURequestEh
	.quad	_ZN8opendnp311IMasterTask10InitializeEv
	.quad	_ZN8opendnp321EnableUnsolicitedTask15ProcessResponseERKNS_18APDUResponseHeaderERKN7openpal6RSliceE
	.quad	_ZN8opendnp321EnableUnsolicitedTask14OnTaskCompleteENS_14TaskCompletionEN7openpal18MonotonicTimestampE
	.quad	_ZNK8opendnp321EnableUnsolicitedTask9IsEnabledEv
	.quad	_ZNK8opendnp321EnableUnsolicitedTask11GetTaskTypeEv
	.weakref	_ZL28__gthrw___pthread_key_createPjPFvPvE,__pthread_key_create
	.hidden	DW.ref.__gxx_personality_v0
	.weak	DW.ref.__gxx_personality_v0
	.section	.data.rel.local.DW.ref.__gxx_personality_v0,"awG",@progbits,DW.ref.__gxx_personality_v0,comdat
	.align 8
	.type	DW.ref.__gxx_personality_v0, @object
	.size	DW.ref.__gxx_personality_v0, 8
DW.ref.__gxx_personality_v0:
	.quad	__gxx_personality_v0
	.ident	"GCC: (GNU) 10.3.1 20210703 (ALT Sisyphus 10.3.1-alt2)"
	.section	.note.GNU-stack,"",@progbits
