	.file	"IOHandler.cpp"
	.text
	.section	.rodata._ZNK4asio6detail15system_category4nameEv.str1.1,"aMS",@progbits,1
.LC0:
	.string	"asio.system"
	.section	.text._ZNK4asio6detail15system_category4nameEv,"axG",@progbits,_ZNK4asio6detail15system_category4nameEv,comdat
	.align 2
	.p2align 4
	.weak	_ZNK4asio6detail15system_category4nameEv
	.type	_ZNK4asio6detail15system_category4nameEv, @function
_ZNK4asio6detail15system_category4nameEv:
.LFB2980:
	.cfi_startproc
	leaq	.LC0(%rip), %rax
	ret
	.cfi_endproc
.LFE2980:
	.size	_ZNK4asio6detail15system_category4nameEv, .-_ZNK4asio6detail15system_category4nameEv
	.section	.rodata._ZNK4asio5error6detail14netdb_category4nameEv.str1.1,"aMS",@progbits,1
.LC1:
	.string	"asio.netdb"
	.section	.text._ZNK4asio5error6detail14netdb_category4nameEv,"axG",@progbits,_ZNK4asio5error6detail14netdb_category4nameEv,comdat
	.align 2
	.p2align 4
	.weak	_ZNK4asio5error6detail14netdb_category4nameEv
	.type	_ZNK4asio5error6detail14netdb_category4nameEv, @function
_ZNK4asio5error6detail14netdb_category4nameEv:
.LFB3020:
	.cfi_startproc
	leaq	.LC1(%rip), %rax
	ret
	.cfi_endproc
.LFE3020:
	.size	_ZNK4asio5error6detail14netdb_category4nameEv, .-_ZNK4asio5error6detail14netdb_category4nameEv
	.section	.rodata._ZNK4asio5error6detail17addrinfo_category4nameEv.str1.1,"aMS",@progbits,1
.LC2:
	.string	"asio.addrinfo"
	.section	.text._ZNK4asio5error6detail17addrinfo_category4nameEv,"axG",@progbits,_ZNK4asio5error6detail17addrinfo_category4nameEv,comdat
	.align 2
	.p2align 4
	.weak	_ZNK4asio5error6detail17addrinfo_category4nameEv
	.type	_ZNK4asio5error6detail17addrinfo_category4nameEv, @function
_ZNK4asio5error6detail17addrinfo_category4nameEv:
.LFB3026:
	.cfi_startproc
	leaq	.LC2(%rip), %rax
	ret
	.cfi_endproc
.LFE3026:
	.size	_ZNK4asio5error6detail17addrinfo_category4nameEv, .-_ZNK4asio5error6detail17addrinfo_category4nameEv
	.section	.rodata._ZNK4asio5error6detail13misc_category4nameEv.str1.1,"aMS",@progbits,1
.LC3:
	.string	"asio.misc"
	.section	.text._ZNK4asio5error6detail13misc_category4nameEv,"axG",@progbits,_ZNK4asio5error6detail13misc_category4nameEv,comdat
	.align 2
	.p2align 4
	.weak	_ZNK4asio5error6detail13misc_category4nameEv
	.type	_ZNK4asio5error6detail13misc_category4nameEv, @function
_ZNK4asio5error6detail13misc_category4nameEv:
.LFB3032:
	.cfi_startproc
	leaq	.LC3(%rip), %rax
	ret
	.cfi_endproc
.LFE3032:
	.size	_ZNK4asio5error6detail13misc_category4nameEv, .-_ZNK4asio5error6detail13misc_category4nameEv
	.section	.text._ZN4asio6detail7tss_ptrINS0_10call_stackINS0_15task_io_serviceENS0_27task_io_service_thread_infoEE7contextEED2Ev,"axG",@progbits,_ZN4asio6detail7tss_ptrINS0_10call_stackINS0_15task_io_serviceENS0_27task_io_service_thread_infoEE7contextEED5Ev,comdat
	.align 2
	.p2align 4
	.weak	_ZN4asio6detail7tss_ptrINS0_10call_stackINS0_15task_io_serviceENS0_27task_io_service_thread_infoEE7contextEED2Ev
	.type	_ZN4asio6detail7tss_ptrINS0_10call_stackINS0_15task_io_serviceENS0_27task_io_service_thread_infoEE7contextEED2Ev, @function
_ZN4asio6detail7tss_ptrINS0_10call_stackINS0_15task_io_serviceENS0_27task_io_service_thread_infoEE7contextEED2Ev:
.LFB10336:
	.cfi_startproc
	ret
	.cfi_endproc
.LFE10336:
	.size	_ZN4asio6detail7tss_ptrINS0_10call_stackINS0_15task_io_serviceENS0_27task_io_service_thread_infoEE7contextEED2Ev, .-_ZN4asio6detail7tss_ptrINS0_10call_stackINS0_15task_io_serviceENS0_27task_io_service_thread_infoEE7contextEED2Ev
	.weak	_ZN4asio6detail7tss_ptrINS0_10call_stackINS0_15task_io_serviceENS0_27task_io_service_thread_infoEE7contextEED1Ev
	.set	_ZN4asio6detail7tss_ptrINS0_10call_stackINS0_15task_io_serviceENS0_27task_io_service_thread_infoEE7contextEED1Ev,_ZN4asio6detail7tss_ptrINS0_10call_stackINS0_15task_io_serviceENS0_27task_io_service_thread_infoEE7contextEED2Ev
	.section	.text._ZN4asio6detail10service_idINS0_13epoll_reactorEED2Ev,"axG",@progbits,_ZN4asio6detail10service_idINS0_13epoll_reactorEED5Ev,comdat
	.align 2
	.p2align 4
	.weak	_ZN4asio6detail10service_idINS0_13epoll_reactorEED2Ev
	.type	_ZN4asio6detail10service_idINS0_13epoll_reactorEED2Ev, @function
_ZN4asio6detail10service_idINS0_13epoll_reactorEED2Ev:
.LFB10339:
	.cfi_startproc
	ret
	.cfi_endproc
.LFE10339:
	.size	_ZN4asio6detail10service_idINS0_13epoll_reactorEED2Ev, .-_ZN4asio6detail10service_idINS0_13epoll_reactorEED2Ev
	.weak	_ZN4asio6detail10service_idINS0_13epoll_reactorEED1Ev
	.set	_ZN4asio6detail10service_idINS0_13epoll_reactorEED1Ev,_ZN4asio6detail10service_idINS0_13epoll_reactorEED2Ev
	.section	.text._ZN4asio6detail10service_idINS0_15task_io_serviceEED2Ev,"axG",@progbits,_ZN4asio6detail10service_idINS0_15task_io_serviceEED5Ev,comdat
	.align 2
	.p2align 4
	.weak	_ZN4asio6detail10service_idINS0_15task_io_serviceEED2Ev
	.type	_ZN4asio6detail10service_idINS0_15task_io_serviceEED2Ev, @function
_ZN4asio6detail10service_idINS0_15task_io_serviceEED2Ev:
.LFB10342:
	.cfi_startproc
	ret
	.cfi_endproc
.LFE10342:
	.size	_ZN4asio6detail10service_idINS0_15task_io_serviceEED2Ev, .-_ZN4asio6detail10service_idINS0_15task_io_serviceEED2Ev
	.weak	_ZN4asio6detail10service_idINS0_15task_io_serviceEED1Ev
	.set	_ZN4asio6detail10service_idINS0_15task_io_serviceEED1Ev,_ZN4asio6detail10service_idINS0_15task_io_serviceEED2Ev
	.section	.text._ZN4asio6detail7tss_ptrINS0_10call_stackINS0_14strand_service11strand_implEhE7contextEED2Ev,"axG",@progbits,_ZN4asio6detail7tss_ptrINS0_10call_stackINS0_14strand_service11strand_implEhE7contextEED5Ev,comdat
	.align 2
	.p2align 4
	.weak	_ZN4asio6detail7tss_ptrINS0_10call_stackINS0_14strand_service11strand_implEhE7contextEED2Ev
	.type	_ZN4asio6detail7tss_ptrINS0_10call_stackINS0_14strand_service11strand_implEhE7contextEED2Ev, @function
_ZN4asio6detail7tss_ptrINS0_10call_stackINS0_14strand_service11strand_implEhE7contextEED2Ev:
.LFB10345:
	.cfi_startproc
	ret
	.cfi_endproc
.LFE10345:
	.size	_ZN4asio6detail7tss_ptrINS0_10call_stackINS0_14strand_service11strand_implEhE7contextEED2Ev, .-_ZN4asio6detail7tss_ptrINS0_10call_stackINS0_14strand_service11strand_implEhE7contextEED2Ev
	.weak	_ZN4asio6detail7tss_ptrINS0_10call_stackINS0_14strand_service11strand_implEhE7contextEED1Ev
	.set	_ZN4asio6detail7tss_ptrINS0_10call_stackINS0_14strand_service11strand_implEhE7contextEED1Ev,_ZN4asio6detail7tss_ptrINS0_10call_stackINS0_14strand_service11strand_implEhE7contextEED2Ev
	.section	.text._ZN4asio6detail10service_idINS0_14strand_serviceEED2Ev,"axG",@progbits,_ZN4asio6detail10service_idINS0_14strand_serviceEED5Ev,comdat
	.align 2
	.p2align 4
	.weak	_ZN4asio6detail10service_idINS0_14strand_serviceEED2Ev
	.type	_ZN4asio6detail10service_idINS0_14strand_serviceEED2Ev, @function
_ZN4asio6detail10service_idINS0_14strand_serviceEED2Ev:
.LFB10348:
	.cfi_startproc
	ret
	.cfi_endproc
.LFE10348:
	.size	_ZN4asio6detail10service_idINS0_14strand_serviceEED2Ev, .-_ZN4asio6detail10service_idINS0_14strand_serviceEED2Ev
	.weak	_ZN4asio6detail10service_idINS0_14strand_serviceEED1Ev
	.set	_ZN4asio6detail10service_idINS0_14strand_serviceEED1Ev,_ZN4asio6detail10service_idINS0_14strand_serviceEED2Ev
	.section	.text._ZN4asio6detail15system_categoryD2Ev,"axG",@progbits,_ZN4asio6detail15system_categoryD5Ev,comdat
	.align 2
	.p2align 4
	.weak	_ZN4asio6detail15system_categoryD2Ev
	.type	_ZN4asio6detail15system_categoryD2Ev, @function
_ZN4asio6detail15system_categoryD2Ev:
.LFB10315:
	.cfi_startproc
	movq	_ZTVN4asio6detail15system_categoryE@GOTPCREL(%rip), %rax
	addq	$16, %rax
	movq	%rax, (%rdi)
	jmp	_ZNSt3_V214error_categoryD2Ev@PLT
	.cfi_endproc
.LFE10315:
	.size	_ZN4asio6detail15system_categoryD2Ev, .-_ZN4asio6detail15system_categoryD2Ev
	.weak	_ZN4asio6detail15system_categoryD1Ev
	.set	_ZN4asio6detail15system_categoryD1Ev,_ZN4asio6detail15system_categoryD2Ev
	.section	.text._ZN4asio6detail15system_categoryD0Ev,"axG",@progbits,_ZN4asio6detail15system_categoryD5Ev,comdat
	.align 2
	.p2align 4
	.weak	_ZN4asio6detail15system_categoryD0Ev
	.type	_ZN4asio6detail15system_categoryD0Ev, @function
_ZN4asio6detail15system_categoryD0Ev:
.LFB10317:
	.cfi_startproc
	movq	_ZTVN4asio6detail15system_categoryE@GOTPCREL(%rip), %rax
	pushq	%rbp
	.cfi_def_cfa_offset 16
	.cfi_offset 6, -16
	movq	%rdi, %rbp
	addq	$16, %rax
	movq	%rax, (%rdi)
	call	_ZNSt3_V214error_categoryD2Ev@PLT
	movq	%rbp, %rdi
	movl	$8, %esi
	popq	%rbp
	.cfi_def_cfa_offset 8
	jmp	_ZdlPvm@PLT
	.cfi_endproc
.LFE10317:
	.size	_ZN4asio6detail15system_categoryD0Ev, .-_ZN4asio6detail15system_categoryD0Ev
	.section	.text._ZN4asio5error6detail14netdb_categoryD2Ev,"axG",@progbits,_ZN4asio5error6detail14netdb_categoryD5Ev,comdat
	.align 2
	.p2align 4
	.weak	_ZN4asio5error6detail14netdb_categoryD2Ev
	.type	_ZN4asio5error6detail14netdb_categoryD2Ev, @function
_ZN4asio5error6detail14netdb_categoryD2Ev:
.LFB10303:
	.cfi_startproc
	movq	_ZTVN4asio5error6detail14netdb_categoryE@GOTPCREL(%rip), %rax
	addq	$16, %rax
	movq	%rax, (%rdi)
	jmp	_ZNSt3_V214error_categoryD2Ev@PLT
	.cfi_endproc
.LFE10303:
	.size	_ZN4asio5error6detail14netdb_categoryD2Ev, .-_ZN4asio5error6detail14netdb_categoryD2Ev
	.weak	_ZN4asio5error6detail14netdb_categoryD1Ev
	.set	_ZN4asio5error6detail14netdb_categoryD1Ev,_ZN4asio5error6detail14netdb_categoryD2Ev
	.section	.text._ZN4asio5error6detail14netdb_categoryD0Ev,"axG",@progbits,_ZN4asio5error6detail14netdb_categoryD5Ev,comdat
	.align 2
	.p2align 4
	.weak	_ZN4asio5error6detail14netdb_categoryD0Ev
	.type	_ZN4asio5error6detail14netdb_categoryD0Ev, @function
_ZN4asio5error6detail14netdb_categoryD0Ev:
.LFB10305:
	.cfi_startproc
	movq	_ZTVN4asio5error6detail14netdb_categoryE@GOTPCREL(%rip), %rax
	pushq	%rbp
	.cfi_def_cfa_offset 16
	.cfi_offset 6, -16
	movq	%rdi, %rbp
	addq	$16, %rax
	movq	%rax, (%rdi)
	call	_ZNSt3_V214error_categoryD2Ev@PLT
	movq	%rbp, %rdi
	movl	$8, %esi
	popq	%rbp
	.cfi_def_cfa_offset 8
	jmp	_ZdlPvm@PLT
	.cfi_endproc
.LFE10305:
	.size	_ZN4asio5error6detail14netdb_categoryD0Ev, .-_ZN4asio5error6detail14netdb_categoryD0Ev
	.section	.text._ZN4asio5error6detail17addrinfo_categoryD2Ev,"axG",@progbits,_ZN4asio5error6detail17addrinfo_categoryD5Ev,comdat
	.align 2
	.p2align 4
	.weak	_ZN4asio5error6detail17addrinfo_categoryD2Ev
	.type	_ZN4asio5error6detail17addrinfo_categoryD2Ev, @function
_ZN4asio5error6detail17addrinfo_categoryD2Ev:
.LFB10299:
	.cfi_startproc
	movq	_ZTVN4asio5error6detail17addrinfo_categoryE@GOTPCREL(%rip), %rax
	addq	$16, %rax
	movq	%rax, (%rdi)
	jmp	_ZNSt3_V214error_categoryD2Ev@PLT
	.cfi_endproc
.LFE10299:
	.size	_ZN4asio5error6detail17addrinfo_categoryD2Ev, .-_ZN4asio5error6detail17addrinfo_categoryD2Ev
	.weak	_ZN4asio5error6detail17addrinfo_categoryD1Ev
	.set	_ZN4asio5error6detail17addrinfo_categoryD1Ev,_ZN4asio5error6detail17addrinfo_categoryD2Ev
	.section	.text._ZN4asio5error6detail17addrinfo_categoryD0Ev,"axG",@progbits,_ZN4asio5error6detail17addrinfo_categoryD5Ev,comdat
	.align 2
	.p2align 4
	.weak	_ZN4asio5error6detail17addrinfo_categoryD0Ev
	.type	_ZN4asio5error6detail17addrinfo_categoryD0Ev, @function
_ZN4asio5error6detail17addrinfo_categoryD0Ev:
.LFB10301:
	.cfi_startproc
	movq	_ZTVN4asio5error6detail17addrinfo_categoryE@GOTPCREL(%rip), %rax
	pushq	%rbp
	.cfi_def_cfa_offset 16
	.cfi_offset 6, -16
	movq	%rdi, %rbp
	addq	$16, %rax
	movq	%rax, (%rdi)
	call	_ZNSt3_V214error_categoryD2Ev@PLT
	movq	%rbp, %rdi
	movl	$8, %esi
	popq	%rbp
	.cfi_def_cfa_offset 8
	jmp	_ZdlPvm@PLT
	.cfi_endproc
.LFE10301:
	.size	_ZN4asio5error6detail17addrinfo_categoryD0Ev, .-_ZN4asio5error6detail17addrinfo_categoryD0Ev
	.section	.text._ZN4asio5error6detail13misc_categoryD2Ev,"axG",@progbits,_ZN4asio5error6detail13misc_categoryD5Ev,comdat
	.align 2
	.p2align 4
	.weak	_ZN4asio5error6detail13misc_categoryD2Ev
	.type	_ZN4asio5error6detail13misc_categoryD2Ev, @function
_ZN4asio5error6detail13misc_categoryD2Ev:
.LFB10295:
	.cfi_startproc
	movq	_ZTVN4asio5error6detail13misc_categoryE@GOTPCREL(%rip), %rax
	addq	$16, %rax
	movq	%rax, (%rdi)
	jmp	_ZNSt3_V214error_categoryD2Ev@PLT
	.cfi_endproc
.LFE10295:
	.size	_ZN4asio5error6detail13misc_categoryD2Ev, .-_ZN4asio5error6detail13misc_categoryD2Ev
	.weak	_ZN4asio5error6detail13misc_categoryD1Ev
	.set	_ZN4asio5error6detail13misc_categoryD1Ev,_ZN4asio5error6detail13misc_categoryD2Ev
	.section	.text._ZN4asio5error6detail13misc_categoryD0Ev,"axG",@progbits,_ZN4asio5error6detail13misc_categoryD5Ev,comdat
	.align 2
	.p2align 4
	.weak	_ZN4asio5error6detail13misc_categoryD0Ev
	.type	_ZN4asio5error6detail13misc_categoryD0Ev, @function
_ZN4asio5error6detail13misc_categoryD0Ev:
.LFB10297:
	.cfi_startproc
	movq	_ZTVN4asio5error6detail13misc_categoryE@GOTPCREL(%rip), %rax
	pushq	%rbp
	.cfi_def_cfa_offset 16
	.cfi_offset 6, -16
	movq	%rdi, %rbp
	addq	$16, %rax
	movq	%rax, (%rdi)
	call	_ZNSt3_V214error_categoryD2Ev@PLT
	movq	%rbp, %rdi
	movl	$8, %esi
	popq	%rbp
	.cfi_def_cfa_offset 8
	jmp	_ZdlPvm@PLT
	.cfi_endproc
.LFE10297:
	.size	_ZN4asio5error6detail13misc_categoryD0Ev, .-_ZN4asio5error6detail13misc_categoryD0Ev
	.section	.rodata._ZNK4asio6detail15system_category7messageB5cxx11Ei.str1.8,"aMS",@progbits,1
	.align 8
.LC4:
	.string	"basic_string::_M_construct null not valid"
	.section	.text._ZNK4asio6detail15system_category7messageB5cxx11Ei,"axG",@progbits,_ZNK4asio6detail15system_category7messageB5cxx11Ei,comdat
	.align 2
	.p2align 4
	.weak	_ZNK4asio6detail15system_category7messageB5cxx11Ei
	.type	_ZNK4asio6detail15system_category7messageB5cxx11Ei, @function
_ZNK4asio6detail15system_category7messageB5cxx11Ei:
.LFB2981:
	.cfi_startproc
	pushq	%r14
	.cfi_def_cfa_offset 16
	.cfi_offset 14, -16
	pushq	%r13
	.cfi_def_cfa_offset 24
	.cfi_offset 13, -24
	pushq	%r12
	.cfi_def_cfa_offset 32
	.cfi_offset 12, -32
	movq	%rdi, %r12
	pushq	%rbp
	.cfi_def_cfa_offset 40
	.cfi_offset 6, -40
	leaq	16(%rdi), %rbp
	subq	$296, %rsp
	.cfi_def_cfa_offset 336
	movq	%fs:40, %rax
	movq	%rax, 280(%rsp)
	xorl	%eax, %eax
	cmpl	$125, %edx
	je	.L38
	pxor	%xmm0, %xmm0
	movl	%edx, %edi
	leaq	16(%rsp), %rsi
	movl	$256, %edx
	movups	%xmm0, 16(%rsp)
	movups	%xmm0, 32(%rsp)
	movups	%xmm0, 48(%rsp)
	movups	%xmm0, 64(%rsp)
	movups	%xmm0, 80(%rsp)
	movups	%xmm0, 96(%rsp)
	movups	%xmm0, 112(%rsp)
	movups	%xmm0, 128(%rsp)
	movups	%xmm0, 144(%rsp)
	movups	%xmm0, 160(%rsp)
	movups	%xmm0, 176(%rsp)
	movups	%xmm0, 192(%rsp)
	movups	%xmm0, 208(%rsp)
	movups	%xmm0, 224(%rsp)
	movups	%xmm0, 240(%rsp)
	movups	%xmm0, 256(%rsp)
	call	strerror_r@PLT
	movq	%rbp, (%r12)
	movq	%rax, %r13
	testq	%rax, %rax
	je	.L26
	movq	%rax, %rdi
	call	strlen@PLT
	movq	%rax, 8(%rsp)
	movq	%rax, %r14
	cmpq	$15, %rax
	ja	.L39
	cmpq	$1, %rax
	jne	.L30
	movzbl	0(%r13), %edx
	movb	%dl, 16(%r12)
.L31:
	movq	%rax, 8(%r12)
	movb	$0, 0(%rbp,%rax)
.L23:
	movq	280(%rsp), %rax
	subq	%fs:40, %rax
	jne	.L40
	addq	$296, %rsp
	.cfi_remember_state
	.cfi_def_cfa_offset 40
	movq	%r12, %rax
	popq	%rbp
	.cfi_def_cfa_offset 32
	popq	%r12
	.cfi_def_cfa_offset 24
	popq	%r13
	.cfi_def_cfa_offset 16
	popq	%r14
	.cfi_def_cfa_offset 8
	ret
	.p2align 4,,10
	.p2align 3
.L39:
	.cfi_restore_state
	leaq	8(%rsp), %rsi
	xorl	%edx, %edx
	movq	%r12, %rdi
	call	_ZNSt7__cxx1112basic_stringIcSt11char_traitsIcESaIcEE9_M_createERmm@PLT
	movq	%rax, (%r12)
	movq	%rax, %rbp
	movq	8(%rsp), %rax
	movq	%rax, 16(%r12)
.L29:
	movq	%rbp, %rdi
	movq	%r14, %rdx
	movq	%r13, %rsi
	call	memcpy@PLT
	movq	8(%rsp), %rax
	movq	(%r12), %rbp
	jmp	.L31
	.p2align 4,,10
	.p2align 3
.L38:
	movq	%rbp, (%rdi)
	xorl	%edx, %edx
	leaq	8(%rsp), %rsi
	movq	$18, 8(%rsp)
	call	_ZNSt7__cxx1112basic_stringIcSt11char_traitsIcESaIcEE9_M_createERmm@PLT
	movq	8(%rsp), %rdx
	movdqa	.LC5(%rip), %xmm0
	movq	%rax, (%r12)
	movq	%rdx, 16(%r12)
	movl	$11876, %edx
	movw	%dx, 16(%rax)
	movups	%xmm0, (%rax)
	movq	8(%rsp), %rax
	movq	(%r12), %rdx
	movq	%rax, 8(%r12)
	movb	$0, (%rdx,%rax)
	jmp	.L23
	.p2align 4,,10
	.p2align 3
.L30:
	testq	%rax, %rax
	je	.L31
	jmp	.L29
.L26:
	leaq	.LC4(%rip), %rdi
	call	_ZSt19__throw_logic_errorPKc@PLT
.L40:
	call	__stack_chk_fail@PLT
	.cfi_endproc
.LFE2981:
	.size	_ZNK4asio6detail15system_category7messageB5cxx11Ei, .-_ZNK4asio6detail15system_category7messageB5cxx11Ei
	.section	.text._ZNK4asio5error6detail17addrinfo_category7messageB5cxx11Ei,"axG",@progbits,_ZNK4asio5error6detail17addrinfo_category7messageB5cxx11Ei,comdat
	.align 2
	.p2align 4
	.weak	_ZNK4asio5error6detail17addrinfo_category7messageB5cxx11Ei
	.type	_ZNK4asio5error6detail17addrinfo_category7messageB5cxx11Ei, @function
_ZNK4asio5error6detail17addrinfo_category7messageB5cxx11Ei:
.LFB3027:
	.cfi_startproc
	pushq	%r12
	.cfi_def_cfa_offset 16
	.cfi_offset 12, -16
	movq	%rdi, %r12
	subq	$16, %rsp
	.cfi_def_cfa_offset 32
	movq	%fs:40, %rax
	movq	%rax, 8(%rsp)
	xorl	%eax, %eax
	leaq	16(%rdi), %rax
	movq	%rax, (%rdi)
	cmpl	$-8, %edx
	je	.L47
	cmpl	$-7, %edx
	je	.L48
	xorl	%edx, %edx
	movq	%rsp, %rsi
	movq	$19, (%rsp)
	call	_ZNSt7__cxx1112basic_stringIcSt11char_traitsIcESaIcEE9_M_createERmm@PLT
	movq	(%rsp), %rdx
	movdqa	.LC8(%rip), %xmm0
	movq	%rax, (%r12)
	movq	%rdx, 16(%r12)
	movl	$28530, %edx
	movw	%dx, 16(%rax)
	movb	$114, 18(%rax)
	movups	%xmm0, (%rax)
	movq	(%rsp), %rax
	movq	(%r12), %rdx
	movq	%rax, 8(%r12)
	movb	$0, (%rdx,%rax)
.L41:
	movq	8(%rsp), %rax
	subq	%fs:40, %rax
	jne	.L49
	addq	$16, %rsp
	.cfi_remember_state
	.cfi_def_cfa_offset 16
	movq	%r12, %rax
	popq	%r12
	.cfi_def_cfa_offset 8
	ret
	.p2align 4,,10
	.p2align 3
.L48:
	.cfi_restore_state
	xorl	%edx, %edx
	movq	%rsp, %rsi
	movq	$25, (%rsp)
	call	_ZNSt7__cxx1112basic_stringIcSt11char_traitsIcESaIcEE9_M_createERmm@PLT
	movq	(%rsp), %rdx
	movdqa	.LC7(%rip), %xmm0
	movabsq	$7310593918082512243, %rcx
	movq	%rax, (%r12)
	movq	%rdx, 16(%r12)
	movq	%rcx, 16(%rax)
	movb	$100, 24(%rax)
	movups	%xmm0, (%rax)
	movq	(%rsp), %rax
	movq	(%r12), %rdx
	movq	%rax, 8(%r12)
	movb	$0, (%rdx,%rax)
	jmp	.L41
	.p2align 4,,10
	.p2align 3
.L47:
	xorl	%edx, %edx
	movq	%rsp, %rsi
	movq	$17, (%rsp)
	call	_ZNSt7__cxx1112basic_stringIcSt11char_traitsIcESaIcEE9_M_createERmm@PLT
	movq	(%rsp), %rdx
	movdqa	.LC6(%rip), %xmm0
	movq	%rax, (%r12)
	movq	%rdx, 16(%r12)
	movb	$100, 16(%rax)
	movups	%xmm0, (%rax)
	movq	(%rsp), %rax
	movq	(%r12), %rdx
	movq	%rax, 8(%r12)
	movb	$0, (%rdx,%rax)
	jmp	.L41
.L49:
	call	__stack_chk_fail@PLT
	.cfi_endproc
.LFE3027:
	.size	_ZNK4asio5error6detail17addrinfo_category7messageB5cxx11Ei, .-_ZNK4asio5error6detail17addrinfo_category7messageB5cxx11Ei
	.section	.text._ZNK4asio5error6detail14netdb_category7messageB5cxx11Ei,"axG",@progbits,_ZNK4asio5error6detail14netdb_category7messageB5cxx11Ei,comdat
	.align 2
	.p2align 4
	.weak	_ZNK4asio5error6detail14netdb_category7messageB5cxx11Ei
	.type	_ZNK4asio5error6detail14netdb_category7messageB5cxx11Ei, @function
_ZNK4asio5error6detail14netdb_category7messageB5cxx11Ei:
.LFB3021:
	.cfi_startproc
	pushq	%r12
	.cfi_def_cfa_offset 16
	.cfi_offset 12, -16
	movq	%rdi, %r12
	subq	$16, %rsp
	.cfi_def_cfa_offset 32
	movq	%fs:40, %rax
	movq	%rax, 8(%rsp)
	xorl	%eax, %eax
	leaq	16(%rdi), %rax
	movq	%rax, (%rdi)
	cmpl	$1, %edx
	je	.L58
	cmpl	$2, %edx
	je	.L59
	cmpl	$4, %edx
	je	.L60
	cmpl	$3, %edx
	je	.L61
	xorl	%edx, %edx
	movq	%rsp, %rsi
	movq	$16, (%rsp)
	call	_ZNSt7__cxx1112basic_stringIcSt11char_traitsIcESaIcEE9_M_createERmm@PLT
	movq	(%rsp), %rdx
	movdqa	.LC18(%rip), %xmm0
	movq	%rax, (%r12)
	movq	%rdx, 16(%r12)
	movups	%xmm0, (%rax)
	movq	(%rsp), %rax
	movq	(%r12), %rdx
	movq	%rax, 8(%r12)
	movb	$0, (%rdx,%rax)
.L50:
	movq	8(%rsp), %rax
	subq	%fs:40, %rax
	jne	.L62
	addq	$16, %rsp
	.cfi_remember_state
	.cfi_def_cfa_offset 16
	movq	%r12, %rax
	popq	%r12
	.cfi_def_cfa_offset 8
	ret
	.p2align 4,,10
	.p2align 3
.L58:
	.cfi_restore_state
	movq	%rsp, %rsi
	xorl	%edx, %edx
	movq	$30, (%rsp)
	call	_ZNSt7__cxx1112basic_stringIcSt11char_traitsIcESaIcEE9_M_createERmm@PLT
	movq	(%rsp), %rdx
	movl	$10597, %esi
	movdqa	.LC9(%rip), %xmm0
	movabsq	$8388361603773658465, %rcx
	movq	%rax, (%r12)
	movq	%rdx, 16(%r12)
	movq	%rcx, 16(%rax)
	movl	$1986622561, 24(%rax)
	movw	%si, 28(%rax)
	movups	%xmm0, (%rax)
	movq	(%rsp), %rax
	movq	(%r12), %rdx
	movq	%rax, 8(%r12)
	movb	$0, (%rdx,%rax)
	jmp	.L50
	.p2align 4,,10
	.p2align 3
.L61:
	xorl	%edx, %edx
	movq	%rsp, %rsi
	movq	$55, (%rsp)
	call	_ZNSt7__cxx1112basic_stringIcSt11char_traitsIcESaIcEE9_M_createERmm@PLT
	movq	(%rsp), %rdx
	movdqa	.LC15(%rip), %xmm0
	movq	%rax, (%r12)
	movq	%rdx, 16(%r12)
	movl	$30059, %edx
	movups	%xmm0, (%rax)
	movdqa	.LC16(%rip), %xmm0
	movl	$1869573152, 48(%rax)
	movups	%xmm0, 16(%rax)
	movdqa	.LC17(%rip), %xmm0
	movw	%dx, 52(%rax)
	movb	$112, 54(%rax)
	movups	%xmm0, 32(%rax)
	movq	(%rsp), %rax
	movq	(%r12), %rdx
	movq	%rax, 8(%r12)
	movb	$0, (%rdx,%rax)
	jmp	.L50
	.p2align 4,,10
	.p2align 3
.L59:
	xorl	%edx, %edx
	movq	%rsp, %rsi
	movq	$51, (%rsp)
	call	_ZNSt7__cxx1112basic_stringIcSt11char_traitsIcESaIcEE9_M_createERmm@PLT
	movq	(%rsp), %rdx
	movl	$25972, %ecx
	movdqa	.LC9(%rip), %xmm0
	movq	%rax, (%r12)
	movq	%rdx, 16(%r12)
	movups	%xmm0, (%rax)
	movdqa	.LC10(%rip), %xmm0
	movw	%cx, 48(%rax)
	movups	%xmm0, 16(%rax)
	movdqa	.LC11(%rip), %xmm0
	movb	$114, 50(%rax)
	movups	%xmm0, 32(%rax)
	movq	(%rsp), %rax
	movq	(%r12), %rdx
	movq	%rax, 8(%r12)
	movb	$0, (%rdx,%rax)
	jmp	.L50
	.p2align 4,,10
	.p2align 3
.L60:
	xorl	%edx, %edx
	movq	%rsp, %rsi
	movq	$56, (%rsp)
	call	_ZNSt7__cxx1112basic_stringIcSt11char_traitsIcESaIcEE9_M_createERmm@PLT
	movq	(%rsp), %rdx
	movdqa	.LC12(%rip), %xmm0
	movabsq	$7022344801645520244, %rcx
	movq	%rax, (%r12)
	movq	%rdx, 16(%r12)
	movups	%xmm0, (%rax)
	movdqa	.LC13(%rip), %xmm0
	movq	%rcx, 48(%rax)
	movups	%xmm0, 16(%rax)
	movdqa	.LC14(%rip), %xmm0
	movups	%xmm0, 32(%rax)
	movq	(%rsp), %rax
	movq	(%r12), %rdx
	movq	%rax, 8(%r12)
	movb	$0, (%rdx,%rax)
	jmp	.L50
.L62:
	call	__stack_chk_fail@PLT
	.cfi_endproc
.LFE3021:
	.size	_ZNK4asio5error6detail14netdb_category7messageB5cxx11Ei, .-_ZNK4asio5error6detail14netdb_category7messageB5cxx11Ei
	.section	.text._ZNK4asio5error6detail13misc_category7messageB5cxx11Ei,"axG",@progbits,_ZNK4asio5error6detail13misc_category7messageB5cxx11Ei,comdat
	.align 2
	.p2align 4
	.weak	_ZNK4asio5error6detail13misc_category7messageB5cxx11Ei
	.type	_ZNK4asio5error6detail13misc_category7messageB5cxx11Ei, @function
_ZNK4asio5error6detail13misc_category7messageB5cxx11Ei:
.LFB3033:
	.cfi_startproc
	pushq	%r12
	.cfi_def_cfa_offset 16
	.cfi_offset 12, -16
	movq	%rdi, %r12
	subq	$16, %rsp
	.cfi_def_cfa_offset 32
	movq	%fs:40, %rax
	movq	%rax, 8(%rsp)
	xorl	%eax, %eax
	leaq	16(%rdi), %rax
	movq	%rax, (%rdi)
	cmpl	$1, %edx
	je	.L71
	cmpl	$2, %edx
	je	.L72
	cmpl	$3, %edx
	je	.L73
	cmpl	$4, %edx
	je	.L74
	movabsq	$8316298233121436513, %rcx
	movl	$28530, %edx
	movq	%rcx, 16(%rdi)
	movl	$1919230051, 8(%rax)
	movw	%dx, 12(%rax)
	movb	$114, 14(%rax)
	movq	$15, 8(%rdi)
	movb	$0, 31(%rdi)
.L63:
	movq	8(%rsp), %rax
	subq	%fs:40, %rax
	jne	.L75
	addq	$16, %rsp
	.cfi_remember_state
	.cfi_def_cfa_offset 16
	movq	%r12, %rax
	popq	%r12
	.cfi_def_cfa_offset 8
	ret
	.p2align 4,,10
	.p2align 3
.L71:
	.cfi_restore_state
	movabsq	$2340011850872286273, %rcx
	movq	%rcx, 16(%rdi)
	movl	$1852141679, 8(%rax)
	movq	$12, 8(%rdi)
	movb	$0, 28(%rdi)
	jmp	.L63
	.p2align 4,,10
	.p2align 3
.L74:
	movq	%rsp, %rsi
	xorl	%edx, %edx
	movq	$57, (%rsp)
	call	_ZNSt7__cxx1112basic_stringIcSt11char_traitsIcESaIcEE9_M_createERmm@PLT
	movq	(%rsp), %rdx
	movdqa	.LC20(%rip), %xmm0
	movabsq	$7310291504967217959, %rsi
	movq	%rax, (%r12)
	movq	%rdx, 16(%r12)
	movups	%xmm0, (%rax)
	movdqa	.LC21(%rip), %xmm0
	movq	%rsi, 48(%rax)
	movups	%xmm0, 16(%rax)
	movdqa	.LC22(%rip), %xmm0
	movb	$116, 56(%rax)
	movups	%xmm0, 32(%rax)
	movq	(%rsp), %rax
	movq	(%r12), %rdx
	movq	%rax, 8(%r12)
	movb	$0, (%rdx,%rax)
	jmp	.L63
	.p2align 4,,10
	.p2align 3
.L72:
	movabsq	$7358994418594246213, %rcx
	movq	%rcx, 16(%rdi)
	movl	$27753, %ecx
	movw	%cx, 8(%rax)
	movb	$101, 10(%rax)
	movq	$11, 8(%rdi)
	movb	$0, 27(%rdi)
	jmp	.L63
	.p2align 4,,10
	.p2align 3
.L73:
	xorl	%edx, %edx
	movq	%rsp, %rsi
	movq	$17, (%rsp)
	call	_ZNSt7__cxx1112basic_stringIcSt11char_traitsIcESaIcEE9_M_createERmm@PLT
	movq	(%rsp), %rdx
	movdqa	.LC19(%rip), %xmm0
	movq	%rax, (%r12)
	movq	%rdx, 16(%r12)
	movb	$100, 16(%rax)
	movups	%xmm0, (%rax)
	movq	(%rsp), %rax
	movq	(%r12), %rdx
	movq	%rax, 8(%r12)
	movb	$0, (%rdx,%rax)
	jmp	.L63
.L75:
	call	__stack_chk_fail@PLT
	.cfi_endproc
.LFE3033:
	.size	_ZNK4asio5error6detail13misc_category7messageB5cxx11Ei, .-_ZNK4asio5error6detail13misc_category7messageB5cxx11Ei
	.text
	.align 2
	.p2align 4
	.type	_ZNSt5dequeIN8asiodnp39IOHandler12TransmissionESaIS2_EE19_M_destroy_data_auxESt15_Deque_iteratorIS2_RS2_PS2_ES8_.isra.0, @function
_ZNSt5dequeIN8asiodnp39IOHandler12TransmissionESaIS2_EE19_M_destroy_data_auxESt15_Deque_iteratorIS2_RS2_PS2_ES8_.isra.0:
.LFB10452:
	.cfi_startproc
	pushq	%r15
	.cfi_def_cfa_offset 16
	.cfi_offset 15, -16
	pushq	%r14
	.cfi_def_cfa_offset 24
	.cfi_offset 14, -24
	pushq	%r13
	.cfi_def_cfa_offset 32
	.cfi_offset 13, -32
	movq	%rsi, %r13
	pushq	%r12
	.cfi_def_cfa_offset 40
	.cfi_offset 12, -40
	pushq	%rbp
	.cfi_def_cfa_offset 48
	.cfi_offset 6, -48
	pushq	%rbx
	.cfi_def_cfa_offset 56
	.cfi_offset 3, -56
	subq	$24, %rsp
	.cfi_def_cfa_offset 80
	movq	24(%rdi), %rdx
	movq	24(%rsi), %rax
	movq	%rdi, 8(%rsp)
	leaq	8(%rdx), %r12
	cmpq	%rax, %r12
	jnb	.L77
	movq	_ZL28__gthrw___pthread_key_createPjPFvPvE@GOTPCREL(%rip), %r14
	.p2align 4,,10
	.p2align 3
.L89:
	movq	(%r12), %rbx
	leaq	512(%rbx), %r15
	testq	%r14, %r14
	je	.L84
	jmp	.L88
	.p2align 4,,10
	.p2align 3
.L81:
	addq	$32, %rbx
	cmpq	%rbx, %r15
	je	.L83
.L84:
	movq	24(%rbx), %rbp
	testq	%rbp, %rbp
	je	.L81
	movl	8(%rbp), %eax
	leal	-1(%rax), %ecx
	movl	%ecx, 8(%rbp)
	cmpl	$1, %eax
	jne	.L81
	movq	0(%rbp), %rax
	movq	%rbp, %rdi
	call	*16(%rax)
	movl	12(%rbp), %eax
	leal	-1(%rax), %ecx
	movl	%ecx, 12(%rbp)
	cmpl	$1, %eax
	jne	.L81
	movq	0(%rbp), %rax
	addq	$32, %rbx
	movq	%rbp, %rdi
	call	*24(%rax)
	cmpq	%rbx, %r15
	jne	.L84
	.p2align 4,,10
	.p2align 3
.L83:
	movq	24(%r13), %rax
	addq	$8, %r12
	cmpq	%r12, %rax
	ja	.L89
	movq	8(%rsp), %rsi
	movq	24(%rsi), %rdx
.L77:
	movq	8(%rsp), %rsi
	movq	(%rsi), %rbx
	cmpq	%rdx, %rax
	je	.L90
	movq	16(%rsi), %r12
	cmpq	%rbx, %r12
	je	.L99
	cmpq	$0, _ZL28__gthrw___pthread_key_createPjPFvPvE@GOTPCREL(%rip)
	jne	.L94
	movq	24(%rbx), %rbp
	testq	%rbp, %rbp
	jne	.L95
	.p2align 4,,10
	.p2align 3
.L97:
	addq	$32, %rbx
	cmpq	%rbx, %r12
	je	.L99
.L100:
	movq	24(%rbx), %rbp
	testq	%rbp, %rbp
	je	.L97
.L95:
	movl	8(%rbp), %eax
	leal	-1(%rax), %edx
	movl	%edx, 8(%rbp)
	cmpl	$1, %eax
	jne	.L97
	movq	0(%rbp), %rax
	movq	%rbp, %rdi
	call	*16(%rax)
	movl	12(%rbp), %eax
	leal	-1(%rax), %edx
	movl	%edx, 12(%rbp)
	cmpl	$1, %eax
	jne	.L97
	movq	0(%rbp), %rax
	addq	$32, %rbx
	movq	%rbp, %rdi
	call	*24(%rax)
	cmpq	%rbx, %r12
	jne	.L100
.L99:
	movq	0(%r13), %r12
	movq	8(%r13), %rbx
	cmpq	%rbx, %r12
	je	.L76
	cmpq	$0, _ZL28__gthrw___pthread_key_createPjPFvPvE@GOTPCREL(%rip)
	jne	.L104
	movq	24(%rbx), %rbp
	testq	%rbp, %rbp
	jne	.L105
	.p2align 4,,10
	.p2align 3
.L107:
	addq	$32, %rbx
	cmpq	%r12, %rbx
	je	.L76
.L109:
	movq	24(%rbx), %rbp
	testq	%rbp, %rbp
	je	.L107
.L105:
	movl	8(%rbp), %eax
	leal	-1(%rax), %edx
	movl	%edx, 8(%rbp)
	cmpl	$1, %eax
	jne	.L107
	movq	0(%rbp), %rax
	movq	%rbp, %rdi
	call	*16(%rax)
	movl	12(%rbp), %eax
	leal	-1(%rax), %edx
	movl	%edx, 12(%rbp)
	cmpl	$1, %eax
	jne	.L107
	movq	0(%rbp), %rax
	addq	$32, %rbx
	movq	%rbp, %rdi
	call	*24(%rax)
	cmpq	%r12, %rbx
	jne	.L109
.L76:
	addq	$24, %rsp
	.cfi_remember_state
	.cfi_def_cfa_offset 56
	popq	%rbx
	.cfi_def_cfa_offset 48
	popq	%rbp
	.cfi_def_cfa_offset 40
	popq	%r12
	.cfi_def_cfa_offset 32
	popq	%r13
	.cfi_def_cfa_offset 24
	popq	%r14
	.cfi_def_cfa_offset 16
	popq	%r15
	.cfi_def_cfa_offset 8
	ret
	.p2align 4,,10
	.p2align 3
.L130:
	.cfi_restore_state
	movq	0(%rbp), %rdx
	movq	%rbp, %rdi
	call	*16(%rdx)
	lock subl	$1, 12(%rbp)
	je	.L129
	.p2align 4,,10
	.p2align 3
.L86:
	addq	$32, %rbx
	cmpq	%r15, %rbx
	je	.L83
.L88:
	movq	24(%rbx), %rbp
	testq	%rbp, %rbp
	je	.L86
	lock subl	$1, 8(%rbp)
	jne	.L86
	jmp	.L130
	.p2align 4,,10
	.p2align 3
.L129:
	movq	0(%rbp), %rdx
	movq	%rbp, %rdi
	call	*24(%rdx)
	jmp	.L86
.L132:
	movq	0(%rbp), %rax
	movq	%rbp, %rdi
	call	*16(%rax)
	lock subl	$1, 12(%rbp)
	je	.L131
	.p2align 4,,10
	.p2align 3
.L102:
	addq	$32, %rbx
	cmpq	%rbx, %r12
	je	.L99
.L94:
	movq	24(%rbx), %rbp
	testq	%rbp, %rbp
	je	.L102
	lock subl	$1, 8(%rbp)
	jne	.L102
	jmp	.L132
.L134:
	movq	0(%rbp), %rax
	movq	%rbp, %rdi
	call	*16(%rax)
	lock subl	$1, 12(%rbp)
	je	.L133
	.p2align 4,,10
	.p2align 3
.L111:
	addq	$32, %rbx
	cmpq	%rbx, %r12
	je	.L76
.L104:
	movq	24(%rbx), %rbp
	testq	%rbp, %rbp
	je	.L111
	lock subl	$1, 8(%rbp)
	jne	.L111
	jmp	.L134
.L90:
	movq	0(%r13), %r12
	cmpq	%rbx, %r12
	je	.L76
	cmpq	$0, _ZL28__gthrw___pthread_key_createPjPFvPvE@GOTPCREL(%rip)
	jne	.L113
	movq	24(%rbx), %rbp
	testq	%rbp, %rbp
	jne	.L114
	.p2align 4,,10
	.p2align 3
.L116:
	addq	$32, %rbx
	cmpq	%rbx, %r12
	je	.L76
	movq	24(%rbx), %rbp
	testq	%rbp, %rbp
	je	.L116
.L114:
	movl	8(%rbp), %eax
	leal	-1(%rax), %edx
	movl	%edx, 8(%rbp)
	cmpl	$1, %eax
	jne	.L116
	movq	0(%rbp), %rax
	movq	%rbp, %rdi
	call	*16(%rax)
	movl	12(%rbp), %eax
	leal	-1(%rax), %edx
	movl	%edx, 12(%rbp)
	cmpl	$1, %eax
	jne	.L116
	movq	0(%rbp), %rax
	movq	%rbp, %rdi
	call	*24(%rax)
	jmp	.L116
.L136:
	movq	0(%rbp), %rax
	movq	%rbp, %rdi
	call	*16(%rax)
	lock subl	$1, 12(%rbp)
	je	.L135
	.p2align 4,,10
	.p2align 3
.L120:
	addq	$32, %rbx
	cmpq	%rbx, %r12
	je	.L76
.L113:
	movq	24(%rbx), %rbp
	testq	%rbp, %rbp
	je	.L120
	lock subl	$1, 8(%rbp)
	jne	.L120
	jmp	.L136
.L131:
	movq	0(%rbp), %rax
	movq	%rbp, %rdi
	call	*24(%rax)
	jmp	.L102
.L133:
	movq	0(%rbp), %rax
	movq	%rbp, %rdi
	call	*24(%rax)
	jmp	.L111
.L135:
	movq	0(%rbp), %rax
	movq	%rbp, %rdi
	call	*24(%rax)
	jmp	.L120
	.cfi_endproc
.LFE10452:
	.size	_ZNSt5dequeIN8asiodnp39IOHandler12TransmissionESaIS2_EE19_M_destroy_data_auxESt15_Deque_iteratorIS2_RS2_PS2_ES8_.isra.0, .-_ZNSt5dequeIN8asiodnp39IOHandler12TransmissionESaIS2_EE19_M_destroy_data_auxESt15_Deque_iteratorIS2_RS2_PS2_ES8_.isra.0
	.section	.text.unlikely._ZSt20__throw_bad_weak_ptrv,"axG",@progbits,_ZSt20__throw_bad_weak_ptrv,comdat
	.weak	_ZSt20__throw_bad_weak_ptrv
	.type	_ZSt20__throw_bad_weak_ptrv, @function
_ZSt20__throw_bad_weak_ptrv:
.LFB1251:
	.cfi_startproc
	pushq	%rax
	.cfi_def_cfa_offset 16
	popq	%rax
	.cfi_def_cfa_offset 8
	movl	$8, %edi
	pushq	%rax
	.cfi_def_cfa_offset 16
	call	__cxa_allocate_exception@PLT
	movq	_ZNSt12bad_weak_ptrD1Ev@GOTPCREL(%rip), %rdx
	movq	_ZTISt12bad_weak_ptr@GOTPCREL(%rip), %rsi
	movq	%rax, %rdi
	movq	_ZTVSt12bad_weak_ptr@GOTPCREL(%rip), %rax
	addq	$16, %rax
	movq	%rax, (%rdi)
	call	__cxa_throw@PLT
	.cfi_endproc
.LFE1251:
	.size	_ZSt20__throw_bad_weak_ptrv, .-_ZSt20__throw_bad_weak_ptrv
	.section	.text._ZN7openpal6LoggerD2Ev,"axG",@progbits,_ZN7openpal6LoggerD5Ev,comdat
	.align 2
	.p2align 4
	.weak	_ZN7openpal6LoggerD2Ev
	.type	_ZN7openpal6LoggerD2Ev, @function
_ZN7openpal6LoggerD2Ev:
.LFB2069:
	.cfi_startproc
	pushq	%r12
	.cfi_def_cfa_offset 16
	.cfi_offset 12, -16
	pushq	%rbp
	.cfi_def_cfa_offset 24
	.cfi_offset 6, -24
	pushq	%rbx
	.cfi_def_cfa_offset 32
	.cfi_offset 3, -32
	movq	24(%rdi), %rbp
	movq	%rdi, %rbx
	testq	%rbp, %rbp
	je	.L141
	movq	_ZL28__gthrw___pthread_key_createPjPFvPvE@GOTPCREL(%rip), %r12
	testq	%r12, %r12
	jne	.L155
	movl	8(%rbp), %eax
	leal	-1(%rax), %edx
	movl	%edx, 8(%rbp)
.L143:
	cmpl	$1, %eax
	je	.L156
.L141:
	movq	8(%rbx), %rbp
	testq	%rbp, %rbp
	je	.L139
	movq	_ZL28__gthrw___pthread_key_createPjPFvPvE@GOTPCREL(%rip), %r12
	testq	%r12, %r12
	jne	.L157
	movl	8(%rbp), %eax
	leal	-1(%rax), %edx
	movl	%edx, 8(%rbp)
.L150:
	cmpl	$1, %eax
	je	.L158
.L139:
	popq	%rbx
	.cfi_remember_state
	.cfi_def_cfa_offset 24
	popq	%rbp
	.cfi_def_cfa_offset 16
	popq	%r12
	.cfi_def_cfa_offset 8
	ret
	.p2align 4,,10
	.p2align 3
.L156:
	.cfi_restore_state
	movq	0(%rbp), %rax
	movq	%rbp, %rdi
	call	*16(%rax)
	testq	%r12, %r12
	jne	.L159
	movl	12(%rbp), %eax
	leal	-1(%rax), %edx
	movl	%edx, 12(%rbp)
.L146:
	cmpl	$1, %eax
	jne	.L141
	movq	0(%rbp), %rax
	movq	%rbp, %rdi
	call	*24(%rax)
	jmp	.L141
	.p2align 4,,10
	.p2align 3
.L158:
	movq	0(%rbp), %rax
	movq	%rbp, %rdi
	call	*16(%rax)
	testq	%r12, %r12
	jne	.L160
	movl	12(%rbp), %eax
	leal	-1(%rax), %edx
	movl	%edx, 12(%rbp)
.L153:
	cmpl	$1, %eax
	jne	.L139
	movq	0(%rbp), %rax
	popq	%rbx
	.cfi_remember_state
	.cfi_def_cfa_offset 24
	movq	%rbp, %rdi
	popq	%rbp
	.cfi_def_cfa_offset 16
	popq	%r12
	.cfi_def_cfa_offset 8
	movq	24(%rax), %rax
	jmp	*%rax
	.p2align 4,,10
	.p2align 3
.L155:
	.cfi_restore_state
	movl	$-1, %eax
	lock xaddl	%eax, 8(%rbp)
	jmp	.L143
	.p2align 4,,10
	.p2align 3
.L157:
	movl	$-1, %eax
	lock xaddl	%eax, 8(%rbp)
	jmp	.L150
	.p2align 4,,10
	.p2align 3
.L159:
	movl	$-1, %eax
	lock xaddl	%eax, 12(%rbp)
	jmp	.L146
	.p2align 4,,10
	.p2align 3
.L160:
	movl	$-1, %eax
	lock xaddl	%eax, 12(%rbp)
	jmp	.L153
	.cfi_endproc
.LFE2069:
	.size	_ZN7openpal6LoggerD2Ev, .-_ZN7openpal6LoggerD2Ev
	.weak	_ZN7openpal6LoggerD1Ev
	.set	_ZN7openpal6LoggerD1Ev,_ZN7openpal6LoggerD2Ev
	.text
	.align 2
	.p2align 4
	.globl	_ZN8asiodnp39IOHandler6EnableERKSt10shared_ptrIN8opendnp312ILinkSessionEE
	.type	_ZN8asiodnp39IOHandler6EnableERKSt10shared_ptrIN8opendnp312ILinkSessionEE, @function
_ZN8asiodnp39IOHandler6EnableERKSt10shared_ptrIN8opendnp312ILinkSessionEE:
.LFB7729:
	.cfi_startproc
	movabsq	$-6148914691236517205, %rcx
	pushq	%rbp
	.cfi_def_cfa_offset 16
	.cfi_offset 6, -16
	movq	120(%rdi), %r8
	movq	%rdi, %rbp
	movq	112(%rdi), %rax
	movq	%r8, %rdx
	subq	%rax, %rdx
	sarq	$3, %rdx
	imulq	%rcx, %rdx
	movq	%rdx, %rcx
	sarq	$2, %rcx
	testq	%rcx, %rcx
	jle	.L162
	leaq	(%rcx,%rcx,2), %rdx
	movq	(%rsi), %rdi
	salq	$5, %rdx
	addq	%rax, %rdx
	jmp	.L167
	.p2align 4,,10
	.p2align 3
.L190:
	cmpq	32(%rax), %rdi
	je	.L186
	cmpq	56(%rax), %rdi
	je	.L187
	cmpq	80(%rax), %rdi
	je	.L188
	addq	$96, %rax
	cmpq	%rdx, %rax
	je	.L189
.L167:
	cmpq	%rdi, 8(%rax)
	jne	.L190
.L163:
	cmpq	%rax, %r8
	je	.L179
	cmpb	$0, (%rax)
	jne	.L185
	cmpq	$0, 632(%rbp)
	movb	$1, (%rax)
	je	.L176
	cmpb	$0, 6(%rax)
	jne	.L185
	movb	$1, 6(%rax)
	movq	(%rdi), %rax
	call	*32(%rax)
.L185:
	movl	$1, %eax
	popq	%rbp
	.cfi_remember_state
	.cfi_def_cfa_offset 8
	ret
	.p2align 4,,10
	.p2align 3
.L189:
	.cfi_restore_state
	movabsq	$-6148914691236517205, %rcx
	movq	%r8, %rdx
	subq	%rax, %rdx
	sarq	$3, %rdx
	imulq	%rcx, %rdx
.L162:
	cmpq	$2, %rdx
	je	.L168
	cmpq	$3, %rdx
	je	.L169
	cmpq	$1, %rdx
	je	.L191
.L179:
	xorl	%eax, %eax
.L192:
	popq	%rbp
	.cfi_remember_state
	.cfi_def_cfa_offset 8
	ret
	.p2align 4,,10
	.p2align 3
.L176:
	.cfi_restore_state
	movq	64(%rbp), %rdi
	testq	%rdi, %rdi
	je	.L178
	movq	(%rdi), %rax
	movl	$1, %esi
	call	*16(%rax)
.L178:
	movq	0(%rbp), %rax
	movq	%rbp, %rdi
	call	*40(%rax)
	movl	$1, %eax
	popq	%rbp
	.cfi_remember_state
	.cfi_def_cfa_offset 8
	ret
.L191:
	.cfi_restore_state
	movq	(%rsi), %rdi
.L173:
	cmpq	%rdi, 8(%rax)
	je	.L163
	xorl	%eax, %eax
	jmp	.L192
.L169:
	movq	(%rsi), %rdi
	cmpq	%rdi, 8(%rax)
	je	.L163
	addq	$24, %rax
	jmp	.L172
.L168:
	movq	(%rsi), %rdi
.L172:
	cmpq	%rdi, 8(%rax)
	je	.L163
	addq	$24, %rax
	jmp	.L173
	.p2align 4,,10
	.p2align 3
.L186:
	addq	$24, %rax
	jmp	.L163
	.p2align 4,,10
	.p2align 3
.L187:
	addq	$48, %rax
	jmp	.L163
	.p2align 4,,10
	.p2align 3
.L188:
	addq	$72, %rax
	jmp	.L163
	.cfi_endproc
.LFE7729:
	.size	_ZN8asiodnp39IOHandler6EnableERKSt10shared_ptrIN8opendnp312ILinkSessionEE, .-_ZN8asiodnp39IOHandler6EnableERKSt10shared_ptrIN8opendnp312ILinkSessionEE
	.align 2
	.p2align 4
	.globl	_ZN8asiodnp39IOHandler9BeginReadEv
	.type	_ZN8asiodnp39IOHandler9BeginReadEv, @function
_ZN8asiodnp39IOHandler9BeginReadEv:
.LFB7747:
	.cfi_startproc
	pushq	%rbp
	.cfi_def_cfa_offset 16
	.cfi_offset 6, -16
	movq	632(%rdi), %rbp
	addq	$216, %rdi
	call	_ZNK8opendnp315LinkLayerParser9WriteBuffEv@PLT
	cmpq	$0, 40(%rbp)
	je	.L194
	cmpb	$0, 56(%rbp)
	jne	.L194
	cmpb	$0, 57(%rbp)
	jne	.L194
	movq	0(%rbp), %rcx
	movb	$1, 57(%rbp)
	movq	%rbp, %rdi
	movl	%eax, %esi
	popq	%rbp
	.cfi_remember_state
	.cfi_def_cfa_offset 8
	movq	16(%rcx), %rcx
	jmp	*%rcx
	.p2align 4,,10
	.p2align 3
.L194:
	.cfi_restore_state
	popq	%rbp
	.cfi_def_cfa_offset 8
	ret
	.cfi_endproc
.LFE7747:
	.size	_ZN8asiodnp39IOHandler9BeginReadEv, .-_ZN8asiodnp39IOHandler9BeginReadEv
	.align 2
	.p2align 4
	.globl	_ZN8asiodnp39IOHandler12CheckForSendEv
	.type	_ZN8asiodnp39IOHandler12CheckForSendEv, @function
_ZN8asiodnp39IOHandler12CheckForSendEv:
.LFB7748:
	.cfi_startproc
	movq	152(%rdi), %rsi
	cmpq	184(%rdi), %rsi
	je	.L196
	movq	632(%rdi), %r8
	testq	%r8, %r8
	je	.L196
	cmpq	$0, 40(%r8)
	je	.L196
	cmpb	$0, 56(%r8)
	jne	.L196
	cmpb	$0, 58(%r8)
	jne	.L196
	movq	(%r8), %rax
	addl	$1, 100(%rdi)
	movq	%r8, %rdi
	movb	$1, 58(%r8)
	movq	24(%rax), %rax
	jmp	*%rax
	.p2align 4,,10
	.p2align 3
.L196:
	ret
	.cfi_endproc
.LFE7748:
	.size	_ZN8asiodnp39IOHandler12CheckForSendEv, .-_ZN8asiodnp39IOHandler12CheckForSendEv
	.align 2
	.p2align 4
	.globl	_ZN8asiodnp39IOHandler13SendToSessionERKN8opendnp35RouteERKNS1_16LinkHeaderFieldsERKN7openpal6RSliceE
	.type	_ZN8asiodnp39IOHandler13SendToSessionERKN8opendnp35RouteERKNS1_16LinkHeaderFieldsERKN7openpal6RSliceE, @function
_ZN8asiodnp39IOHandler13SendToSessionERKN8opendnp35RouteERKNS1_16LinkHeaderFieldsERKN7openpal6RSliceE:
.LFB7749:
	.cfi_startproc
	movabsq	$-6148914691236517205, %r10
	movq	%rdi, %rax
	movq	%rcx, %r8
	movq	%rsi, %rdi
	movq	120(%rax), %r9
	movq	112(%rax), %rax
	movq	%rdx, %rsi
	movzwl	(%rdi), %edx
	movzwl	2(%rdi), %edi
	movq	%r9, %rcx
	subq	%rax, %rcx
	sarq	$3, %rcx
	imulq	%r10, %rcx
	movq	%rcx, %r10
	sarq	$2, %r10
	testq	%r10, %r10
	jle	.L202
	leaq	(%r10,%r10,2), %rcx
	salq	$5, %rcx
	addq	%rax, %rcx
.L208:
	cmpb	$0, (%rax)
	je	.L203
	cmpw	2(%rax), %dx
	je	.L224
.L203:
	cmpb	$0, 24(%rax)
	je	.L205
	cmpw	26(%rax), %dx
	je	.L225
.L205:
	cmpb	$0, 48(%rax)
	je	.L206
	cmpw	50(%rax), %dx
	je	.L226
.L206:
	cmpb	$0, 72(%rax)
	je	.L207
	cmpw	74(%rax), %dx
	je	.L227
.L207:
	addq	$96, %rax
	cmpq	%rcx, %rax
	jne	.L208
	movabsq	$-6148914691236517205, %r10
	movq	%r9, %rcx
	subq	%rax, %rcx
	sarq	$3, %rcx
	imulq	%r10, %rcx
.L202:
	cmpq	$2, %rcx
	je	.L209
	cmpq	$3, %rcx
	je	.L210
	cmpq	$1, %rcx
	je	.L211
.L201:
	xorl	%eax, %eax
	ret
	.p2align 4,,10
	.p2align 3
.L224:
	cmpw	4(%rax), %di
	jne	.L203
.L204:
	cmpq	%rax, %r9
	je	.L201
	movq	8(%rax), %rdi
	movq	%r8, %rdx
	movq	(%rdi), %rax
	movq	16(%rax), %rax
	jmp	*%rax
	.p2align 4,,10
	.p2align 3
.L225:
	cmpw	28(%rax), %di
	jne	.L205
	addq	$24, %rax
	jmp	.L204
	.p2align 4,,10
	.p2align 3
.L226:
	cmpw	52(%rax), %di
	jne	.L206
	addq	$48, %rax
	jmp	.L204
	.p2align 4,,10
	.p2align 3
.L227:
	cmpw	76(%rax), %di
	jne	.L207
	addq	$72, %rax
	jmp	.L204
.L210:
	cmpb	$0, (%rax)
	je	.L213
	cmpw	2(%rax), %dx
	je	.L228
.L213:
	addq	$24, %rax
.L209:
	cmpb	$0, (%rax)
	je	.L214
	cmpw	2(%rax), %dx
	je	.L229
.L214:
	addq	$24, %rax
.L211:
	cmpb	$0, (%rax)
	je	.L201
	cmpw	2(%rax), %dx
	jne	.L201
	cmpw	4(%rax), %di
	jne	.L201
	jmp	.L204
.L229:
	cmpw	4(%rax), %di
	jne	.L214
	jmp	.L204
.L228:
	cmpw	4(%rax), %di
	jne	.L213
	jmp	.L204
	.cfi_endproc
.LFE7749:
	.size	_ZN8asiodnp39IOHandler13SendToSessionERKN8opendnp35RouteERKNS1_16LinkHeaderFieldsERKN7openpal6RSliceE, .-_ZN8asiodnp39IOHandler13SendToSessionERKN8opendnp35RouteERKNS1_16LinkHeaderFieldsERKN7openpal6RSliceE
	.section	.rodata.str1.8,"aMS",@progbits,1
	.align 8
.LC23:
	.string	"Frame w/ unknown route, source: %i, dest %i"
	.align 8
.LC24:
	.string	"/home/master/projects/Procont_EE/utils/dnp3_src/cpp/libs/src/asiodnp3/IOHandler.cpp(254)"
	.text
	.align 2
	.p2align 4
	.globl	_ZN8asiodnp39IOHandler7OnFrameERKN8opendnp316LinkHeaderFieldsERKN7openpal6RSliceE
	.type	_ZN8asiodnp39IOHandler7OnFrameERKN8opendnp316LinkHeaderFieldsERKN7openpal6RSliceE, @function
_ZN8asiodnp39IOHandler7OnFrameERKN8opendnp316LinkHeaderFieldsERKN7openpal6RSliceE:
.LFB7746:
	.cfi_startproc
	pushq	%r14
	.cfi_def_cfa_offset 16
	.cfi_offset 14, -16
	movq	%rdx, %rcx
	pushq	%r13
	.cfi_def_cfa_offset 24
	.cfi_offset 13, -24
	pushq	%r12
	.cfi_def_cfa_offset 32
	.cfi_offset 12, -32
	pushq	%rbp
	.cfi_def_cfa_offset 40
	.cfi_offset 6, -40
	movq	%rdi, %rbp
	pushq	%rbx
	.cfi_def_cfa_offset 48
	.cfi_offset 3, -48
	movq	%rsi, %rbx
	subq	$144, %rsp
	.cfi_def_cfa_offset 192
	movzwl	6(%rsi), %edx
	movq	%fs:40, %rax
	movq	%rax, 136(%rsp)
	xorl	%eax, %eax
	leaq	12(%rsp), %r13
	movzwl	4(%rsi), %eax
	movw	%dx, 12(%rsp)
	movq	%rsi, %rdx
	movq	%r13, %rsi
	movw	%ax, 14(%rsp)
	call	_ZN8asiodnp39IOHandler13SendToSessionERKN8opendnp35RouteERKNS1_16LinkHeaderFieldsERKN7openpal6RSliceE@PLT
	movl	%eax, %r12d
	testb	%al, %al
	je	.L238
.L230:
	movq	136(%rsp), %rax
	subq	%fs:40, %rax
	jne	.L239
	addq	$144, %rsp
	.cfi_remember_state
	.cfi_def_cfa_offset 48
	movl	%r12d, %eax
	popq	%rbx
	.cfi_def_cfa_offset 40
	popq	%rbp
	.cfi_def_cfa_offset 32
	popq	%r12
	.cfi_def_cfa_offset 24
	popq	%r13
	.cfi_def_cfa_offset 16
	popq	%r14
	.cfi_def_cfa_offset 8
	ret
	.p2align 4,,10
	.p2align 3
.L238:
	.cfi_restore_state
	addq	$32, %rbp
	movq	%r13, %rsi
	movl	$4, 12(%rsp)
	movq	%rbp, %rdi
	call	_ZNK7openpal6Logger9IsEnabledERKNS_10LogFiltersE@PLT
	testb	%al, %al
	je	.L230
	movzwl	4(%rbx), %eax
	leaq	16(%rsp), %r14
	subq	$8, %rsp
	.cfi_def_cfa_offset 200
	movzwl	6(%rbx), %r9d
	movq	%r14, %rdi
	movl	$120, %ecx
	movl	$1, %edx
	movl	$120, %esi
	pushq	%rax
	.cfi_def_cfa_offset 208
	leaq	.LC23(%rip), %r8
	xorl	%eax, %eax
	call	__snprintf_chk@PLT
	movq	%r14, %rcx
	movq	%r13, %rsi
	movq	%rbp, %rdi
	movl	$4, 28(%rsp)
	popq	%rax
	.cfi_def_cfa_offset 200
	popq	%rdx
	.cfi_def_cfa_offset 192
	leaq	.LC24(%rip), %rdx
	call	_ZN7openpal6Logger3LogERKNS_10LogFiltersEPKcS5_@PLT
	jmp	.L230
.L239:
	call	__stack_chk_fail@PLT
	.cfi_endproc
.LFE7746:
	.size	_ZN8asiodnp39IOHandler7OnFrameERKN8opendnp316LinkHeaderFieldsERKN7openpal6RSliceE, .-_ZN8asiodnp39IOHandler7OnFrameERKN8opendnp316LinkHeaderFieldsERKN7openpal6RSliceE
	.align 2
	.p2align 4
	.globl	_ZNK8asiodnp39IOHandler12IsRouteInUseERKN8opendnp35RouteE
	.type	_ZNK8asiodnp39IOHandler12IsRouteInUseERKN8opendnp35RouteE, @function
_ZNK8asiodnp39IOHandler12IsRouteInUseERKN8opendnp35RouteE:
.LFB7751:
	.cfi_startproc
	movq	120(%rdi), %r9
	movq	112(%rdi), %rax
	movzwl	(%rsi), %edx
	movzwl	2(%rsi), %r8d
	movabsq	$-6148914691236517205, %rsi
	movq	%r9, %rcx
	subq	%rax, %rcx
	sarq	$3, %rcx
	imulq	%rsi, %rcx
	movq	%rcx, %rsi
	sarq	$2, %rsi
	testq	%rsi, %rsi
	jle	.L241
	leaq	(%rsi,%rsi,2), %rcx
	salq	$5, %rcx
	addq	%rax, %rcx
.L252:
	cmpw	2(%rax), %dx
	je	.L271
	cmpw	26(%rax), %dx
	je	.L272
.L244:
	cmpw	50(%rax), %dx
	je	.L273
.L247:
	cmpw	74(%rax), %dx
	je	.L274
.L250:
	addq	$96, %rax
	cmpq	%rax, %rcx
	jne	.L252
	movabsq	$-6148914691236517205, %rsi
	movq	%r9, %rcx
	subq	%rax, %rcx
	sarq	$3, %rcx
	imulq	%rsi, %rcx
.L241:
	cmpq	$2, %rcx
	je	.L253
	cmpq	$3, %rcx
	je	.L254
	xorl	%r10d, %r10d
	cmpq	$1, %rcx
	jne	.L240
.L255:
	xorl	%r10d, %r10d
	cmpw	2(%rax), %dx
	jne	.L240
	cmpw	4(%rax), %r8w
	jne	.L240
	.p2align 4,,10
	.p2align 3
.L269:
	cmpq	%rax, %r9
	setne	%r10b
.L240:
	movl	%r10d, %eax
	ret
	.p2align 4,,10
	.p2align 3
.L271:
	cmpw	4(%rax), %r8w
	je	.L269
	cmpw	26(%rax), %dx
	jne	.L244
.L272:
	cmpw	28(%rax), %r8w
	jne	.L244
	addq	$24, %rax
	cmpq	%rax, %r9
	setne	%r10b
	movl	%r10d, %eax
	ret
	.p2align 4,,10
	.p2align 3
.L273:
	cmpw	52(%rax), %r8w
	jne	.L247
	addq	$48, %rax
	cmpq	%rax, %r9
	setne	%r10b
	movl	%r10d, %eax
	ret
	.p2align 4,,10
	.p2align 3
.L274:
	cmpw	76(%rax), %r8w
	jne	.L250
	addq	$72, %rax
	cmpq	%rax, %r9
	setne	%r10b
	movl	%r10d, %eax
	ret
.L254:
	cmpw	2(%rax), %dx
	je	.L275
.L256:
	addq	$24, %rax
.L253:
	cmpw	2(%rax), %dx
	je	.L276
.L258:
	addq	$24, %rax
	jmp	.L255
.L276:
	cmpw	4(%rax), %r8w
	jne	.L258
	jmp	.L269
.L275:
	cmpw	4(%rax), %r8w
	jne	.L256
	jmp	.L269
	.cfi_endproc
.LFE7751:
	.size	_ZNK8asiodnp39IOHandler12IsRouteInUseERKN8opendnp35RouteE, .-_ZNK8asiodnp39IOHandler12IsRouteInUseERKN8opendnp35RouteE
	.align 2
	.p2align 4
	.globl	_ZNK8asiodnp39IOHandler14IsSessionInUseERKSt10shared_ptrIN8opendnp312ILinkSessionEE
	.type	_ZNK8asiodnp39IOHandler14IsSessionInUseERKSt10shared_ptrIN8opendnp312ILinkSessionEE, @function
_ZNK8asiodnp39IOHandler14IsSessionInUseERKSt10shared_ptrIN8opendnp312ILinkSessionEE:
.LFB7753:
	.cfi_startproc
	movq	120(%rdi), %r8
	movq	112(%rdi), %rax
	movabsq	$-6148914691236517205, %rcx
	movq	%r8, %rdx
	subq	%rax, %rdx
	sarq	$3, %rdx
	imulq	%rcx, %rdx
	movq	%rdx, %rcx
	sarq	$2, %rcx
	testq	%rcx, %rcx
	jle	.L278
	leaq	(%rcx,%rcx,2), %rcx
	movq	(%rsi), %rdx
	salq	$5, %rcx
	addq	%rax, %rcx
	jmp	.L284
	.p2align 4,,10
	.p2align 3
.L279:
	cmpq	32(%rax), %rdx
	je	.L295
	cmpq	56(%rax), %rdx
	je	.L296
	cmpq	80(%rax), %rdx
	je	.L297
	addq	$96, %rax
	cmpq	%rcx, %rax
	je	.L298
.L284:
	cmpq	%rdx, 8(%rax)
	jne	.L279
.L294:
	cmpq	%rax, %r8
	setne	%r9b
.L277:
	movl	%r9d, %eax
	ret
	.p2align 4,,10
	.p2align 3
.L298:
	movabsq	$-6148914691236517205, %rcx
	movq	%r8, %rdx
	subq	%rax, %rdx
	sarq	$3, %rdx
	imulq	%rcx, %rdx
.L278:
	cmpq	$2, %rdx
	je	.L285
	cmpq	$3, %rdx
	je	.L286
	xorl	%r9d, %r9d
	cmpq	$1, %rdx
	jne	.L277
	movq	(%rsi), %rdx
.L289:
	xorl	%r9d, %r9d
	cmpq	%rdx, 8(%rax)
	jne	.L277
	jmp	.L294
.L286:
	movq	(%rsi), %rdx
	cmpq	%rdx, 8(%rax)
	je	.L294
	addq	$24, %rax
	jmp	.L288
.L285:
	movq	(%rsi), %rdx
.L288:
	cmpq	%rdx, 8(%rax)
	je	.L294
	addq	$24, %rax
	jmp	.L289
	.p2align 4,,10
	.p2align 3
.L295:
	addq	$24, %rax
	cmpq	%rax, %r8
	setne	%r9b
	movl	%r9d, %eax
	ret
	.p2align 4,,10
	.p2align 3
.L296:
	addq	$48, %rax
	cmpq	%rax, %r8
	setne	%r9b
	movl	%r9d, %eax
	ret
	.p2align 4,,10
	.p2align 3
.L297:
	addq	$72, %rax
	cmpq	%rax, %r8
	setne	%r9b
	movl	%r9d, %eax
	ret
	.cfi_endproc
.LFE7753:
	.size	_ZNK8asiodnp39IOHandler14IsSessionInUseERKSt10shared_ptrIN8opendnp312ILinkSessionEE, .-_ZNK8asiodnp39IOHandler14IsSessionInUseERKSt10shared_ptrIN8opendnp312ILinkSessionEE
	.align 2
	.p2align 4
	.globl	_ZNK8asiodnp39IOHandler19IsAnySessionEnabledEv
	.type	_ZNK8asiodnp39IOHandler19IsAnySessionEnabledEv, @function
_ZNK8asiodnp39IOHandler19IsAnySessionEnabledEv:
.LFB7755:
	.cfi_startproc
	movq	120(%rdi), %rcx
	movq	112(%rdi), %rax
	movabsq	$-6148914691236517205, %rsi
	movq	%rcx, %rdx
	subq	%rax, %rdx
	sarq	$3, %rdx
	imulq	%rsi, %rdx
	movq	%rdx, %rsi
	sarq	$2, %rsi
	testq	%rsi, %rsi
	jle	.L300
	leaq	(%rsi,%rsi,2), %rdx
	salq	$5, %rdx
	addq	%rax, %rdx
	jmp	.L306
	.p2align 4,,10
	.p2align 3
.L301:
	cmpb	$0, 24(%rax)
	jne	.L323
	cmpb	$0, 48(%rax)
	jne	.L324
	cmpb	$0, 72(%rax)
	jne	.L325
	addq	$96, %rax
	cmpq	%rax, %rdx
	je	.L326
.L306:
	cmpb	$0, (%rax)
	je	.L301
.L322:
	cmpq	%rax, %rcx
	setne	%r8b
.L299:
	movl	%r8d, %eax
	ret
	.p2align 4,,10
	.p2align 3
.L326:
	movabsq	$-6148914691236517205, %rsi
	movq	%rcx, %rdx
	subq	%rax, %rdx
	sarq	$3, %rdx
	imulq	%rsi, %rdx
.L300:
	cmpq	$2, %rdx
	je	.L307
	cmpq	$3, %rdx
	je	.L308
	xorl	%r8d, %r8d
	cmpq	$1, %rdx
	jne	.L299
.L309:
	movzbl	(%rax), %r8d
	testb	%r8b, %r8b
	je	.L299
	jmp	.L322
.L308:
	cmpb	$0, (%rax)
	jne	.L322
	addq	$24, %rax
.L307:
	cmpb	$0, (%rax)
	jne	.L322
	addq	$24, %rax
	jmp	.L309
	.p2align 4,,10
	.p2align 3
.L323:
	addq	$24, %rax
	cmpq	%rax, %rcx
	setne	%r8b
	movl	%r8d, %eax
	ret
	.p2align 4,,10
	.p2align 3
.L324:
	addq	$48, %rax
	cmpq	%rax, %rcx
	setne	%r8b
	movl	%r8d, %eax
	ret
	.p2align 4,,10
	.p2align 3
.L325:
	addq	$72, %rax
	cmpq	%rax, %rcx
	setne	%r8b
	movl	%r8d, %eax
	ret
	.cfi_endproc
.LFE7755:
	.size	_ZNK8asiodnp39IOHandler19IsAnySessionEnabledEv, .-_ZNK8asiodnp39IOHandler19IsAnySessionEnabledEv
	.align 2
	.p2align 4
	.globl	_ZN8asiodnp39IOHandler6RemoveERKSt10shared_ptrIN8opendnp312ILinkSessionEE
	.type	_ZN8asiodnp39IOHandler6RemoveERKSt10shared_ptrIN8opendnp312ILinkSessionEE, @function
_ZN8asiodnp39IOHandler6RemoveERKSt10shared_ptrIN8opendnp312ILinkSessionEE:
.LFB7733:
	.cfi_startproc
	movabsq	$-6148914691236517205, %rcx
	pushq	%r14
	.cfi_def_cfa_offset 16
	.cfi_offset 14, -16
	movq	%rdi, %r14
	pushq	%r13
	.cfi_def_cfa_offset 24
	.cfi_offset 13, -24
	pushq	%r12
	.cfi_def_cfa_offset 32
	.cfi_offset 12, -32
	pushq	%rbp
	.cfi_def_cfa_offset 40
	.cfi_offset 6, -40
	pushq	%rbx
	.cfi_def_cfa_offset 48
	.cfi_offset 3, -48
	movq	120(%rdi), %rdx
	movq	112(%rdi), %rbx
	movq	%rdx, %rax
	subq	%rbx, %rax
	sarq	$3, %rax
	imulq	%rcx, %rax
	movq	%rax, %rcx
	sarq	$2, %rcx
	testq	%rcx, %rcx
	jle	.L328
	leaq	(%rcx,%rcx,2), %rax
	movq	(%rsi), %rdi
	salq	$5, %rax
	addq	%rbx, %rax
	jmp	.L333
	.p2align 4,,10
	.p2align 3
.L367:
	cmpq	32(%rbx), %rdi
	je	.L363
	cmpq	56(%rbx), %rdi
	je	.L364
	cmpq	80(%rbx), %rdi
	je	.L365
	addq	$96, %rbx
	cmpq	%rbx, %rax
	je	.L366
.L333:
	cmpq	%rdi, 8(%rbx)
	jne	.L367
.L329:
	cmpq	%rbx, %rdx
	je	.L358
	cmpq	$0, 632(%r14)
	je	.L341
	cmpb	$0, 6(%rbx)
	je	.L341
	movq	(%rdi), %rax
	movb	$0, 6(%rbx)
	call	*40(%rax)
	movq	120(%r14), %rdx
.L341:
	leaq	24(%rbx), %r13
	cmpq	%rdx, %r13
	je	.L342
	movabsq	$-6148914691236517205, %rcx
	movq	%rdx, %rax
	subq	%r13, %rax
	movq	%rax, %r12
	sarq	$3, %r12
	imulq	%rcx, %r12
	testq	%rax, %rax
	jle	.L342
	pxor	%xmm1, %xmm1
	jmp	.L350
	.p2align 4,,10
	.p2align 3
.L344:
	movq	%r13, %rbx
	subq	$1, %r12
	je	.L361
.L370:
	addq	$24, %r13
.L350:
	movzbl	24(%rbx), %eax
	movdqu	32(%rbx), %xmm0
	movups	%xmm1, 32(%rbx)
	movq	16(%rbx), %rbp
	movb	%al, (%rbx)
	movl	26(%rbx), %eax
	movups	%xmm0, 8(%rbx)
	movl	%eax, 2(%rbx)
	movzbl	30(%rbx), %eax
	movb	%al, 6(%rbx)
	testq	%rbp, %rbp
	je	.L344
	movq	_ZL28__gthrw___pthread_key_createPjPFvPvE@GOTPCREL(%rip), %rbx
	testq	%rbx, %rbx
	jne	.L368
	movl	8(%rbp), %eax
	leal	-1(%rax), %edx
	movl	%edx, 8(%rbp)
.L346:
	cmpl	$1, %eax
	jne	.L344
	movq	0(%rbp), %rax
	movq	%rbp, %rdi
	call	*16(%rax)
	testq	%rbx, %rbx
	pxor	%xmm1, %xmm1
	jne	.L369
	movl	12(%rbp), %eax
	leal	-1(%rax), %edx
	movl	%edx, 12(%rbp)
.L349:
	cmpl	$1, %eax
	jne	.L344
	movq	0(%rbp), %rax
	movq	%rbp, %rdi
	movq	%r13, %rbx
	call	*24(%rax)
	pxor	%xmm1, %xmm1
	subq	$1, %r12
	jne	.L370
	.p2align 4,,10
	.p2align 3
.L361:
	movq	120(%r14), %rdx
.L342:
	movq	-8(%rdx), %rbp
	leaq	-24(%rdx), %rax
	movq	%rax, 120(%r14)
	testq	%rbp, %rbp
	je	.L352
	movq	_ZL28__gthrw___pthread_key_createPjPFvPvE@GOTPCREL(%rip), %rbx
	testq	%rbx, %rbx
	jne	.L371
	movl	8(%rbp), %eax
	leal	-1(%rax), %edx
	movl	%edx, 8(%rbp)
.L354:
	cmpl	$1, %eax
	je	.L372
.L352:
	movq	%r14, %rdi
	call	_ZNK8asiodnp39IOHandler19IsAnySessionEnabledEv@PLT
	testb	%al, %al
	jne	.L327
	movq	(%r14), %rax
	movq	%r14, %rdi
	call	*48(%rax)
	movl	$1, %eax
.L327:
	popq	%rbx
	.cfi_remember_state
	.cfi_def_cfa_offset 40
	popq	%rbp
	.cfi_def_cfa_offset 32
	popq	%r12
	.cfi_def_cfa_offset 24
	popq	%r13
	.cfi_def_cfa_offset 16
	popq	%r14
	.cfi_def_cfa_offset 8
	ret
	.p2align 4,,10
	.p2align 3
.L368:
	.cfi_restore_state
	movl	$-1, %eax
	lock xaddl	%eax, 8(%rbp)
	jmp	.L346
	.p2align 4,,10
	.p2align 3
.L369:
	movl	$-1, %eax
	lock xaddl	%eax, 12(%rbp)
	jmp	.L349
	.p2align 4,,10
	.p2align 3
.L366:
	movabsq	$-6148914691236517205, %rcx
	movq	%rdx, %rax
	subq	%rbx, %rax
	sarq	$3, %rax
	imulq	%rcx, %rax
.L328:
	cmpq	$2, %rax
	je	.L334
	cmpq	$3, %rax
	je	.L335
	cmpq	$1, %rax
	je	.L373
.L358:
	xorl	%eax, %eax
.L375:
	popq	%rbx
	.cfi_remember_state
	.cfi_def_cfa_offset 40
	popq	%rbp
	.cfi_def_cfa_offset 32
	popq	%r12
	.cfi_def_cfa_offset 24
	popq	%r13
	.cfi_def_cfa_offset 16
	popq	%r14
	.cfi_def_cfa_offset 8
	ret
	.p2align 4,,10
	.p2align 3
.L372:
	.cfi_restore_state
	movq	0(%rbp), %rax
	movq	%rbp, %rdi
	call	*16(%rax)
	testq	%rbx, %rbx
	jne	.L374
	movl	12(%rbp), %eax
	leal	-1(%rax), %edx
	movl	%edx, 12(%rbp)
.L357:
	cmpl	$1, %eax
	jne	.L352
	movq	0(%rbp), %rax
	movq	%rbp, %rdi
	call	*24(%rax)
	jmp	.L352
.L373:
	movq	(%rsi), %rdi
.L339:
	cmpq	%rdi, 8(%rbx)
	je	.L329
	xorl	%eax, %eax
	jmp	.L375
.L335:
	movq	(%rsi), %rdi
	cmpq	%rdi, 8(%rbx)
	je	.L329
	addq	$24, %rbx
	jmp	.L338
.L334:
	movq	(%rsi), %rdi
.L338:
	cmpq	%rdi, 8(%rbx)
	je	.L329
	addq	$24, %rbx
	jmp	.L339
	.p2align 4,,10
	.p2align 3
.L363:
	addq	$24, %rbx
	jmp	.L329
	.p2align 4,,10
	.p2align 3
.L364:
	addq	$48, %rbx
	jmp	.L329
	.p2align 4,,10
	.p2align 3
.L365:
	addq	$72, %rbx
	jmp	.L329
	.p2align 4,,10
	.p2align 3
.L371:
	movl	$-1, %eax
	lock xaddl	%eax, 8(%rbp)
	jmp	.L354
.L374:
	movl	$-1, %eax
	lock xaddl	%eax, 12(%rbp)
	jmp	.L357
	.cfi_endproc
.LFE7733:
	.size	_ZN8asiodnp39IOHandler6RemoveERKSt10shared_ptrIN8opendnp312ILinkSessionEE, .-_ZN8asiodnp39IOHandler6RemoveERKSt10shared_ptrIN8opendnp312ILinkSessionEE
	.section	.text._ZNSt6vectorIN8asiodnp39IOHandler7SessionESaIS2_EED2Ev,"axG",@progbits,_ZNSt6vectorIN8asiodnp39IOHandler7SessionESaIS2_EED5Ev,comdat
	.align 2
	.p2align 4
	.weak	_ZNSt6vectorIN8asiodnp39IOHandler7SessionESaIS2_EED2Ev
	.type	_ZNSt6vectorIN8asiodnp39IOHandler7SessionESaIS2_EED2Ev, @function
_ZNSt6vectorIN8asiodnp39IOHandler7SessionESaIS2_EED2Ev:
.LFB8605:
	.cfi_startproc
	pushq	%r13
	.cfi_def_cfa_offset 16
	.cfi_offset 13, -16
	movq	%rdi, %r13
	pushq	%r12
	.cfi_def_cfa_offset 24
	.cfi_offset 12, -24
	pushq	%rbp
	.cfi_def_cfa_offset 32
	.cfi_offset 6, -32
	pushq	%rbx
	.cfi_def_cfa_offset 40
	.cfi_offset 3, -40
	subq	$8, %rsp
	.cfi_def_cfa_offset 48
	movq	8(%rdi), %rbx
	movq	(%rdi), %rbp
	cmpq	%rbp, %rbx
	je	.L377
	cmpq	$0, _ZL28__gthrw___pthread_key_createPjPFvPvE@GOTPCREL(%rip)
	je	.L384
	jmp	.L378
	.p2align 4,,10
	.p2align 3
.L381:
	addq	$24, %rbp
	cmpq	%rbp, %rbx
	je	.L383
.L384:
	movq	16(%rbp), %r12
	testq	%r12, %r12
	je	.L381
	movl	8(%r12), %eax
	leal	-1(%rax), %edx
	movl	%edx, 8(%r12)
	cmpl	$1, %eax
	jne	.L381
	movq	(%r12), %rax
	movq	%r12, %rdi
	call	*16(%rax)
	movl	12(%r12), %eax
	leal	-1(%rax), %edx
	movl	%edx, 12(%r12)
	cmpl	$1, %eax
	jne	.L381
	movq	(%r12), %rax
	addq	$24, %rbp
	movq	%r12, %rdi
	call	*24(%rax)
	cmpq	%rbp, %rbx
	jne	.L384
	.p2align 4,,10
	.p2align 3
.L383:
	movq	0(%r13), %rbp
.L377:
	testq	%rbp, %rbp
	je	.L376
	movq	16(%r13), %rsi
	addq	$8, %rsp
	.cfi_remember_state
	.cfi_def_cfa_offset 40
	movq	%rbp, %rdi
	popq	%rbx
	.cfi_def_cfa_offset 32
	subq	%rbp, %rsi
	popq	%rbp
	.cfi_def_cfa_offset 24
	popq	%r12
	.cfi_def_cfa_offset 16
	popq	%r13
	.cfi_def_cfa_offset 8
	jmp	_ZdlPvm@PLT
	.p2align 4,,10
	.p2align 3
.L393:
	.cfi_restore_state
	movq	(%r12), %rax
	movq	%r12, %rdi
	call	*16(%rax)
	lock subl	$1, 12(%r12)
	je	.L392
	.p2align 4,,10
	.p2align 3
.L386:
	addq	$24, %rbp
	cmpq	%rbp, %rbx
	je	.L383
.L378:
	movq	16(%rbp), %r12
	testq	%r12, %r12
	je	.L386
	lock subl	$1, 8(%r12)
	jne	.L386
	jmp	.L393
	.p2align 4,,10
	.p2align 3
.L376:
	addq	$8, %rsp
	.cfi_remember_state
	.cfi_def_cfa_offset 40
	popq	%rbx
	.cfi_def_cfa_offset 32
	popq	%rbp
	.cfi_def_cfa_offset 24
	popq	%r12
	.cfi_def_cfa_offset 16
	popq	%r13
	.cfi_def_cfa_offset 8
	ret
	.p2align 4,,10
	.p2align 3
.L392:
	.cfi_restore_state
	movq	(%r12), %rax
	movq	%r12, %rdi
	call	*24(%rax)
	jmp	.L386
	.cfi_endproc
.LFE8605:
	.size	_ZNSt6vectorIN8asiodnp39IOHandler7SessionESaIS2_EED2Ev, .-_ZNSt6vectorIN8asiodnp39IOHandler7SessionESaIS2_EED2Ev
	.weak	_ZNSt6vectorIN8asiodnp39IOHandler7SessionESaIS2_EED1Ev
	.set	_ZNSt6vectorIN8asiodnp39IOHandler7SessionESaIS2_EED1Ev,_ZNSt6vectorIN8asiodnp39IOHandler7SessionESaIS2_EED2Ev
	.section	.text._ZNSt5dequeIN8asiodnp39IOHandler12TransmissionESaIS2_EED2Ev,"axG",@progbits,_ZNSt5dequeIN8asiodnp39IOHandler12TransmissionESaIS2_EED5Ev,comdat
	.align 2
	.p2align 4
	.weak	_ZNSt5dequeIN8asiodnp39IOHandler12TransmissionESaIS2_EED2Ev
	.type	_ZNSt5dequeIN8asiodnp39IOHandler12TransmissionESaIS2_EED2Ev, @function
_ZNSt5dequeIN8asiodnp39IOHandler12TransmissionESaIS2_EED2Ev:
.LFB8608:
	.cfi_startproc
	pushq	%r12
	.cfi_def_cfa_offset 16
	.cfi_offset 12, -16
	pushq	%rbp
	.cfi_def_cfa_offset 24
	.cfi_offset 6, -24
	movq	%rdi, %rbp
	pushq	%rbx
	.cfi_def_cfa_offset 32
	.cfi_offset 3, -32
	subq	$80, %rsp
	.cfi_def_cfa_offset 112
	movdqu	48(%rdi), %xmm0
	movdqu	64(%rdi), %xmm1
	movq	%fs:40, %rax
	movq	%rax, 72(%rsp)
	xorl	%eax, %eax
	movdqu	16(%rdi), %xmm2
	movdqu	32(%rdi), %xmm3
	movq	%rsp, %rsi
	leaq	32(%rsp), %rdi
	movaps	%xmm0, (%rsp)
	movaps	%xmm1, 16(%rsp)
	movaps	%xmm2, 32(%rsp)
	movaps	%xmm3, 48(%rsp)
	call	_ZNSt5dequeIN8asiodnp39IOHandler12TransmissionESaIS2_EE19_M_destroy_data_auxESt15_Deque_iteratorIS2_RS2_PS2_ES8_.isra.0
	movq	0(%rbp), %rdi
	testq	%rdi, %rdi
	je	.L394
	movq	72(%rbp), %rax
	movq	40(%rbp), %rbx
	leaq	8(%rax), %r12
	cmpq	%rbx, %r12
	jbe	.L396
	.p2align 4,,10
	.p2align 3
.L397:
	movq	(%rbx), %rdi
	movl	$512, %esi
	addq	$8, %rbx
	call	_ZdlPvm@PLT
	cmpq	%rbx, %r12
	ja	.L397
	movq	0(%rbp), %rdi
.L396:
	movq	72(%rsp), %rax
	subq	%fs:40, %rax
	jne	.L402
	movq	8(%rbp), %rsi
	addq	$80, %rsp
	.cfi_remember_state
	.cfi_def_cfa_offset 32
	popq	%rbx
	.cfi_def_cfa_offset 24
	popq	%rbp
	.cfi_def_cfa_offset 16
	salq	$3, %rsi
	popq	%r12
	.cfi_def_cfa_offset 8
	jmp	_ZdlPvm@PLT
	.p2align 4,,10
	.p2align 3
.L394:
	.cfi_restore_state
	movq	72(%rsp), %rax
	subq	%fs:40, %rax
	jne	.L402
	addq	$80, %rsp
	.cfi_remember_state
	.cfi_def_cfa_offset 32
	popq	%rbx
	.cfi_def_cfa_offset 24
	popq	%rbp
	.cfi_def_cfa_offset 16
	popq	%r12
	.cfi_def_cfa_offset 8
	ret
.L402:
	.cfi_restore_state
	call	__stack_chk_fail@PLT
	.cfi_endproc
.LFE8608:
	.size	_ZNSt5dequeIN8asiodnp39IOHandler12TransmissionESaIS2_EED2Ev, .-_ZNSt5dequeIN8asiodnp39IOHandler12TransmissionESaIS2_EED2Ev
	.weak	_ZNSt5dequeIN8asiodnp39IOHandler12TransmissionESaIS2_EED1Ev
	.set	_ZNSt5dequeIN8asiodnp39IOHandler12TransmissionESaIS2_EED1Ev,_ZNSt5dequeIN8asiodnp39IOHandler12TransmissionESaIS2_EED2Ev
	.section	.text._ZNSt16_Sp_counted_baseILN9__gnu_cxx12_Lock_policyE2EE10_M_releaseEv,"axG",@progbits,_ZNSt16_Sp_counted_baseILN9__gnu_cxx12_Lock_policyE2EE10_M_releaseEv,comdat
	.align 2
	.p2align 4
	.weak	_ZNSt16_Sp_counted_baseILN9__gnu_cxx12_Lock_policyE2EE10_M_releaseEv
	.type	_ZNSt16_Sp_counted_baseILN9__gnu_cxx12_Lock_policyE2EE10_M_releaseEv, @function
_ZNSt16_Sp_counted_baseILN9__gnu_cxx12_Lock_policyE2EE10_M_releaseEv:
.LFB8794:
	.cfi_startproc
	pushq	%rbp
	.cfi_def_cfa_offset 16
	.cfi_offset 6, -16
	movq	%rdi, %rbp
	pushq	%rbx
	.cfi_def_cfa_offset 24
	.cfi_offset 3, -24
	subq	$8, %rsp
	.cfi_def_cfa_offset 32
	movq	_ZL28__gthrw___pthread_key_createPjPFvPvE@GOTPCREL(%rip), %rbx
	testq	%rbx, %rbx
	jne	.L412
	movl	8(%rdi), %eax
	leal	-1(%rax), %edx
	movl	%edx, 8(%rdi)
.L405:
	cmpl	$1, %eax
	je	.L413
.L403:
	addq	$8, %rsp
	.cfi_remember_state
	.cfi_def_cfa_offset 24
	popq	%rbx
	.cfi_def_cfa_offset 16
	popq	%rbp
	.cfi_def_cfa_offset 8
	ret
	.p2align 4,,10
	.p2align 3
.L413:
	.cfi_restore_state
	movq	0(%rbp), %rax
	movq	%rbp, %rdi
	call	*16(%rax)
	testq	%rbx, %rbx
	jne	.L414
	movl	12(%rbp), %eax
	leal	-1(%rax), %edx
	movl	%edx, 12(%rbp)
.L409:
	cmpl	$1, %eax
	jne	.L403
	movq	0(%rbp), %rax
	movq	%rbp, %rdi
	movq	24(%rax), %rax
	addq	$8, %rsp
	.cfi_remember_state
	.cfi_def_cfa_offset 24
	popq	%rbx
	.cfi_def_cfa_offset 16
	popq	%rbp
	.cfi_def_cfa_offset 8
	jmp	*%rax
	.p2align 4,,10
	.p2align 3
.L412:
	.cfi_restore_state
	movl	$-1, %eax
	lock xaddl	%eax, 8(%rdi)
	jmp	.L405
	.p2align 4,,10
	.p2align 3
.L414:
	movl	$-1, %eax
	lock xaddl	%eax, 12(%rbp)
	jmp	.L409
	.cfi_endproc
.LFE8794:
	.size	_ZNSt16_Sp_counted_baseILN9__gnu_cxx12_Lock_policyE2EE10_M_releaseEv, .-_ZNSt16_Sp_counted_baseILN9__gnu_cxx12_Lock_policyE2EE10_M_releaseEv
	.section	.text.unlikely,"ax",@progbits
	.align 2
.LCOLDB25:
	.text
.LHOTB25:
	.align 2
	.p2align 4
	.globl	_ZN8asiodnp39IOHandlerC2ERKN7openpal6LoggerERKSt10shared_ptrINS_16IChannelListenerEE
	.type	_ZN8asiodnp39IOHandlerC2ERKN7openpal6LoggerERKSt10shared_ptrINS_16IChannelListenerEE, @function
_ZN8asiodnp39IOHandlerC2ERKN7openpal6LoggerERKSt10shared_ptrINS_16IChannelListenerEE:
.LFB7716:
	.cfi_startproc
	.cfi_personality 0x9b,DW.ref.__gxx_personality_v0
	.cfi_lsda 0x1b,.LLSDA7716
	pushq	%r13
	.cfi_def_cfa_offset 16
	.cfi_offset 13, -16
	pxor	%xmm0, %xmm0
	pushq	%r12
	.cfi_def_cfa_offset 24
	.cfi_offset 12, -24
	movq	%rsi, %r12
	pushq	%rbp
	.cfi_def_cfa_offset 32
	.cfi_offset 6, -32
	pushq	%rbx
	.cfi_def_cfa_offset 40
	.cfi_offset 3, -40
	movq	%rdi, %rbx
	subq	$8, %rsp
	.cfi_def_cfa_offset 48
	movq	_ZTVN8asiodnp39IOHandlerE@GOTPCREL(%rip), %rax
	movups	%xmm0, 16(%rdi)
	leaq	104(%rax), %rcx
	addq	$16, %rax
	movq	%rax, %xmm0
	movq	(%rsi), %rax
	movq	%rcx, %xmm1
	punpcklqdq	%xmm1, %xmm0
	movq	%rax, 32(%rdi)
	movq	8(%rsi), %rax
	movups	%xmm0, (%rdi)
	movq	%rax, 40(%rdi)
	testq	%rax, %rax
	je	.L416
	cmpq	$0, _ZL28__gthrw___pthread_key_createPjPFvPvE@GOTPCREL(%rip)
	jne	.L460
	addl	$1, 8(%rax)
.L416:
	movq	16(%r12), %rax
	movq	%rax, 48(%rbx)
	movq	24(%r12), %rax
	movq	%rax, 56(%rbx)
	testq	%rax, %rax
	je	.L418
	cmpq	$0, _ZL28__gthrw___pthread_key_createPjPFvPvE@GOTPCREL(%rip)
	jne	.L461
	addl	$1, 8(%rax)
.L418:
	movq	(%rdx), %rax
	movq	%rax, 64(%rbx)
	movq	8(%rdx), %rax
	movq	%rax, 72(%rbx)
	testq	%rax, %rax
	je	.L420
	cmpq	$0, _ZL28__gthrw___pthread_key_createPjPFvPvE@GOTPCREL(%rip)
	jne	.L462
	addl	$1, 8(%rax)
.L420:
	pxor	%xmm0, %xmm0
	movb	$0, 104(%rbx)
	movl	$64, %edi
	leaq	112(%rbx), %r13
	movq	$0, 96(%rbx)
	movq	$8, 144(%rbx)
	movups	%xmm0, 80(%rbx)
	pxor	%xmm0, %xmm0
	movups	%xmm0, 112(%rbx)
	movups	%xmm0, 128(%rbx)
	movups	%xmm0, 152(%rbx)
	movups	%xmm0, 168(%rbx)
	movups	%xmm0, 184(%rbx)
	movups	%xmm0, 200(%rbx)
.LEHB0:
	call	_Znwm@PLT
.LEHE0:
	movq	144(%rbx), %rdx
	movq	%rax, 136(%rbx)
	movl	$512, %edi
	leaq	-4(,%rdx,4), %rbp
	andq	$-8, %rbp
	addq	%rax, %rbp
.LEHB1:
	call	_Znwm@PLT
.LEHE1:
	leaq	512(%rax), %rdx
	movq	%rax, 0(%rbp)
	movq	%r12, %rsi
	movq	%rax, %xmm0
	movq	%rbp, 176(%rbx)
	punpcklqdq	%xmm0, %xmm0
	movq	%rbp, 208(%rbx)
	leaq	216(%rbx), %rbp
	movq	%rdx, 168(%rbx)
	movq	%rbp, %rdi
	movq	%rax, 192(%rbx)
	movq	%rdx, 200(%rbx)
	movq	%rax, 184(%rbx)
	movups	%xmm0, 152(%rbx)
.LEHB2:
	call	_ZN8opendnp315LinkLayerParserC1ERKN7openpal6LoggerE@PLT
.LEHE2:
	pxor	%xmm0, %xmm0
	leaq	648(%rbx), %rdi
	movups	%xmm0, 632(%rbx)
.LEHB3:
	call	_ZN8opendnp317MultidropTaskLockC1Ev@PLT
.LEHE3:
	addq	$8, %rsp
	.cfi_remember_state
	.cfi_def_cfa_offset 40
	popq	%rbx
	.cfi_def_cfa_offset 32
	popq	%rbp
	.cfi_def_cfa_offset 24
	popq	%r12
	.cfi_def_cfa_offset 16
	popq	%r13
	.cfi_def_cfa_offset 8
	ret
	.p2align 4,,10
	.p2align 3
.L460:
	.cfi_restore_state
	lock addl	$1, 8(%rax)
	jmp	.L416
	.p2align 4,,10
	.p2align 3
.L461:
	lock addl	$1, 8(%rax)
	jmp	.L418
	.p2align 4,,10
	.p2align 3
.L462:
	lock addl	$1, 8(%rax)
	jmp	.L420
.L436:
	movq	%rax, %rbp
	jmp	.L426
.L438:
	movq	%rax, %r12
	jmp	.L427
.L437:
	movq	%rax, %rbp
	jmp	.L429
.L440:
	movq	%rax, %rdi
	jmp	.L423
	.globl	__gxx_personality_v0
	.section	.gcc_except_table,"a",@progbits
	.align 4
.LLSDA7716:
	.byte	0xff
	.byte	0x9b
	.uleb128 .LLSDATT7716-.LLSDATTD7716
.LLSDATTD7716:
	.byte	0x1
	.uleb128 .LLSDACSE7716-.LLSDACSB7716
.LLSDACSB7716:
	.uleb128 .LEHB0-.LFB7716
	.uleb128 .LEHE0-.LEHB0
	.uleb128 .L436-.LFB7716
	.uleb128 0
	.uleb128 .LEHB1-.LFB7716
	.uleb128 .LEHE1-.LEHB1
	.uleb128 .L440-.LFB7716
	.uleb128 0x1
	.uleb128 .LEHB2-.LFB7716
	.uleb128 .LEHE2-.LEHB2
	.uleb128 .L437-.LFB7716
	.uleb128 0
	.uleb128 .LEHB3-.LFB7716
	.uleb128 .LEHE3-.LEHB3
	.uleb128 .L438-.LFB7716
	.uleb128 0
.LLSDACSE7716:
	.byte	0x1
	.byte	0
	.align 4
	.long	0

.LLSDATT7716:
	.text
	.cfi_endproc
	.section	.text.unlikely
	.cfi_startproc
	.cfi_personality 0x9b,DW.ref.__gxx_personality_v0
	.cfi_lsda 0x1b,.LLSDAC7716
	.type	_ZN8asiodnp39IOHandlerC2ERKN7openpal6LoggerERKSt10shared_ptrINS_16IChannelListenerEE.cold, @function
_ZN8asiodnp39IOHandlerC2ERKN7openpal6LoggerERKSt10shared_ptrINS_16IChannelListenerEE.cold:
.LFSB7716:
	nop
.L439:
	.cfi_def_cfa_offset 48
	.cfi_offset 3, -40
	.cfi_offset 6, -32
	.cfi_offset 12, -24
	.cfi_offset 13, -16
	movq	%rax, %rbp
	call	__cxa_end_catch@PLT
.L426:
	movq	%r13, %rdi
	call	_ZNSt6vectorIN8asiodnp39IOHandler7SessionESaIS2_EED1Ev@PLT
	movq	72(%rbx), %rdi
	testq	%rdi, %rdi
	je	.L430
	call	_ZNSt16_Sp_counted_baseILN9__gnu_cxx12_Lock_policyE2EE10_M_releaseEv@PLT
.L430:
	leaq	32(%rbx), %rdi
	call	_ZN7openpal6LoggerD1Ev@PLT
	movq	24(%rbx), %rdi
	testq	%rdi, %rdi
	je	.L432
	cmpq	$0, _ZL28__gthrw___pthread_key_createPjPFvPvE@GOTPCREL(%rip)
	leaq	12(%rdi), %rdx
	je	.L433
	orl	$-1, %eax
	lock xaddl	%eax, (%rdx)
.L434:
	subl	$1, %eax
	jne	.L432
	movq	(%rdi), %rax
	call	*24(%rax)
.L432:
	movq	%rbp, %rdi
.LEHB4:
	call	_Unwind_Resume@PLT
.LEHE4:
.L427:
	movq	640(%rbx), %rdi
	testq	%rdi, %rdi
	je	.L428
	call	_ZNSt16_Sp_counted_baseILN9__gnu_cxx12_Lock_policyE2EE10_M_releaseEv@PLT
.L428:
	movq	%rbp, %rdi
	movq	%r12, %rbp
	call	_ZN7openpal6LoggerD1Ev@PLT
.L429:
	leaq	136(%rbx), %rdi
	call	_ZNSt5dequeIN8asiodnp39IOHandler12TransmissionESaIS2_EED1Ev@PLT
	jmp	.L426
.L423:
	call	__cxa_begin_catch@PLT
.LEHB5:
	call	__cxa_rethrow@PLT
.LEHE5:
.L433:
	movl	12(%rdi), %eax
	leal	-1(%rax), %edx
	movl	%edx, 12(%rdi)
	jmp	.L434
.L441:
	movq	%rax, %rbp
	call	__cxa_end_catch@PLT
	movq	%rbp, %rdi
	call	__cxa_begin_catch@PLT
	movq	144(%rbx), %rax
	movq	136(%rbx), %rdi
	leaq	0(,%rax,8), %rsi
	call	_ZdlPvm@PLT
	movq	$0, 136(%rbx)
	movq	$0, 144(%rbx)
.LEHB6:
	call	__cxa_rethrow@PLT
.LEHE6:
	.cfi_endproc
.LFE7716:
	.section	.gcc_except_table
	.align 4
.LLSDAC7716:
	.byte	0xff
	.byte	0x9b
	.uleb128 .LLSDATTC7716-.LLSDATTDC7716
.LLSDATTDC7716:
	.byte	0x1
	.uleb128 .LLSDACSEC7716-.LLSDACSBC7716
.LLSDACSBC7716:
	.uleb128 .LEHB4-.LCOLDB25
	.uleb128 .LEHE4-.LEHB4
	.uleb128 0
	.uleb128 0
	.uleb128 .LEHB5-.LCOLDB25
	.uleb128 .LEHE5-.LEHB5
	.uleb128 .L441-.LCOLDB25
	.uleb128 0x1
	.uleb128 .LEHB6-.LCOLDB25
	.uleb128 .LEHE6-.LEHB6
	.uleb128 .L439-.LCOLDB25
	.uleb128 0
.LLSDACSEC7716:
	.byte	0x1
	.byte	0
	.align 4
	.long	0

.LLSDATTC7716:
	.section	.text.unlikely
	.text
	.size	_ZN8asiodnp39IOHandlerC2ERKN7openpal6LoggerERKSt10shared_ptrINS_16IChannelListenerEE, .-_ZN8asiodnp39IOHandlerC2ERKN7openpal6LoggerERKSt10shared_ptrINS_16IChannelListenerEE
	.section	.text.unlikely
	.size	_ZN8asiodnp39IOHandlerC2ERKN7openpal6LoggerERKSt10shared_ptrINS_16IChannelListenerEE.cold, .-_ZN8asiodnp39IOHandlerC2ERKN7openpal6LoggerERKSt10shared_ptrINS_16IChannelListenerEE.cold
.LCOLDE25:
	.text
.LHOTE25:
	.globl	_ZN8asiodnp39IOHandlerC1ERKN7openpal6LoggerERKSt10shared_ptrINS_16IChannelListenerEE
	.set	_ZN8asiodnp39IOHandlerC1ERKN7openpal6LoggerERKSt10shared_ptrINS_16IChannelListenerEE,_ZN8asiodnp39IOHandlerC2ERKN7openpal6LoggerERKSt10shared_ptrINS_16IChannelListenerEE
	.section	.text.unlikely
	.align 2
.LCOLDB26:
	.text
.LHOTB26:
	.align 2
	.p2align 4
	.type	_ZN7asiopal13IAsyncChannel16CheckForShutdownESt10shared_ptrIS0_E.isra.0, @function
_ZN7asiopal13IAsyncChannel16CheckForShutdownESt10shared_ptrIS0_E.isra.0:
.LFB10448:
	.cfi_startproc
	.cfi_personality 0x9b,DW.ref.__gxx_personality_v0
	.cfi_lsda 0x1b,.LLSDA10448
	pushq	%r14
	.cfi_def_cfa_offset 16
	.cfi_offset 14, -16
	pushq	%r13
	.cfi_def_cfa_offset 24
	.cfi_offset 13, -24
	pushq	%r12
	.cfi_def_cfa_offset 32
	.cfi_offset 12, -32
	pushq	%rbp
	.cfi_def_cfa_offset 40
	.cfi_offset 6, -40
	pushq	%rbx
	.cfi_def_cfa_offset 48
	.cfi_offset 3, -48
	subq	$48, %rsp
	.cfi_def_cfa_offset 96
	movq	(%rdi), %rbx
	movq	%fs:40, %rax
	movq	%rax, 40(%rsp)
	xorl	%eax, %eax
	cmpb	$0, 57(%rbx)
	jne	.L464
	cmpb	$0, 58(%rbx)
	jne	.L464
	pxor	%xmm0, %xmm0
	movq	48(%rbx), %r12
	movups	%xmm0, 40(%rbx)
.L545:
	testq	%r12, %r12
	je	.L463
	movq	_ZL28__gthrw___pthread_key_createPjPFvPvE@GOTPCREL(%rip), %rbp
	testq	%rbp, %rbp
	jne	.L546
	movl	8(%r12), %eax
	leal	-1(%rax), %edx
	movl	%edx, 8(%r12)
.L504:
	cmpl	$1, %eax
	je	.L547
.L463:
	movq	40(%rsp), %rax
	subq	%fs:40, %rax
	jne	.L536
	addq	$48, %rsp
	.cfi_remember_state
	.cfi_def_cfa_offset 48
	popq	%rbx
	.cfi_def_cfa_offset 40
	popq	%rbp
	.cfi_def_cfa_offset 32
	popq	%r12
	.cfi_def_cfa_offset 24
	popq	%r13
	.cfi_def_cfa_offset 16
	popq	%r14
	.cfi_def_cfa_offset 8
	ret
	.p2align 4,,10
	.p2align 3
.L464:
	.cfi_restore_state
	movq	8(%rdi), %r12
	testq	%r12, %r12
	je	.L466
	movq	_ZL28__gthrw___pthread_key_createPjPFvPvE@GOTPCREL(%rip), %rbp
	leaq	8(%r12), %rdx
	testq	%rbp, %rbp
	jne	.L548
	addl	$1, 8(%r12)
	movq	%rbx, %rax
.L468:
	movq	24(%rax), %r13
	testq	%rbp, %rbp
	jne	.L549
	addl	$1, 8(%r12)
	movq	%r12, 8(%rsp)
.L469:
	data16	leaq	_ZN4asio6detail15keyword_tss_ptrINS0_10call_stackINS0_15task_io_serviceENS0_27task_io_service_thread_infoEE7contextEE6value_E@tlsgd(%rip), %rdi
	.value	0x6666
	rex64
	call	__tls_get_addr@PLT
	movq	40(%r13), %r14
	movq	(%rax), %rax
	testq	%rax, %rax
	je	.L470
	movq	8(%rax), %rax
	testq	%rax, %rax
	je	.L470
	movq	(%rax), %rbp
	testq	%rbp, %rbp
	je	.L470
	movq	$0, (%rax)
	movzbl	0(%rbp), %eax
	cmpb	$39, %al
	jbe	.L471
	movb	%al, 40(%rbp)
	jmp	.L472
	.p2align 4,,10
	.p2align 3
.L471:
	movq	%rbp, %rdi
	call	_ZdlPv@PLT
.L470:
	movl	$41, %edi
.LEHB7:
	call	_Znwm@PLT
.LEHE7:
	movb	$40, 40(%rax)
	movq	%rax, %rbp
.L472:
	movq	_ZN4asio6detail18completion_handlerIZN7asiopal13IAsyncChannel16CheckForShutdownESt10shared_ptrIS3_EEUlvE_E11do_completeEPNS0_15task_io_serviceEPNS0_25task_io_service_operationERKSt10error_codem@GOTPCREL(%rip), %rax
	movq	%rbx, %xmm0
	movq	$0, 0(%rbp)
	movhps	8(%rsp), %xmm0
	movl	$0, 16(%rbp)
	movq	%rax, 8(%rbp)
	movups	%xmm0, 24(%rbp)
	movq	48(%r13), %rax
	leaq	24(%rax), %rdi
	call	pthread_mutex_lock@PLT
	movq	48(%r13), %rdi
	cmpb	$0, 64(%rdi)
	je	.L473
	cmpq	$0, 80(%rdi)
	movq	$0, 0(%rbp)
	je	.L474
	movq	80(%rdi), %rax
	movq	%rbp, (%rax)
	movq	%rbp, 80(%rdi)
.L475:
	addq	$24, %rdi
	call	pthread_mutex_unlock@PLT
	jmp	.L545
	.p2align 4,,10
	.p2align 3
.L473:
	movb	$1, 64(%rdi)
	addq	$24, %rdi
	call	pthread_mutex_unlock@PLT
	movq	48(%r13), %r13
	movq	$0, 0(%rbp)
	cmpq	$0, 96(%r13)
	je	.L477
	movq	96(%r13), %rax
	movq	%rbp, (%rax)
	movq	%rbp, 96(%r13)
.L478:
	movq	40(%r14), %rbx
	cmpb	$0, 40(%rbx)
	jne	.L550
.L479:
	lock addq	$1, 184(%rbx)
	leaq	48(%rbx), %rbp
	movq	%rbp, %rdi
	call	pthread_mutex_lock@PLT
	cmpq	$0, 200(%rbx)
	movq	$0, 0(%r13)
	je	.L484
	movq	200(%rbx), %rax
	movq	%r13, (%rax)
	movq	%r13, 200(%rbx)
.L485:
	movq	136(%rbx), %rax
	orq	$1, %rax
	movq	%rax, 136(%rbx)
	cmpq	$1, %rax
	je	.L486
	movq	%rbp, %rdi
	call	pthread_mutex_unlock@PLT
	leaq	88(%rbx), %rdi
	call	pthread_cond_signal@PLT
	jmp	.L545
	.p2align 4,,10
	.p2align 3
.L466:
	movq	$0, 8(%rsp)
	movq	24(%rbx), %r13
	jmp	.L469
	.p2align 4,,10
	.p2align 3
.L477:
	movq	%rbp, %xmm0
	punpcklqdq	%xmm0, %xmm0
	movups	%xmm0, 88(%r13)
	jmp	.L478
	.p2align 4,,10
	.p2align 3
.L547:
	movq	(%r12), %rax
	movq	%r12, %rdi
	call	*16(%rax)
	testq	%rbp, %rbp
	jne	.L551
	movl	12(%r12), %eax
	leal	-1(%rax), %edx
	movl	%edx, 12(%r12)
.L507:
	cmpl	$1, %eax
	jne	.L463
	movq	40(%rsp), %rax
	subq	%fs:40, %rax
	jne	.L536
	movq	(%r12), %rax
	movq	%r12, %rdi
	movq	24(%rax), %rax
	addq	$48, %rsp
	.cfi_remember_state
	.cfi_def_cfa_offset 48
	popq	%rbx
	.cfi_def_cfa_offset 40
	popq	%rbp
	.cfi_def_cfa_offset 32
	popq	%r12
	.cfi_def_cfa_offset 24
	popq	%r13
	.cfi_def_cfa_offset 16
	popq	%r14
	.cfi_def_cfa_offset 8
	jmp	*%rax
	.p2align 4,,10
	.p2align 3
.L546:
	.cfi_restore_state
	movl	$-1, %eax
	lock xaddl	%eax, 8(%r12)
	jmp	.L504
	.p2align 4,,10
	.p2align 3
.L550:
	data16	leaq	_ZN4asio6detail15keyword_tss_ptrINS0_10call_stackINS0_15task_io_serviceENS0_27task_io_service_thread_infoEE7contextEE6value_E@tlsgd(%rip), %rdi
	.value	0x6666
	rex64
	call	__tls_get_addr@PLT
	movq	(%rax), %rax
	testq	%rax, %rax
	jne	.L482
	jmp	.L479
	.p2align 4,,10
	.p2align 3
.L480:
	movq	16(%rax), %rax
	testq	%rax, %rax
	je	.L479
.L482:
	cmpq	(%rax), %rbx
	jne	.L480
	movq	8(%rax), %rax
	testq	%rax, %rax
	je	.L479
	addq	$1, 24(%rax)
	cmpq	$0, 16(%rax)
	movq	$0, 0(%r13)
	je	.L483
	movq	16(%rax), %rdx
	movq	%r13, (%rdx)
	movq	%r13, 16(%rax)
	jmp	.L545
	.p2align 4,,10
	.p2align 3
.L474:
	movq	%rbp, %xmm0
	punpcklqdq	%xmm0, %xmm0
	movups	%xmm0, 72(%rdi)
	jmp	.L475
	.p2align 4,,10
	.p2align 3
.L486:
	cmpb	$0, 176(%rbx)
	jne	.L488
	movq	144(%rbx), %rax
	testq	%rax, %rax
	je	.L488
	leaq	88(%rax), %rdx
	movb	$1, 176(%rbx)
	movl	96(%rax), %edi
	leaq	28(%rsp), %rcx
	movq	%rdx, 32(%rsp)
	movl	88(%rax), %edx
	movl	$3, %esi
	movl	$-2147483639, 28(%rsp)
	call	epoll_ctl@PLT
.L488:
	movq	%rbp, %rdi
	call	pthread_mutex_unlock@PLT
	jmp	.L545
	.p2align 4,,10
	.p2align 3
.L549:
	lock addl	$1, (%rdx)
	movq	%r12, 8(%rsp)
	jmp	.L469
	.p2align 4,,10
	.p2align 3
.L548:
	lock addl	$1, (%rdx)
	movq	(%rdi), %rax
	jmp	.L468
	.p2align 4,,10
	.p2align 3
.L551:
	movl	$-1, %eax
	lock xaddl	%eax, 12(%r12)
	jmp	.L507
	.p2align 4,,10
	.p2align 3
.L484:
	movq	%r13, %xmm0
	punpcklqdq	%xmm0, %xmm0
	movups	%xmm0, 192(%rbx)
	jmp	.L485
	.p2align 4,,10
	.p2align 3
.L483:
	movq	%r13, %xmm0
	punpcklqdq	%xmm0, %xmm0
	movups	%xmm0, 8(%rax)
	jmp	.L545
.L536:
	call	__stack_chk_fail@PLT
.L512:
	movq	%rax, %rbp
	jmp	.L491
	.section	.gcc_except_table
.LLSDA10448:
	.byte	0xff
	.byte	0xff
	.byte	0x1
	.uleb128 .LLSDACSE10448-.LLSDACSB10448
.LLSDACSB10448:
	.uleb128 .LEHB7-.LFB10448
	.uleb128 .LEHE7-.LEHB7
	.uleb128 .L512-.LFB10448
	.uleb128 0
.LLSDACSE10448:
	.text
	.cfi_endproc
	.section	.text.unlikely
	.cfi_startproc
	.cfi_personality 0x9b,DW.ref.__gxx_personality_v0
	.cfi_lsda 0x1b,.LLSDAC10448
	.type	_ZN7asiopal13IAsyncChannel16CheckForShutdownESt10shared_ptrIS0_E.isra.0.cold, @function
_ZN7asiopal13IAsyncChannel16CheckForShutdownESt10shared_ptrIS0_E.isra.0.cold:
.LFSB10448:
.L491:
	.cfi_def_cfa_offset 96
	.cfi_offset 3, -48
	.cfi_offset 6, -40
	.cfi_offset 12, -32
	.cfi_offset 13, -24
	.cfi_offset 14, -16
	cmpq	$0, 8(%rsp)
	je	.L492
	movq	8(%rsp), %rdi
	call	_ZNSt16_Sp_counted_baseILN9__gnu_cxx12_Lock_policyE2EE10_M_releaseEv@PLT
.L492:
	testq	%r12, %r12
	je	.L494
	movq	%r12, %rdi
	call	_ZNSt16_Sp_counted_baseILN9__gnu_cxx12_Lock_policyE2EE10_M_releaseEv@PLT
.L494:
	movq	%rbp, %rdi
.LEHB8:
	call	_Unwind_Resume@PLT
.LEHE8:
	.cfi_endproc
.LFE10448:
	.section	.gcc_except_table
.LLSDAC10448:
	.byte	0xff
	.byte	0xff
	.byte	0x1
	.uleb128 .LLSDACSEC10448-.LLSDACSBC10448
.LLSDACSBC10448:
	.uleb128 .LEHB8-.LCOLDB26
	.uleb128 .LEHE8-.LEHB8
	.uleb128 0
	.uleb128 0
.LLSDACSEC10448:
	.section	.text.unlikely
	.text
	.size	_ZN7asiopal13IAsyncChannel16CheckForShutdownESt10shared_ptrIS0_E.isra.0, .-_ZN7asiopal13IAsyncChannel16CheckForShutdownESt10shared_ptrIS0_E.isra.0
	.section	.text.unlikely
	.size	_ZN7asiopal13IAsyncChannel16CheckForShutdownESt10shared_ptrIS0_E.isra.0.cold, .-_ZN7asiopal13IAsyncChannel16CheckForShutdownESt10shared_ptrIS0_E.isra.0.cold
.LCOLDE26:
	.text
.LHOTE26:
	.section	.text.unlikely
	.align 2
.LCOLDB27:
	.text
.LHOTB27:
	.align 2
	.p2align 4
	.globl	_ZN8asiodnp39IOHandler5ResetEv
	.type	_ZN8asiodnp39IOHandler5ResetEv, @function
_ZN8asiodnp39IOHandler5ResetEv:
.LFB7757:
	.cfi_startproc
	.cfi_personality 0x9b,DW.ref.__gxx_personality_v0
	.cfi_lsda 0x1b,.LLSDA7757
	pushq	%r15
	.cfi_def_cfa_offset 16
	.cfi_offset 15, -16
	pushq	%r14
	.cfi_def_cfa_offset 24
	.cfi_offset 14, -24
	pushq	%r13
	.cfi_def_cfa_offset 32
	.cfi_offset 13, -32
	pushq	%r12
	.cfi_def_cfa_offset 40
	.cfi_offset 12, -40
	pushq	%rbp
	.cfi_def_cfa_offset 48
	.cfi_offset 6, -48
	pushq	%rbx
	.cfi_def_cfa_offset 56
	.cfi_offset 3, -56
	movq	%rdi, %rbx
	subq	$104, %rsp
	.cfi_def_cfa_offset 160
	movq	632(%rdi), %r12
	movq	%fs:40, %rax
	movq	%rax, 88(%rsp)
	xorl	%eax, %eax
	testq	%r12, %r12
	je	.L636
	cmpb	$0, 56(%r12)
	jne	.L637
	movq	(%r12), %rax
	movb	$1, 56(%r12)
	movq	%r12, %rdi
.LEHB9:
	call	*32(%rax)
	movq	16(%r12), %rbp
	testq	%rbp, %rbp
	je	.L557
	movl	8(%rbp), %eax
	leaq	8(%rbp), %r15
.L559:
	testl	%eax, %eax
	je	.L557
	leal	1(%rax), %edx
	lock cmpxchgl	%edx, (%r15)
	jne	.L559
	movq	8(%r12), %rax
	movq	24(%r12), %r13
	movq	_ZL28__gthrw___pthread_key_createPjPFvPvE@GOTPCREL(%rip), %r12
	movq	%rax, (%rsp)
	testq	%r12, %r12
	jne	.L638
	addl	$1, 8(%rbp)
.L561:
	movq	40(%r13), %rax
	movq	%rax, 8(%rsp)
	data16	leaq	_ZN4asio6detail15keyword_tss_ptrINS0_10call_stackINS0_15task_io_serviceENS0_27task_io_service_thread_infoEE7contextEE6value_E@tlsgd(%rip), %rdi
	.value	0x6666
	rex64
	call	__tls_get_addr@PLT
	movq	(%rax), %rax
	testq	%rax, %rax
	je	.L562
	movq	8(%rax), %rax
	testq	%rax, %rax
	je	.L562
	movq	(%rax), %r14
	testq	%r14, %r14
	je	.L562
	movq	$0, (%rax)
	movzbl	(%r14), %eax
	cmpb	$39, %al
	jbe	.L563
	movb	%al, 40(%r14)
	jmp	.L564
	.p2align 4,,10
	.p2align 3
.L636:
	leaq	48(%rsp), %r13
.L598:
	movb	$0, 656(%rbx)
	leaq	216(%rbx), %rdi
	call	_ZN8opendnp315LinkLayerParser5ResetEv@PLT
.LEHE9:
	movq	152(%rbx), %rax
	movq	%r13, %rdi
	movdqu	184(%rbx), %xmm1
	movdqu	200(%rbx), %xmm2
	movdqu	152(%rbx), %xmm3
	leaq	16(%rsp), %rsi
	movdqu	168(%rbx), %xmm4
	movq	%rax, (%rsp)
	movq	176(%rbx), %r14
	movq	160(%rbx), %r15
	movaps	%xmm1, 16(%rsp)
	movq	168(%rbx), %r12
	movaps	%xmm2, 32(%rsp)
	movaps	%xmm3, 48(%rsp)
	leaq	8(%r14), %rbp
	movaps	%xmm4, 64(%rsp)
	call	_ZNSt5dequeIN8asiodnp39IOHandler12TransmissionESaIS2_EE19_M_destroy_data_auxESt15_Deque_iteratorIS2_RS2_PS2_ES8_.isra.0
	movq	208(%rbx), %rax
	leaq	8(%rax), %r13
	cmpq	%rbp, %r13
	jbe	.L554
	.p2align 4,,10
	.p2align 3
.L555:
	movq	0(%rbp), %rdi
	movl	$512, %esi
	addq	$8, %rbp
	call	_ZdlPvm@PLT
	cmpq	%rbp, %r13
	ja	.L555
.L554:
	movq	(%rsp), %xmm0
	movq	%r15, %xmm5
	movq	%r14, %xmm6
	punpcklqdq	%xmm5, %xmm0
	movups	%xmm0, 184(%rbx)
	movq	%r12, %xmm0
	punpcklqdq	%xmm6, %xmm0
	movups	%xmm0, 200(%rbx)
	movq	88(%rsp), %rax
	subq	%fs:40, %rax
	jne	.L639
	addq	$104, %rsp
	.cfi_remember_state
	.cfi_def_cfa_offset 56
	popq	%rbx
	.cfi_def_cfa_offset 48
	popq	%rbp
	.cfi_def_cfa_offset 40
	popq	%r12
	.cfi_def_cfa_offset 32
	popq	%r13
	.cfi_def_cfa_offset 24
	popq	%r14
	.cfi_def_cfa_offset 16
	popq	%r15
	.cfi_def_cfa_offset 8
	ret
	.p2align 4,,10
	.p2align 3
.L563:
	.cfi_restore_state
	movq	%r14, %rdi
	call	_ZdlPv@PLT
.L562:
	movl	$41, %edi
.LEHB10:
	call	_Znwm@PLT
.LEHE10:
	movb	$40, 40(%rax)
	movq	%rax, %r14
.L564:
	movq	(%rsp), %xmm0
	movq	_ZN4asio6detail18completion_handlerIZN7asiopal13IAsyncChannel8ShutdownEvEUlvE_E11do_completeEPNS0_15task_io_serviceEPNS0_25task_io_service_operationERKSt10error_codem@GOTPCREL(%rip), %rax
	movq	%rbp, %xmm7
	movq	$0, (%r14)
	movl	$0, 16(%r14)
	punpcklqdq	%xmm7, %xmm0
	movq	%rax, 8(%r14)
	movups	%xmm0, 24(%r14)
	movq	48(%r13), %rax
	leaq	24(%rax), %rdi
	call	pthread_mutex_lock@PLT
	movq	48(%r13), %rdi
	cmpb	$0, 64(%rdi)
	je	.L565
	cmpq	$0, 80(%rdi)
	movq	$0, (%r14)
	je	.L566
	movq	80(%rdi), %rax
	movq	%r14, (%rax)
	movq	%r14, 80(%rdi)
.L567:
	addq	$24, %rdi
	leaq	48(%rsp), %r13
	call	pthread_mutex_unlock@PLT
.L568:
	testq	%r12, %r12
	jne	.L640
	movl	8(%rbp), %eax
	leal	-1(%rax), %edx
	movl	%edx, 8(%rbp)
.L584:
	cmpl	$1, %eax
	jne	.L556
	movq	0(%rbp), %rax
	movq	%rbp, %rdi
	call	*16(%rax)
	testq	%r12, %r12
	jne	.L641
	movl	12(%rbp), %eax
	leal	-1(%rax), %edx
	movl	%edx, 12(%rbp)
.L588:
	cmpl	$1, %eax
	jne	.L556
	movq	0(%rbp), %rax
	movq	%rbp, %rdi
	call	*24(%rax)
	jmp	.L556
	.p2align 4,,10
	.p2align 3
.L637:
	leaq	48(%rsp), %r13
.L556:
	movq	640(%rbx), %rbp
	pxor	%xmm0, %xmm0
	movups	%xmm0, 632(%rbx)
	testq	%rbp, %rbp
	je	.L591
	movq	_ZL28__gthrw___pthread_key_createPjPFvPvE@GOTPCREL(%rip), %r12
	testq	%r12, %r12
	jne	.L642
	movl	8(%rbp), %eax
	leal	-1(%rax), %edx
	movl	%edx, 8(%rbp)
.L593:
	cmpl	$1, %eax
	je	.L643
.L591:
	movq	64(%rbx), %rdi
	addl	$1, 88(%rbx)
	testq	%rdi, %rdi
	je	.L597
	movq	(%rdi), %rax
	xorl	%esi, %esi
.LEHB11:
	call	*16(%rax)
.L597:
	movq	112(%rbx), %rbp
	movq	120(%rbx), %r12
	cmpq	%r12, %rbp
	je	.L598
	.p2align 4,,10
	.p2align 3
.L600:
	cmpb	$0, 6(%rbp)
	je	.L599
	movq	8(%rbp), %rdi
	movb	$0, 6(%rbp)
	movq	(%rdi), %rax
	call	*40(%rax)
.LEHE11:
.L599:
	addq	$24, %rbp
	cmpq	%rbp, %r12
	jne	.L600
	jmp	.L598
.L566:
	movq	%r14, %xmm0
	punpcklqdq	%xmm0, %xmm0
	movups	%xmm0, 72(%rdi)
	jmp	.L567
	.p2align 4,,10
	.p2align 3
.L565:
	movb	$1, 64(%rdi)
	addq	$24, %rdi
	call	pthread_mutex_unlock@PLT
	movq	48(%r13), %r13
	movq	$0, (%r14)
	cmpq	$0, 96(%r13)
	je	.L569
	movq	96(%r13), %rax
	movq	%r14, (%rax)
	movq	%r14, 96(%r13)
.L570:
	movq	8(%rsp), %rax
	movq	40(%rax), %r14
	cmpb	$0, 40(%r14)
	jne	.L644
.L571:
	lock addq	$1, 184(%r14)
	leaq	48(%r14), %r8
	movq	%r8, %rdi
	movq	%r8, (%rsp)
	call	pthread_mutex_lock@PLT
	cmpq	$0, 200(%r14)
	movq	(%rsp), %r8
	movq	$0, 0(%r13)
	je	.L576
	movq	200(%r14), %rax
	movq	%r13, (%rax)
	movq	%r13, 200(%r14)
.L577:
	movq	136(%r14), %rax
	orq	$1, %rax
	movq	%rax, 136(%r14)
	cmpq	$1, %rax
	je	.L578
	movq	%r8, %rdi
	leaq	48(%rsp), %r13
	call	pthread_mutex_unlock@PLT
	leaq	88(%r14), %rdi
	call	pthread_cond_signal@PLT
	jmp	.L568
	.p2align 4,,10
	.p2align 3
.L643:
	movq	0(%rbp), %rax
	movq	%rbp, %rdi
	call	*16(%rax)
	testq	%r12, %r12
	jne	.L645
	movl	12(%rbp), %eax
	leal	-1(%rax), %edx
	movl	%edx, 12(%rbp)
.L596:
	cmpl	$1, %eax
	jne	.L591
	movq	0(%rbp), %rax
	movq	%rbp, %rdi
	call	*24(%rax)
	jmp	.L591
	.p2align 4,,10
	.p2align 3
.L642:
	movl	$-1, %eax
	lock xaddl	%eax, 8(%rbp)
	jmp	.L593
.L644:
	data16	leaq	_ZN4asio6detail15keyword_tss_ptrINS0_10call_stackINS0_15task_io_serviceENS0_27task_io_service_thread_infoEE7contextEE6value_E@tlsgd(%rip), %rdi
	.value	0x6666
	rex64
	call	__tls_get_addr@PLT
	movq	(%rax), %rax
	testq	%rax, %rax
	jne	.L574
	jmp	.L571
	.p2align 4,,10
	.p2align 3
.L572:
	movq	16(%rax), %rax
	testq	%rax, %rax
	je	.L571
.L574:
	cmpq	(%rax), %r14
	jne	.L572
	movq	8(%rax), %rax
	testq	%rax, %rax
	je	.L571
	addq	$1, 24(%rax)
	cmpq	$0, 16(%rax)
	movq	$0, 0(%r13)
	je	.L575
	movq	16(%rax), %rdx
	movq	%r13, (%rdx)
	movq	%r13, 16(%rax)
	leaq	48(%rsp), %r13
	jmp	.L568
	.p2align 4,,10
	.p2align 3
.L640:
	movl	$-1, %eax
	lock xaddl	%eax, (%r15)
	jmp	.L584
.L641:
	movl	$-1, %eax
	lock xaddl	%eax, 12(%rbp)
	jmp	.L588
.L576:
	movq	%r13, %xmm0
	punpcklqdq	%xmm0, %xmm0
	movups	%xmm0, 192(%r14)
	jmp	.L577
.L578:
	cmpb	$0, 176(%r14)
	leaq	48(%rsp), %r13
	jne	.L580
	movq	144(%r14), %rax
	testq	%rax, %rax
	je	.L580
	leaq	88(%rax), %rdx
	movq	%r13, %rcx
	movl	$3, %esi
	movq	%r8, (%rsp)
	movb	$1, 176(%r14)
	movq	%rdx, 52(%rsp)
	movl	88(%rax), %edx
	movl	$-2147483639, 48(%rsp)
	movl	96(%rax), %edi
	call	epoll_ctl@PLT
	movq	(%rsp), %r8
.L580:
	movq	%r8, %rdi
	call	pthread_mutex_unlock@PLT
	jmp	.L568
.L638:
	lock addl	$1, (%r15)
	jmp	.L561
.L569:
	movq	%r14, %xmm0
	punpcklqdq	%xmm0, %xmm0
	movups	%xmm0, 88(%r13)
	jmp	.L570
.L645:
	movl	$-1, %eax
	lock xaddl	%eax, 12(%rbp)
	jmp	.L596
.L575:
	movq	%r13, %xmm0
	leaq	48(%rsp), %r13
	punpcklqdq	%xmm0, %xmm0
	movups	%xmm0, 8(%rax)
	jmp	.L568
.L639:
	call	__stack_chk_fail@PLT
.L602:
	movq	%rax, %r12
	jmp	.L583
	.section	.gcc_except_table
.LLSDA7757:
	.byte	0xff
	.byte	0xff
	.byte	0x1
	.uleb128 .LLSDACSE7757-.LLSDACSB7757
.LLSDACSB7757:
	.uleb128 .LEHB9-.LFB7757
	.uleb128 .LEHE9-.LEHB9
	.uleb128 0
	.uleb128 0
	.uleb128 .LEHB10-.LFB7757
	.uleb128 .LEHE10-.LEHB10
	.uleb128 .L602-.LFB7757
	.uleb128 0
	.uleb128 .LEHB11-.LFB7757
	.uleb128 .LEHE11-.LEHB11
	.uleb128 0
	.uleb128 0
.LLSDACSE7757:
	.text
	.cfi_endproc
	.section	.text.unlikely
	.cfi_startproc
	.cfi_personality 0x9b,DW.ref.__gxx_personality_v0
	.cfi_lsda 0x1b,.LLSDAC7757
	.type	_ZN8asiodnp39IOHandler5ResetEv.cold, @function
_ZN8asiodnp39IOHandler5ResetEv.cold:
.LFSB7757:
.L557:
	.cfi_def_cfa_offset 160
	.cfi_offset 3, -56
	.cfi_offset 6, -48
	.cfi_offset 12, -40
	.cfi_offset 13, -32
	.cfi_offset 14, -24
	.cfi_offset 15, -16
.LEHB12:
	call	_ZSt20__throw_bad_weak_ptrv@PLT
.L583:
	movq	%rbp, %rdi
	call	_ZNSt16_Sp_counted_baseILN9__gnu_cxx12_Lock_policyE2EE10_M_releaseEv@PLT
	movq	%rbp, %rdi
	call	_ZNSt16_Sp_counted_baseILN9__gnu_cxx12_Lock_policyE2EE10_M_releaseEv@PLT
	movq	%r12, %rdi
	call	_Unwind_Resume@PLT
.LEHE12:
	.cfi_endproc
.LFE7757:
	.section	.gcc_except_table
.LLSDAC7757:
	.byte	0xff
	.byte	0xff
	.byte	0x1
	.uleb128 .LLSDACSEC7757-.LLSDACSBC7757
.LLSDACSBC7757:
	.uleb128 .LEHB12-.LCOLDB27
	.uleb128 .LEHE12-.LEHB12
	.uleb128 0
	.uleb128 0
.LLSDACSEC7757:
	.section	.text.unlikely
	.text
	.size	_ZN8asiodnp39IOHandler5ResetEv, .-_ZN8asiodnp39IOHandler5ResetEv
	.section	.text.unlikely
	.size	_ZN8asiodnp39IOHandler5ResetEv.cold, .-_ZN8asiodnp39IOHandler5ResetEv.cold
.LCOLDE27:
	.text
.LHOTE27:
	.align 2
	.p2align 4
	.globl	_ZN8asiodnp39IOHandler8ShutdownEv
	.type	_ZN8asiodnp39IOHandler8ShutdownEv, @function
_ZN8asiodnp39IOHandler8ShutdownEv:
.LFB7718:
	.cfi_startproc
	cmpb	$0, 104(%rdi)
	je	.L657
	ret
	.p2align 4,,10
	.p2align 3
.L657:
	pushq	%rbx
	.cfi_def_cfa_offset 16
	.cfi_offset 3, -16
	movq	%rdi, %rbx
	movb	$1, 104(%rdi)
	call	_ZN8asiodnp39IOHandler5ResetEv@PLT
	movq	(%rbx), %rax
	movq	%rbx, %rdi
	call	*56(%rax)
	movq	64(%rbx), %rdi
	testq	%rdi, %rdi
	je	.L646
	movq	(%rdi), %rax
	movl	$3, %esi
	popq	%rbx
	.cfi_remember_state
	.cfi_restore 3
	.cfi_def_cfa_offset 8
	movq	16(%rax), %rax
	jmp	*%rax
	.p2align 4,,10
	.p2align 3
.L646:
	.cfi_restore_state
	popq	%rbx
	.cfi_def_cfa_offset 8
	ret
	.cfi_endproc
.LFE7718:
	.size	_ZN8asiodnp39IOHandler8ShutdownEv, .-_ZN8asiodnp39IOHandler8ShutdownEv
	.section	.rodata.str1.8
	.align 8
.LC28:
	.string	"/home/master/projects/Procont_EE/utils/dnp3_src/cpp/libs/src/asiodnp3/IOHandler.cpp(62)"
	.section	.text.unlikely
	.align 2
.LCOLDB29:
	.text
.LHOTB29:
	.align 2
	.p2align 4
	.globl	_ZN8asiodnp39IOHandler14OnReadCompleteERKSt10error_codem
	.type	_ZN8asiodnp39IOHandler14OnReadCompleteERKSt10error_codem, @function
_ZN8asiodnp39IOHandler14OnReadCompleteERKSt10error_codem:
.LFB7719:
	.cfi_startproc
	.cfi_personality 0x9b,DW.ref.__gxx_personality_v0
	.cfi_lsda 0x1b,.LLSDA7719
	pushq	%r13
	.cfi_def_cfa_offset 16
	.cfi_offset 13, -16
	pushq	%r12
	.cfi_def_cfa_offset 24
	.cfi_offset 12, -24
	pushq	%rbp
	.cfi_def_cfa_offset 32
	.cfi_offset 6, -32
	movq	%rdi, %rbp
	pushq	%rbx
	.cfi_def_cfa_offset 40
	.cfi_offset 3, -40
	movq	%rsi, %rbx
	subq	$72, %rsp
	.cfi_def_cfa_offset 112
	movq	%fs:40, %rax
	movq	%rax, 56(%rsp)
	xorl	%eax, %eax
	movl	(%rsi), %eax
	testl	%eax, %eax
	je	.L659
	leaq	32(%rdi), %r12
	leaq	12(%rsp), %r13
	movl	$4, 12(%rsp)
	movq	%r13, %rsi
	movq	%r12, %rdi
.LEHB13:
	call	_ZNK7openpal6Logger9IsEnabledERKNS_10LogFiltersE@PLT
	testb	%al, %al
	je	.L660
	movq	8(%rbx), %rsi
	movl	(%rbx), %edx
	leaq	16(%rsp), %rdi
	movq	(%rsi), %rax
	call	*32(%rax)
.LEHE13:
	movq	16(%rsp), %rcx
	movq	%r13, %rsi
	movq	%r12, %rdi
	leaq	.LC28(%rip), %rdx
	movl	$4, 12(%rsp)
.LEHB14:
	call	_ZN7openpal6Logger3LogERKNS_10LogFiltersEPKcS5_@PLT
.LEHE14:
	movq	16(%rsp), %rdi
	leaq	32(%rsp), %rax
	cmpq	%rax, %rdi
	je	.L660
	movq	32(%rsp), %rax
	leaq	1(%rax), %rsi
	call	_ZdlPvm@PLT
.L660:
	movq	%rbp, %rdi
.LEHB15:
	call	_ZN8asiodnp39IOHandler5ResetEv@PLT
	movq	64(%rbp), %rdi
	testq	%rdi, %rdi
	je	.L662
	movq	(%rdi), %rax
	movl	$1, %esi
	call	*16(%rax)
.L662:
	movq	56(%rsp), %rax
	subq	%fs:40, %rax
	jne	.L676
	movq	0(%rbp), %rax
	movq	%rbp, %rdi
	movq	64(%rax), %rax
	addq	$72, %rsp
	.cfi_remember_state
	.cfi_def_cfa_offset 40
	popq	%rbx
	.cfi_def_cfa_offset 32
	popq	%rbp
	.cfi_def_cfa_offset 24
	popq	%r12
	.cfi_def_cfa_offset 16
	popq	%r13
	.cfi_def_cfa_offset 8
	jmp	*%rax
	.p2align 4,,10
	.p2align 3
.L659:
	.cfi_restore_state
	addl	%edx, 92(%rdi)
	movq	%rdx, %rsi
	leaq	216(%rdi), %rdi
	movq	%rbp, %rdx
	call	_ZN8opendnp315LinkLayerParser6OnReadEjRNS_10IFrameSinkE@PLT
	movq	56(%rsp), %rax
	subq	%fs:40, %rax
	jne	.L676
	addq	$72, %rsp
	.cfi_remember_state
	.cfi_def_cfa_offset 40
	movq	%rbp, %rdi
	popq	%rbx
	.cfi_def_cfa_offset 32
	popq	%rbp
	.cfi_def_cfa_offset 24
	popq	%r12
	.cfi_def_cfa_offset 16
	popq	%r13
	.cfi_def_cfa_offset 8
	jmp	_ZN8asiodnp39IOHandler9BeginReadEv@PLT
.LEHE15:
.L676:
	.cfi_restore_state
	call	__stack_chk_fail@PLT
.L668:
	movq	%rax, %rbp
	jmp	.L665
	.section	.gcc_except_table
.LLSDA7719:
	.byte	0xff
	.byte	0xff
	.byte	0x1
	.uleb128 .LLSDACSE7719-.LLSDACSB7719
.LLSDACSB7719:
	.uleb128 .LEHB13-.LFB7719
	.uleb128 .LEHE13-.LEHB13
	.uleb128 0
	.uleb128 0
	.uleb128 .LEHB14-.LFB7719
	.uleb128 .LEHE14-.LEHB14
	.uleb128 .L668-.LFB7719
	.uleb128 0
	.uleb128 .LEHB15-.LFB7719
	.uleb128 .LEHE15-.LEHB15
	.uleb128 0
	.uleb128 0
.LLSDACSE7719:
	.text
	.cfi_endproc
	.section	.text.unlikely
	.cfi_startproc
	.cfi_personality 0x9b,DW.ref.__gxx_personality_v0
	.cfi_lsda 0x1b,.LLSDAC7719
	.type	_ZN8asiodnp39IOHandler14OnReadCompleteERKSt10error_codem.cold, @function
_ZN8asiodnp39IOHandler14OnReadCompleteERKSt10error_codem.cold:
.LFSB7719:
.L665:
	.cfi_def_cfa_offset 112
	.cfi_offset 3, -40
	.cfi_offset 6, -32
	.cfi_offset 12, -24
	.cfi_offset 13, -16
	movq	16(%rsp), %rdi
	leaq	32(%rsp), %rax
	cmpq	%rax, %rdi
	je	.L666
	movq	32(%rsp), %rax
	leaq	1(%rax), %rsi
	call	_ZdlPvm@PLT
.L666:
	movq	%rbp, %rdi
.LEHB16:
	call	_Unwind_Resume@PLT
.LEHE16:
	.cfi_endproc
.LFE7719:
	.section	.gcc_except_table
.LLSDAC7719:
	.byte	0xff
	.byte	0xff
	.byte	0x1
	.uleb128 .LLSDACSEC7719-.LLSDACSBC7719
.LLSDACSBC7719:
	.uleb128 .LEHB16-.LCOLDB29
	.uleb128 .LEHE16-.LEHB16
	.uleb128 0
	.uleb128 0
.LLSDACSEC7719:
	.section	.text.unlikely
	.text
	.size	_ZN8asiodnp39IOHandler14OnReadCompleteERKSt10error_codem, .-_ZN8asiodnp39IOHandler14OnReadCompleteERKSt10error_codem
	.section	.text.unlikely
	.size	_ZN8asiodnp39IOHandler14OnReadCompleteERKSt10error_codem.cold, .-_ZN8asiodnp39IOHandler14OnReadCompleteERKSt10error_codem.cold
.LCOLDE29:
	.text
.LHOTE29:
	.section	.rodata.str1.8
	.align 8
.LC30:
	.string	"/home/master/projects/Procont_EE/utils/dnp3_src/cpp/libs/src/asiodnp3/IOHandler.cpp(83)"
	.section	.text.unlikely
	.align 2
.LCOLDB31:
	.text
.LHOTB31:
	.align 2
	.p2align 4
	.globl	_ZN8asiodnp39IOHandler15OnWriteCompleteERKSt10error_codem
	.type	_ZN8asiodnp39IOHandler15OnWriteCompleteERKSt10error_codem, @function
_ZN8asiodnp39IOHandler15OnWriteCompleteERKSt10error_codem:
.LFB7720:
	.cfi_startproc
	.cfi_personality 0x9b,DW.ref.__gxx_personality_v0
	.cfi_lsda 0x1b,.LLSDA7720
	pushq	%r14
	.cfi_def_cfa_offset 16
	.cfi_offset 14, -16
	pushq	%r13
	.cfi_def_cfa_offset 24
	.cfi_offset 13, -24
	pushq	%r12
	.cfi_def_cfa_offset 32
	.cfi_offset 12, -32
	pushq	%rbp
	.cfi_def_cfa_offset 40
	.cfi_offset 6, -40
	movq	%rdi, %rbp
	pushq	%rbx
	.cfi_def_cfa_offset 48
	.cfi_offset 3, -48
	subq	$64, %rsp
	.cfi_def_cfa_offset 112
	movq	%fs:40, %rax
	movq	%rax, 56(%rsp)
	xorl	%eax, %eax
	movl	(%rsi), %eax
	testl	%eax, %eax
	jne	.L739
	addl	%edx, 96(%rdi)
	movq	152(%rdi), %rax
	cmpq	%rax, 184(%rdi)
	je	.L683
	movq	24(%rax), %r12
	movq	16(%rax), %r14
	testq	%r12, %r12
	je	.L684
	movq	_ZL28__gthrw___pthread_key_createPjPFvPvE@GOTPCREL(%rip), %rbx
	testq	%rbx, %rbx
	jne	.L740
	movq	168(%rdi), %rcx
	addl	$1, 8(%r12)
	movq	%r12, %r13
	leaq	-32(%rcx), %rdx
	cmpq	%rdx, %rax
	je	.L741
	movl	8(%r12), %eax
	leal	-1(%rax), %edx
	movl	%edx, 8(%r12)
	cmpl	$1, %eax
	je	.L693
.L737:
	movq	152(%rbp), %rax
.L690:
	addq	$32, %rax
	movq	%rax, 152(%rbp)
.L697:
	movq	(%r14), %rax
	movl	$1, %esi
	movq	%r14, %rdi
.LEHB17:
	call	*24(%rax)
.LEHE17:
	testq	%r12, %r12
	je	.L683
	movq	_ZL28__gthrw___pthread_key_createPjPFvPvE@GOTPCREL(%rip), %rbx
	testq	%rbx, %rbx
	jne	.L742
	movl	8(%r12), %eax
	leal	-1(%rax), %edx
	movl	%edx, 8(%r12)
.L707:
	cmpl	$1, %eax
	jne	.L683
	movq	(%r12), %rax
	movq	%r12, %rdi
	call	*16(%rax)
	testq	%rbx, %rbx
	jne	.L743
	movl	12(%r12), %eax
	leal	-1(%rax), %edx
	movl	%edx, 12(%r12)
.L710:
	cmpl	$1, %eax
	je	.L744
	.p2align 4,,10
	.p2align 3
.L683:
	movq	56(%rsp), %rax
	subq	%fs:40, %rax
	jne	.L738
	addq	$64, %rsp
	.cfi_remember_state
	.cfi_def_cfa_offset 48
	movq	%rbp, %rdi
	popq	%rbx
	.cfi_def_cfa_offset 40
	popq	%rbp
	.cfi_def_cfa_offset 32
	popq	%r12
	.cfi_def_cfa_offset 24
	popq	%r13
	.cfi_def_cfa_offset 16
	popq	%r14
	.cfi_def_cfa_offset 8
.LEHB18:
	jmp	_ZN8asiodnp39IOHandler12CheckForSendEv@PLT
	.p2align 4,,10
	.p2align 3
.L739:
	.cfi_restore_state
	leaq	32(%rdi), %r12
	leaq	12(%rsp), %r13
	movq	%rsi, %rbx
	movl	$4, 12(%rsp)
	movq	%r13, %rsi
	movq	%r12, %rdi
	call	_ZNK7openpal6Logger9IsEnabledERKNS_10LogFiltersE@PLT
	testb	%al, %al
	je	.L679
	movq	8(%rbx), %rsi
	movl	(%rbx), %edx
	leaq	16(%rsp), %rdi
	movq	(%rsi), %rax
	call	*32(%rax)
.LEHE18:
	movq	16(%rsp), %rcx
	movq	%r13, %rsi
	movq	%r12, %rdi
	leaq	.LC30(%rip), %rdx
	movl	$4, 12(%rsp)
.LEHB19:
	call	_ZN7openpal6Logger3LogERKNS_10LogFiltersEPKcS5_@PLT
.LEHE19:
	movq	16(%rsp), %rdi
	leaq	32(%rsp), %rax
	cmpq	%rax, %rdi
	je	.L679
	movq	32(%rsp), %rax
	leaq	1(%rax), %rsi
	call	_ZdlPvm@PLT
.L679:
	movq	%rbp, %rdi
.LEHB20:
	call	_ZN8asiodnp39IOHandler5ResetEv@PLT
	movq	64(%rbp), %rdi
	testq	%rdi, %rdi
	je	.L681
	movq	(%rdi), %rax
	movl	$1, %esi
	call	*16(%rax)
.L681:
	movq	56(%rsp), %rax
	subq	%fs:40, %rax
	jne	.L738
	movq	0(%rbp), %rax
	movq	%rbp, %rdi
	movq	64(%rax), %rax
	addq	$64, %rsp
	.cfi_remember_state
	.cfi_def_cfa_offset 48
	popq	%rbx
	.cfi_def_cfa_offset 40
	popq	%rbp
	.cfi_def_cfa_offset 32
	popq	%r12
	.cfi_def_cfa_offset 24
	popq	%r13
	.cfi_def_cfa_offset 16
	popq	%r14
	.cfi_def_cfa_offset 8
	jmp	*%rax
.LEHE20:
	.p2align 4,,10
	.p2align 3
.L742:
	.cfi_restore_state
	movl	$-1, %eax
	lock xaddl	%eax, 8(%r12)
	jmp	.L707
	.p2align 4,,10
	.p2align 3
.L693:
	movq	0(%r13), %rax
	movq	%r13, %rdi
	call	*16(%rax)
	testq	%rbx, %rbx
	jne	.L745
	movl	12(%r13), %eax
	leal	-1(%rax), %edx
	movl	%edx, 12(%r13)
.L695:
	cmpl	$1, %eax
	jne	.L737
	movq	0(%r13), %rax
	movq	%r13, %rdi
	call	*24(%rax)
	jmp	.L737
	.p2align 4,,10
	.p2align 3
.L684:
	movq	168(%rdi), %rcx
	leaq	-32(%rcx), %rdx
	cmpq	%rdx, %rax
	jne	.L690
.L698:
	movq	160(%rbp), %rdi
	movl	$512, %esi
	call	_ZdlPvm@PLT
	movq	176(%rbp), %rdx
	movq	8(%rdx), %rax
	addq	$8, %rdx
	movq	%rdx, %xmm1
	movq	%rax, %xmm0
	addq	$512, %rax
	punpcklqdq	%xmm0, %xmm0
	movups	%xmm0, 152(%rbp)
	movq	%rax, %xmm0
	punpcklqdq	%xmm1, %xmm0
	movups	%xmm0, 168(%rbp)
	jmp	.L697
	.p2align 4,,10
	.p2align 3
.L740:
	lock addl	$1, 8(%r12)
	movq	168(%rdi), %rcx
	movq	152(%rdi), %rax
	leaq	-32(%rcx), %rdx
	movq	24(%rax), %r13
	cmpq	%rdx, %rax
	je	.L746
	testq	%r13, %r13
	je	.L690
	movl	$-1, %eax
	lock xaddl	%eax, 8(%r13)
	cmpl	$1, %eax
	jne	.L737
	jmp	.L693
	.p2align 4,,10
	.p2align 3
.L744:
	movq	(%r12), %rax
	movq	%r12, %rdi
	call	*24(%rax)
	jmp	.L683
	.p2align 4,,10
	.p2align 3
.L745:
	movl	$-1, %eax
	lock xaddl	%eax, 12(%r13)
	jmp	.L695
	.p2align 4,,10
	.p2align 3
.L741:
	movl	8(%r12), %eax
	leal	-1(%rax), %edx
	movl	%edx, 8(%r12)
.L700:
	cmpl	$1, %eax
	jne	.L698
	movq	0(%r13), %rax
	movq	%r13, %rdi
	call	*16(%rax)
	testq	%rbx, %rbx
	jne	.L747
	movl	12(%r13), %eax
	leal	-1(%rax), %edx
	movl	%edx, 12(%r13)
.L703:
	cmpl	$1, %eax
	jne	.L698
	movq	0(%r13), %rax
	movq	%r13, %rdi
	call	*24(%rax)
	jmp	.L698
	.p2align 4,,10
	.p2align 3
.L743:
	movl	$-1, %eax
	lock xaddl	%eax, 12(%r12)
	jmp	.L710
.L746:
	testq	%r13, %r13
	je	.L698
	movl	$-1, %eax
	lock xaddl	%eax, 8(%r13)
	jmp	.L700
.L747:
	movl	$-1, %eax
	lock xaddl	%eax, 12(%r13)
	jmp	.L703
.L738:
	call	__stack_chk_fail@PLT
.L719:
	movq	%rax, %rbp
	jmp	.L714
.L718:
	movq	%rax, %rbp
	jmp	.L712
	.section	.gcc_except_table
.LLSDA7720:
	.byte	0xff
	.byte	0xff
	.byte	0x1
	.uleb128 .LLSDACSE7720-.LLSDACSB7720
.LLSDACSB7720:
	.uleb128 .LEHB17-.LFB7720
	.uleb128 .LEHE17-.LEHB17
	.uleb128 .L719-.LFB7720
	.uleb128 0
	.uleb128 .LEHB18-.LFB7720
	.uleb128 .LEHE18-.LEHB18
	.uleb128 0
	.uleb128 0
	.uleb128 .LEHB19-.LFB7720
	.uleb128 .LEHE19-.LEHB19
	.uleb128 .L718-.LFB7720
	.uleb128 0
	.uleb128 .LEHB20-.LFB7720
	.uleb128 .LEHE20-.LEHB20
	.uleb128 0
	.uleb128 0
.LLSDACSE7720:
	.text
	.cfi_endproc
	.section	.text.unlikely
	.cfi_startproc
	.cfi_personality 0x9b,DW.ref.__gxx_personality_v0
	.cfi_lsda 0x1b,.LLSDAC7720
	.type	_ZN8asiodnp39IOHandler15OnWriteCompleteERKSt10error_codem.cold, @function
_ZN8asiodnp39IOHandler15OnWriteCompleteERKSt10error_codem.cold:
.LFSB7720:
.L714:
	.cfi_def_cfa_offset 112
	.cfi_offset 3, -48
	.cfi_offset 6, -40
	.cfi_offset 12, -32
	.cfi_offset 13, -24
	.cfi_offset 14, -16
	testq	%r12, %r12
	je	.L715
	movq	%r12, %rdi
	call	_ZNSt16_Sp_counted_baseILN9__gnu_cxx12_Lock_policyE2EE10_M_releaseEv@PLT
.L715:
	movq	%rbp, %rdi
.LEHB21:
	call	_Unwind_Resume@PLT
.LEHE21:
.L712:
	movq	16(%rsp), %rdi
	leaq	32(%rsp), %rax
	cmpq	%rax, %rdi
	je	.L715
	movq	32(%rsp), %rax
	leaq	1(%rax), %rsi
	call	_ZdlPvm@PLT
	jmp	.L715
	.cfi_endproc
.LFE7720:
	.section	.gcc_except_table
.LLSDAC7720:
	.byte	0xff
	.byte	0xff
	.byte	0x1
	.uleb128 .LLSDACSEC7720-.LLSDACSBC7720
.LLSDACSBC7720:
	.uleb128 .LEHB21-.LCOLDB31
	.uleb128 .LEHE21-.LEHB21
	.uleb128 0
	.uleb128 0
.LLSDACSEC7720:
	.section	.text.unlikely
	.text
	.size	_ZN8asiodnp39IOHandler15OnWriteCompleteERKSt10error_codem, .-_ZN8asiodnp39IOHandler15OnWriteCompleteERKSt10error_codem
	.section	.text.unlikely
	.size	_ZN8asiodnp39IOHandler15OnWriteCompleteERKSt10error_codem.cold, .-_ZN8asiodnp39IOHandler15OnWriteCompleteERKSt10error_codem.cold
.LCOLDE31:
	.text
.LHOTE31:
	.align 2
	.p2align 4
	.globl	_ZN8asiodnp39IOHandler7DisableERKSt10shared_ptrIN8opendnp312ILinkSessionEE
	.type	_ZN8asiodnp39IOHandler7DisableERKSt10shared_ptrIN8opendnp312ILinkSessionEE, @function
_ZN8asiodnp39IOHandler7DisableERKSt10shared_ptrIN8opendnp312ILinkSessionEE:
.LFB7731:
	.cfi_startproc
	movabsq	$-6148914691236517205, %rcx
	pushq	%r12
	.cfi_def_cfa_offset 16
	.cfi_offset 12, -16
	pushq	%rbp
	.cfi_def_cfa_offset 24
	.cfi_offset 6, -24
	movq	%rdi, %rbp
	subq	$8, %rsp
	.cfi_def_cfa_offset 32
	movq	120(%rdi), %r8
	movq	112(%rdi), %rax
	movq	%r8, %rdx
	subq	%rax, %rdx
	sarq	$3, %rdx
	imulq	%rcx, %rdx
	movq	%rdx, %rcx
	sarq	$2, %rcx
	testq	%rcx, %rcx
	jle	.L749
	leaq	(%rcx,%rcx,2), %rdx
	movq	(%rsi), %rdi
	salq	$5, %rdx
	addq	%rax, %rdx
	jmp	.L754
	.p2align 4,,10
	.p2align 3
.L772:
	cmpq	32(%rax), %rdi
	je	.L768
	cmpq	56(%rax), %rdi
	je	.L769
	cmpq	80(%rax), %rdi
	je	.L770
	addq	$96, %rax
	cmpq	%rdx, %rax
	je	.L771
.L754:
	cmpq	%rdi, 8(%rax)
	jne	.L772
.L750:
	cmpq	%rax, %r8
	je	.L765
	movzbl	(%rax), %r12d
	testb	%r12b, %r12b
	je	.L764
	cmpq	$0, 632(%rbp)
	movb	$0, (%rax)
	je	.L763
	cmpb	$0, 6(%rax)
	je	.L763
	movb	$0, 6(%rax)
	movq	(%rdi), %rax
	call	*40(%rax)
.L763:
	movq	%rbp, %rdi
	call	_ZNK8asiodnp39IOHandler19IsAnySessionEnabledEv@PLT
	testb	%al, %al
	je	.L773
.L764:
	movl	$1, %r12d
	addq	$8, %rsp
	.cfi_remember_state
	.cfi_def_cfa_offset 24
	movl	%r12d, %eax
	popq	%rbp
	.cfi_def_cfa_offset 16
	popq	%r12
	.cfi_def_cfa_offset 8
	ret
	.p2align 4,,10
	.p2align 3
.L771:
	.cfi_restore_state
	movabsq	$-6148914691236517205, %rcx
	movq	%r8, %rdx
	subq	%rax, %rdx
	sarq	$3, %rdx
	imulq	%rcx, %rdx
.L749:
	cmpq	$2, %rdx
	je	.L755
	cmpq	$3, %rdx
	je	.L756
	cmpq	$1, %rdx
	je	.L774
.L765:
	xorl	%r12d, %r12d
	addq	$8, %rsp
	.cfi_remember_state
	.cfi_def_cfa_offset 24
	movl	%r12d, %eax
	popq	%rbp
	.cfi_def_cfa_offset 16
	popq	%r12
	.cfi_def_cfa_offset 8
	ret
	.p2align 4,,10
	.p2align 3
.L773:
	.cfi_restore_state
	movq	%rbp, %rdi
	call	_ZN8asiodnp39IOHandler5ResetEv@PLT
	movq	0(%rbp), %rax
	movq	%rbp, %rdi
	call	*48(%rax)
	addq	$8, %rsp
	.cfi_remember_state
	.cfi_def_cfa_offset 24
	movl	%r12d, %eax
	popq	%rbp
	.cfi_def_cfa_offset 16
	popq	%r12
	.cfi_def_cfa_offset 8
	ret
.L774:
	.cfi_restore_state
	movq	(%rsi), %rdi
.L760:
	cmpq	%rdi, 8(%rax)
	jne	.L765
	jmp	.L750
.L756:
	movq	(%rsi), %rdi
	cmpq	%rdi, 8(%rax)
	je	.L750
	addq	$24, %rax
	jmp	.L759
.L755:
	movq	(%rsi), %rdi
.L759:
	cmpq	%rdi, 8(%rax)
	je	.L750
	addq	$24, %rax
	jmp	.L760
	.p2align 4,,10
	.p2align 3
.L768:
	addq	$24, %rax
	jmp	.L750
	.p2align 4,,10
	.p2align 3
.L769:
	addq	$48, %rax
	jmp	.L750
	.p2align 4,,10
	.p2align 3
.L770:
	addq	$72, %rax
	jmp	.L750
	.cfi_endproc
.LFE7731:
	.size	_ZN8asiodnp39IOHandler7DisableERKSt10shared_ptrIN8opendnp312ILinkSessionEE, .-_ZN8asiodnp39IOHandler7DisableERKSt10shared_ptrIN8opendnp312ILinkSessionEE
	.section	.text.unlikely
	.align 2
.LCOLDB32:
	.text
.LHOTB32:
	.align 2
	.p2align 4
	.globl	_ZN8asiodnp39IOHandler12OnNewChannelERKSt10shared_ptrIN7asiopal13IAsyncChannelEE
	.type	_ZN8asiodnp39IOHandler12OnNewChannelERKSt10shared_ptrIN7asiopal13IAsyncChannelEE, @function
_ZN8asiodnp39IOHandler12OnNewChannelERKSt10shared_ptrIN7asiopal13IAsyncChannelEE:
.LFB7735:
	.cfi_startproc
	pushq	%r15
	.cfi_def_cfa_offset 16
	.cfi_offset 15, -16
	pushq	%r14
	.cfi_def_cfa_offset 24
	.cfi_offset 14, -24
	pushq	%r13
	.cfi_def_cfa_offset 32
	.cfi_offset 13, -32
	pushq	%r12
	.cfi_def_cfa_offset 40
	.cfi_offset 12, -40
	pushq	%rbp
	.cfi_def_cfa_offset 48
	.cfi_offset 6, -48
	movq	%rsi, %rbp
	pushq	%rbx
	.cfi_def_cfa_offset 56
	.cfi_offset 3, -56
	movq	%rdi, %rbx
	subq	$8, %rsp
	.cfi_def_cfa_offset 64
	call	_ZN8asiodnp39IOHandler5ResetEv@PLT
	movq	0(%rbp), %r12
	movq	640(%rbx), %r13
	movq	8(%rbp), %rbp
	addl	$1, 80(%rbx)
	movq	%r12, 632(%rbx)
	cmpq	%r13, %rbp
	je	.L776
	testq	%rbp, %rbp
	je	.L777
	cmpq	$0, _ZL28__gthrw___pthread_key_createPjPFvPvE@GOTPCREL(%rip)
	jne	.L830
	addl	$1, 8(%rbp)
.L777:
	testq	%r13, %r13
	je	.L780
	movq	_ZL28__gthrw___pthread_key_createPjPFvPvE@GOTPCREL(%rip), %r14
	testq	%r14, %r14
	jne	.L831
	movl	8(%r13), %eax
	leal	-1(%rax), %edx
	movl	%edx, 8(%r13)
.L782:
	cmpl	$1, %eax
	je	.L832
.L780:
	movq	%rbp, 640(%rbx)
	movq	632(%rbx), %r12
.L776:
	movq	24(%rbx), %rbp
	testq	%rbp, %rbp
	je	.L786
	movl	8(%rbp), %eax
	leaq	8(%rbp), %r15
.L788:
	testl	%eax, %eax
	je	.L786
	leal	1(%rax), %edx
	lock cmpxchgl	%edx, (%r15)
	jne	.L788
	movq	16(%rbx), %rax
	movq	48(%r12), %r13
	movq	_ZL28__gthrw___pthread_key_createPjPFvPvE@GOTPCREL(%rip), %r14
	leaq	8(%rax), %rdx
	testq	%rax, %rax
	cmovne	%rdx, %rax
	movq	%rax, 40(%r12)
	cmpq	%r13, %rbp
	je	.L790
	testq	%r14, %r14
	jne	.L833
	addl	$1, 8(%rbp)
.L792:
	testq	%r13, %r13
	je	.L794
	testq	%r14, %r14
	jne	.L834
	movl	8(%r13), %eax
	leal	-1(%rax), %edx
	movl	%edx, 8(%r13)
.L796:
	cmpl	$1, %eax
	je	.L835
.L794:
	movq	%rbp, 48(%r12)
.L790:
	testq	%r14, %r14
	jne	.L836
	movl	8(%rbp), %eax
	leal	-1(%rax), %edx
	movl	%edx, 8(%rbp)
	cmpl	$1, %eax
	je	.L837
.L803:
	movq	64(%rbx), %rdi
	testq	%rdi, %rdi
	je	.L807
	movq	(%rdi), %rax
	movl	$2, %esi
	call	*16(%rax)
.L807:
	movq	%rbx, %rdi
	call	_ZN8asiodnp39IOHandler9BeginReadEv@PLT
	movb	$1, 656(%rbx)
	movq	120(%rbx), %rbp
	movq	112(%rbx), %rbx
	cmpq	%rbp, %rbx
	je	.L775
	.p2align 4,,10
	.p2align 3
.L810:
	cmpb	$0, (%rbx)
	je	.L809
	cmpb	$0, 6(%rbx)
	jne	.L809
	movq	8(%rbx), %rdi
	movb	$1, 6(%rbx)
	movq	(%rdi), %rax
	call	*32(%rax)
.L809:
	addq	$24, %rbx
	cmpq	%rbx, %rbp
	jne	.L810
.L775:
	addq	$8, %rsp
	.cfi_remember_state
	.cfi_def_cfa_offset 56
	popq	%rbx
	.cfi_def_cfa_offset 48
	popq	%rbp
	.cfi_def_cfa_offset 40
	popq	%r12
	.cfi_def_cfa_offset 32
	popq	%r13
	.cfi_def_cfa_offset 24
	popq	%r14
	.cfi_def_cfa_offset 16
	popq	%r15
	.cfi_def_cfa_offset 8
	ret
	.p2align 4,,10
	.p2align 3
.L837:
	.cfi_restore_state
	movq	0(%rbp), %rax
	movq	%rbp, %rdi
	call	*16(%rax)
	testq	%r14, %r14
	jne	.L838
	movl	12(%rbp), %eax
	leal	-1(%rax), %edx
	movl	%edx, 12(%rbp)
.L805:
	cmpl	$1, %eax
	jne	.L803
	movq	0(%rbp), %rax
	movq	%rbp, %rdi
	call	*24(%rax)
	jmp	.L803
	.p2align 4,,10
	.p2align 3
.L832:
	movq	0(%r13), %rax
	movq	%r13, %rdi
	call	*16(%rax)
	testq	%r14, %r14
	jne	.L839
	movl	12(%r13), %eax
	leal	-1(%rax), %edx
	movl	%edx, 12(%r13)
.L785:
	cmpl	$1, %eax
	jne	.L780
	movq	0(%r13), %rax
	movq	%r13, %rdi
	call	*24(%rax)
	jmp	.L780
	.p2align 4,,10
	.p2align 3
.L833:
	lock addl	$1, (%r15)
	movq	48(%r12), %r13
	jmp	.L792
	.p2align 4,,10
	.p2align 3
.L836:
	movl	$-1, %eax
	lock xaddl	%eax, (%r15)
	cmpl	$1, %eax
	jne	.L803
	jmp	.L837
	.p2align 4,,10
	.p2align 3
.L835:
	movq	0(%r13), %rax
	movq	%r13, %rdi
	call	*16(%rax)
	testq	%r14, %r14
	jne	.L840
	movl	12(%r13), %eax
	leal	-1(%rax), %edx
	movl	%edx, 12(%r13)
.L799:
	cmpl	$1, %eax
	jne	.L794
	movq	0(%r13), %rax
	movq	%r13, %rdi
	call	*24(%rax)
	jmp	.L794
	.p2align 4,,10
	.p2align 3
.L834:
	movl	$-1, %eax
	lock xaddl	%eax, 8(%r13)
	jmp	.L796
	.p2align 4,,10
	.p2align 3
.L831:
	movl	$-1, %eax
	lock xaddl	%eax, 8(%r13)
	jmp	.L782
	.p2align 4,,10
	.p2align 3
.L830:
	lock addl	$1, 8(%rbp)
	movq	640(%rbx), %r13
	jmp	.L777
.L838:
	movl	$-1, %eax
	lock xaddl	%eax, 12(%rbp)
	jmp	.L805
.L840:
	movl	$-1, %eax
	lock xaddl	%eax, 12(%r13)
	jmp	.L799
.L839:
	movl	$-1, %eax
	lock xaddl	%eax, 12(%r13)
	jmp	.L785
	.cfi_endproc
	.section	.text.unlikely
	.cfi_startproc
	.type	_ZN8asiodnp39IOHandler12OnNewChannelERKSt10shared_ptrIN7asiopal13IAsyncChannelEE.cold, @function
_ZN8asiodnp39IOHandler12OnNewChannelERKSt10shared_ptrIN7asiopal13IAsyncChannelEE.cold:
.LFSB7735:
.L786:
	.cfi_def_cfa_offset 64
	.cfi_offset 3, -56
	.cfi_offset 6, -48
	.cfi_offset 12, -40
	.cfi_offset 13, -32
	.cfi_offset 14, -24
	.cfi_offset 15, -16
	call	_ZSt20__throw_bad_weak_ptrv@PLT
	.cfi_endproc
.LFE7735:
	.text
	.size	_ZN8asiodnp39IOHandler12OnNewChannelERKSt10shared_ptrIN7asiopal13IAsyncChannelEE, .-_ZN8asiodnp39IOHandler12OnNewChannelERKSt10shared_ptrIN7asiopal13IAsyncChannelEE
	.section	.text.unlikely
	.size	_ZN8asiodnp39IOHandler12OnNewChannelERKSt10shared_ptrIN7asiopal13IAsyncChannelEE.cold, .-_ZN8asiodnp39IOHandler12OnNewChannelERKSt10shared_ptrIN7asiopal13IAsyncChannelEE.cold
.LCOLDE32:
	.text
.LHOTE32:
	.section	.text.unlikely
.LCOLDB33:
	.text
.LHOTB33:
	.p2align 4
	.globl	_ZThn8_N8asiodnp39IOHandler14OnReadCompleteERKSt10error_codem
	.type	_ZThn8_N8asiodnp39IOHandler14OnReadCompleteERKSt10error_codem, @function
_ZThn8_N8asiodnp39IOHandler14OnReadCompleteERKSt10error_codem:
.LFB10443:
	.cfi_startproc
	.cfi_personality 0x9b,DW.ref.__gxx_personality_v0
	.cfi_lsda 0x1b,.LLSDA10443
	pushq	%r14
	.cfi_def_cfa_offset 16
	.cfi_offset 14, -16
	pushq	%r13
	.cfi_def_cfa_offset 24
	.cfi_offset 13, -24
	pushq	%r12
	.cfi_def_cfa_offset 32
	.cfi_offset 12, -32
	leaq	-8(%rdi), %r12
	pushq	%rbp
	.cfi_def_cfa_offset 40
	.cfi_offset 6, -40
	movq	%rsi, %rbp
	pushq	%rbx
	.cfi_def_cfa_offset 48
	.cfi_offset 3, -48
	movq	%rdi, %rbx
	subq	$64, %rsp
	.cfi_def_cfa_offset 112
	movq	%fs:40, %rax
	movq	%rax, 56(%rsp)
	xorl	%eax, %eax
	movl	(%rsi), %eax
	testl	%eax, %eax
	je	.L842
	leaq	24(%rdi), %r13
	leaq	12(%rsp), %r14
	movl	$4, 12(%rsp)
	movq	%r14, %rsi
	movq	%r13, %rdi
.LEHB22:
	call	_ZNK7openpal6Logger9IsEnabledERKNS_10LogFiltersE@PLT
	testb	%al, %al
	je	.L843
	movq	8(%rbp), %rsi
	movl	0(%rbp), %edx
	leaq	16(%rsp), %rdi
	movq	(%rsi), %rax
	call	*32(%rax)
.LEHE22:
	movq	16(%rsp), %rcx
	movq	%r14, %rsi
	movq	%r13, %rdi
	leaq	.LC28(%rip), %rdx
	movl	$4, 12(%rsp)
.LEHB23:
	call	_ZN7openpal6Logger3LogERKNS_10LogFiltersEPKcS5_@PLT
.LEHE23:
	movq	16(%rsp), %rdi
	leaq	32(%rsp), %rax
	cmpq	%rax, %rdi
	je	.L843
	movq	32(%rsp), %rax
	leaq	1(%rax), %rsi
	call	_ZdlPvm@PLT
.L843:
	movq	%r12, %rdi
.LEHB24:
	call	_ZN8asiodnp39IOHandler5ResetEv@PLT
	movq	56(%rbx), %rdi
	testq	%rdi, %rdi
	je	.L845
	movq	(%rdi), %rax
	movl	$1, %esi
	call	*16(%rax)
.L845:
	movq	56(%rsp), %rax
	subq	%fs:40, %rax
	jne	.L859
	movq	-8(%rbx), %rax
	movq	%r12, %rdi
	movq	64(%rax), %rax
	addq	$64, %rsp
	.cfi_remember_state
	.cfi_def_cfa_offset 48
	popq	%rbx
	.cfi_def_cfa_offset 40
	popq	%rbp
	.cfi_def_cfa_offset 32
	popq	%r12
	.cfi_def_cfa_offset 24
	popq	%r13
	.cfi_def_cfa_offset 16
	popq	%r14
	.cfi_def_cfa_offset 8
	jmp	*%rax
	.p2align 4,,10
	.p2align 3
.L842:
	.cfi_restore_state
	addl	%edx, 84(%rdi)
	movq	%rdx, %rsi
	leaq	208(%rdi), %rdi
	movq	%r12, %rdx
	call	_ZN8opendnp315LinkLayerParser6OnReadEjRNS_10IFrameSinkE@PLT
	movq	56(%rsp), %rax
	subq	%fs:40, %rax
	jne	.L859
	addq	$64, %rsp
	.cfi_remember_state
	.cfi_def_cfa_offset 48
	movq	%r12, %rdi
	popq	%rbx
	.cfi_def_cfa_offset 40
	popq	%rbp
	.cfi_def_cfa_offset 32
	popq	%r12
	.cfi_def_cfa_offset 24
	popq	%r13
	.cfi_def_cfa_offset 16
	popq	%r14
	.cfi_def_cfa_offset 8
	jmp	_ZN8asiodnp39IOHandler9BeginReadEv@PLT
.LEHE24:
.L859:
	.cfi_restore_state
	call	__stack_chk_fail@PLT
.L851:
	movq	%rax, %rbp
	jmp	.L848
	.section	.gcc_except_table
.LLSDA10443:
	.byte	0xff
	.byte	0xff
	.byte	0x1
	.uleb128 .LLSDACSE10443-.LLSDACSB10443
.LLSDACSB10443:
	.uleb128 .LEHB22-.LFB10443
	.uleb128 .LEHE22-.LEHB22
	.uleb128 0
	.uleb128 0
	.uleb128 .LEHB23-.LFB10443
	.uleb128 .LEHE23-.LEHB23
	.uleb128 .L851-.LFB10443
	.uleb128 0
	.uleb128 .LEHB24-.LFB10443
	.uleb128 .LEHE24-.LEHB24
	.uleb128 0
	.uleb128 0
.LLSDACSE10443:
	.text
	.cfi_endproc
	.section	.text.unlikely
	.cfi_startproc
	.cfi_personality 0x9b,DW.ref.__gxx_personality_v0
	.cfi_lsda 0x1b,.LLSDAC10443
	.type	_ZThn8_N8asiodnp39IOHandler14OnReadCompleteERKSt10error_codem.cold, @function
_ZThn8_N8asiodnp39IOHandler14OnReadCompleteERKSt10error_codem.cold:
.LFSB10443:
.L848:
	.cfi_def_cfa_offset 112
	.cfi_offset 3, -48
	.cfi_offset 6, -40
	.cfi_offset 12, -32
	.cfi_offset 13, -24
	.cfi_offset 14, -16
	movq	16(%rsp), %rdi
	leaq	32(%rsp), %rax
	cmpq	%rax, %rdi
	je	.L849
	movq	32(%rsp), %rax
	leaq	1(%rax), %rsi
	call	_ZdlPvm@PLT
.L849:
	movq	%rbp, %rdi
.LEHB25:
	call	_Unwind_Resume@PLT
.LEHE25:
	.cfi_endproc
.LFE10443:
	.section	.gcc_except_table
.LLSDAC10443:
	.byte	0xff
	.byte	0xff
	.byte	0x1
	.uleb128 .LLSDACSEC10443-.LLSDACSBC10443
.LLSDACSBC10443:
	.uleb128 .LEHB25-.LCOLDB33
	.uleb128 .LEHE25-.LEHB25
	.uleb128 0
	.uleb128 0
.LLSDACSEC10443:
	.section	.text.unlikely
	.text
	.size	_ZThn8_N8asiodnp39IOHandler14OnReadCompleteERKSt10error_codem, .-_ZThn8_N8asiodnp39IOHandler14OnReadCompleteERKSt10error_codem
	.section	.text.unlikely
	.size	_ZThn8_N8asiodnp39IOHandler14OnReadCompleteERKSt10error_codem.cold, .-_ZThn8_N8asiodnp39IOHandler14OnReadCompleteERKSt10error_codem.cold
.LCOLDE33:
	.text
.LHOTE33:
	.section	.text.unlikely
.LCOLDB34:
	.text
.LHOTB34:
	.p2align 4
	.globl	_ZThn8_N8asiodnp39IOHandler15OnWriteCompleteERKSt10error_codem
	.type	_ZThn8_N8asiodnp39IOHandler15OnWriteCompleteERKSt10error_codem, @function
_ZThn8_N8asiodnp39IOHandler15OnWriteCompleteERKSt10error_codem:
.LFB10444:
	.cfi_startproc
	.cfi_personality 0x9b,DW.ref.__gxx_personality_v0
	.cfi_lsda 0x1b,.LLSDA10444
	pushq	%r15
	.cfi_def_cfa_offset 16
	.cfi_offset 15, -16
	pushq	%r14
	.cfi_def_cfa_offset 24
	.cfi_offset 14, -24
	pushq	%r13
	.cfi_def_cfa_offset 32
	.cfi_offset 13, -32
	pushq	%r12
	.cfi_def_cfa_offset 40
	.cfi_offset 12, -40
	leaq	-8(%rdi), %r12
	pushq	%rbp
	.cfi_def_cfa_offset 48
	.cfi_offset 6, -48
	pushq	%rbx
	.cfi_def_cfa_offset 56
	.cfi_offset 3, -56
	movq	%rdi, %rbx
	subq	$72, %rsp
	.cfi_def_cfa_offset 128
	movq	%fs:40, %rax
	movq	%rax, 56(%rsp)
	xorl	%eax, %eax
	movl	(%rsi), %eax
	testl	%eax, %eax
	jne	.L922
	addl	%edx, 88(%rdi)
	movq	144(%rdi), %rax
	cmpq	%rax, 176(%rdi)
	je	.L866
	movq	24(%rax), %rbp
	movq	16(%rax), %r14
	testq	%rbp, %rbp
	je	.L867
	movq	_ZL28__gthrw___pthread_key_createPjPFvPvE@GOTPCREL(%rip), %r15
	testq	%r15, %r15
	jne	.L923
	movq	160(%rdi), %rcx
	addl	$1, 8(%rbp)
	movq	%rbp, %r13
	leaq	-32(%rcx), %rdx
	cmpq	%rdx, %rax
	je	.L924
	movl	8(%rbp), %eax
	leal	-1(%rax), %edx
	movl	%edx, 8(%rbp)
	cmpl	$1, %eax
	je	.L876
.L920:
	movq	144(%rbx), %rax
.L873:
	addq	$32, %rax
	movq	%rax, 144(%rbx)
.L880:
	movq	(%r14), %rax
	movl	$1, %esi
	movq	%r14, %rdi
.LEHB26:
	call	*24(%rax)
.LEHE26:
	testq	%rbp, %rbp
	je	.L866
	movq	_ZL28__gthrw___pthread_key_createPjPFvPvE@GOTPCREL(%rip), %r15
	testq	%r15, %r15
	jne	.L925
	movl	8(%rbp), %eax
	leal	-1(%rax), %edx
	movl	%edx, 8(%rbp)
.L890:
	cmpl	$1, %eax
	jne	.L866
	movq	0(%rbp), %rax
	movq	%rbp, %rdi
	call	*16(%rax)
	testq	%r15, %r15
	jne	.L926
	movl	12(%rbp), %eax
	leal	-1(%rax), %edx
	movl	%edx, 12(%rbp)
.L893:
	cmpl	$1, %eax
	je	.L927
	.p2align 4,,10
	.p2align 3
.L866:
	movq	56(%rsp), %rax
	subq	%fs:40, %rax
	jne	.L921
	addq	$72, %rsp
	.cfi_remember_state
	.cfi_def_cfa_offset 56
	movq	%r12, %rdi
	popq	%rbx
	.cfi_def_cfa_offset 48
	popq	%rbp
	.cfi_def_cfa_offset 40
	popq	%r12
	.cfi_def_cfa_offset 32
	popq	%r13
	.cfi_def_cfa_offset 24
	popq	%r14
	.cfi_def_cfa_offset 16
	popq	%r15
	.cfi_def_cfa_offset 8
.LEHB27:
	jmp	_ZN8asiodnp39IOHandler12CheckForSendEv@PLT
	.p2align 4,,10
	.p2align 3
.L922:
	.cfi_restore_state
	leaq	24(%rdi), %r13
	leaq	12(%rsp), %r14
	movq	%rsi, %rbp
	movl	$4, 12(%rsp)
	movq	%r14, %rsi
	movq	%r13, %rdi
	call	_ZNK7openpal6Logger9IsEnabledERKNS_10LogFiltersE@PLT
	testb	%al, %al
	je	.L862
	movq	8(%rbp), %rsi
	movl	0(%rbp), %edx
	leaq	16(%rsp), %rdi
	movq	(%rsi), %rax
	call	*32(%rax)
.LEHE27:
	movq	16(%rsp), %rcx
	movq	%r14, %rsi
	movq	%r13, %rdi
	leaq	.LC30(%rip), %rdx
	movl	$4, 12(%rsp)
.LEHB28:
	call	_ZN7openpal6Logger3LogERKNS_10LogFiltersEPKcS5_@PLT
.LEHE28:
	movq	16(%rsp), %rdi
	leaq	32(%rsp), %rax
	cmpq	%rax, %rdi
	je	.L862
	movq	32(%rsp), %rax
	leaq	1(%rax), %rsi
	call	_ZdlPvm@PLT
.L862:
	movq	%r12, %rdi
.LEHB29:
	call	_ZN8asiodnp39IOHandler5ResetEv@PLT
	movq	56(%rbx), %rdi
	testq	%rdi, %rdi
	je	.L864
	movq	(%rdi), %rax
	movl	$1, %esi
	call	*16(%rax)
.L864:
	movq	56(%rsp), %rax
	subq	%fs:40, %rax
	jne	.L921
	movq	-8(%rbx), %rax
	movq	%r12, %rdi
	movq	64(%rax), %rax
	addq	$72, %rsp
	.cfi_remember_state
	.cfi_def_cfa_offset 56
	popq	%rbx
	.cfi_def_cfa_offset 48
	popq	%rbp
	.cfi_def_cfa_offset 40
	popq	%r12
	.cfi_def_cfa_offset 32
	popq	%r13
	.cfi_def_cfa_offset 24
	popq	%r14
	.cfi_def_cfa_offset 16
	popq	%r15
	.cfi_def_cfa_offset 8
	jmp	*%rax
.LEHE29:
	.p2align 4,,10
	.p2align 3
.L925:
	.cfi_restore_state
	movl	$-1, %eax
	lock xaddl	%eax, 8(%rbp)
	jmp	.L890
	.p2align 4,,10
	.p2align 3
.L876:
	movq	0(%r13), %rax
	movq	%r13, %rdi
	call	*16(%rax)
	testq	%r15, %r15
	jne	.L928
	movl	12(%r13), %eax
	leal	-1(%rax), %edx
	movl	%edx, 12(%r13)
.L878:
	cmpl	$1, %eax
	jne	.L920
	movq	0(%r13), %rax
	movq	%r13, %rdi
	call	*24(%rax)
	jmp	.L920
	.p2align 4,,10
	.p2align 3
.L867:
	movq	160(%rdi), %rcx
	leaq	-32(%rcx), %rdx
	cmpq	%rdx, %rax
	jne	.L873
.L881:
	movq	152(%rbx), %rdi
	movl	$512, %esi
	call	_ZdlPvm@PLT
	movq	168(%rbx), %rdx
	movq	8(%rdx), %rax
	addq	$8, %rdx
	movq	%rdx, %xmm1
	movq	%rax, %xmm0
	addq	$512, %rax
	punpcklqdq	%xmm0, %xmm0
	movups	%xmm0, 144(%rbx)
	movq	%rax, %xmm0
	punpcklqdq	%xmm1, %xmm0
	movups	%xmm0, 160(%rbx)
	jmp	.L880
	.p2align 4,,10
	.p2align 3
.L923:
	lock addl	$1, 8(%rbp)
	movq	160(%rdi), %rcx
	movq	144(%rdi), %rax
	leaq	-32(%rcx), %rdx
	movq	24(%rax), %r13
	cmpq	%rdx, %rax
	je	.L929
	testq	%r13, %r13
	je	.L873
	movl	$-1, %eax
	lock xaddl	%eax, 8(%r13)
	cmpl	$1, %eax
	jne	.L920
	jmp	.L876
	.p2align 4,,10
	.p2align 3
.L927:
	movq	0(%rbp), %rax
	movq	%rbp, %rdi
	call	*24(%rax)
	jmp	.L866
	.p2align 4,,10
	.p2align 3
.L928:
	movl	$-1, %eax
	lock xaddl	%eax, 12(%r13)
	jmp	.L878
	.p2align 4,,10
	.p2align 3
.L924:
	movl	8(%rbp), %eax
	leal	-1(%rax), %edx
	movl	%edx, 8(%rbp)
.L883:
	cmpl	$1, %eax
	jne	.L881
	movq	0(%r13), %rax
	movq	%r13, %rdi
	call	*16(%rax)
	testq	%r15, %r15
	jne	.L930
	movl	12(%r13), %eax
	leal	-1(%rax), %edx
	movl	%edx, 12(%r13)
.L886:
	cmpl	$1, %eax
	jne	.L881
	movq	0(%r13), %rax
	movq	%r13, %rdi
	call	*24(%rax)
	jmp	.L881
	.p2align 4,,10
	.p2align 3
.L926:
	movl	$-1, %eax
	lock xaddl	%eax, 12(%rbp)
	jmp	.L893
.L929:
	testq	%r13, %r13
	je	.L881
	movl	$-1, %eax
	lock xaddl	%eax, 8(%r13)
	jmp	.L883
.L930:
	movl	$-1, %eax
	lock xaddl	%eax, 12(%r13)
	jmp	.L886
.L921:
	call	__stack_chk_fail@PLT
.L902:
	movq	%rax, %r12
	jmp	.L897
.L901:
	movq	%rax, %rbp
	jmp	.L895
	.section	.gcc_except_table
.LLSDA10444:
	.byte	0xff
	.byte	0xff
	.byte	0x1
	.uleb128 .LLSDACSE10444-.LLSDACSB10444
.LLSDACSB10444:
	.uleb128 .LEHB26-.LFB10444
	.uleb128 .LEHE26-.LEHB26
	.uleb128 .L902-.LFB10444
	.uleb128 0
	.uleb128 .LEHB27-.LFB10444
	.uleb128 .LEHE27-.LEHB27
	.uleb128 0
	.uleb128 0
	.uleb128 .LEHB28-.LFB10444
	.uleb128 .LEHE28-.LEHB28
	.uleb128 .L901-.LFB10444
	.uleb128 0
	.uleb128 .LEHB29-.LFB10444
	.uleb128 .LEHE29-.LEHB29
	.uleb128 0
	.uleb128 0
.LLSDACSE10444:
	.text
	.cfi_endproc
	.section	.text.unlikely
	.cfi_startproc
	.cfi_personality 0x9b,DW.ref.__gxx_personality_v0
	.cfi_lsda 0x1b,.LLSDAC10444
	.type	_ZThn8_N8asiodnp39IOHandler15OnWriteCompleteERKSt10error_codem.cold, @function
_ZThn8_N8asiodnp39IOHandler15OnWriteCompleteERKSt10error_codem.cold:
.LFSB10444:
.L897:
	.cfi_def_cfa_offset 128
	.cfi_offset 3, -56
	.cfi_offset 6, -48
	.cfi_offset 12, -40
	.cfi_offset 13, -32
	.cfi_offset 14, -24
	.cfi_offset 15, -16
	testq	%rbp, %rbp
	je	.L898
	movq	%rbp, %rdi
	call	_ZNSt16_Sp_counted_baseILN9__gnu_cxx12_Lock_policyE2EE10_M_releaseEv@PLT
.L898:
	movq	%r12, %rdi
.LEHB30:
	call	_Unwind_Resume@PLT
.L895:
	movq	16(%rsp), %rdi
	leaq	32(%rsp), %rax
	cmpq	%rax, %rdi
	je	.L896
	movq	32(%rsp), %rax
	leaq	1(%rax), %rsi
	call	_ZdlPvm@PLT
.L896:
	movq	%rbp, %rdi
	call	_Unwind_Resume@PLT
.LEHE30:
	.cfi_endproc
.LFE10444:
	.section	.gcc_except_table
.LLSDAC10444:
	.byte	0xff
	.byte	0xff
	.byte	0x1
	.uleb128 .LLSDACSEC10444-.LLSDACSBC10444
.LLSDACSBC10444:
	.uleb128 .LEHB30-.LCOLDB34
	.uleb128 .LEHE30-.LEHB30
	.uleb128 0
	.uleb128 0
.LLSDACSEC10444:
	.section	.text.unlikely
	.text
	.size	_ZThn8_N8asiodnp39IOHandler15OnWriteCompleteERKSt10error_codem, .-_ZThn8_N8asiodnp39IOHandler15OnWriteCompleteERKSt10error_codem
	.section	.text.unlikely
	.size	_ZThn8_N8asiodnp39IOHandler15OnWriteCompleteERKSt10error_codem.cold, .-_ZThn8_N8asiodnp39IOHandler15OnWriteCompleteERKSt10error_codem.cold
.LCOLDE34:
	.text
.LHOTE34:
	.section	.rodata._ZNSt5dequeIN8asiodnp39IOHandler12TransmissionESaIS2_EE16_M_push_back_auxIJS2_EEEvDpOT_.str1.8,"aMS",@progbits,1
	.align 8
.LC35:
	.string	"cannot create std::deque larger than max_size()"
	.section	.text._ZNSt5dequeIN8asiodnp39IOHandler12TransmissionESaIS2_EE16_M_push_back_auxIJS2_EEEvDpOT_,"axG",@progbits,_ZNSt5dequeIN8asiodnp39IOHandler12TransmissionESaIS2_EE16_M_push_back_auxIJS2_EEEvDpOT_,comdat
	.align 2
	.p2align 4
	.weak	_ZNSt5dequeIN8asiodnp39IOHandler12TransmissionESaIS2_EE16_M_push_back_auxIJS2_EEEvDpOT_
	.type	_ZNSt5dequeIN8asiodnp39IOHandler12TransmissionESaIS2_EE16_M_push_back_auxIJS2_EEEvDpOT_, @function
_ZNSt5dequeIN8asiodnp39IOHandler12TransmissionESaIS2_EE16_M_push_back_auxIJS2_EEEvDpOT_:
.LFB9476:
	.cfi_startproc
	pushq	%r15
	.cfi_def_cfa_offset 16
	.cfi_offset 15, -16
	pushq	%r14
	.cfi_def_cfa_offset 24
	.cfi_offset 14, -24
	pushq	%r13
	.cfi_def_cfa_offset 32
	.cfi_offset 13, -32
	pushq	%r12
	.cfi_def_cfa_offset 40
	.cfi_offset 12, -40
	pushq	%rbp
	.cfi_def_cfa_offset 48
	.cfi_offset 6, -48
	movq	%rsi, %rbp
	pushq	%rbx
	.cfi_def_cfa_offset 56
	.cfi_offset 3, -56
	movq	%rdi, %rbx
	subq	$8, %rsp
	.cfi_def_cfa_offset 64
	movq	72(%rdi), %r13
	movq	40(%rdi), %rsi
	movq	48(%rbx), %rdx
	subq	56(%rbx), %rdx
	movq	%r13, %r12
	movq	%rdx, %rcx
	subq	%rsi, %r12
	sarq	$5, %rcx
	movq	%r12, %rdi
	sarq	$3, %rdi
	leaq	-1(%rdi), %rax
	salq	$4, %rax
	leaq	(%rcx,%rax), %rdx
	movq	32(%rbx), %rax
	subq	16(%rbx), %rax
	sarq	$5, %rax
	addq	%rdx, %rax
	movabsq	$288230376151711743, %rdx
	cmpq	%rdx, %rax
	je	.L940
	movq	(%rbx), %rcx
	movq	8(%rbx), %rdx
	movq	%r13, %rax
	subq	%rcx, %rax
	movq	%rdx, %r8
	sarq	$3, %rax
	subq	%rax, %r8
	cmpq	$1, %r8
	jbe	.L941
.L933:
	movl	$512, %edi
	call	_Znwm@PLT
	movq	16(%rbp), %rdx
	movdqu	0(%rbp), %xmm1
	pxor	%xmm0, %xmm0
	movq	%rax, 8(%r13)
	movq	48(%rbx), %rax
	movq	$0, 24(%rax)
	movq	%rdx, 16(%rax)
	movq	24(%rbp), %rdx
	movups	%xmm1, (%rax)
	movq	%rdx, 24(%rax)
	movups	%xmm0, 16(%rbp)
	movq	72(%rbx), %rdx
	movq	8(%rdx), %rax
	addq	$8, %rdx
	movq	%rdx, %xmm2
	movq	%rax, %xmm0
	addq	$512, %rax
	punpcklqdq	%xmm0, %xmm0
	movups	%xmm0, 48(%rbx)
	movq	%rax, %xmm0
	punpcklqdq	%xmm2, %xmm0
	movups	%xmm0, 64(%rbx)
	addq	$8, %rsp
	.cfi_remember_state
	.cfi_def_cfa_offset 56
	popq	%rbx
	.cfi_def_cfa_offset 48
	popq	%rbp
	.cfi_def_cfa_offset 40
	popq	%r12
	.cfi_def_cfa_offset 32
	popq	%r13
	.cfi_def_cfa_offset 24
	popq	%r14
	.cfi_def_cfa_offset 16
	popq	%r15
	.cfi_def_cfa_offset 8
	ret
	.p2align 4,,10
	.p2align 3
.L941:
	.cfi_restore_state
	leaq	2(%rdi), %r14
	leaq	(%r14,%r14), %rax
	cmpq	%rax, %rdx
	ja	.L942
	testq	%rdx, %rdx
	movl	$1, %eax
	cmovne	%rdx, %rax
	leaq	2(%rdx,%rax), %r13
	movabsq	$1152921504606846975, %rax
	cmpq	%rax, %r13
	ja	.L943
	leaq	0(,%r13,8), %rdi
	call	_Znwm@PLT
	movq	40(%rbx), %rsi
	movq	%rax, %r15
	movq	%r13, %rax
	subq	%r14, %rax
	shrq	%rax
	leaq	(%r15,%rax,8), %r14
	movq	72(%rbx), %rax
	leaq	8(%rax), %rdx
	cmpq	%rsi, %rdx
	je	.L938
	subq	%rsi, %rdx
	movq	%r14, %rdi
	call	memmove@PLT
.L938:
	movq	8(%rbx), %rax
	movq	(%rbx), %rdi
	leaq	0(,%rax,8), %rsi
	call	_ZdlPvm@PLT
	movq	%r15, (%rbx)
	movq	%r13, 8(%rbx)
.L936:
	movq	(%r14), %rax
	movq	(%r14), %xmm0
	leaq	(%r14,%r12), %r13
	movq	%r14, 40(%rbx)
	movq	%r13, 72(%rbx)
	addq	$512, %rax
	movq	%rax, %xmm3
	punpcklqdq	%xmm3, %xmm0
	movups	%xmm0, 24(%rbx)
	movq	0(%r13), %rax
	movq	%rax, 56(%rbx)
	addq	$512, %rax
	movq	%rax, 64(%rbx)
	jmp	.L933
	.p2align 4,,10
	.p2align 3
.L942:
	subq	%r14, %rdx
	addq	$8, %r13
	shrq	%rdx
	leaq	(%rcx,%rdx,8), %r14
	movq	%r13, %rdx
	subq	%rsi, %rdx
	cmpq	%r14, %rsi
	jbe	.L935
	cmpq	%r13, %rsi
	je	.L936
	movq	%r14, %rdi
	call	memmove@PLT
	jmp	.L936
	.p2align 4,,10
	.p2align 3
.L935:
	cmpq	%r13, %rsi
	je	.L936
	leaq	8(%r12), %rdi
	subq	%rdx, %rdi
	addq	%r14, %rdi
	call	memmove@PLT
	jmp	.L936
.L940:
	leaq	.LC35(%rip), %rdi
	call	_ZSt20__throw_length_errorPKc@PLT
.L943:
	call	_ZSt17__throw_bad_allocv@PLT
	.cfi_endproc
.LFE9476:
	.size	_ZNSt5dequeIN8asiodnp39IOHandler12TransmissionESaIS2_EE16_M_push_back_auxIJS2_EEEvDpOT_, .-_ZNSt5dequeIN8asiodnp39IOHandler12TransmissionESaIS2_EE16_M_push_back_auxIJS2_EEEvDpOT_
	.section	.rodata.str1.8
	.align 8
.LC36:
	.string	"Router received transmit request while offline"
	.align 8
.LC37:
	.string	"/home/master/projects/Procont_EE/utils/dnp3_src/cpp/libs/src/asiodnp3/IOHandler.cpp(114)"
	.section	.text.unlikely
	.align 2
.LCOLDB38:
	.text
.LHOTB38:
	.align 2
	.p2align 4
	.globl	_ZN8asiodnp39IOHandler13BeginTransmitERKSt10shared_ptrIN8opendnp312ILinkSessionEERKN7openpal6RSliceE
	.type	_ZN8asiodnp39IOHandler13BeginTransmitERKSt10shared_ptrIN8opendnp312ILinkSessionEERKN7openpal6RSliceE, @function
_ZN8asiodnp39IOHandler13BeginTransmitERKSt10shared_ptrIN8opendnp312ILinkSessionEERKN7openpal6RSliceE:
.LFB7721:
	.cfi_startproc
	.cfi_personality 0x9b,DW.ref.__gxx_personality_v0
	.cfi_lsda 0x1b,.LLSDA7721
	pushq	%r12
	.cfi_def_cfa_offset 16
	.cfi_offset 12, -16
	pushq	%rbp
	.cfi_def_cfa_offset 24
	.cfi_offset 6, -24
	movq	%rdi, %rbp
	pushq	%rbx
	.cfi_def_cfa_offset 32
	.cfi_offset 3, -32
	subq	$48, %rsp
	.cfi_def_cfa_offset 80
	movq	%fs:40, %rax
	movq	%rax, 40(%rsp)
	xorl	%eax, %eax
	cmpq	$0, 632(%rdi)
	je	.L945
	movdqu	(%rdx), %xmm0
	movdqu	(%rsi), %xmm1
	movq	8(%rsi), %rax
	movaps	%xmm0, (%rsp)
	movaps	%xmm1, 16(%rsp)
	testq	%rax, %rax
	je	.L946
	cmpq	$0, _ZL28__gthrw___pthread_key_createPjPFvPvE@GOTPCREL(%rip)
	jne	.L974
	addl	$1, 8(%rax)
.L946:
	movq	200(%rbp), %rcx
	movq	184(%rbp), %rax
	leaq	-32(%rcx), %rdx
	cmpq	%rdx, %rax
	je	.L948
	movq	16(%rsp), %rdx
	movdqa	(%rsp), %xmm2
	addq	$32, %rax
	movq	$0, -8(%rax)
	movq	%rdx, -16(%rax)
	movq	24(%rsp), %rdx
	movups	%xmm2, -32(%rax)
	movq	$0, 24(%rsp)
	movq	%rdx, -8(%rax)
	movq	$0, 16(%rsp)
	movq	%rax, 184(%rbp)
.L949:
	movq	24(%rsp), %r12
	testq	%r12, %r12
	je	.L951
	movq	_ZL28__gthrw___pthread_key_createPjPFvPvE@GOTPCREL(%rip), %rbx
	testq	%rbx, %rbx
	jne	.L975
	movl	8(%r12), %eax
	leal	-1(%rax), %edx
	movl	%edx, 8(%r12)
.L953:
	cmpl	$1, %eax
	je	.L976
.L951:
	movq	40(%rsp), %rax
	subq	%fs:40, %rax
	jne	.L973
	addq	$48, %rsp
	.cfi_remember_state
	.cfi_def_cfa_offset 32
	movq	%rbp, %rdi
	popq	%rbx
	.cfi_def_cfa_offset 24
	popq	%rbp
	.cfi_def_cfa_offset 16
	popq	%r12
	.cfi_def_cfa_offset 8
.LEHB31:
	jmp	_ZN8asiodnp39IOHandler12CheckForSendEv@PLT
	.p2align 4,,10
	.p2align 3
.L945:
	.cfi_restore_state
	addq	$32, %rbp
	movq	%rsp, %r12
	movl	$2, (%rsp)
	movq	%r12, %rsi
	movq	%rbp, %rdi
	call	_ZNK7openpal6Logger9IsEnabledERKNS_10LogFiltersE@PLT
.LEHE31:
	testb	%al, %al
	jne	.L977
.L944:
	movq	40(%rsp), %rax
	subq	%fs:40, %rax
	jne	.L973
	addq	$48, %rsp
	.cfi_remember_state
	.cfi_def_cfa_offset 32
	popq	%rbx
	.cfi_def_cfa_offset 24
	popq	%rbp
	.cfi_def_cfa_offset 16
	popq	%r12
	.cfi_def_cfa_offset 8
	ret
	.p2align 4,,10
	.p2align 3
.L976:
	.cfi_restore_state
	movq	(%r12), %rax
	movq	%r12, %rdi
	call	*16(%rax)
	testq	%rbx, %rbx
	jne	.L978
	movl	12(%r12), %eax
	leal	-1(%rax), %edx
	movl	%edx, 12(%r12)
.L956:
	cmpl	$1, %eax
	jne	.L951
	movq	(%r12), %rax
	movq	%r12, %rdi
	call	*24(%rax)
	jmp	.L951
	.p2align 4,,10
	.p2align 3
.L975:
	movl	$-1, %eax
	lock xaddl	%eax, 8(%r12)
	jmp	.L953
	.p2align 4,,10
	.p2align 3
.L948:
	movq	%rsp, %rsi
	leaq	136(%rbp), %rdi
.LEHB32:
	call	_ZNSt5dequeIN8asiodnp39IOHandler12TransmissionESaIS2_EE16_M_push_back_auxIJS2_EEEvDpOT_@PLT
.LEHE32:
	jmp	.L949
	.p2align 4,,10
	.p2align 3
.L974:
	lock addl	$1, 8(%rax)
	jmp	.L946
	.p2align 4,,10
	.p2align 3
.L977:
	leaq	.LC36(%rip), %rcx
	leaq	.LC37(%rip), %rdx
	movq	%r12, %rsi
	movq	%rbp, %rdi
	movl	$2, (%rsp)
.LEHB33:
	call	_ZN7openpal6Logger3LogERKNS_10LogFiltersEPKcS5_@PLT
.LEHE33:
	jmp	.L944
	.p2align 4,,10
	.p2align 3
.L978:
	movl	$-1, %eax
	lock xaddl	%eax, 12(%r12)
	jmp	.L956
.L973:
	call	__stack_chk_fail@PLT
.L962:
	movq	%rax, %rbp
	jmp	.L959
	.section	.gcc_except_table
.LLSDA7721:
	.byte	0xff
	.byte	0xff
	.byte	0x1
	.uleb128 .LLSDACSE7721-.LLSDACSB7721
.LLSDACSB7721:
	.uleb128 .LEHB31-.LFB7721
	.uleb128 .LEHE31-.LEHB31
	.uleb128 0
	.uleb128 0
	.uleb128 .LEHB32-.LFB7721
	.uleb128 .LEHE32-.LEHB32
	.uleb128 .L962-.LFB7721
	.uleb128 0
	.uleb128 .LEHB33-.LFB7721
	.uleb128 .LEHE33-.LEHB33
	.uleb128 0
	.uleb128 0
.LLSDACSE7721:
	.text
	.cfi_endproc
	.section	.text.unlikely
	.cfi_startproc
	.cfi_personality 0x9b,DW.ref.__gxx_personality_v0
	.cfi_lsda 0x1b,.LLSDAC7721
	.type	_ZN8asiodnp39IOHandler13BeginTransmitERKSt10shared_ptrIN8opendnp312ILinkSessionEERKN7openpal6RSliceE.cold, @function
_ZN8asiodnp39IOHandler13BeginTransmitERKSt10shared_ptrIN8opendnp312ILinkSessionEERKN7openpal6RSliceE.cold:
.LFSB7721:
.L959:
	.cfi_def_cfa_offset 80
	.cfi_offset 3, -32
	.cfi_offset 6, -24
	.cfi_offset 12, -16
	movq	24(%rsp), %rdi
	testq	%rdi, %rdi
	je	.L960
	call	_ZNSt16_Sp_counted_baseILN9__gnu_cxx12_Lock_policyE2EE10_M_releaseEv@PLT
.L960:
	movq	%rbp, %rdi
.LEHB34:
	call	_Unwind_Resume@PLT
.LEHE34:
	.cfi_endproc
.LFE7721:
	.section	.gcc_except_table
.LLSDAC7721:
	.byte	0xff
	.byte	0xff
	.byte	0x1
	.uleb128 .LLSDACSEC7721-.LLSDACSBC7721
.LLSDACSBC7721:
	.uleb128 .LEHB34-.LCOLDB38
	.uleb128 .LEHE34-.LEHB34
	.uleb128 0
	.uleb128 0
.LLSDACSEC7721:
	.section	.text.unlikely
	.text
	.size	_ZN8asiodnp39IOHandler13BeginTransmitERKSt10shared_ptrIN8opendnp312ILinkSessionEERKN7openpal6RSliceE, .-_ZN8asiodnp39IOHandler13BeginTransmitERKSt10shared_ptrIN8opendnp312ILinkSessionEERKN7openpal6RSliceE
	.section	.text.unlikely
	.size	_ZN8asiodnp39IOHandler13BeginTransmitERKSt10shared_ptrIN8opendnp312ILinkSessionEERKN7openpal6RSliceE.cold, .-_ZN8asiodnp39IOHandler13BeginTransmitERKSt10shared_ptrIN8opendnp312ILinkSessionEERKN7openpal6RSliceE.cold
.LCOLDE38:
	.text
.LHOTE38:
	.section	.rodata._ZNSt6vectorIN8asiodnp39IOHandler7SessionESaIS2_EE17_M_realloc_insertIJS2_EEEvN9__gnu_cxx17__normal_iteratorIPS2_S4_EEDpOT_.str1.1,"aMS",@progbits,1
.LC39:
	.string	"vector::_M_realloc_insert"
	.section	.text._ZNSt6vectorIN8asiodnp39IOHandler7SessionESaIS2_EE17_M_realloc_insertIJS2_EEEvN9__gnu_cxx17__normal_iteratorIPS2_S4_EEDpOT_,"axG",@progbits,_ZNSt6vectorIN8asiodnp39IOHandler7SessionESaIS2_EE17_M_realloc_insertIJS2_EEEvN9__gnu_cxx17__normal_iteratorIPS2_S4_EEDpOT_,comdat
	.align 2
	.p2align 4
	.weak	_ZNSt6vectorIN8asiodnp39IOHandler7SessionESaIS2_EE17_M_realloc_insertIJS2_EEEvN9__gnu_cxx17__normal_iteratorIPS2_S4_EEDpOT_
	.type	_ZNSt6vectorIN8asiodnp39IOHandler7SessionESaIS2_EE17_M_realloc_insertIJS2_EEEvN9__gnu_cxx17__normal_iteratorIPS2_S4_EEDpOT_, @function
_ZNSt6vectorIN8asiodnp39IOHandler7SessionESaIS2_EE17_M_realloc_insertIJS2_EEEvN9__gnu_cxx17__normal_iteratorIPS2_S4_EEDpOT_:
.LFB9478:
	.cfi_startproc
	movabsq	$-6148914691236517205, %rcx
	pushq	%r15
	.cfi_def_cfa_offset 16
	.cfi_offset 15, -16
	pushq	%r14
	.cfi_def_cfa_offset 24
	.cfi_offset 14, -24
	pushq	%r13
	.cfi_def_cfa_offset 32
	.cfi_offset 13, -32
	pushq	%r12
	.cfi_def_cfa_offset 40
	.cfi_offset 12, -40
	pushq	%rbp
	.cfi_def_cfa_offset 48
	.cfi_offset 6, -48
	pushq	%rbx
	.cfi_def_cfa_offset 56
	.cfi_offset 3, -56
	movq	%rsi, %rbx
	movabsq	$384307168202282325, %rsi
	subq	$24, %rsp
	.cfi_def_cfa_offset 80
	movq	8(%rdi), %r15
	movq	(%rdi), %r13
	movq	%r15, %rax
	subq	%r13, %rax
	sarq	$3, %rax
	imulq	%rcx, %rax
	cmpq	%rsi, %rax
	je	.L999
	testq	%rax, %rax
	movl	$1, %ecx
	movq	%rdi, %r12
	cmovne	%rax, %rcx
	xorl	%edi, %edi
	addq	%rcx, %rax
	movq	%rbx, %rcx
	setc	%dil
	subq	%r13, %rcx
	testq	%rdi, %rdi
	jne	.L991
	testq	%rax, %rax
	jne	.L984
	movl	$24, %r8d
	xorl	%r14d, %r14d
	xorl	%ebp, %ebp
.L990:
	leaq	0(%rbp,%rcx), %rax
	movzbl	(%rdx), %ecx
	movdqu	8(%rdx), %xmm2
	pxor	%xmm0, %xmm0
	movups	%xmm0, 8(%rdx)
	movb	%cl, (%rax)
	movl	2(%rdx), %ecx
	movups	%xmm2, 8(%rax)
	movl	%ecx, 2(%rax)
	movzbl	6(%rdx), %ecx
	movb	%cl, 6(%rax)
	cmpq	%r13, %rbx
	je	.L985
	movq	%rbp, %rdx
	movq	%r13, %rax
	.p2align 4,,10
	.p2align 3
.L986:
	movzbl	(%rax), %ecx
	addq	$24, %rax
	addq	$24, %rdx
	movb	%cl, -24(%rdx)
	movl	-22(%rax), %ecx
	movl	%ecx, -22(%rdx)
	movzbl	-18(%rax), %ecx
	movb	%cl, -18(%rdx)
	movq	-16(%rax), %rcx
	movq	%rcx, -16(%rdx)
	movq	-8(%rax), %rcx
	movq	%rcx, -8(%rdx)
	cmpq	%rbx, %rax
	jne	.L986
	leaq	-24(%rbx), %rax
	subq	%r13, %rax
	shrq	$3, %rax
	leaq	48(%rbp,%rax,8), %r8
.L985:
	cmpq	%r15, %rbx
	je	.L987
	movq	%rbx, %rax
	movq	%r8, %rdx
	.p2align 4,,10
	.p2align 3
.L988:
	movzbl	(%rax), %ecx
	movdqu	8(%rax), %xmm1
	addq	$24, %rax
	addq	$24, %rdx
	movb	%cl, -24(%rdx)
	movl	-22(%rax), %ecx
	movups	%xmm1, -16(%rdx)
	movl	%ecx, -22(%rdx)
	movzbl	-18(%rax), %ecx
	movb	%cl, -18(%rdx)
	cmpq	%r15, %rax
	jne	.L988
	subq	%rbx, %rax
	subq	$24, %rax
	shrq	$3, %rax
	leaq	24(%r8,%rax,8), %r8
.L987:
	testq	%r13, %r13
	je	.L989
	movq	16(%r12), %rsi
	movq	%r13, %rdi
	movq	%r8, (%rsp)
	subq	%r13, %rsi
	call	_ZdlPvm@PLT
	movq	(%rsp), %r8
.L989:
	movq	%rbp, %xmm0
	movq	%r8, %xmm3
	movq	%r14, 16(%r12)
	punpcklqdq	%xmm3, %xmm0
	movups	%xmm0, (%r12)
	addq	$24, %rsp
	.cfi_remember_state
	.cfi_def_cfa_offset 56
	popq	%rbx
	.cfi_def_cfa_offset 48
	popq	%rbp
	.cfi_def_cfa_offset 40
	popq	%r12
	.cfi_def_cfa_offset 32
	popq	%r13
	.cfi_def_cfa_offset 24
	popq	%r14
	.cfi_def_cfa_offset 16
	popq	%r15
	.cfi_def_cfa_offset 8
	ret
	.p2align 4,,10
	.p2align 3
.L984:
	.cfi_restore_state
	cmpq	%rsi, %rax
	cmova	%rsi, %rax
	leaq	(%rax,%rax,2), %r14
	salq	$3, %r14
.L983:
	movq	%r14, %rdi
	movq	%rdx, 8(%rsp)
	movq	%rcx, (%rsp)
	call	_Znwm@PLT
	movq	(%rsp), %rcx
	movq	8(%rsp), %rdx
	movq	%rax, %rbp
	addq	%rax, %r14
	leaq	24(%rax), %r8
	jmp	.L990
	.p2align 4,,10
	.p2align 3
.L991:
	movabsq	$9223372036854775800, %r14
	jmp	.L983
.L999:
	leaq	.LC39(%rip), %rdi
	call	_ZSt20__throw_length_errorPKc@PLT
	.cfi_endproc
.LFE9478:
	.size	_ZNSt6vectorIN8asiodnp39IOHandler7SessionESaIS2_EE17_M_realloc_insertIJS2_EEEvN9__gnu_cxx17__normal_iteratorIPS2_S4_EEDpOT_, .-_ZNSt6vectorIN8asiodnp39IOHandler7SessionESaIS2_EE17_M_realloc_insertIJS2_EEEvN9__gnu_cxx17__normal_iteratorIPS2_S4_EEDpOT_
	.section	.rodata.str1.8
	.align 8
.LC40:
	.string	"Route already in use: %u -> %u"
	.align 8
.LC41:
	.string	"/home/master/projects/Procont_EE/utils/dnp3_src/cpp/libs/src/asiodnp3/IOHandler.cpp(122)"
	.section	.rodata.str1.1,"aMS",@progbits,1
.LC42:
	.string	"Context cannot be bound 2x"
	.section	.rodata.str1.8
	.align 8
.LC43:
	.string	"/home/master/projects/Procont_EE/utils/dnp3_src/cpp/libs/src/asiodnp3/IOHandler.cpp(128)"
	.section	.text.unlikely
	.align 2
.LCOLDB44:
	.text
.LHOTB44:
	.align 2
	.p2align 4
	.globl	_ZN8asiodnp39IOHandler10AddContextERKSt10shared_ptrIN8opendnp312ILinkSessionEERKNS2_5RouteE
	.type	_ZN8asiodnp39IOHandler10AddContextERKSt10shared_ptrIN8opendnp312ILinkSessionEERKNS2_5RouteE, @function
_ZN8asiodnp39IOHandler10AddContextERKSt10shared_ptrIN8opendnp312ILinkSessionEERKNS2_5RouteE:
.LFB7725:
	.cfi_startproc
	.cfi_personality 0x9b,DW.ref.__gxx_personality_v0
	.cfi_lsda 0x1b,.LLSDA7725
	pushq	%r14
	.cfi_def_cfa_offset 16
	.cfi_offset 14, -16
	pushq	%r13
	.cfi_def_cfa_offset 24
	.cfi_offset 13, -24
	movq	%rdx, %r13
	pushq	%r12
	.cfi_def_cfa_offset 32
	.cfi_offset 12, -32
	pushq	%rbp
	.cfi_def_cfa_offset 40
	.cfi_offset 6, -40
	movq	%rsi, %rbp
	movq	%rdx, %rsi
	pushq	%rbx
	.cfi_def_cfa_offset 48
	.cfi_offset 3, -48
	movq	%rdi, %rbx
	subq	$160, %rsp
	.cfi_def_cfa_offset 208
	movq	%fs:40, %rax
	movq	%rax, 152(%rsp)
	xorl	%eax, %eax
.LEHB35:
	call	_ZNK8asiodnp39IOHandler12IsRouteInUseERKN8opendnp35RouteE@PLT
	testb	%al, %al
	jne	.L1032
	movq	%rbp, %rsi
	movq	%rbx, %rdi
	movl	%eax, %r12d
	call	_ZNK8asiodnp39IOHandler14IsSessionInUseERKSt10shared_ptrIN8opendnp312ILinkSessionEE@PLT
	testb	%al, %al
	jne	.L1033
	movl	0(%r13), %eax
	movdqu	0(%rbp), %xmm0
	movb	$0, (%rsp)
	movb	$0, 6(%rsp)
	movl	%eax, 2(%rsp)
	movq	8(%rbp), %rax
	movups	%xmm0, 8(%rsp)
	testq	%rax, %rax
	je	.L1006
	cmpq	$0, _ZL28__gthrw___pthread_key_createPjPFvPvE@GOTPCREL(%rip)
	jne	.L1034
	addl	$1, 8(%rax)
.L1006:
	movq	120(%rbx), %rsi
	cmpq	128(%rbx), %rsi
	je	.L1008
	movzbl	(%rsp), %eax
	addq	$24, %rsi
	movb	%al, -24(%rsi)
	movl	2(%rsp), %eax
	movl	%eax, -22(%rsi)
	movzbl	6(%rsp), %eax
	movb	%al, -18(%rsi)
	movq	8(%rsp), %rax
	movq	$0, -8(%rsi)
	movq	%rax, -16(%rsi)
	movq	16(%rsp), %rax
	movq	$0, 16(%rsp)
	movq	%rax, -8(%rsi)
	movq	$0, 8(%rsp)
	movq	%rsi, 120(%rbx)
.L1009:
	movq	16(%rsp), %rbp
	testq	%rbp, %rbp
	je	.L1011
	movq	_ZL28__gthrw___pthread_key_createPjPFvPvE@GOTPCREL(%rip), %rbx
	testq	%rbx, %rbx
	jne	.L1035
	movl	8(%rbp), %eax
	leal	-1(%rax), %edx
	movl	%edx, 8(%rbp)
.L1013:
	cmpl	$1, %eax
	jne	.L1011
	movq	0(%rbp), %rax
	movq	%rbp, %rdi
	call	*16(%rax)
	testq	%rbx, %rbx
	jne	.L1036
	movl	12(%rbp), %eax
	leal	-1(%rax), %edx
	movl	%edx, 12(%rbp)
.L1016:
	cmpl	$1, %eax
	je	.L1037
	.p2align 4,,10
	.p2align 3
.L1011:
	movl	$1, %r12d
	jmp	.L1000
	.p2align 4,,10
	.p2align 3
.L1033:
	leaq	32(%rbx), %rbp
	movq	%rsp, %r13
	movl	$2, (%rsp)
	movq	%r13, %rsi
	movq	%rbp, %rdi
	call	_ZNK7openpal6Logger9IsEnabledERKNS_10LogFiltersE@PLT
	testb	%al, %al
	jne	.L1038
.L1031:
	xorl	%r12d, %r12d
.L1000:
	movq	152(%rsp), %rax
	subq	%fs:40, %rax
	jne	.L1039
	addq	$160, %rsp
	.cfi_remember_state
	.cfi_def_cfa_offset 48
	movl	%r12d, %eax
	popq	%rbx
	.cfi_def_cfa_offset 40
	popq	%rbp
	.cfi_def_cfa_offset 32
	popq	%r12
	.cfi_def_cfa_offset 24
	popq	%r13
	.cfi_def_cfa_offset 16
	popq	%r14
	.cfi_def_cfa_offset 8
	ret
	.p2align 4,,10
	.p2align 3
.L1032:
	.cfi_restore_state
	leaq	32(%rbx), %rbp
	movq	%rsp, %r12
	movl	$2, (%rsp)
	movq	%r12, %rsi
	movq	%rbp, %rdi
	call	_ZNK7openpal6Logger9IsEnabledERKNS_10LogFiltersE@PLT
	testb	%al, %al
	je	.L1031
	movzwl	0(%r13), %eax
	leaq	32(%rsp), %r14
	subq	$8, %rsp
	.cfi_def_cfa_offset 216
	movzwl	2(%r13), %r9d
	movq	%r14, %rdi
	movl	$120, %ecx
	movl	$1, %edx
	movl	$120, %esi
	pushq	%rax
	.cfi_def_cfa_offset 224
	leaq	.LC40(%rip), %r8
	xorl	%eax, %eax
	call	__snprintf_chk@PLT
	movq	%r14, %rcx
	movq	%r12, %rsi
	movq	%rbp, %rdi
	movl	$2, 16(%rsp)
	popq	%rax
	.cfi_def_cfa_offset 216
	popq	%rdx
	.cfi_def_cfa_offset 208
	leaq	.LC41(%rip), %rdx
	call	_ZN7openpal6Logger3LogERKNS_10LogFiltersEPKcS5_@PLT
	jmp	.L1031
	.p2align 4,,10
	.p2align 3
.L1035:
	movl	$-1, %eax
	lock xaddl	%eax, 8(%rbp)
	jmp	.L1013
	.p2align 4,,10
	.p2align 3
.L1038:
	leaq	.LC42(%rip), %rcx
	leaq	.LC43(%rip), %rdx
	movq	%r13, %rsi
	movq	%rbp, %rdi
	movl	$2, (%rsp)
	call	_ZN7openpal6Logger3LogERKNS_10LogFiltersEPKcS5_@PLT
.LEHE35:
	jmp	.L1000
	.p2align 4,,10
	.p2align 3
.L1008:
	movq	%rsp, %rdx
	leaq	112(%rbx), %rdi
.LEHB36:
	call	_ZNSt6vectorIN8asiodnp39IOHandler7SessionESaIS2_EE17_M_realloc_insertIJS2_EEEvN9__gnu_cxx17__normal_iteratorIPS2_S4_EEDpOT_@PLT
.LEHE36:
	jmp	.L1009
	.p2align 4,,10
	.p2align 3
.L1034:
	lock addl	$1, 8(%rax)
	jmp	.L1006
	.p2align 4,,10
	.p2align 3
.L1037:
	movq	0(%rbp), %rax
	movq	%rbp, %rdi
	call	*24(%rax)
	jmp	.L1011
	.p2align 4,,10
	.p2align 3
.L1036:
	movl	$-1, %eax
	lock xaddl	%eax, 12(%rbp)
	jmp	.L1016
.L1039:
	call	__stack_chk_fail@PLT
.L1020:
	movq	%rax, %rbp
	jmp	.L1017
	.section	.gcc_except_table
.LLSDA7725:
	.byte	0xff
	.byte	0xff
	.byte	0x1
	.uleb128 .LLSDACSE7725-.LLSDACSB7725
.LLSDACSB7725:
	.uleb128 .LEHB35-.LFB7725
	.uleb128 .LEHE35-.LEHB35
	.uleb128 0
	.uleb128 0
	.uleb128 .LEHB36-.LFB7725
	.uleb128 .LEHE36-.LEHB36
	.uleb128 .L1020-.LFB7725
	.uleb128 0
.LLSDACSE7725:
	.text
	.cfi_endproc
	.section	.text.unlikely
	.cfi_startproc
	.cfi_personality 0x9b,DW.ref.__gxx_personality_v0
	.cfi_lsda 0x1b,.LLSDAC7725
	.type	_ZN8asiodnp39IOHandler10AddContextERKSt10shared_ptrIN8opendnp312ILinkSessionEERKNS2_5RouteE.cold, @function
_ZN8asiodnp39IOHandler10AddContextERKSt10shared_ptrIN8opendnp312ILinkSessionEERKNS2_5RouteE.cold:
.LFSB7725:
.L1017:
	.cfi_def_cfa_offset 208
	.cfi_offset 3, -48
	.cfi_offset 6, -40
	.cfi_offset 12, -32
	.cfi_offset 13, -24
	.cfi_offset 14, -16
	movq	16(%rsp), %rdi
	testq	%rdi, %rdi
	je	.L1018
	call	_ZNSt16_Sp_counted_baseILN9__gnu_cxx12_Lock_policyE2EE10_M_releaseEv@PLT
.L1018:
	movq	%rbp, %rdi
.LEHB37:
	call	_Unwind_Resume@PLT
.LEHE37:
	.cfi_endproc
.LFE7725:
	.section	.gcc_except_table
.LLSDAC7725:
	.byte	0xff
	.byte	0xff
	.byte	0x1
	.uleb128 .LLSDACSEC7725-.LLSDACSBC7725
.LLSDACSBC7725:
	.uleb128 .LEHB37-.LCOLDB44
	.uleb128 .LEHE37-.LEHB37
	.uleb128 0
	.uleb128 0
.LLSDACSEC7725:
	.section	.text.unlikely
	.text
	.size	_ZN8asiodnp39IOHandler10AddContextERKSt10shared_ptrIN8opendnp312ILinkSessionEERKNS2_5RouteE, .-_ZN8asiodnp39IOHandler10AddContextERKSt10shared_ptrIN8opendnp312ILinkSessionEERKNS2_5RouteE
	.section	.text.unlikely
	.size	_ZN8asiodnp39IOHandler10AddContextERKSt10shared_ptrIN8opendnp312ILinkSessionEERKNS2_5RouteE.cold, .-_ZN8asiodnp39IOHandler10AddContextERKSt10shared_ptrIN8opendnp312ILinkSessionEERKNS2_5RouteE.cold
.LCOLDE44:
	.text
.LHOTE44:
	.section	.text._ZN4asio6detail18completion_handlerIZN7asiopal13IAsyncChannel8ShutdownEvEUlvE_E3ptr5resetEv,"axG",@progbits,_ZN4asio6detail18completion_handlerIZN7asiopal13IAsyncChannel8ShutdownEvEUlvE_E3ptr5resetEv,comdat
	.align 2
	.p2align 4
	.weak	_ZN4asio6detail18completion_handlerIZN7asiopal13IAsyncChannel8ShutdownEvEUlvE_E3ptr5resetEv
	.type	_ZN4asio6detail18completion_handlerIZN7asiopal13IAsyncChannel8ShutdownEvEUlvE_E3ptr5resetEv, @function
_ZN4asio6detail18completion_handlerIZN7asiopal13IAsyncChannel8ShutdownEvEUlvE_E3ptr5resetEv:
.LFB9639:
	.cfi_startproc
	pushq	%r12
	.cfi_def_cfa_offset 16
	.cfi_offset 12, -16
	pushq	%rbp
	.cfi_def_cfa_offset 24
	.cfi_offset 6, -24
	pushq	%rbx
	.cfi_def_cfa_offset 32
	.cfi_offset 3, -32
	movq	16(%rdi), %rax
	movq	%rdi, %rbx
	testq	%rax, %rax
	je	.L1041
	movq	32(%rax), %rbp
	testq	%rbp, %rbp
	je	.L1043
	movq	_ZL28__gthrw___pthread_key_createPjPFvPvE@GOTPCREL(%rip), %r12
	testq	%r12, %r12
	jne	.L1065
	movl	8(%rbp), %eax
	leal	-1(%rax), %edx
	movl	%edx, 8(%rbp)
.L1045:
	cmpl	$1, %eax
	je	.L1066
.L1043:
	movq	$0, 16(%rbx)
.L1041:
	movq	8(%rbx), %rbp
	testq	%rbp, %rbp
	je	.L1040
	data16	leaq	_ZN4asio6detail15keyword_tss_ptrINS0_10call_stackINS0_15task_io_serviceENS0_27task_io_service_thread_infoEE7contextEE6value_E@tlsgd(%rip), %rdi
	.value	0x6666
	rex64
	call	__tls_get_addr@PLT
	movq	(%rax), %rax
	testq	%rax, %rax
	je	.L1050
	movq	8(%rax), %rax
	testq	%rax, %rax
	je	.L1050
	cmpq	$0, (%rax)
	je	.L1067
.L1050:
	movq	%rbp, %rdi
	call	_ZdlPv@PLT
.L1051:
	movq	$0, 8(%rbx)
.L1040:
	popq	%rbx
	.cfi_remember_state
	.cfi_def_cfa_offset 24
	popq	%rbp
	.cfi_def_cfa_offset 16
	popq	%r12
	.cfi_def_cfa_offset 8
	ret
	.p2align 4,,10
	.p2align 3
.L1066:
	.cfi_restore_state
	movq	0(%rbp), %rax
	movq	%rbp, %rdi
	call	*16(%rax)
	testq	%r12, %r12
	jne	.L1068
	movl	12(%rbp), %eax
	leal	-1(%rax), %edx
	movl	%edx, 12(%rbp)
.L1048:
	cmpl	$1, %eax
	jne	.L1043
	movq	0(%rbp), %rax
	movq	%rbp, %rdi
	call	*24(%rax)
	jmp	.L1043
	.p2align 4,,10
	.p2align 3
.L1067:
	movzbl	40(%rbp), %edx
	movb	%dl, 0(%rbp)
	movq	%rbp, (%rax)
	jmp	.L1051
	.p2align 4,,10
	.p2align 3
.L1065:
	movl	$-1, %eax
	lock xaddl	%eax, 8(%rbp)
	jmp	.L1045
	.p2align 4,,10
	.p2align 3
.L1068:
	movl	$-1, %eax
	lock xaddl	%eax, 12(%rbp)
	jmp	.L1048
	.cfi_endproc
.LFE9639:
	.size	_ZN4asio6detail18completion_handlerIZN7asiopal13IAsyncChannel8ShutdownEvEUlvE_E3ptr5resetEv, .-_ZN4asio6detail18completion_handlerIZN7asiopal13IAsyncChannel8ShutdownEvEUlvE_E3ptr5resetEv
	.section	.text._ZN4asio6detail18completion_handlerIZN7asiopal13IAsyncChannel8ShutdownEvEUlvE_E11do_completeEPNS0_15task_io_serviceEPNS0_25task_io_service_operationERKSt10error_codem,"axG",@progbits,_ZN4asio6detail18completion_handlerIZN7asiopal13IAsyncChannel8ShutdownEvEUlvE_E11do_completeEPNS0_15task_io_serviceEPNS0_25task_io_service_operationERKSt10error_codem,comdat
	.p2align 4
	.weak	_ZN4asio6detail18completion_handlerIZN7asiopal13IAsyncChannel8ShutdownEvEUlvE_E11do_completeEPNS0_15task_io_serviceEPNS0_25task_io_service_operationERKSt10error_codem
	.type	_ZN4asio6detail18completion_handlerIZN7asiopal13IAsyncChannel8ShutdownEvEUlvE_E11do_completeEPNS0_15task_io_serviceEPNS0_25task_io_service_operationERKSt10error_codem, @function
_ZN4asio6detail18completion_handlerIZN7asiopal13IAsyncChannel8ShutdownEvEUlvE_E11do_completeEPNS0_15task_io_serviceEPNS0_25task_io_service_operationERKSt10error_codem:
.LFB9643:
	.cfi_startproc
	.cfi_personality 0x9b,DW.ref.__gxx_personality_v0
	.cfi_lsda 0x1b,.LLSDA9643
	pushq	%r12
	.cfi_def_cfa_offset 16
	.cfi_offset 12, -16
	movq	%rsi, %r12
	pushq	%rbp
	.cfi_def_cfa_offset 24
	.cfi_offset 6, -24
	pushq	%rbx
	.cfi_def_cfa_offset 32
	.cfi_offset 3, -32
	movq	%rdi, %rbx
	subq	$64, %rsp
	.cfi_def_cfa_offset 96
	movdqu	24(%rsi), %xmm0
	movq	32(%rsi), %rbp
	movq	%fs:40, %rax
	movq	%rax, 56(%rsp)
	xorl	%eax, %eax
	movq	%rsp, %rax
	movq	%rsi, 40(%rsp)
	movq	%rax, 32(%rsp)
	movq	$0, 48(%rsp)
	movaps	%xmm0, (%rsp)
	data16	leaq	_ZN4asio6detail15keyword_tss_ptrINS0_10call_stackINS0_15task_io_serviceENS0_27task_io_service_thread_infoEE7contextEE6value_E@tlsgd(%rip), %rdi
	.value	0x6666
	rex64
	call	__tls_get_addr@PLT
	movq	(%rax), %rax
	testq	%rax, %rax
	je	.L1070
	movq	8(%rax), %rax
	testq	%rax, %rax
	je	.L1070
	cmpq	$0, (%rax)
	je	.L1133
.L1070:
	movq	%r12, %rdi
	call	_ZdlPv@PLT
	movq	8(%rsp), %rbp
.L1071:
	movq	$0, 40(%rsp)
	testq	%rbx, %rbx
	je	.L1072
	movq	(%rsp), %rax
	movq	%rbp, 24(%rsp)
	movq	%rax, 16(%rsp)
	testq	%rbp, %rbp
	je	.L1073
	cmpq	$0, _ZL28__gthrw___pthread_key_createPjPFvPvE@GOTPCREL(%rip)
	jne	.L1134
	addl	$1, 8(%rbp)
.L1073:
	leaq	16(%rsp), %rdi
.LEHB38:
	call	_ZN7asiopal13IAsyncChannel16CheckForShutdownESt10shared_ptrIS0_E.isra.0
.LEHE38:
	movq	24(%rsp), %rbp
	testq	%rbp, %rbp
	je	.L1076
	movq	_ZL28__gthrw___pthread_key_createPjPFvPvE@GOTPCREL(%rip), %rbx
	testq	%rbx, %rbx
	jne	.L1135
	movl	8(%rbp), %eax
	leal	-1(%rax), %edx
	movl	%edx, 8(%rbp)
.L1078:
	cmpl	$1, %eax
	jne	.L1076
	movq	0(%rbp), %rax
	movq	%rbp, %rdi
	call	*16(%rax)
	testq	%rbx, %rbx
	jne	.L1136
	movl	12(%rbp), %eax
	leal	-1(%rax), %edx
	movl	%edx, 12(%rbp)
.L1081:
	cmpl	$1, %eax
	je	.L1137
	.p2align 4,,10
	.p2align 3
.L1076:
	sfence
	movq	8(%rsp), %rbp
.L1072:
	testq	%rbp, %rbp
	je	.L1087
	movq	_ZL28__gthrw___pthread_key_createPjPFvPvE@GOTPCREL(%rip), %rbx
	testq	%rbx, %rbx
	jne	.L1138
	movl	8(%rbp), %eax
	leal	-1(%rax), %edx
	movl	%edx, 8(%rbp)
.L1089:
	cmpl	$1, %eax
	je	.L1139
.L1087:
	movq	48(%rsp), %rax
	testq	%rax, %rax
	je	.L1093
	movq	32(%rax), %rbp
	testq	%rbp, %rbp
	je	.L1095
	movq	_ZL28__gthrw___pthread_key_createPjPFvPvE@GOTPCREL(%rip), %rbx
	testq	%rbx, %rbx
	jne	.L1140
	movl	8(%rbp), %eax
	leal	-1(%rax), %edx
	movl	%edx, 8(%rbp)
.L1097:
	cmpl	$1, %eax
	je	.L1141
.L1095:
	movq	$0, 48(%rsp)
.L1093:
	movq	40(%rsp), %rbp
	testq	%rbp, %rbp
	je	.L1069
	data16	leaq	_ZN4asio6detail15keyword_tss_ptrINS0_10call_stackINS0_15task_io_serviceENS0_27task_io_service_thread_infoEE7contextEE6value_E@tlsgd(%rip), %rdi
	.value	0x6666
	rex64
	call	__tls_get_addr@PLT
	movq	(%rax), %rax
	testq	%rax, %rax
	je	.L1102
	movq	8(%rax), %rax
	testq	%rax, %rax
	je	.L1102
	cmpq	$0, (%rax)
	je	.L1142
.L1102:
	movq	%rbp, %rdi
	call	_ZdlPv@PLT
.L1069:
	movq	56(%rsp), %rax
	subq	%fs:40, %rax
	jne	.L1143
	addq	$64, %rsp
	.cfi_remember_state
	.cfi_def_cfa_offset 32
	popq	%rbx
	.cfi_def_cfa_offset 24
	popq	%rbp
	.cfi_def_cfa_offset 16
	popq	%r12
	.cfi_def_cfa_offset 8
	ret
	.p2align 4,,10
	.p2align 3
.L1139:
	.cfi_restore_state
	movq	0(%rbp), %rax
	movq	%rbp, %rdi
	call	*16(%rax)
	testq	%rbx, %rbx
	jne	.L1144
	movl	12(%rbp), %eax
	leal	-1(%rax), %edx
	movl	%edx, 12(%rbp)
.L1092:
	cmpl	$1, %eax
	jne	.L1087
	movq	0(%rbp), %rax
	movq	%rbp, %rdi
	call	*24(%rax)
	jmp	.L1087
	.p2align 4,,10
	.p2align 3
.L1138:
	movl	$-1, %eax
	lock xaddl	%eax, 8(%rbp)
	jmp	.L1089
	.p2align 4,,10
	.p2align 3
.L1141:
	movq	0(%rbp), %rax
	movq	%rbp, %rdi
	call	*16(%rax)
	testq	%rbx, %rbx
	jne	.L1145
	movl	12(%rbp), %eax
	leal	-1(%rax), %edx
	movl	%edx, 12(%rbp)
.L1100:
	cmpl	$1, %eax
	jne	.L1095
	movq	0(%rbp), %rax
	movq	%rbp, %rdi
	call	*24(%rax)
	jmp	.L1095
	.p2align 4,,10
	.p2align 3
.L1135:
	movl	$-1, %eax
	lock xaddl	%eax, 8(%rbp)
	jmp	.L1078
	.p2align 4,,10
	.p2align 3
.L1142:
	movzbl	40(%rbp), %edx
	movb	%dl, 0(%rbp)
	movq	%rbp, (%rax)
	jmp	.L1069
	.p2align 4,,10
	.p2align 3
.L1133:
	movzbl	40(%r12), %edx
	movb	%dl, (%r12)
	movq	%r12, (%rax)
	jmp	.L1071
	.p2align 4,,10
	.p2align 3
.L1140:
	movl	$-1, %eax
	lock xaddl	%eax, 8(%rbp)
	jmp	.L1097
	.p2align 4,,10
	.p2align 3
.L1134:
	lock addl	$1, 8(%rbp)
	jmp	.L1073
	.p2align 4,,10
	.p2align 3
.L1144:
	movl	$-1, %eax
	lock xaddl	%eax, 12(%rbp)
	jmp	.L1092
	.p2align 4,,10
	.p2align 3
.L1137:
	movq	0(%rbp), %rax
	movq	%rbp, %rdi
	call	*24(%rax)
	jmp	.L1076
	.p2align 4,,10
	.p2align 3
.L1145:
	movl	$-1, %eax
	lock xaddl	%eax, 12(%rbp)
	jmp	.L1100
	.p2align 4,,10
	.p2align 3
.L1136:
	movl	$-1, %eax
	lock xaddl	%eax, 12(%rbp)
	jmp	.L1081
.L1143:
	call	__stack_chk_fail@PLT
.L1104:
	movq	%rax, %rbp
.L1082:
	movq	24(%rsp), %rdi
	testq	%rdi, %rdi
	je	.L1083
	call	_ZNSt16_Sp_counted_baseILN9__gnu_cxx12_Lock_policyE2EE10_M_releaseEv@PLT
.L1083:
	sfence
	movq	8(%rsp), %rdi
	testq	%rdi, %rdi
	je	.L1085
	call	_ZNSt16_Sp_counted_baseILN9__gnu_cxx12_Lock_policyE2EE10_M_releaseEv@PLT
.L1085:
	leaq	32(%rsp), %rdi
	call	_ZN4asio6detail18completion_handlerIZN7asiopal13IAsyncChannel8ShutdownEvEUlvE_E3ptr5resetEv@PLT
	movq	%rbp, %rdi
.LEHB39:
	call	_Unwind_Resume@PLT
.LEHE39:
	.cfi_endproc
.LFE9643:
	.section	.gcc_except_table
.LLSDA9643:
	.byte	0xff
	.byte	0xff
	.byte	0x1
	.uleb128 .LLSDACSE9643-.LLSDACSB9643
.LLSDACSB9643:
	.uleb128 .LEHB38-.LFB9643
	.uleb128 .LEHE38-.LEHB38
	.uleb128 .L1104-.LFB9643
	.uleb128 0
	.uleb128 .LEHB39-.LFB9643
	.uleb128 .LEHE39-.LEHB39
	.uleb128 0
	.uleb128 0
.LLSDACSE9643:
	.section	.text._ZN4asio6detail18completion_handlerIZN7asiopal13IAsyncChannel8ShutdownEvEUlvE_E11do_completeEPNS0_15task_io_serviceEPNS0_25task_io_service_operationERKSt10error_codem,"axG",@progbits,_ZN4asio6detail18completion_handlerIZN7asiopal13IAsyncChannel8ShutdownEvEUlvE_E11do_completeEPNS0_15task_io_serviceEPNS0_25task_io_service_operationERKSt10error_codem,comdat
	.size	_ZN4asio6detail18completion_handlerIZN7asiopal13IAsyncChannel8ShutdownEvEUlvE_E11do_completeEPNS0_15task_io_serviceEPNS0_25task_io_service_operationERKSt10error_codem, .-_ZN4asio6detail18completion_handlerIZN7asiopal13IAsyncChannel8ShutdownEvEUlvE_E11do_completeEPNS0_15task_io_serviceEPNS0_25task_io_service_operationERKSt10error_codem
	.section	.text._ZN4asio6detail18completion_handlerIZN7asiopal13IAsyncChannel16CheckForShutdownESt10shared_ptrIS3_EEUlvE_E3ptr5resetEv,"axG",@progbits,_ZN4asio6detail18completion_handlerIZN7asiopal13IAsyncChannel16CheckForShutdownESt10shared_ptrIS3_EEUlvE_E3ptr5resetEv,comdat
	.align 2
	.p2align 4
	.weak	_ZN4asio6detail18completion_handlerIZN7asiopal13IAsyncChannel16CheckForShutdownESt10shared_ptrIS3_EEUlvE_E3ptr5resetEv
	.type	_ZN4asio6detail18completion_handlerIZN7asiopal13IAsyncChannel16CheckForShutdownESt10shared_ptrIS3_EEUlvE_E3ptr5resetEv, @function
_ZN4asio6detail18completion_handlerIZN7asiopal13IAsyncChannel16CheckForShutdownESt10shared_ptrIS3_EEUlvE_E3ptr5resetEv:
.LFB9644:
	.cfi_startproc
	pushq	%r12
	.cfi_def_cfa_offset 16
	.cfi_offset 12, -16
	pushq	%rbp
	.cfi_def_cfa_offset 24
	.cfi_offset 6, -24
	pushq	%rbx
	.cfi_def_cfa_offset 32
	.cfi_offset 3, -32
	movq	16(%rdi), %rax
	movq	%rdi, %rbx
	testq	%rax, %rax
	je	.L1147
	movq	32(%rax), %rbp
	testq	%rbp, %rbp
	je	.L1149
	movq	_ZL28__gthrw___pthread_key_createPjPFvPvE@GOTPCREL(%rip), %r12
	testq	%r12, %r12
	jne	.L1171
	movl	8(%rbp), %eax
	leal	-1(%rax), %edx
	movl	%edx, 8(%rbp)
.L1151:
	cmpl	$1, %eax
	je	.L1172
.L1149:
	movq	$0, 16(%rbx)
.L1147:
	movq	8(%rbx), %rbp
	testq	%rbp, %rbp
	je	.L1146
	data16	leaq	_ZN4asio6detail15keyword_tss_ptrINS0_10call_stackINS0_15task_io_serviceENS0_27task_io_service_thread_infoEE7contextEE6value_E@tlsgd(%rip), %rdi
	.value	0x6666
	rex64
	call	__tls_get_addr@PLT
	movq	(%rax), %rax
	testq	%rax, %rax
	je	.L1156
	movq	8(%rax), %rax
	testq	%rax, %rax
	je	.L1156
	cmpq	$0, (%rax)
	je	.L1173
.L1156:
	movq	%rbp, %rdi
	call	_ZdlPv@PLT
.L1157:
	movq	$0, 8(%rbx)
.L1146:
	popq	%rbx
	.cfi_remember_state
	.cfi_def_cfa_offset 24
	popq	%rbp
	.cfi_def_cfa_offset 16
	popq	%r12
	.cfi_def_cfa_offset 8
	ret
	.p2align 4,,10
	.p2align 3
.L1172:
	.cfi_restore_state
	movq	0(%rbp), %rax
	movq	%rbp, %rdi
	call	*16(%rax)
	testq	%r12, %r12
	jne	.L1174
	movl	12(%rbp), %eax
	leal	-1(%rax), %edx
	movl	%edx, 12(%rbp)
.L1154:
	cmpl	$1, %eax
	jne	.L1149
	movq	0(%rbp), %rax
	movq	%rbp, %rdi
	call	*24(%rax)
	jmp	.L1149
	.p2align 4,,10
	.p2align 3
.L1173:
	movzbl	40(%rbp), %edx
	movb	%dl, 0(%rbp)
	movq	%rbp, (%rax)
	jmp	.L1157
	.p2align 4,,10
	.p2align 3
.L1171:
	movl	$-1, %eax
	lock xaddl	%eax, 8(%rbp)
	jmp	.L1151
	.p2align 4,,10
	.p2align 3
.L1174:
	movl	$-1, %eax
	lock xaddl	%eax, 12(%rbp)
	jmp	.L1154
	.cfi_endproc
.LFE9644:
	.size	_ZN4asio6detail18completion_handlerIZN7asiopal13IAsyncChannel16CheckForShutdownESt10shared_ptrIS3_EEUlvE_E3ptr5resetEv, .-_ZN4asio6detail18completion_handlerIZN7asiopal13IAsyncChannel16CheckForShutdownESt10shared_ptrIS3_EEUlvE_E3ptr5resetEv
	.section	.text._ZN4asio6detail18completion_handlerIZN7asiopal13IAsyncChannel16CheckForShutdownESt10shared_ptrIS3_EEUlvE_E11do_completeEPNS0_15task_io_serviceEPNS0_25task_io_service_operationERKSt10error_codem,"axG",@progbits,_ZN4asio6detail18completion_handlerIZN7asiopal13IAsyncChannel16CheckForShutdownESt10shared_ptrIS3_EEUlvE_E11do_completeEPNS0_15task_io_serviceEPNS0_25task_io_service_operationERKSt10error_codem,comdat
	.p2align 4
	.weak	_ZN4asio6detail18completion_handlerIZN7asiopal13IAsyncChannel16CheckForShutdownESt10shared_ptrIS3_EEUlvE_E11do_completeEPNS0_15task_io_serviceEPNS0_25task_io_service_operationERKSt10error_codem
	.type	_ZN4asio6detail18completion_handlerIZN7asiopal13IAsyncChannel16CheckForShutdownESt10shared_ptrIS3_EEUlvE_E11do_completeEPNS0_15task_io_serviceEPNS0_25task_io_service_operationERKSt10error_codem, @function
_ZN4asio6detail18completion_handlerIZN7asiopal13IAsyncChannel16CheckForShutdownESt10shared_ptrIS3_EEUlvE_E11do_completeEPNS0_15task_io_serviceEPNS0_25task_io_service_operationERKSt10error_codem:
.LFB9648:
	.cfi_startproc
	.cfi_personality 0x9b,DW.ref.__gxx_personality_v0
	.cfi_lsda 0x1b,.LLSDA9648
	pushq	%r12
	.cfi_def_cfa_offset 16
	.cfi_offset 12, -16
	movq	%rsi, %r12
	pushq	%rbp
	.cfi_def_cfa_offset 24
	.cfi_offset 6, -24
	pushq	%rbx
	.cfi_def_cfa_offset 32
	.cfi_offset 3, -32
	movq	%rdi, %rbx
	subq	$64, %rsp
	.cfi_def_cfa_offset 96
	movdqu	24(%rsi), %xmm0
	movq	32(%rsi), %rbp
	movq	%fs:40, %rax
	movq	%rax, 56(%rsp)
	xorl	%eax, %eax
	movq	%rsp, %rax
	movq	%rsi, 40(%rsp)
	movq	%rax, 32(%rsp)
	movq	$0, 48(%rsp)
	movaps	%xmm0, (%rsp)
	data16	leaq	_ZN4asio6detail15keyword_tss_ptrINS0_10call_stackINS0_15task_io_serviceENS0_27task_io_service_thread_infoEE7contextEE6value_E@tlsgd(%rip), %rdi
	.value	0x6666
	rex64
	call	__tls_get_addr@PLT
	movq	(%rax), %rax
	testq	%rax, %rax
	je	.L1176
	movq	8(%rax), %rax
	testq	%rax, %rax
	je	.L1176
	cmpq	$0, (%rax)
	je	.L1239
.L1176:
	movq	%r12, %rdi
	call	_ZdlPv@PLT
	movq	8(%rsp), %rbp
.L1177:
	movq	$0, 40(%rsp)
	testq	%rbx, %rbx
	je	.L1178
	movq	(%rsp), %rax
	movq	%rbp, 24(%rsp)
	movq	%rax, 16(%rsp)
	testq	%rbp, %rbp
	je	.L1179
	cmpq	$0, _ZL28__gthrw___pthread_key_createPjPFvPvE@GOTPCREL(%rip)
	jne	.L1240
	addl	$1, 8(%rbp)
.L1179:
	leaq	16(%rsp), %rdi
.LEHB40:
	call	_ZN7asiopal13IAsyncChannel16CheckForShutdownESt10shared_ptrIS0_E.isra.0
.LEHE40:
	movq	24(%rsp), %rbp
	testq	%rbp, %rbp
	je	.L1182
	movq	_ZL28__gthrw___pthread_key_createPjPFvPvE@GOTPCREL(%rip), %rbx
	testq	%rbx, %rbx
	jne	.L1241
	movl	8(%rbp), %eax
	leal	-1(%rax), %edx
	movl	%edx, 8(%rbp)
.L1184:
	cmpl	$1, %eax
	jne	.L1182
	movq	0(%rbp), %rax
	movq	%rbp, %rdi
	call	*16(%rax)
	testq	%rbx, %rbx
	jne	.L1242
	movl	12(%rbp), %eax
	leal	-1(%rax), %edx
	movl	%edx, 12(%rbp)
.L1187:
	cmpl	$1, %eax
	je	.L1243
	.p2align 4,,10
	.p2align 3
.L1182:
	sfence
	movq	8(%rsp), %rbp
.L1178:
	testq	%rbp, %rbp
	je	.L1193
	movq	_ZL28__gthrw___pthread_key_createPjPFvPvE@GOTPCREL(%rip), %rbx
	testq	%rbx, %rbx
	jne	.L1244
	movl	8(%rbp), %eax
	leal	-1(%rax), %edx
	movl	%edx, 8(%rbp)
.L1195:
	cmpl	$1, %eax
	je	.L1245
.L1193:
	movq	48(%rsp), %rax
	testq	%rax, %rax
	je	.L1199
	movq	32(%rax), %rbp
	testq	%rbp, %rbp
	je	.L1201
	movq	_ZL28__gthrw___pthread_key_createPjPFvPvE@GOTPCREL(%rip), %rbx
	testq	%rbx, %rbx
	jne	.L1246
	movl	8(%rbp), %eax
	leal	-1(%rax), %edx
	movl	%edx, 8(%rbp)
.L1203:
	cmpl	$1, %eax
	je	.L1247
.L1201:
	movq	$0, 48(%rsp)
.L1199:
	movq	40(%rsp), %rbp
	testq	%rbp, %rbp
	je	.L1175
	data16	leaq	_ZN4asio6detail15keyword_tss_ptrINS0_10call_stackINS0_15task_io_serviceENS0_27task_io_service_thread_infoEE7contextEE6value_E@tlsgd(%rip), %rdi
	.value	0x6666
	rex64
	call	__tls_get_addr@PLT
	movq	(%rax), %rax
	testq	%rax, %rax
	je	.L1208
	movq	8(%rax), %rax
	testq	%rax, %rax
	je	.L1208
	cmpq	$0, (%rax)
	je	.L1248
.L1208:
	movq	%rbp, %rdi
	call	_ZdlPv@PLT
.L1175:
	movq	56(%rsp), %rax
	subq	%fs:40, %rax
	jne	.L1249
	addq	$64, %rsp
	.cfi_remember_state
	.cfi_def_cfa_offset 32
	popq	%rbx
	.cfi_def_cfa_offset 24
	popq	%rbp
	.cfi_def_cfa_offset 16
	popq	%r12
	.cfi_def_cfa_offset 8
	ret
	.p2align 4,,10
	.p2align 3
.L1245:
	.cfi_restore_state
	movq	0(%rbp), %rax
	movq	%rbp, %rdi
	call	*16(%rax)
	testq	%rbx, %rbx
	jne	.L1250
	movl	12(%rbp), %eax
	leal	-1(%rax), %edx
	movl	%edx, 12(%rbp)
.L1198:
	cmpl	$1, %eax
	jne	.L1193
	movq	0(%rbp), %rax
	movq	%rbp, %rdi
	call	*24(%rax)
	jmp	.L1193
	.p2align 4,,10
	.p2align 3
.L1244:
	movl	$-1, %eax
	lock xaddl	%eax, 8(%rbp)
	jmp	.L1195
	.p2align 4,,10
	.p2align 3
.L1247:
	movq	0(%rbp), %rax
	movq	%rbp, %rdi
	call	*16(%rax)
	testq	%rbx, %rbx
	jne	.L1251
	movl	12(%rbp), %eax
	leal	-1(%rax), %edx
	movl	%edx, 12(%rbp)
.L1206:
	cmpl	$1, %eax
	jne	.L1201
	movq	0(%rbp), %rax
	movq	%rbp, %rdi
	call	*24(%rax)
	jmp	.L1201
	.p2align 4,,10
	.p2align 3
.L1241:
	movl	$-1, %eax
	lock xaddl	%eax, 8(%rbp)
	jmp	.L1184
	.p2align 4,,10
	.p2align 3
.L1248:
	movzbl	40(%rbp), %edx
	movb	%dl, 0(%rbp)
	movq	%rbp, (%rax)
	jmp	.L1175
	.p2align 4,,10
	.p2align 3
.L1239:
	movzbl	40(%r12), %edx
	movb	%dl, (%r12)
	movq	%r12, (%rax)
	jmp	.L1177
	.p2align 4,,10
	.p2align 3
.L1246:
	movl	$-1, %eax
	lock xaddl	%eax, 8(%rbp)
	jmp	.L1203
	.p2align 4,,10
	.p2align 3
.L1240:
	lock addl	$1, 8(%rbp)
	jmp	.L1179
	.p2align 4,,10
	.p2align 3
.L1250:
	movl	$-1, %eax
	lock xaddl	%eax, 12(%rbp)
	jmp	.L1198
	.p2align 4,,10
	.p2align 3
.L1243:
	movq	0(%rbp), %rax
	movq	%rbp, %rdi
	call	*24(%rax)
	jmp	.L1182
	.p2align 4,,10
	.p2align 3
.L1251:
	movl	$-1, %eax
	lock xaddl	%eax, 12(%rbp)
	jmp	.L1206
	.p2align 4,,10
	.p2align 3
.L1242:
	movl	$-1, %eax
	lock xaddl	%eax, 12(%rbp)
	jmp	.L1187
.L1249:
	call	__stack_chk_fail@PLT
.L1210:
	movq	%rax, %rbp
.L1188:
	movq	24(%rsp), %rdi
	testq	%rdi, %rdi
	je	.L1189
	call	_ZNSt16_Sp_counted_baseILN9__gnu_cxx12_Lock_policyE2EE10_M_releaseEv@PLT
.L1189:
	sfence
	movq	8(%rsp), %rdi
	testq	%rdi, %rdi
	je	.L1191
	call	_ZNSt16_Sp_counted_baseILN9__gnu_cxx12_Lock_policyE2EE10_M_releaseEv@PLT
.L1191:
	leaq	32(%rsp), %rdi
	call	_ZN4asio6detail18completion_handlerIZN7asiopal13IAsyncChannel16CheckForShutdownESt10shared_ptrIS3_EEUlvE_E3ptr5resetEv@PLT
	movq	%rbp, %rdi
.LEHB41:
	call	_Unwind_Resume@PLT
.LEHE41:
	.cfi_endproc
.LFE9648:
	.section	.gcc_except_table
.LLSDA9648:
	.byte	0xff
	.byte	0xff
	.byte	0x1
	.uleb128 .LLSDACSE9648-.LLSDACSB9648
.LLSDACSB9648:
	.uleb128 .LEHB40-.LFB9648
	.uleb128 .LEHE40-.LEHB40
	.uleb128 .L1210-.LFB9648
	.uleb128 0
	.uleb128 .LEHB41-.LFB9648
	.uleb128 .LEHE41-.LEHB41
	.uleb128 0
	.uleb128 0
.LLSDACSE9648:
	.section	.text._ZN4asio6detail18completion_handlerIZN7asiopal13IAsyncChannel16CheckForShutdownESt10shared_ptrIS3_EEUlvE_E11do_completeEPNS0_15task_io_serviceEPNS0_25task_io_service_operationERKSt10error_codem,"axG",@progbits,_ZN4asio6detail18completion_handlerIZN7asiopal13IAsyncChannel16CheckForShutdownESt10shared_ptrIS3_EEUlvE_E11do_completeEPNS0_15task_io_serviceEPNS0_25task_io_service_operationERKSt10error_codem,comdat
	.size	_ZN4asio6detail18completion_handlerIZN7asiopal13IAsyncChannel16CheckForShutdownESt10shared_ptrIS3_EEUlvE_E11do_completeEPNS0_15task_io_serviceEPNS0_25task_io_service_operationERKSt10error_codem, .-_ZN4asio6detail18completion_handlerIZN7asiopal13IAsyncChannel16CheckForShutdownESt10shared_ptrIS3_EEUlvE_E11do_completeEPNS0_15task_io_serviceEPNS0_25task_io_service_operationERKSt10error_codem
	.section	.text.startup,"ax",@progbits
	.p2align 4
	.type	_GLOBAL__sub_I_IOHandler.cpp, @function
_GLOBAL__sub_I_IOHandler.cpp:
.LFB10429:
	.cfi_startproc
	pushq	%rbp
	.cfi_def_cfa_offset 16
	.cfi_offset 6, -16
	movq	_ZGVZN4asio15system_categoryEvE8instance@GOTPCREL(%rip), %rbp
	movzbl	0(%rbp), %eax
	testb	%al, %al
	je	.L1283
.L1254:
	movq	_ZGVZN4asio5error18get_netdb_categoryEvE8instance@GOTPCREL(%rip), %rbp
	movzbl	0(%rbp), %eax
	testb	%al, %al
	je	.L1284
.L1257:
	movq	_ZGVZN4asio5error21get_addrinfo_categoryEvE8instance@GOTPCREL(%rip), %rbp
	movzbl	0(%rbp), %eax
	testb	%al, %al
	je	.L1285
.L1260:
	movq	_ZGVZN4asio5error17get_misc_categoryEvE8instance@GOTPCREL(%rip), %rbp
	movzbl	0(%rbp), %eax
	testb	%al, %al
	je	.L1286
.L1263:
	movq	_ZGVN4asio6detail10call_stackINS0_15task_io_serviceENS0_27task_io_service_thread_infoEE4top_E@GOTPCREL(%rip), %rax
	cmpb	$0, (%rax)
	je	.L1287
.L1265:
	movq	_ZGVN4asio6detail12service_baseINS0_13epoll_reactorEE2idE@GOTPCREL(%rip), %rax
	cmpb	$0, (%rax)
	je	.L1288
.L1266:
	movq	_ZGVN4asio6detail12service_baseINS0_15task_io_serviceEE2idE@GOTPCREL(%rip), %rax
	cmpb	$0, (%rax)
	je	.L1289
.L1267:
	movq	_ZGVN4asio6detail10call_stackINS0_14strand_service11strand_implEhE4top_E@GOTPCREL(%rip), %rax
	cmpb	$0, (%rax)
	je	.L1290
.L1268:
	movq	_ZGVN4asio6detail12service_baseINS0_14strand_serviceEE2idE@GOTPCREL(%rip), %rax
	cmpb	$0, (%rax)
	je	.L1291
	popq	%rbp
	.cfi_remember_state
	.cfi_def_cfa_offset 8
	ret
.L1283:
	.cfi_restore_state
	movq	%rbp, %rdi
	call	__cxa_guard_acquire@PLT
	testl	%eax, %eax
	je	.L1254
	movq	_ZZN4asio15system_categoryEvE8instance@GOTPCREL(%rip), %rsi
	movq	_ZN4asio6detail15system_categoryD1Ev@GOTPCREL(%rip), %rdi
	leaq	__dso_handle(%rip), %rdx
	call	__cxa_atexit@PLT
	movq	%rbp, %rdi
	call	__cxa_guard_release@PLT
	jmp	.L1254
.L1291:
	movb	$1, (%rax)
	leaq	__dso_handle(%rip), %rdx
	movq	_ZN4asio6detail12service_baseINS0_14strand_serviceEE2idE@GOTPCREL(%rip), %rsi
	movq	_ZN4asio6detail10service_idINS0_14strand_serviceEED1Ev@GOTPCREL(%rip), %rdi
	popq	%rbp
	.cfi_remember_state
	.cfi_def_cfa_offset 8
	jmp	__cxa_atexit@PLT
.L1290:
	.cfi_restore_state
	movb	$1, (%rax)
	movq	_ZN4asio6detail10call_stackINS0_14strand_service11strand_implEhE4top_E@GOTPCREL(%rip), %rsi
	leaq	__dso_handle(%rip), %rdx
	movq	_ZN4asio6detail7tss_ptrINS0_10call_stackINS0_14strand_service11strand_implEhE7contextEED1Ev@GOTPCREL(%rip), %rdi
	call	__cxa_atexit@PLT
	jmp	.L1268
.L1289:
	movb	$1, (%rax)
	movq	_ZN4asio6detail12service_baseINS0_15task_io_serviceEE2idE@GOTPCREL(%rip), %rsi
	leaq	__dso_handle(%rip), %rdx
	movq	_ZN4asio6detail10service_idINS0_15task_io_serviceEED1Ev@GOTPCREL(%rip), %rdi
	call	__cxa_atexit@PLT
	jmp	.L1267
.L1288:
	movb	$1, (%rax)
	movq	_ZN4asio6detail12service_baseINS0_13epoll_reactorEE2idE@GOTPCREL(%rip), %rsi
	leaq	__dso_handle(%rip), %rdx
	movq	_ZN4asio6detail10service_idINS0_13epoll_reactorEED1Ev@GOTPCREL(%rip), %rdi
	call	__cxa_atexit@PLT
	jmp	.L1266
.L1287:
	movb	$1, (%rax)
	movq	_ZN4asio6detail10call_stackINS0_15task_io_serviceENS0_27task_io_service_thread_infoEE4top_E@GOTPCREL(%rip), %rsi
	leaq	__dso_handle(%rip), %rdx
	movq	_ZN4asio6detail7tss_ptrINS0_10call_stackINS0_15task_io_serviceENS0_27task_io_service_thread_infoEE7contextEED1Ev@GOTPCREL(%rip), %rdi
	call	__cxa_atexit@PLT
	jmp	.L1265
.L1286:
	movq	%rbp, %rdi
	call	__cxa_guard_acquire@PLT
	testl	%eax, %eax
	je	.L1263
	movq	_ZZN4asio5error17get_misc_categoryEvE8instance@GOTPCREL(%rip), %rsi
	movq	_ZN4asio5error6detail13misc_categoryD1Ev@GOTPCREL(%rip), %rdi
	leaq	__dso_handle(%rip), %rdx
	call	__cxa_atexit@PLT
	movq	%rbp, %rdi
	call	__cxa_guard_release@PLT
	jmp	.L1263
.L1285:
	movq	%rbp, %rdi
	call	__cxa_guard_acquire@PLT
	testl	%eax, %eax
	je	.L1260
	movq	_ZZN4asio5error21get_addrinfo_categoryEvE8instance@GOTPCREL(%rip), %rsi
	movq	_ZN4asio5error6detail17addrinfo_categoryD1Ev@GOTPCREL(%rip), %rdi
	leaq	__dso_handle(%rip), %rdx
	call	__cxa_atexit@PLT
	movq	%rbp, %rdi
	call	__cxa_guard_release@PLT
	jmp	.L1260
.L1284:
	movq	%rbp, %rdi
	call	__cxa_guard_acquire@PLT
	testl	%eax, %eax
	je	.L1257
	movq	_ZZN4asio5error18get_netdb_categoryEvE8instance@GOTPCREL(%rip), %rsi
	movq	_ZN4asio5error6detail14netdb_categoryD1Ev@GOTPCREL(%rip), %rdi
	leaq	__dso_handle(%rip), %rdx
	call	__cxa_atexit@PLT
	movq	%rbp, %rdi
	call	__cxa_guard_release@PLT
	jmp	.L1257
	.cfi_endproc
.LFE10429:
	.size	_GLOBAL__sub_I_IOHandler.cpp, .-_GLOBAL__sub_I_IOHandler.cpp
	.section	.init_array,"aw"
	.align 8
	.quad	_GLOBAL__sub_I_IOHandler.cpp
	.weak	_ZTSSt23enable_shared_from_thisIN8asiodnp39IOHandlerEE
	.section	.rodata._ZTSSt23enable_shared_from_thisIN8asiodnp39IOHandlerEE,"aG",@progbits,_ZTSSt23enable_shared_from_thisIN8asiodnp39IOHandlerEE,comdat
	.align 32
	.type	_ZTSSt23enable_shared_from_thisIN8asiodnp39IOHandlerEE, @object
	.size	_ZTSSt23enable_shared_from_thisIN8asiodnp39IOHandlerEE, 51
_ZTSSt23enable_shared_from_thisIN8asiodnp39IOHandlerEE:
	.string	"St23enable_shared_from_thisIN8asiodnp39IOHandlerEE"
	.weak	_ZTISt23enable_shared_from_thisIN8asiodnp39IOHandlerEE
	.section	.data.rel.ro._ZTISt23enable_shared_from_thisIN8asiodnp39IOHandlerEE,"awG",@progbits,_ZTISt23enable_shared_from_thisIN8asiodnp39IOHandlerEE,comdat
	.align 8
	.type	_ZTISt23enable_shared_from_thisIN8asiodnp39IOHandlerEE, @object
	.size	_ZTISt23enable_shared_from_thisIN8asiodnp39IOHandlerEE, 16
_ZTISt23enable_shared_from_thisIN8asiodnp39IOHandlerEE:
	.quad	_ZTVN10__cxxabiv117__class_type_infoE+16
	.quad	_ZTSSt23enable_shared_from_thisIN8asiodnp39IOHandlerEE
	.weak	_ZGVN4asio6detail12service_baseINS0_14strand_serviceEE2idE
	.section	.bss._ZGVN4asio6detail12service_baseINS0_14strand_serviceEE2idE,"awG",@nobits,_ZGVN4asio6detail12service_baseINS0_14strand_serviceEE2idE,comdat
	.align 8
	.type	_ZGVN4asio6detail12service_baseINS0_14strand_serviceEE2idE, @gnu_unique_object
	.size	_ZGVN4asio6detail12service_baseINS0_14strand_serviceEE2idE, 8
_ZGVN4asio6detail12service_baseINS0_14strand_serviceEE2idE:
	.zero	8
	.weak	_ZGVN4asio6detail10call_stackINS0_14strand_service11strand_implEhE4top_E
	.section	.bss._ZGVN4asio6detail10call_stackINS0_14strand_service11strand_implEhE4top_E,"awG",@nobits,_ZGVN4asio6detail10call_stackINS0_14strand_service11strand_implEhE4top_E,comdat
	.align 8
	.type	_ZGVN4asio6detail10call_stackINS0_14strand_service11strand_implEhE4top_E, @gnu_unique_object
	.size	_ZGVN4asio6detail10call_stackINS0_14strand_service11strand_implEhE4top_E, 8
_ZGVN4asio6detail10call_stackINS0_14strand_service11strand_implEhE4top_E:
	.zero	8
	.weak	_ZGVN4asio6detail12service_baseINS0_15task_io_serviceEE2idE
	.section	.bss._ZGVN4asio6detail12service_baseINS0_15task_io_serviceEE2idE,"awG",@nobits,_ZGVN4asio6detail12service_baseINS0_15task_io_serviceEE2idE,comdat
	.align 8
	.type	_ZGVN4asio6detail12service_baseINS0_15task_io_serviceEE2idE, @gnu_unique_object
	.size	_ZGVN4asio6detail12service_baseINS0_15task_io_serviceEE2idE, 8
_ZGVN4asio6detail12service_baseINS0_15task_io_serviceEE2idE:
	.zero	8
	.weak	_ZGVN4asio6detail12service_baseINS0_13epoll_reactorEE2idE
	.section	.bss._ZGVN4asio6detail12service_baseINS0_13epoll_reactorEE2idE,"awG",@nobits,_ZGVN4asio6detail12service_baseINS0_13epoll_reactorEE2idE,comdat
	.align 8
	.type	_ZGVN4asio6detail12service_baseINS0_13epoll_reactorEE2idE, @gnu_unique_object
	.size	_ZGVN4asio6detail12service_baseINS0_13epoll_reactorEE2idE, 8
_ZGVN4asio6detail12service_baseINS0_13epoll_reactorEE2idE:
	.zero	8
	.weak	_ZGVN4asio6detail10call_stackINS0_15task_io_serviceENS0_27task_io_service_thread_infoEE4top_E
	.section	.bss._ZGVN4asio6detail10call_stackINS0_15task_io_serviceENS0_27task_io_service_thread_infoEE4top_E,"awG",@nobits,_ZGVN4asio6detail10call_stackINS0_15task_io_serviceENS0_27task_io_service_thread_infoEE4top_E,comdat
	.align 8
	.type	_ZGVN4asio6detail10call_stackINS0_15task_io_serviceENS0_27task_io_service_thread_infoEE4top_E, @gnu_unique_object
	.size	_ZGVN4asio6detail10call_stackINS0_15task_io_serviceENS0_27task_io_service_thread_infoEE4top_E, 8
_ZGVN4asio6detail10call_stackINS0_15task_io_serviceENS0_27task_io_service_thread_infoEE4top_E:
	.zero	8
	.weak	_ZN4asio6detail12service_baseINS0_14strand_serviceEE2idE
	.section	.bss._ZN4asio6detail12service_baseINS0_14strand_serviceEE2idE,"awG",@nobits,_ZN4asio6detail12service_baseINS0_14strand_serviceEE2idE,comdat
	.type	_ZN4asio6detail12service_baseINS0_14strand_serviceEE2idE, @gnu_unique_object
	.size	_ZN4asio6detail12service_baseINS0_14strand_serviceEE2idE, 1
_ZN4asio6detail12service_baseINS0_14strand_serviceEE2idE:
	.zero	1
	.weak	_ZN4asio6detail10call_stackINS0_14strand_service11strand_implEhE4top_E
	.section	.bss._ZN4asio6detail10call_stackINS0_14strand_service11strand_implEhE4top_E,"awG",@nobits,_ZN4asio6detail10call_stackINS0_14strand_service11strand_implEhE4top_E,comdat
	.type	_ZN4asio6detail10call_stackINS0_14strand_service11strand_implEhE4top_E, @gnu_unique_object
	.size	_ZN4asio6detail10call_stackINS0_14strand_service11strand_implEhE4top_E, 1
_ZN4asio6detail10call_stackINS0_14strand_service11strand_implEhE4top_E:
	.zero	1
	.weak	_ZN4asio6detail12service_baseINS0_15task_io_serviceEE2idE
	.section	.bss._ZN4asio6detail12service_baseINS0_15task_io_serviceEE2idE,"awG",@nobits,_ZN4asio6detail12service_baseINS0_15task_io_serviceEE2idE,comdat
	.type	_ZN4asio6detail12service_baseINS0_15task_io_serviceEE2idE, @gnu_unique_object
	.size	_ZN4asio6detail12service_baseINS0_15task_io_serviceEE2idE, 1
_ZN4asio6detail12service_baseINS0_15task_io_serviceEE2idE:
	.zero	1
	.weak	_ZN4asio6detail12service_baseINS0_13epoll_reactorEE2idE
	.section	.bss._ZN4asio6detail12service_baseINS0_13epoll_reactorEE2idE,"awG",@nobits,_ZN4asio6detail12service_baseINS0_13epoll_reactorEE2idE,comdat
	.type	_ZN4asio6detail12service_baseINS0_13epoll_reactorEE2idE, @gnu_unique_object
	.size	_ZN4asio6detail12service_baseINS0_13epoll_reactorEE2idE, 1
_ZN4asio6detail12service_baseINS0_13epoll_reactorEE2idE:
	.zero	1
	.weak	_ZN4asio6detail10call_stackINS0_15task_io_serviceENS0_27task_io_service_thread_infoEE4top_E
	.section	.bss._ZN4asio6detail10call_stackINS0_15task_io_serviceENS0_27task_io_service_thread_infoEE4top_E,"awG",@nobits,_ZN4asio6detail10call_stackINS0_15task_io_serviceENS0_27task_io_service_thread_infoEE4top_E,comdat
	.type	_ZN4asio6detail10call_stackINS0_15task_io_serviceENS0_27task_io_service_thread_infoEE4top_E, @gnu_unique_object
	.size	_ZN4asio6detail10call_stackINS0_15task_io_serviceENS0_27task_io_service_thread_infoEE4top_E, 1
_ZN4asio6detail10call_stackINS0_15task_io_serviceENS0_27task_io_service_thread_infoEE4top_E:
	.zero	1
	.weak	_ZTSN8opendnp310IFrameSinkE
	.section	.rodata._ZTSN8opendnp310IFrameSinkE,"aG",@progbits,_ZTSN8opendnp310IFrameSinkE,comdat
	.align 16
	.type	_ZTSN8opendnp310IFrameSinkE, @object
	.size	_ZTSN8opendnp310IFrameSinkE, 24
_ZTSN8opendnp310IFrameSinkE:
	.string	"N8opendnp310IFrameSinkE"
	.weak	_ZTIN8opendnp310IFrameSinkE
	.section	.data.rel.ro._ZTIN8opendnp310IFrameSinkE,"awG",@progbits,_ZTIN8opendnp310IFrameSinkE,comdat
	.align 8
	.type	_ZTIN8opendnp310IFrameSinkE, @object
	.size	_ZTIN8opendnp310IFrameSinkE, 16
_ZTIN8opendnp310IFrameSinkE:
	.quad	_ZTVN10__cxxabiv117__class_type_infoE+16
	.quad	_ZTSN8opendnp310IFrameSinkE
	.weak	_ZTSN4asio6detail15system_categoryE
	.section	.rodata._ZTSN4asio6detail15system_categoryE,"aG",@progbits,_ZTSN4asio6detail15system_categoryE,comdat
	.align 32
	.type	_ZTSN4asio6detail15system_categoryE, @object
	.size	_ZTSN4asio6detail15system_categoryE, 32
_ZTSN4asio6detail15system_categoryE:
	.string	"N4asio6detail15system_categoryE"
	.weak	_ZTIN4asio6detail15system_categoryE
	.section	.data.rel.ro._ZTIN4asio6detail15system_categoryE,"awG",@progbits,_ZTIN4asio6detail15system_categoryE,comdat
	.align 8
	.type	_ZTIN4asio6detail15system_categoryE, @object
	.size	_ZTIN4asio6detail15system_categoryE, 24
_ZTIN4asio6detail15system_categoryE:
	.quad	_ZTVN10__cxxabiv120__si_class_type_infoE+16
	.quad	_ZTSN4asio6detail15system_categoryE
	.quad	_ZTINSt3_V214error_categoryE
	.weak	_ZTSN4asio5error6detail14netdb_categoryE
	.section	.rodata._ZTSN4asio5error6detail14netdb_categoryE,"aG",@progbits,_ZTSN4asio5error6detail14netdb_categoryE,comdat
	.align 32
	.type	_ZTSN4asio5error6detail14netdb_categoryE, @object
	.size	_ZTSN4asio5error6detail14netdb_categoryE, 37
_ZTSN4asio5error6detail14netdb_categoryE:
	.string	"N4asio5error6detail14netdb_categoryE"
	.weak	_ZTIN4asio5error6detail14netdb_categoryE
	.section	.data.rel.ro._ZTIN4asio5error6detail14netdb_categoryE,"awG",@progbits,_ZTIN4asio5error6detail14netdb_categoryE,comdat
	.align 8
	.type	_ZTIN4asio5error6detail14netdb_categoryE, @object
	.size	_ZTIN4asio5error6detail14netdb_categoryE, 24
_ZTIN4asio5error6detail14netdb_categoryE:
	.quad	_ZTVN10__cxxabiv120__si_class_type_infoE+16
	.quad	_ZTSN4asio5error6detail14netdb_categoryE
	.quad	_ZTINSt3_V214error_categoryE
	.weak	_ZTSN4asio5error6detail17addrinfo_categoryE
	.section	.rodata._ZTSN4asio5error6detail17addrinfo_categoryE,"aG",@progbits,_ZTSN4asio5error6detail17addrinfo_categoryE,comdat
	.align 32
	.type	_ZTSN4asio5error6detail17addrinfo_categoryE, @object
	.size	_ZTSN4asio5error6detail17addrinfo_categoryE, 40
_ZTSN4asio5error6detail17addrinfo_categoryE:
	.string	"N4asio5error6detail17addrinfo_categoryE"
	.weak	_ZTIN4asio5error6detail17addrinfo_categoryE
	.section	.data.rel.ro._ZTIN4asio5error6detail17addrinfo_categoryE,"awG",@progbits,_ZTIN4asio5error6detail17addrinfo_categoryE,comdat
	.align 8
	.type	_ZTIN4asio5error6detail17addrinfo_categoryE, @object
	.size	_ZTIN4asio5error6detail17addrinfo_categoryE, 24
_ZTIN4asio5error6detail17addrinfo_categoryE:
	.quad	_ZTVN10__cxxabiv120__si_class_type_infoE+16
	.quad	_ZTSN4asio5error6detail17addrinfo_categoryE
	.quad	_ZTINSt3_V214error_categoryE
	.weak	_ZTSN4asio5error6detail13misc_categoryE
	.section	.rodata._ZTSN4asio5error6detail13misc_categoryE,"aG",@progbits,_ZTSN4asio5error6detail13misc_categoryE,comdat
	.align 32
	.type	_ZTSN4asio5error6detail13misc_categoryE, @object
	.size	_ZTSN4asio5error6detail13misc_categoryE, 36
_ZTSN4asio5error6detail13misc_categoryE:
	.string	"N4asio5error6detail13misc_categoryE"
	.weak	_ZTIN4asio5error6detail13misc_categoryE
	.section	.data.rel.ro._ZTIN4asio5error6detail13misc_categoryE,"awG",@progbits,_ZTIN4asio5error6detail13misc_categoryE,comdat
	.align 8
	.type	_ZTIN4asio5error6detail13misc_categoryE, @object
	.size	_ZTIN4asio5error6detail13misc_categoryE, 24
_ZTIN4asio5error6detail13misc_categoryE:
	.quad	_ZTVN10__cxxabiv120__si_class_type_infoE+16
	.quad	_ZTSN4asio5error6detail13misc_categoryE
	.quad	_ZTINSt3_V214error_categoryE
	.weak	_ZTSN7asiopal17IChannelCallbacksE
	.section	.rodata._ZTSN7asiopal17IChannelCallbacksE,"aG",@progbits,_ZTSN7asiopal17IChannelCallbacksE,comdat
	.align 16
	.type	_ZTSN7asiopal17IChannelCallbacksE, @object
	.size	_ZTSN7asiopal17IChannelCallbacksE, 30
_ZTSN7asiopal17IChannelCallbacksE:
	.string	"N7asiopal17IChannelCallbacksE"
	.weak	_ZTIN7asiopal17IChannelCallbacksE
	.section	.data.rel.ro._ZTIN7asiopal17IChannelCallbacksE,"awG",@progbits,_ZTIN7asiopal17IChannelCallbacksE,comdat
	.align 8
	.type	_ZTIN7asiopal17IChannelCallbacksE, @object
	.size	_ZTIN7asiopal17IChannelCallbacksE, 16
_ZTIN7asiopal17IChannelCallbacksE:
	.quad	_ZTVN10__cxxabiv117__class_type_infoE+16
	.quad	_ZTSN7asiopal17IChannelCallbacksE
	.weak	_ZTSN8asiodnp39IOHandlerE
	.section	.rodata._ZTSN8asiodnp39IOHandlerE,"aG",@progbits,_ZTSN8asiodnp39IOHandlerE,comdat
	.align 16
	.type	_ZTSN8asiodnp39IOHandlerE, @object
	.size	_ZTSN8asiodnp39IOHandlerE, 22
_ZTSN8asiodnp39IOHandlerE:
	.string	"N8asiodnp39IOHandlerE"
	.weak	_ZTIN8asiodnp39IOHandlerE
	.section	.data.rel.ro._ZTIN8asiodnp39IOHandlerE,"awG",@progbits,_ZTIN8asiodnp39IOHandlerE,comdat
	.align 8
	.type	_ZTIN8asiodnp39IOHandlerE, @object
	.size	_ZTIN8asiodnp39IOHandlerE, 72
_ZTIN8asiodnp39IOHandlerE:
	.quad	_ZTVN10__cxxabiv121__vmi_class_type_infoE+16
	.quad	_ZTSN8asiodnp39IOHandlerE
	.long	0
	.long	3
	.quad	_ZTIN8opendnp310IFrameSinkE
	.quad	0
	.quad	_ZTIN7asiopal17IChannelCallbacksE
	.quad	2050
	.quad	_ZTISt23enable_shared_from_thisIN8asiodnp39IOHandlerEE
	.quad	4098
	.weak	_ZTVN4asio6detail15system_categoryE
	.section	.data.rel.ro._ZTVN4asio6detail15system_categoryE,"awG",@progbits,_ZTVN4asio6detail15system_categoryE,comdat
	.align 8
	.type	_ZTVN4asio6detail15system_categoryE, @object
	.size	_ZTVN4asio6detail15system_categoryE, 80
_ZTVN4asio6detail15system_categoryE:
	.quad	0
	.quad	_ZTIN4asio6detail15system_categoryE
	.quad	_ZN4asio6detail15system_categoryD1Ev
	.quad	_ZN4asio6detail15system_categoryD0Ev
	.quad	_ZNK4asio6detail15system_category4nameEv
	.quad	_ZNKSt3_V214error_category10_M_messageB5cxx11Ei
	.quad	_ZNK4asio6detail15system_category7messageB5cxx11Ei
	.quad	_ZNKSt3_V214error_category23default_error_conditionEi
	.quad	_ZNKSt3_V214error_category10equivalentEiRKSt15error_condition
	.quad	_ZNKSt3_V214error_category10equivalentERKSt10error_codei
	.weak	_ZTVN4asio5error6detail14netdb_categoryE
	.section	.data.rel.ro._ZTVN4asio5error6detail14netdb_categoryE,"awG",@progbits,_ZTVN4asio5error6detail14netdb_categoryE,comdat
	.align 8
	.type	_ZTVN4asio5error6detail14netdb_categoryE, @object
	.size	_ZTVN4asio5error6detail14netdb_categoryE, 80
_ZTVN4asio5error6detail14netdb_categoryE:
	.quad	0
	.quad	_ZTIN4asio5error6detail14netdb_categoryE
	.quad	_ZN4asio5error6detail14netdb_categoryD1Ev
	.quad	_ZN4asio5error6detail14netdb_categoryD0Ev
	.quad	_ZNK4asio5error6detail14netdb_category4nameEv
	.quad	_ZNKSt3_V214error_category10_M_messageB5cxx11Ei
	.quad	_ZNK4asio5error6detail14netdb_category7messageB5cxx11Ei
	.quad	_ZNKSt3_V214error_category23default_error_conditionEi
	.quad	_ZNKSt3_V214error_category10equivalentEiRKSt15error_condition
	.quad	_ZNKSt3_V214error_category10equivalentERKSt10error_codei
	.weak	_ZTVN4asio5error6detail17addrinfo_categoryE
	.section	.data.rel.ro._ZTVN4asio5error6detail17addrinfo_categoryE,"awG",@progbits,_ZTVN4asio5error6detail17addrinfo_categoryE,comdat
	.align 8
	.type	_ZTVN4asio5error6detail17addrinfo_categoryE, @object
	.size	_ZTVN4asio5error6detail17addrinfo_categoryE, 80
_ZTVN4asio5error6detail17addrinfo_categoryE:
	.quad	0
	.quad	_ZTIN4asio5error6detail17addrinfo_categoryE
	.quad	_ZN4asio5error6detail17addrinfo_categoryD1Ev
	.quad	_ZN4asio5error6detail17addrinfo_categoryD0Ev
	.quad	_ZNK4asio5error6detail17addrinfo_category4nameEv
	.quad	_ZNKSt3_V214error_category10_M_messageB5cxx11Ei
	.quad	_ZNK4asio5error6detail17addrinfo_category7messageB5cxx11Ei
	.quad	_ZNKSt3_V214error_category23default_error_conditionEi
	.quad	_ZNKSt3_V214error_category10equivalentEiRKSt15error_condition
	.quad	_ZNKSt3_V214error_category10equivalentERKSt10error_codei
	.weak	_ZTVN4asio5error6detail13misc_categoryE
	.section	.data.rel.ro._ZTVN4asio5error6detail13misc_categoryE,"awG",@progbits,_ZTVN4asio5error6detail13misc_categoryE,comdat
	.align 8
	.type	_ZTVN4asio5error6detail13misc_categoryE, @object
	.size	_ZTVN4asio5error6detail13misc_categoryE, 80
_ZTVN4asio5error6detail13misc_categoryE:
	.quad	0
	.quad	_ZTIN4asio5error6detail13misc_categoryE
	.quad	_ZN4asio5error6detail13misc_categoryD1Ev
	.quad	_ZN4asio5error6detail13misc_categoryD0Ev
	.quad	_ZNK4asio5error6detail13misc_category4nameEv
	.quad	_ZNKSt3_V214error_category10_M_messageB5cxx11Ei
	.quad	_ZNK4asio5error6detail13misc_category7messageB5cxx11Ei
	.quad	_ZNKSt3_V214error_category23default_error_conditionEi
	.quad	_ZNKSt3_V214error_category10equivalentEiRKSt15error_condition
	.quad	_ZNKSt3_V214error_category10equivalentERKSt10error_codei
	.weak	_ZTVN8asiodnp39IOHandlerE
	.section	.data.rel.ro._ZTVN8asiodnp39IOHandlerE,"awG",@progbits,_ZTVN8asiodnp39IOHandlerE,comdat
	.align 8
	.type	_ZTVN8asiodnp39IOHandlerE, @object
	.size	_ZTVN8asiodnp39IOHandlerE, 136
_ZTVN8asiodnp39IOHandlerE:
	.quad	0
	.quad	_ZTIN8asiodnp39IOHandlerE
	.quad	0
	.quad	0
	.quad	_ZN8asiodnp39IOHandler7OnFrameERKN8opendnp316LinkHeaderFieldsERKN7openpal6RSliceE
	.quad	_ZN8asiodnp39IOHandler14OnReadCompleteERKSt10error_codem
	.quad	_ZN8asiodnp39IOHandler15OnWriteCompleteERKSt10error_codem
	.quad	__cxa_pure_virtual
	.quad	__cxa_pure_virtual
	.quad	__cxa_pure_virtual
	.quad	__cxa_pure_virtual
	.quad	-8
	.quad	_ZTIN8asiodnp39IOHandlerE
	.quad	0
	.quad	0
	.quad	_ZThn8_N8asiodnp39IOHandler14OnReadCompleteERKSt10error_codem
	.quad	_ZThn8_N8asiodnp39IOHandler15OnWriteCompleteERKSt10error_codem
	.weak	_ZGVZN4asio5error17get_misc_categoryEvE8instance
	.section	.bss._ZGVZN4asio5error17get_misc_categoryEvE8instance,"awG",@nobits,_ZGVZN4asio5error17get_misc_categoryEvE8instance,comdat
	.align 8
	.type	_ZGVZN4asio5error17get_misc_categoryEvE8instance, @gnu_unique_object
	.size	_ZGVZN4asio5error17get_misc_categoryEvE8instance, 8
_ZGVZN4asio5error17get_misc_categoryEvE8instance:
	.zero	8
	.weak	_ZZN4asio5error17get_misc_categoryEvE8instance
	.section	.data.rel._ZZN4asio5error17get_misc_categoryEvE8instance,"awG",@progbits,_ZZN4asio5error17get_misc_categoryEvE8instance,comdat
	.align 8
	.type	_ZZN4asio5error17get_misc_categoryEvE8instance, @gnu_unique_object
	.size	_ZZN4asio5error17get_misc_categoryEvE8instance, 8
_ZZN4asio5error17get_misc_categoryEvE8instance:
	.quad	_ZTVN4asio5error6detail13misc_categoryE+16
	.weak	_ZGVZN4asio5error21get_addrinfo_categoryEvE8instance
	.section	.bss._ZGVZN4asio5error21get_addrinfo_categoryEvE8instance,"awG",@nobits,_ZGVZN4asio5error21get_addrinfo_categoryEvE8instance,comdat
	.align 8
	.type	_ZGVZN4asio5error21get_addrinfo_categoryEvE8instance, @gnu_unique_object
	.size	_ZGVZN4asio5error21get_addrinfo_categoryEvE8instance, 8
_ZGVZN4asio5error21get_addrinfo_categoryEvE8instance:
	.zero	8
	.weak	_ZZN4asio5error21get_addrinfo_categoryEvE8instance
	.section	.data.rel._ZZN4asio5error21get_addrinfo_categoryEvE8instance,"awG",@progbits,_ZZN4asio5error21get_addrinfo_categoryEvE8instance,comdat
	.align 8
	.type	_ZZN4asio5error21get_addrinfo_categoryEvE8instance, @gnu_unique_object
	.size	_ZZN4asio5error21get_addrinfo_categoryEvE8instance, 8
_ZZN4asio5error21get_addrinfo_categoryEvE8instance:
	.quad	_ZTVN4asio5error6detail17addrinfo_categoryE+16
	.weak	_ZGVZN4asio5error18get_netdb_categoryEvE8instance
	.section	.bss._ZGVZN4asio5error18get_netdb_categoryEvE8instance,"awG",@nobits,_ZGVZN4asio5error18get_netdb_categoryEvE8instance,comdat
	.align 8
	.type	_ZGVZN4asio5error18get_netdb_categoryEvE8instance, @gnu_unique_object
	.size	_ZGVZN4asio5error18get_netdb_categoryEvE8instance, 8
_ZGVZN4asio5error18get_netdb_categoryEvE8instance:
	.zero	8
	.weak	_ZZN4asio5error18get_netdb_categoryEvE8instance
	.section	.data.rel._ZZN4asio5error18get_netdb_categoryEvE8instance,"awG",@progbits,_ZZN4asio5error18get_netdb_categoryEvE8instance,comdat
	.align 8
	.type	_ZZN4asio5error18get_netdb_categoryEvE8instance, @gnu_unique_object
	.size	_ZZN4asio5error18get_netdb_categoryEvE8instance, 8
_ZZN4asio5error18get_netdb_categoryEvE8instance:
	.quad	_ZTVN4asio5error6detail14netdb_categoryE+16
	.weak	_ZGVZN4asio15system_categoryEvE8instance
	.section	.bss._ZGVZN4asio15system_categoryEvE8instance,"awG",@nobits,_ZGVZN4asio15system_categoryEvE8instance,comdat
	.align 8
	.type	_ZGVZN4asio15system_categoryEvE8instance, @gnu_unique_object
	.size	_ZGVZN4asio15system_categoryEvE8instance, 8
_ZGVZN4asio15system_categoryEvE8instance:
	.zero	8
	.weak	_ZZN4asio15system_categoryEvE8instance
	.section	.data.rel._ZZN4asio15system_categoryEvE8instance,"awG",@progbits,_ZZN4asio15system_categoryEvE8instance,comdat
	.align 8
	.type	_ZZN4asio15system_categoryEvE8instance, @gnu_unique_object
	.size	_ZZN4asio15system_categoryEvE8instance, 8
_ZZN4asio15system_categoryEvE8instance:
	.quad	_ZTVN4asio6detail15system_categoryE+16
	.weak	_ZN4asio6detail15keyword_tss_ptrINS0_10call_stackINS0_15task_io_serviceENS0_27task_io_service_thread_infoEE7contextEE6value_E
	.section	.tbss._ZN4asio6detail15keyword_tss_ptrINS0_10call_stackINS0_15task_io_serviceENS0_27task_io_service_thread_infoEE7contextEE6value_E,"awTG",@nobits,_ZN4asio6detail15keyword_tss_ptrINS0_10call_stackINS0_15task_io_serviceENS0_27task_io_service_thread_infoEE7contextEE6value_E,comdat
	.align 8
	.type	_ZN4asio6detail15keyword_tss_ptrINS0_10call_stackINS0_15task_io_serviceENS0_27task_io_service_thread_infoEE7contextEE6value_E, @gnu_unique_object
	.size	_ZN4asio6detail15keyword_tss_ptrINS0_10call_stackINS0_15task_io_serviceENS0_27task_io_service_thread_infoEE7contextEE6value_E, 8
_ZN4asio6detail15keyword_tss_ptrINS0_10call_stackINS0_15task_io_serviceENS0_27task_io_service_thread_infoEE7contextEE6value_E:
	.zero	8
	.weakref	_ZL28__gthrw___pthread_key_createPjPFvPvE,__pthread_key_create
	.section	.rodata.cst16,"aM",@progbits,16
	.align 16
.LC5:
	.quad	8028075772644520015
	.quad	7310593917846626414
	.align 16
.LC6:
	.quad	2334381286471394643
	.quad	7959390400869068654
	.align 16
.LC7:
	.quad	8367816086596579155
	.quad	2338616625292734585
	.align 16
.LC8:
	.quad	7234013753529430881
	.quad	8243030355803531634
	.align 16
.LC9:
	.quad	8390045716486254408
	.quad	2891421386351273504
	.align 16
.LC10:
	.quad	7526769937477431150
	.quad	8532478930943832687
	.align 16
.LC11:
	.quad	2340027324477221221
	.quad	7020021577750243169
	.align 16
.LC12:
	.quad	8243123821706831956
	.quad	7809653110584451193
	.align 16
.LC13:
	.quad	2338623170819155049
	.quad	2338324160631043177
	.align 16
.LC14:
	.quad	7311138144931573614
	.quad	7019250824563089696
	.align 16
.LC15:
	.quad	7309955097514876993
	.quad	7809911847770287971
	.align 16
.LC16:
	.quad	2338053693894893669
	.quad	7234314212361855855
	.align 16
.LC17:
	.quad	2334956330985808928
	.quad	7310293695322153316
	.align 16
.LC18:
	.quad	8387231026764149601
	.quad	8245935278387126884
	.align 16
.LC19:
	.quad	2338615488418245701
	.quad	7959390400869068654
	.align 16
.LC20:
	.quad	7166182912791242836
	.quad	7214892426067994994
	.align 16
.LC21:
	.quad	2338616625293649263
	.quad	8031165433303558502
	.align 16
.LC22:
	.quad	7810775711721485344
	.quad	7812726531955123045
	.hidden	DW.ref.__gxx_personality_v0
	.weak	DW.ref.__gxx_personality_v0
	.section	.data.rel.local.DW.ref.__gxx_personality_v0,"awG",@progbits,DW.ref.__gxx_personality_v0,comdat
	.align 8
	.type	DW.ref.__gxx_personality_v0, @object
	.size	DW.ref.__gxx_personality_v0, 8
DW.ref.__gxx_personality_v0:
	.quad	__gxx_personality_v0
	.hidden	__dso_handle
	.ident	"GCC: (GNU) 10.3.1 20210703 (ALT Sisyphus 10.3.1-alt2)"
	.section	.note.GNU-stack,"",@progbits
