	.file	"SerialChannel.cpp"
	.text
	.section	.rodata._ZNK4asio6detail15system_category4nameEv.str1.1,"aMS",@progbits,1
.LC0:
	.string	"asio.system"
	.section	.text._ZNK4asio6detail15system_category4nameEv,"axG",@progbits,_ZNK4asio6detail15system_category4nameEv,comdat
	.align 2
	.p2align 4
	.weak	_ZNK4asio6detail15system_category4nameEv
	.type	_ZNK4asio6detail15system_category4nameEv, @function
_ZNK4asio6detail15system_category4nameEv:
.LFB2380:
	.cfi_startproc
	leaq	.LC0(%rip), %rax
	ret
	.cfi_endproc
.LFE2380:
	.size	_ZNK4asio6detail15system_category4nameEv, .-_ZNK4asio6detail15system_category4nameEv
	.section	.rodata._ZNK4asio5error6detail14netdb_category4nameEv.str1.1,"aMS",@progbits,1
.LC1:
	.string	"asio.netdb"
	.section	.text._ZNK4asio5error6detail14netdb_category4nameEv,"axG",@progbits,_ZNK4asio5error6detail14netdb_category4nameEv,comdat
	.align 2
	.p2align 4
	.weak	_ZNK4asio5error6detail14netdb_category4nameEv
	.type	_ZNK4asio5error6detail14netdb_category4nameEv, @function
_ZNK4asio5error6detail14netdb_category4nameEv:
.LFB2420:
	.cfi_startproc
	leaq	.LC1(%rip), %rax
	ret
	.cfi_endproc
.LFE2420:
	.size	_ZNK4asio5error6detail14netdb_category4nameEv, .-_ZNK4asio5error6detail14netdb_category4nameEv
	.section	.rodata._ZNK4asio5error6detail17addrinfo_category4nameEv.str1.1,"aMS",@progbits,1
.LC2:
	.string	"asio.addrinfo"
	.section	.text._ZNK4asio5error6detail17addrinfo_category4nameEv,"axG",@progbits,_ZNK4asio5error6detail17addrinfo_category4nameEv,comdat
	.align 2
	.p2align 4
	.weak	_ZNK4asio5error6detail17addrinfo_category4nameEv
	.type	_ZNK4asio5error6detail17addrinfo_category4nameEv, @function
_ZNK4asio5error6detail17addrinfo_category4nameEv:
.LFB2426:
	.cfi_startproc
	leaq	.LC2(%rip), %rax
	ret
	.cfi_endproc
.LFE2426:
	.size	_ZNK4asio5error6detail17addrinfo_category4nameEv, .-_ZNK4asio5error6detail17addrinfo_category4nameEv
	.section	.rodata._ZNK4asio5error6detail13misc_category4nameEv.str1.1,"aMS",@progbits,1
.LC3:
	.string	"asio.misc"
	.section	.text._ZNK4asio5error6detail13misc_category4nameEv,"axG",@progbits,_ZNK4asio5error6detail13misc_category4nameEv,comdat
	.align 2
	.p2align 4
	.weak	_ZNK4asio5error6detail13misc_category4nameEv
	.type	_ZNK4asio5error6detail13misc_category4nameEv, @function
_ZNK4asio5error6detail13misc_category4nameEv:
.LFB2432:
	.cfi_startproc
	leaq	.LC3(%rip), %rax
	ret
	.cfi_endproc
.LFE2432:
	.size	_ZNK4asio5error6detail13misc_category4nameEv, .-_ZNK4asio5error6detail13misc_category4nameEv
	.section	.text._ZN4asio10io_service7service12fork_serviceENS0_10fork_eventE,"axG",@progbits,_ZN4asio10io_service7service12fork_serviceENS0_10fork_eventE,comdat
	.align 2
	.p2align 4
	.weak	_ZN4asio10io_service7service12fork_serviceENS0_10fork_eventE
	.type	_ZN4asio10io_service7service12fork_serviceENS0_10fork_eventE, @function
_ZN4asio10io_service7service12fork_serviceENS0_10fork_eventE:
.LFB3412:
	.cfi_startproc
	ret
	.cfi_endproc
.LFE3412:
	.size	_ZN4asio10io_service7service12fork_serviceENS0_10fork_eventE, .-_ZN4asio10io_service7service12fork_serviceENS0_10fork_eventE
	.section	.text._ZN4asio19serial_port_service16shutdown_serviceEv,"axG",@progbits,_ZN4asio19serial_port_service16shutdown_serviceEv,comdat
	.align 2
	.p2align 4
	.weak	_ZN4asio19serial_port_service16shutdown_serviceEv
	.type	_ZN4asio19serial_port_service16shutdown_serviceEv, @function
_ZN4asio19serial_port_service16shutdown_serviceEv:
.LFB4207:
	.cfi_startproc
	ret
	.cfi_endproc
.LFE4207:
	.size	_ZN4asio19serial_port_service16shutdown_serviceEv, .-_ZN4asio19serial_port_service16shutdown_serviceEv
	.section	.text._ZN4asio19serial_port_serviceD2Ev,"axG",@progbits,_ZN4asio19serial_port_serviceD5Ev,comdat
	.align 2
	.p2align 4
	.weak	_ZN4asio19serial_port_serviceD2Ev
	.type	_ZN4asio19serial_port_serviceD2Ev, @function
_ZN4asio19serial_port_serviceD2Ev:
.LFB9459:
	.cfi_startproc
	ret
	.cfi_endproc
.LFE9459:
	.size	_ZN4asio19serial_port_serviceD2Ev, .-_ZN4asio19serial_port_serviceD2Ev
	.weak	_ZN4asio19serial_port_serviceD1Ev
	.set	_ZN4asio19serial_port_serviceD1Ev,_ZN4asio19serial_port_serviceD2Ev
	.section	.text._ZN4asio6detail7tss_ptrINS0_10call_stackINS0_15task_io_serviceENS0_27task_io_service_thread_infoEE7contextEED2Ev,"axG",@progbits,_ZN4asio6detail7tss_ptrINS0_10call_stackINS0_15task_io_serviceENS0_27task_io_service_thread_infoEE7contextEED5Ev,comdat
	.align 2
	.p2align 4
	.weak	_ZN4asio6detail7tss_ptrINS0_10call_stackINS0_15task_io_serviceENS0_27task_io_service_thread_infoEE7contextEED2Ev
	.type	_ZN4asio6detail7tss_ptrINS0_10call_stackINS0_15task_io_serviceENS0_27task_io_service_thread_infoEE7contextEED2Ev, @function
_ZN4asio6detail7tss_ptrINS0_10call_stackINS0_15task_io_serviceENS0_27task_io_service_thread_infoEE7contextEED2Ev:
.LFB9508:
	.cfi_startproc
	ret
	.cfi_endproc
.LFE9508:
	.size	_ZN4asio6detail7tss_ptrINS0_10call_stackINS0_15task_io_serviceENS0_27task_io_service_thread_infoEE7contextEED2Ev, .-_ZN4asio6detail7tss_ptrINS0_10call_stackINS0_15task_io_serviceENS0_27task_io_service_thread_infoEE7contextEED2Ev
	.weak	_ZN4asio6detail7tss_ptrINS0_10call_stackINS0_15task_io_serviceENS0_27task_io_service_thread_infoEE7contextEED1Ev
	.set	_ZN4asio6detail7tss_ptrINS0_10call_stackINS0_15task_io_serviceENS0_27task_io_service_thread_infoEE7contextEED1Ev,_ZN4asio6detail7tss_ptrINS0_10call_stackINS0_15task_io_serviceENS0_27task_io_service_thread_infoEE7contextEED2Ev
	.section	.text._ZN4asio6detail10service_idINS0_13epoll_reactorEED2Ev,"axG",@progbits,_ZN4asio6detail10service_idINS0_13epoll_reactorEED5Ev,comdat
	.align 2
	.p2align 4
	.weak	_ZN4asio6detail10service_idINS0_13epoll_reactorEED2Ev
	.type	_ZN4asio6detail10service_idINS0_13epoll_reactorEED2Ev, @function
_ZN4asio6detail10service_idINS0_13epoll_reactorEED2Ev:
.LFB9511:
	.cfi_startproc
	ret
	.cfi_endproc
.LFE9511:
	.size	_ZN4asio6detail10service_idINS0_13epoll_reactorEED2Ev, .-_ZN4asio6detail10service_idINS0_13epoll_reactorEED2Ev
	.weak	_ZN4asio6detail10service_idINS0_13epoll_reactorEED1Ev
	.set	_ZN4asio6detail10service_idINS0_13epoll_reactorEED1Ev,_ZN4asio6detail10service_idINS0_13epoll_reactorEED2Ev
	.section	.text._ZN4asio6detail10service_idINS0_15task_io_serviceEED2Ev,"axG",@progbits,_ZN4asio6detail10service_idINS0_15task_io_serviceEED5Ev,comdat
	.align 2
	.p2align 4
	.weak	_ZN4asio6detail10service_idINS0_15task_io_serviceEED2Ev
	.type	_ZN4asio6detail10service_idINS0_15task_io_serviceEED2Ev, @function
_ZN4asio6detail10service_idINS0_15task_io_serviceEED2Ev:
.LFB9514:
	.cfi_startproc
	ret
	.cfi_endproc
.LFE9514:
	.size	_ZN4asio6detail10service_idINS0_15task_io_serviceEED2Ev, .-_ZN4asio6detail10service_idINS0_15task_io_serviceEED2Ev
	.weak	_ZN4asio6detail10service_idINS0_15task_io_serviceEED1Ev
	.set	_ZN4asio6detail10service_idINS0_15task_io_serviceEED1Ev,_ZN4asio6detail10service_idINS0_15task_io_serviceEED2Ev
	.section	.text._ZN4asio6detail7tss_ptrINS0_10call_stackINS0_14strand_service11strand_implEhE7contextEED2Ev,"axG",@progbits,_ZN4asio6detail7tss_ptrINS0_10call_stackINS0_14strand_service11strand_implEhE7contextEED5Ev,comdat
	.align 2
	.p2align 4
	.weak	_ZN4asio6detail7tss_ptrINS0_10call_stackINS0_14strand_service11strand_implEhE7contextEED2Ev
	.type	_ZN4asio6detail7tss_ptrINS0_10call_stackINS0_14strand_service11strand_implEhE7contextEED2Ev, @function
_ZN4asio6detail7tss_ptrINS0_10call_stackINS0_14strand_service11strand_implEhE7contextEED2Ev:
.LFB9517:
	.cfi_startproc
	ret
	.cfi_endproc
.LFE9517:
	.size	_ZN4asio6detail7tss_ptrINS0_10call_stackINS0_14strand_service11strand_implEhE7contextEED2Ev, .-_ZN4asio6detail7tss_ptrINS0_10call_stackINS0_14strand_service11strand_implEhE7contextEED2Ev
	.weak	_ZN4asio6detail7tss_ptrINS0_10call_stackINS0_14strand_service11strand_implEhE7contextEED1Ev
	.set	_ZN4asio6detail7tss_ptrINS0_10call_stackINS0_14strand_service11strand_implEhE7contextEED1Ev,_ZN4asio6detail7tss_ptrINS0_10call_stackINS0_14strand_service11strand_implEhE7contextEED2Ev
	.section	.text._ZN4asio6detail10service_idINS0_14strand_serviceEED2Ev,"axG",@progbits,_ZN4asio6detail10service_idINS0_14strand_serviceEED5Ev,comdat
	.align 2
	.p2align 4
	.weak	_ZN4asio6detail10service_idINS0_14strand_serviceEED2Ev
	.type	_ZN4asio6detail10service_idINS0_14strand_serviceEED2Ev, @function
_ZN4asio6detail10service_idINS0_14strand_serviceEED2Ev:
.LFB9520:
	.cfi_startproc
	ret
	.cfi_endproc
.LFE9520:
	.size	_ZN4asio6detail10service_idINS0_14strand_serviceEED2Ev, .-_ZN4asio6detail10service_idINS0_14strand_serviceEED2Ev
	.weak	_ZN4asio6detail10service_idINS0_14strand_serviceEED1Ev
	.set	_ZN4asio6detail10service_idINS0_14strand_serviceEED1Ev,_ZN4asio6detail10service_idINS0_14strand_serviceEED2Ev
	.section	.text._ZN4asio6detail10service_idINS_19serial_port_serviceEED2Ev,"axG",@progbits,_ZN4asio6detail10service_idINS_19serial_port_serviceEED5Ev,comdat
	.align 2
	.p2align 4
	.weak	_ZN4asio6detail10service_idINS_19serial_port_serviceEED2Ev
	.type	_ZN4asio6detail10service_idINS_19serial_port_serviceEED2Ev, @function
_ZN4asio6detail10service_idINS_19serial_port_serviceEED2Ev:
.LFB9523:
	.cfi_startproc
	ret
	.cfi_endproc
.LFE9523:
	.size	_ZN4asio6detail10service_idINS_19serial_port_serviceEED2Ev, .-_ZN4asio6detail10service_idINS_19serial_port_serviceEED2Ev
	.weak	_ZN4asio6detail10service_idINS_19serial_port_serviceEED1Ev
	.set	_ZN4asio6detail10service_idINS_19serial_port_serviceEED1Ev,_ZN4asio6detail10service_idINS_19serial_port_serviceEED2Ev
	.section	.text._ZN4asio19serial_port_serviceD0Ev,"axG",@progbits,_ZN4asio19serial_port_serviceD5Ev,comdat
	.align 2
	.p2align 4
	.weak	_ZN4asio19serial_port_serviceD0Ev
	.type	_ZN4asio19serial_port_serviceD0Ev, @function
_ZN4asio19serial_port_serviceD0Ev:
.LFB9461:
	.cfi_startproc
	movl	$48, %esi
	jmp	_ZdlPvm@PLT
	.cfi_endproc
.LFE9461:
	.size	_ZN4asio19serial_port_serviceD0Ev, .-_ZN4asio19serial_port_serviceD0Ev
	.section	.text._ZN4asio6detail15system_categoryD2Ev,"axG",@progbits,_ZN4asio6detail15system_categoryD5Ev,comdat
	.align 2
	.p2align 4
	.weak	_ZN4asio6detail15system_categoryD2Ev
	.type	_ZN4asio6detail15system_categoryD2Ev, @function
_ZN4asio6detail15system_categoryD2Ev:
.LFB9487:
	.cfi_startproc
	movq	_ZTVN4asio6detail15system_categoryE@GOTPCREL(%rip), %rax
	addq	$16, %rax
	movq	%rax, (%rdi)
	jmp	_ZNSt3_V214error_categoryD2Ev@PLT
	.cfi_endproc
.LFE9487:
	.size	_ZN4asio6detail15system_categoryD2Ev, .-_ZN4asio6detail15system_categoryD2Ev
	.weak	_ZN4asio6detail15system_categoryD1Ev
	.set	_ZN4asio6detail15system_categoryD1Ev,_ZN4asio6detail15system_categoryD2Ev
	.section	.text._ZN4asio6detail15system_categoryD0Ev,"axG",@progbits,_ZN4asio6detail15system_categoryD5Ev,comdat
	.align 2
	.p2align 4
	.weak	_ZN4asio6detail15system_categoryD0Ev
	.type	_ZN4asio6detail15system_categoryD0Ev, @function
_ZN4asio6detail15system_categoryD0Ev:
.LFB9489:
	.cfi_startproc
	movq	_ZTVN4asio6detail15system_categoryE@GOTPCREL(%rip), %rax
	pushq	%rbp
	.cfi_def_cfa_offset 16
	.cfi_offset 6, -16
	movq	%rdi, %rbp
	addq	$16, %rax
	movq	%rax, (%rdi)
	call	_ZNSt3_V214error_categoryD2Ev@PLT
	movq	%rbp, %rdi
	movl	$8, %esi
	popq	%rbp
	.cfi_def_cfa_offset 8
	jmp	_ZdlPvm@PLT
	.cfi_endproc
.LFE9489:
	.size	_ZN4asio6detail15system_categoryD0Ev, .-_ZN4asio6detail15system_categoryD0Ev
	.section	.text._ZN4asio5error6detail13misc_categoryD2Ev,"axG",@progbits,_ZN4asio5error6detail13misc_categoryD5Ev,comdat
	.align 2
	.p2align 4
	.weak	_ZN4asio5error6detail13misc_categoryD2Ev
	.type	_ZN4asio5error6detail13misc_categoryD2Ev, @function
_ZN4asio5error6detail13misc_categoryD2Ev:
.LFB9467:
	.cfi_startproc
	movq	_ZTVN4asio5error6detail13misc_categoryE@GOTPCREL(%rip), %rax
	addq	$16, %rax
	movq	%rax, (%rdi)
	jmp	_ZNSt3_V214error_categoryD2Ev@PLT
	.cfi_endproc
.LFE9467:
	.size	_ZN4asio5error6detail13misc_categoryD2Ev, .-_ZN4asio5error6detail13misc_categoryD2Ev
	.weak	_ZN4asio5error6detail13misc_categoryD1Ev
	.set	_ZN4asio5error6detail13misc_categoryD1Ev,_ZN4asio5error6detail13misc_categoryD2Ev
	.section	.text._ZN4asio5error6detail13misc_categoryD0Ev,"axG",@progbits,_ZN4asio5error6detail13misc_categoryD5Ev,comdat
	.align 2
	.p2align 4
	.weak	_ZN4asio5error6detail13misc_categoryD0Ev
	.type	_ZN4asio5error6detail13misc_categoryD0Ev, @function
_ZN4asio5error6detail13misc_categoryD0Ev:
.LFB9469:
	.cfi_startproc
	movq	_ZTVN4asio5error6detail13misc_categoryE@GOTPCREL(%rip), %rax
	pushq	%rbp
	.cfi_def_cfa_offset 16
	.cfi_offset 6, -16
	movq	%rdi, %rbp
	addq	$16, %rax
	movq	%rax, (%rdi)
	call	_ZNSt3_V214error_categoryD2Ev@PLT
	movq	%rbp, %rdi
	movl	$8, %esi
	popq	%rbp
	.cfi_def_cfa_offset 8
	jmp	_ZdlPvm@PLT
	.cfi_endproc
.LFE9469:
	.size	_ZN4asio5error6detail13misc_categoryD0Ev, .-_ZN4asio5error6detail13misc_categoryD0Ev
	.section	.text._ZN4asio5error6detail14netdb_categoryD2Ev,"axG",@progbits,_ZN4asio5error6detail14netdb_categoryD5Ev,comdat
	.align 2
	.p2align 4
	.weak	_ZN4asio5error6detail14netdb_categoryD2Ev
	.type	_ZN4asio5error6detail14netdb_categoryD2Ev, @function
_ZN4asio5error6detail14netdb_categoryD2Ev:
.LFB9475:
	.cfi_startproc
	movq	_ZTVN4asio5error6detail14netdb_categoryE@GOTPCREL(%rip), %rax
	addq	$16, %rax
	movq	%rax, (%rdi)
	jmp	_ZNSt3_V214error_categoryD2Ev@PLT
	.cfi_endproc
.LFE9475:
	.size	_ZN4asio5error6detail14netdb_categoryD2Ev, .-_ZN4asio5error6detail14netdb_categoryD2Ev
	.weak	_ZN4asio5error6detail14netdb_categoryD1Ev
	.set	_ZN4asio5error6detail14netdb_categoryD1Ev,_ZN4asio5error6detail14netdb_categoryD2Ev
	.section	.text._ZN4asio5error6detail14netdb_categoryD0Ev,"axG",@progbits,_ZN4asio5error6detail14netdb_categoryD5Ev,comdat
	.align 2
	.p2align 4
	.weak	_ZN4asio5error6detail14netdb_categoryD0Ev
	.type	_ZN4asio5error6detail14netdb_categoryD0Ev, @function
_ZN4asio5error6detail14netdb_categoryD0Ev:
.LFB9477:
	.cfi_startproc
	movq	_ZTVN4asio5error6detail14netdb_categoryE@GOTPCREL(%rip), %rax
	pushq	%rbp
	.cfi_def_cfa_offset 16
	.cfi_offset 6, -16
	movq	%rdi, %rbp
	addq	$16, %rax
	movq	%rax, (%rdi)
	call	_ZNSt3_V214error_categoryD2Ev@PLT
	movq	%rbp, %rdi
	movl	$8, %esi
	popq	%rbp
	.cfi_def_cfa_offset 8
	jmp	_ZdlPvm@PLT
	.cfi_endproc
.LFE9477:
	.size	_ZN4asio5error6detail14netdb_categoryD0Ev, .-_ZN4asio5error6detail14netdb_categoryD0Ev
	.section	.text._ZN4asio5error6detail17addrinfo_categoryD2Ev,"axG",@progbits,_ZN4asio5error6detail17addrinfo_categoryD5Ev,comdat
	.align 2
	.p2align 4
	.weak	_ZN4asio5error6detail17addrinfo_categoryD2Ev
	.type	_ZN4asio5error6detail17addrinfo_categoryD2Ev, @function
_ZN4asio5error6detail17addrinfo_categoryD2Ev:
.LFB9471:
	.cfi_startproc
	movq	_ZTVN4asio5error6detail17addrinfo_categoryE@GOTPCREL(%rip), %rax
	addq	$16, %rax
	movq	%rax, (%rdi)
	jmp	_ZNSt3_V214error_categoryD2Ev@PLT
	.cfi_endproc
.LFE9471:
	.size	_ZN4asio5error6detail17addrinfo_categoryD2Ev, .-_ZN4asio5error6detail17addrinfo_categoryD2Ev
	.weak	_ZN4asio5error6detail17addrinfo_categoryD1Ev
	.set	_ZN4asio5error6detail17addrinfo_categoryD1Ev,_ZN4asio5error6detail17addrinfo_categoryD2Ev
	.section	.text._ZN4asio5error6detail17addrinfo_categoryD0Ev,"axG",@progbits,_ZN4asio5error6detail17addrinfo_categoryD5Ev,comdat
	.align 2
	.p2align 4
	.weak	_ZN4asio5error6detail17addrinfo_categoryD0Ev
	.type	_ZN4asio5error6detail17addrinfo_categoryD0Ev, @function
_ZN4asio5error6detail17addrinfo_categoryD0Ev:
.LFB9473:
	.cfi_startproc
	movq	_ZTVN4asio5error6detail17addrinfo_categoryE@GOTPCREL(%rip), %rax
	pushq	%rbp
	.cfi_def_cfa_offset 16
	.cfi_offset 6, -16
	movq	%rdi, %rbp
	addq	$16, %rax
	movq	%rax, (%rdi)
	call	_ZNSt3_V214error_categoryD2Ev@PLT
	movq	%rbp, %rdi
	movl	$8, %esi
	popq	%rbp
	.cfi_def_cfa_offset 8
	jmp	_ZdlPvm@PLT
	.cfi_endproc
.LFE9473:
	.size	_ZN4asio5error6detail17addrinfo_categoryD0Ev, .-_ZN4asio5error6detail17addrinfo_categoryD0Ev
	.section	.text.unlikely,"ax",@progbits
	.align 2
	.type	_ZN4asio6detail18completion_handlerINS0_17rewrapped_handlerINS0_7binder2INS0_8write_opINS_17basic_serial_portINS_19serial_port_serviceEEENS_15const_buffers_1ENS0_14transfer_all_tENS0_15wrapped_handlerINS_10io_service6strandEZN7asiopal13SerialChannel14BeginWriteImplERKN7openpal6RSliceEEUlRKSt10error_codemE_NS0_26is_continuation_if_runningEEEEESJ_mEESM_EEE3ptr5resetEv, @function
_ZN4asio6detail18completion_handlerINS0_17rewrapped_handlerINS0_7binder2INS0_8write_opINS_17basic_serial_portINS_19serial_port_serviceEEENS_15const_buffers_1ENS0_14transfer_all_tENS0_15wrapped_handlerINS_10io_service6strandEZN7asiopal13SerialChannel14BeginWriteImplERKN7openpal6RSliceEEUlRKSt10error_codemE_NS0_26is_continuation_if_runningEEEEESJ_mEESM_EEE3ptr5resetEv:
.LFB9384:
	.cfi_startproc
	pushq	%rbp
	.cfi_def_cfa_offset 16
	.cfi_offset 6, -16
	pushq	%rbx
	.cfi_def_cfa_offset 24
	.cfi_offset 3, -24
	movq	%rdi, %rbx
	pushq	%rdx
	.cfi_def_cfa_offset 32
	cmpq	$0, 16(%rdi)
	je	.L29
	movq	$0, 16(%rdi)
.L29:
	movq	8(%rbx), %rbp
	testq	%rbp, %rbp
	je	.L28
	data16	leaq	_ZN4asio6detail15keyword_tss_ptrINS0_10call_stackINS0_15task_io_serviceENS0_27task_io_service_thread_infoEE7contextEE6value_E@tlsgd(%rip), %rdi
	.value	0x6666
	rex64
	call	__tls_get_addr@PLT
	movq	(%rax), %rax
	testq	%rax, %rax
	je	.L31
	movq	8(%rax), %rax
	testq	%rax, %rax
	je	.L31
	cmpq	$0, (%rax)
	jne	.L31
	movb	120(%rbp), %dl
	movb	%dl, 0(%rbp)
	movq	%rbp, (%rax)
	jmp	.L32
.L31:
	movq	%rbp, %rdi
	call	_ZdlPv@PLT
.L32:
	movq	$0, 8(%rbx)
.L28:
	popq	%rax
	.cfi_def_cfa_offset 24
	popq	%rbx
	.cfi_def_cfa_offset 16
	popq	%rbp
	.cfi_def_cfa_offset 8
	ret
	.cfi_endproc
.LFE9384:
	.size	_ZN4asio6detail18completion_handlerINS0_17rewrapped_handlerINS0_7binder2INS0_8write_opINS_17basic_serial_portINS_19serial_port_serviceEEENS_15const_buffers_1ENS0_14transfer_all_tENS0_15wrapped_handlerINS_10io_service6strandEZN7asiopal13SerialChannel14BeginWriteImplERKN7openpal6RSliceEEUlRKSt10error_codemE_NS0_26is_continuation_if_runningEEEEESJ_mEESM_EEE3ptr5resetEv, .-_ZN4asio6detail18completion_handlerINS0_17rewrapped_handlerINS0_7binder2INS0_8write_opINS_17basic_serial_portINS_19serial_port_serviceEEENS_15const_buffers_1ENS0_14transfer_all_tENS0_15wrapped_handlerINS_10io_service6strandEZN7asiopal13SerialChannel14BeginWriteImplERKN7openpal6RSliceEEUlRKSt10error_codemE_NS0_26is_continuation_if_runningEEEEESJ_mEESM_EEE3ptr5resetEv
	.align 2
	.type	_ZN4asio6detail18completion_handlerINS0_7binder2IZN7asiopal13SerialChannel14BeginWriteImplERKN7openpal6RSliceEEUlRKSt10error_codemE_S9_mEEE3ptr5resetEv, @function
_ZN4asio6detail18completion_handlerINS0_7binder2IZN7asiopal13SerialChannel14BeginWriteImplERKN7openpal6RSliceEEUlRKSt10error_codemE_S9_mEEE3ptr5resetEv:
.LFB9182:
	.cfi_startproc
	pushq	%rbp
	.cfi_def_cfa_offset 16
	.cfi_offset 6, -16
	pushq	%rbx
	.cfi_def_cfa_offset 24
	.cfi_offset 3, -24
	movq	%rdi, %rbx
	pushq	%rdx
	.cfi_def_cfa_offset 32
	cmpq	$0, 16(%rdi)
	je	.L44
	movq	$0, 16(%rdi)
.L44:
	movq	8(%rbx), %rbp
	testq	%rbp, %rbp
	je	.L43
	data16	leaq	_ZN4asio6detail15keyword_tss_ptrINS0_10call_stackINS0_15task_io_serviceENS0_27task_io_service_thread_infoEE7contextEE6value_E@tlsgd(%rip), %rdi
	.value	0x6666
	rex64
	call	__tls_get_addr@PLT
	movq	(%rax), %rax
	testq	%rax, %rax
	je	.L46
	movq	8(%rax), %rax
	testq	%rax, %rax
	je	.L46
	cmpq	$0, (%rax)
	jne	.L46
	movb	56(%rbp), %dl
	movb	%dl, 0(%rbp)
	movq	%rbp, (%rax)
	jmp	.L47
.L46:
	movq	%rbp, %rdi
	call	_ZdlPv@PLT
.L47:
	movq	$0, 8(%rbx)
.L43:
	popq	%rax
	.cfi_def_cfa_offset 24
	popq	%rbx
	.cfi_def_cfa_offset 16
	popq	%rbp
	.cfi_def_cfa_offset 8
	ret
	.cfi_endproc
.LFE9182:
	.size	_ZN4asio6detail18completion_handlerINS0_7binder2IZN7asiopal13SerialChannel14BeginWriteImplERKN7openpal6RSliceEEUlRKSt10error_codemE_S9_mEEE3ptr5resetEv, .-_ZN4asio6detail18completion_handlerINS0_7binder2IZN7asiopal13SerialChannel14BeginWriteImplERKN7openpal6RSliceEEUlRKSt10error_codemE_S9_mEEE3ptr5resetEv
	.align 2
	.type	_ZN4asio6detail18descriptor_read_opINS_17mutable_buffers_1ENS0_15wrapped_handlerINS_10io_service6strandEZN7asiopal13SerialChannel13BeginReadImplEN7openpal6WSliceEEUlRKSt10error_codemE_NS0_26is_continuation_if_runningEEEE3ptr5resetEv, @function
_ZN4asio6detail18descriptor_read_opINS_17mutable_buffers_1ENS0_15wrapped_handlerINS_10io_service6strandEZN7asiopal13SerialChannel13BeginReadImplEN7openpal6WSliceEEUlRKSt10error_codemE_NS0_26is_continuation_if_runningEEEE3ptr5resetEv:
.LFB9019:
	.cfi_startproc
	pushq	%rbp
	.cfi_def_cfa_offset 16
	.cfi_offset 6, -16
	pushq	%rbx
	.cfi_def_cfa_offset 24
	.cfi_offset 3, -24
	movq	%rdi, %rbx
	pushq	%rdx
	.cfi_def_cfa_offset 32
	cmpq	$0, 16(%rdi)
	je	.L59
	movq	$0, 16(%rdi)
.L59:
	movq	8(%rbx), %rbp
	testq	%rbp, %rbp
	je	.L58
	data16	leaq	_ZN4asio6detail15keyword_tss_ptrINS0_10call_stackINS0_15task_io_serviceENS0_27task_io_service_thread_infoEE7contextEE6value_E@tlsgd(%rip), %rdi
	.value	0x6666
	rex64
	call	__tls_get_addr@PLT
	movq	(%rax), %rax
	testq	%rax, %rax
	je	.L61
	movq	8(%rax), %rax
	testq	%rax, %rax
	je	.L61
	cmpq	$0, (%rax)
	jne	.L61
	movb	104(%rbp), %dl
	movb	%dl, 0(%rbp)
	movq	%rbp, (%rax)
	jmp	.L62
.L61:
	movq	%rbp, %rdi
	call	_ZdlPv@PLT
.L62:
	movq	$0, 8(%rbx)
.L58:
	popq	%rax
	.cfi_def_cfa_offset 24
	popq	%rbx
	.cfi_def_cfa_offset 16
	popq	%rbp
	.cfi_def_cfa_offset 8
	ret
	.cfi_endproc
.LFE9019:
	.size	_ZN4asio6detail18descriptor_read_opINS_17mutable_buffers_1ENS0_15wrapped_handlerINS_10io_service6strandEZN7asiopal13SerialChannel13BeginReadImplEN7openpal6WSliceEEUlRKSt10error_codemE_NS0_26is_continuation_if_runningEEEE3ptr5resetEv, .-_ZN4asio6detail18descriptor_read_opINS_17mutable_buffers_1ENS0_15wrapped_handlerINS_10io_service6strandEZN7asiopal13SerialChannel13BeginReadImplEN7openpal6WSliceEEUlRKSt10error_codemE_NS0_26is_continuation_if_runningEEEE3ptr5resetEv
	.align 2
	.type	_ZN4asio6detail19descriptor_write_opINS_15const_buffers_1ENS0_8write_opINS_17basic_serial_portINS_19serial_port_serviceEEES2_NS0_14transfer_all_tENS0_15wrapped_handlerINS_10io_service6strandEZN7asiopal13SerialChannel14BeginWriteImplERKN7openpal6RSliceEEUlRKSt10error_codemE_NS0_26is_continuation_if_runningEEEEEE3ptr5resetEv, @function
_ZN4asio6detail19descriptor_write_opINS_15const_buffers_1ENS0_8write_opINS_17basic_serial_portINS_19serial_port_serviceEEES2_NS0_14transfer_all_tENS0_15wrapped_handlerINS_10io_service6strandEZN7asiopal13SerialChannel14BeginWriteImplERKN7openpal6RSliceEEUlRKSt10error_codemE_NS0_26is_continuation_if_runningEEEEEE3ptr5resetEv:
.LFB9247:
	.cfi_startproc
	pushq	%rbp
	.cfi_def_cfa_offset 16
	.cfi_offset 6, -16
	pushq	%rbx
	.cfi_def_cfa_offset 24
	.cfi_offset 3, -24
	movq	%rdi, %rbx
	pushq	%rdx
	.cfi_def_cfa_offset 32
	cmpq	$0, 16(%rdi)
	je	.L74
	movq	$0, 16(%rdi)
.L74:
	movq	8(%rbx), %rbp
	testq	%rbp, %rbp
	je	.L73
	data16	leaq	_ZN4asio6detail15keyword_tss_ptrINS0_10call_stackINS0_15task_io_serviceENS0_27task_io_service_thread_infoEE7contextEE6value_E@tlsgd(%rip), %rdi
	.value	0x6666
	rex64
	call	__tls_get_addr@PLT
	movq	(%rax), %rax
	testq	%rax, %rax
	je	.L76
	movq	8(%rax), %rax
	testq	%rax, %rax
	je	.L76
	cmpq	$0, (%rax)
	jne	.L76
	movb	144(%rbp), %dl
	movb	%dl, 0(%rbp)
	movq	%rbp, (%rax)
	jmp	.L77
.L76:
	movq	%rbp, %rdi
	call	_ZdlPv@PLT
.L77:
	movq	$0, 8(%rbx)
.L73:
	popq	%rax
	.cfi_def_cfa_offset 24
	popq	%rbx
	.cfi_def_cfa_offset 16
	popq	%rbp
	.cfi_def_cfa_offset 8
	ret
	.cfi_endproc
.LFE9247:
	.size	_ZN4asio6detail19descriptor_write_opINS_15const_buffers_1ENS0_8write_opINS_17basic_serial_portINS_19serial_port_serviceEEES2_NS0_14transfer_all_tENS0_15wrapped_handlerINS_10io_service6strandEZN7asiopal13SerialChannel14BeginWriteImplERKN7openpal6RSliceEEUlRKSt10error_codemE_NS0_26is_continuation_if_runningEEEEEE3ptr5resetEv, .-_ZN4asio6detail19descriptor_write_opINS_15const_buffers_1ENS0_8write_opINS_17basic_serial_portINS_19serial_port_serviceEEES2_NS0_14transfer_all_tENS0_15wrapped_handlerINS_10io_service6strandEZN7asiopal13SerialChannel14BeginWriteImplERKN7openpal6RSliceEEUlRKSt10error_codemE_NS0_26is_continuation_if_runningEEEEEE3ptr5resetEv
	.align 2
	.type	_ZN4asio6detail18completion_handlerINS0_17rewrapped_handlerINS0_7binder2INS0_15wrapped_handlerINS_10io_service6strandEZN7asiopal13SerialChannel13BeginReadImplEN7openpal6WSliceEEUlRKSt10error_codemE_NS0_26is_continuation_if_runningEEESB_mEESE_EEE3ptr5resetEv, @function
_ZN4asio6detail18completion_handlerINS0_17rewrapped_handlerINS0_7binder2INS0_15wrapped_handlerINS_10io_service6strandEZN7asiopal13SerialChannel13BeginReadImplEN7openpal6WSliceEEUlRKSt10error_codemE_NS0_26is_continuation_if_runningEEESB_mEESE_EEE3ptr5resetEv:
.LFB9335:
	.cfi_startproc
	pushq	%rbp
	.cfi_def_cfa_offset 16
	.cfi_offset 6, -16
	pushq	%rbx
	.cfi_def_cfa_offset 24
	.cfi_offset 3, -24
	movq	%rdi, %rbx
	pushq	%rdx
	.cfi_def_cfa_offset 32
	cmpq	$0, 16(%rdi)
	je	.L89
	movq	$0, 16(%rdi)
.L89:
	movq	8(%rbx), %rbp
	testq	%rbp, %rbp
	je	.L88
	data16	leaq	_ZN4asio6detail15keyword_tss_ptrINS0_10call_stackINS0_15task_io_serviceENS0_27task_io_service_thread_infoEE7contextEE6value_E@tlsgd(%rip), %rdi
	.value	0x6666
	rex64
	call	__tls_get_addr@PLT
	movq	(%rax), %rax
	testq	%rax, %rax
	je	.L91
	movq	8(%rax), %rax
	testq	%rax, %rax
	je	.L91
	cmpq	$0, (%rax)
	jne	.L91
	movb	80(%rbp), %dl
	movb	%dl, 0(%rbp)
	movq	%rbp, (%rax)
	jmp	.L92
.L91:
	movq	%rbp, %rdi
	call	_ZdlPv@PLT
.L92:
	movq	$0, 8(%rbx)
.L88:
	popq	%rax
	.cfi_def_cfa_offset 24
	popq	%rbx
	.cfi_def_cfa_offset 16
	popq	%rbp
	.cfi_def_cfa_offset 8
	ret
	.cfi_endproc
.LFE9335:
	.size	_ZN4asio6detail18completion_handlerINS0_17rewrapped_handlerINS0_7binder2INS0_15wrapped_handlerINS_10io_service6strandEZN7asiopal13SerialChannel13BeginReadImplEN7openpal6WSliceEEUlRKSt10error_codemE_NS0_26is_continuation_if_runningEEESB_mEESE_EEE3ptr5resetEv, .-_ZN4asio6detail18completion_handlerINS0_17rewrapped_handlerINS0_7binder2INS0_15wrapped_handlerINS_10io_service6strandEZN7asiopal13SerialChannel13BeginReadImplEN7openpal6WSliceEEUlRKSt10error_codemE_NS0_26is_continuation_if_runningEEESB_mEESE_EEE3ptr5resetEv
	.align 2
	.type	_ZN4asio6detail18completion_handlerINS0_7binder2IZN7asiopal13SerialChannel13BeginReadImplEN7openpal6WSliceEEUlRKSt10error_codemE_S7_mEEE3ptr5resetEv, @function
_ZN4asio6detail18completion_handlerINS0_7binder2IZN7asiopal13SerialChannel13BeginReadImplEN7openpal6WSliceEEUlRKSt10error_codemE_S7_mEEE3ptr5resetEv:
.LFB9421:
	.cfi_startproc
	pushq	%rbp
	.cfi_def_cfa_offset 16
	.cfi_offset 6, -16
	pushq	%rbx
	.cfi_def_cfa_offset 24
	.cfi_offset 3, -24
	movq	%rdi, %rbx
	pushq	%rdx
	.cfi_def_cfa_offset 32
	cmpq	$0, 16(%rdi)
	je	.L104
	movq	$0, 16(%rdi)
.L104:
	movq	8(%rbx), %rbp
	testq	%rbp, %rbp
	je	.L103
	data16	leaq	_ZN4asio6detail15keyword_tss_ptrINS0_10call_stackINS0_15task_io_serviceENS0_27task_io_service_thread_infoEE7contextEE6value_E@tlsgd(%rip), %rdi
	.value	0x6666
	rex64
	call	__tls_get_addr@PLT
	movq	(%rax), %rax
	testq	%rax, %rax
	je	.L106
	movq	8(%rax), %rax
	testq	%rax, %rax
	je	.L106
	cmpq	$0, (%rax)
	jne	.L106
	movb	56(%rbp), %dl
	movb	%dl, 0(%rbp)
	movq	%rbp, (%rax)
	jmp	.L107
.L106:
	movq	%rbp, %rdi
	call	_ZdlPv@PLT
.L107:
	movq	$0, 8(%rbx)
.L103:
	popq	%rax
	.cfi_def_cfa_offset 24
	popq	%rbx
	.cfi_def_cfa_offset 16
	popq	%rbp
	.cfi_def_cfa_offset 8
	ret
	.cfi_endproc
.LFE9421:
	.size	_ZN4asio6detail18completion_handlerINS0_7binder2IZN7asiopal13SerialChannel13BeginReadImplEN7openpal6WSliceEEUlRKSt10error_codemE_S7_mEEE3ptr5resetEv, .-_ZN4asio6detail18completion_handlerINS0_7binder2IZN7asiopal13SerialChannel13BeginReadImplEN7openpal6WSliceEEUlRKSt10error_codemE_S7_mEEE3ptr5resetEv
	.section	.text._ZN4asio6detail13epoll_reactorD2Ev,"axG",@progbits,_ZN4asio6detail13epoll_reactorD5Ev,comdat
	.align 2
	.p2align 4
	.weak	_ZN4asio6detail13epoll_reactorD2Ev
	.type	_ZN4asio6detail13epoll_reactorD2Ev, @function
_ZN4asio6detail13epoll_reactorD2Ev:
.LFB3289:
	.cfi_startproc
	.cfi_personality 0x9b,DW.ref.__gxx_personality_v0
	.cfi_lsda 0x1b,.LLSDA3289
	pushq	%r15
	.cfi_def_cfa_offset 16
	.cfi_offset 15, -16
	pushq	%r14
	.cfi_def_cfa_offset 24
	.cfi_offset 14, -24
	pushq	%r13
	.cfi_def_cfa_offset 32
	.cfi_offset 13, -32
	pushq	%r12
	.cfi_def_cfa_offset 40
	.cfi_offset 12, -40
	pushq	%rbp
	.cfi_def_cfa_offset 48
	.cfi_offset 6, -48
	pushq	%rbx
	.cfi_def_cfa_offset 56
	.cfi_offset 3, -56
	subq	$56, %rsp
	.cfi_def_cfa_offset 112
	movq	%rdi, 8(%rsp)
	movq	%fs:40, %rax
	movq	%rax, 40(%rsp)
	movq	_ZTVN4asio6detail13epoll_reactorE@GOTPCREL(%rip), %rax
	addq	$16, %rax
	movq	%rax, (%rdi)
	movl	96(%rdi), %edi
	cmpl	$-1, %edi
	je	.L119
	call	close@PLT
.L119:
	movq	8(%rsp), %rax
	movl	100(%rax), %edi
	cmpl	$-1, %edi
	je	.L120
	call	close@PLT
.L120:
	movq	8(%rsp), %rax
	leaq	16(%rsp), %rbp
	movq	160(%rax), %r13
	testq	%r13, %r13
	je	.L131
	.p2align 4,,10
	.p2align 3
.L121:
	movq	%r13, %r12
	movq	24(%r13), %r13
	leaq	128(%r12), %r15
	leaq	80(%r12), %r14
.L126:
	movq	(%r15), %rsi
	testq	%rsi, %rsi
	je	.L128
	movq	%rsi, (%rsp)
	call	_ZNSt3_V215system_categoryEv@PLT
	movq	(%rsp), %rsi
	movq	%rax, %rbx
	jmp	.L130
	.p2align 4,,10
	.p2align 3
.L127:
	movq	$0, (%rsi)
	movq	8(%rsi), %rax
	xorl	%ecx, %ecx
	movq	%rbp, %rdx
	movl	$0, 16(%rsp)
	xorl	%edi, %edi
	movq	%rbx, 24(%rsp)
	call	*%rax
	movq	(%r15), %rsi
	testq	%rsi, %rsi
	je	.L128
.L130:
	movq	(%rsi), %rax
	movq	%rax, (%r15)
	testq	%rax, %rax
	jne	.L127
	movq	$0, 8(%r15)
	jmp	.L127
	.p2align 4,,10
	.p2align 3
.L128:
	subq	$16, %r15
	cmpq	%r14, %r15
	jne	.L126
	leaq	40(%r12), %rdi
	call	pthread_mutex_destroy@PLT
	movl	$152, %esi
	movq	%r12, %rdi
	call	_ZdlPvm@PLT
	testq	%r13, %r13
	jne	.L121
.L131:
	movq	8(%rsp), %rax
	movq	168(%rax), %r13
	testq	%r13, %r13
	je	.L122
	leaq	16(%rsp), %rbp
	.p2align 4,,10
	.p2align 3
.L123:
	movq	%r13, %r12
	movq	24(%r13), %r13
	leaq	128(%r12), %r15
	leaq	80(%r12), %r14
.L136:
	movq	(%r15), %rsi
	testq	%rsi, %rsi
	je	.L138
	movq	%rsi, (%rsp)
	call	_ZNSt3_V215system_categoryEv@PLT
	movq	(%rsp), %rsi
	movq	%rax, %rbx
	jmp	.L140
	.p2align 4,,10
	.p2align 3
.L137:
	movq	$0, (%rsi)
	movq	8(%rsi), %rax
	xorl	%ecx, %ecx
	movq	%rbp, %rdx
	movl	$0, 16(%rsp)
	xorl	%edi, %edi
	movq	%rbx, 24(%rsp)
	call	*%rax
	movq	(%r15), %rsi
	testq	%rsi, %rsi
	je	.L138
.L140:
	movq	(%rsi), %rax
	movq	%rax, (%r15)
	testq	%rax, %rax
	jne	.L137
	movq	$0, 8(%r15)
	jmp	.L137
	.p2align 4,,10
	.p2align 3
.L138:
	subq	$16, %r15
	cmpq	%r14, %r15
	jne	.L136
	leaq	40(%r12), %rdi
	call	pthread_mutex_destroy@PLT
	movl	$152, %esi
	movq	%r12, %rdi
	call	_ZdlPvm@PLT
	testq	%r13, %r13
	jne	.L123
.L122:
	movq	8(%rsp), %rbx
	leaq	120(%rbx), %rdi
	call	pthread_mutex_destroy@PLT
	movl	92(%rbx), %r8d
	cmpl	$-1, %r8d
	je	.L181
	movq	8(%rsp), %rbx
	movl	88(%rbx), %edi
	cmpl	%edi, %r8d
	jne	.L182
.L142:
	call	close@PLT
.L143:
	movq	40(%rsp), %rax
	subq	%fs:40, %rax
	jne	.L183
	movq	8(%rsp), %rdi
	addq	$56, %rsp
	.cfi_remember_state
	.cfi_def_cfa_offset 56
	popq	%rbx
	.cfi_def_cfa_offset 48
	popq	%rbp
	.cfi_def_cfa_offset 40
	addq	$48, %rdi
	popq	%r12
	.cfi_def_cfa_offset 32
	popq	%r13
	.cfi_def_cfa_offset 24
	popq	%r14
	.cfi_def_cfa_offset 16
	popq	%r15
	.cfi_def_cfa_offset 8
	jmp	pthread_mutex_destroy@PLT
.L182:
	.cfi_restore_state
	movl	%r8d, %edi
	call	close@PLT
	movl	88(%rbx), %edi
.L141:
	cmpl	$-1, %edi
	je	.L143
	jmp	.L142
.L181:
	movq	8(%rsp), %rax
	movl	88(%rax), %edi
	jmp	.L141
.L183:
	call	__stack_chk_fail@PLT
	.cfi_endproc
.LFE3289:
	.globl	__gxx_personality_v0
	.section	.gcc_except_table._ZN4asio6detail13epoll_reactorD2Ev,"aG",@progbits,_ZN4asio6detail13epoll_reactorD5Ev,comdat
.LLSDA3289:
	.byte	0xff
	.byte	0xff
	.byte	0x1
	.uleb128 .LLSDACSE3289-.LLSDACSB3289
.LLSDACSB3289:
.LLSDACSE3289:
	.section	.text._ZN4asio6detail13epoll_reactorD2Ev,"axG",@progbits,_ZN4asio6detail13epoll_reactorD5Ev,comdat
	.size	_ZN4asio6detail13epoll_reactorD2Ev, .-_ZN4asio6detail13epoll_reactorD2Ev
	.weak	_ZN4asio6detail13epoll_reactorD1Ev
	.set	_ZN4asio6detail13epoll_reactorD1Ev,_ZN4asio6detail13epoll_reactorD2Ev
	.section	.text._ZN4asio6detail13epoll_reactorD0Ev,"axG",@progbits,_ZN4asio6detail13epoll_reactorD5Ev,comdat
	.align 2
	.p2align 4
	.weak	_ZN4asio6detail13epoll_reactorD0Ev
	.type	_ZN4asio6detail13epoll_reactorD0Ev, @function
_ZN4asio6detail13epoll_reactorD0Ev:
.LFB3291:
	.cfi_startproc
	.cfi_personality 0x9b,DW.ref.__gxx_personality_v0
	.cfi_lsda 0x1b,.LLSDA3291
	pushq	%r15
	.cfi_def_cfa_offset 16
	.cfi_offset 15, -16
	pushq	%r14
	.cfi_def_cfa_offset 24
	.cfi_offset 14, -24
	pushq	%r13
	.cfi_def_cfa_offset 32
	.cfi_offset 13, -32
	pushq	%r12
	.cfi_def_cfa_offset 40
	.cfi_offset 12, -40
	pushq	%rbp
	.cfi_def_cfa_offset 48
	.cfi_offset 6, -48
	pushq	%rbx
	.cfi_def_cfa_offset 56
	.cfi_offset 3, -56
	subq	$56, %rsp
	.cfi_def_cfa_offset 112
	movq	%rdi, 8(%rsp)
	movq	%fs:40, %rax
	movq	%rax, 40(%rsp)
	movq	_ZTVN4asio6detail13epoll_reactorE@GOTPCREL(%rip), %rax
	addq	$16, %rax
	movq	%rax, (%rdi)
	movl	96(%rdi), %edi
	cmpl	$-1, %edi
	je	.L185
	call	close@PLT
.L185:
	movq	8(%rsp), %rax
	movl	100(%rax), %edi
	cmpl	$-1, %edi
	je	.L186
	call	close@PLT
.L186:
	movq	8(%rsp), %rax
	leaq	16(%rsp), %rbp
	movq	160(%rax), %r13
	testq	%r13, %r13
	je	.L197
	.p2align 4,,10
	.p2align 3
.L187:
	movq	%r13, %r12
	movq	24(%r13), %r13
	leaq	144(%r12), %r15
	leaq	96(%r12), %r14
.L192:
	movq	-16(%r15), %rsi
	subq	$16, %r15
	testq	%rsi, %rsi
	je	.L194
	movq	%rsi, (%rsp)
	call	_ZNSt3_V215system_categoryEv@PLT
	movq	(%rsp), %rsi
	movq	%rax, %rbx
	jmp	.L196
	.p2align 4,,10
	.p2align 3
.L193:
	movq	$0, (%rsi)
	movq	8(%rsi), %rax
	xorl	%ecx, %ecx
	movq	%rbp, %rdx
	movl	$0, 16(%rsp)
	xorl	%edi, %edi
	movq	%rbx, 24(%rsp)
	call	*%rax
	movq	(%r15), %rsi
	testq	%rsi, %rsi
	je	.L194
.L196:
	movq	(%rsi), %rax
	movq	%rax, (%r15)
	testq	%rax, %rax
	jne	.L193
	movq	$0, 8(%r15)
	jmp	.L193
	.p2align 4,,10
	.p2align 3
.L194:
	cmpq	%r14, %r15
	jne	.L192
	leaq	40(%r12), %rdi
	call	pthread_mutex_destroy@PLT
	movl	$152, %esi
	movq	%r12, %rdi
	call	_ZdlPvm@PLT
	testq	%r13, %r13
	jne	.L187
.L197:
	movq	8(%rsp), %rax
	movq	168(%rax), %r13
	testq	%r13, %r13
	je	.L188
	leaq	16(%rsp), %rbp
	.p2align 4,,10
	.p2align 3
.L189:
	movq	%r13, %r12
	movq	24(%r13), %r13
	leaq	128(%r12), %r15
	leaq	80(%r12), %r14
.L202:
	movq	(%r15), %rsi
	testq	%rsi, %rsi
	je	.L204
	movq	%rsi, (%rsp)
	call	_ZNSt3_V215system_categoryEv@PLT
	movq	(%rsp), %rsi
	movq	%rax, %rbx
	jmp	.L206
	.p2align 4,,10
	.p2align 3
.L203:
	movq	$0, (%rsi)
	movq	8(%rsi), %rax
	xorl	%ecx, %ecx
	movq	%rbp, %rdx
	movl	$0, 16(%rsp)
	xorl	%edi, %edi
	movq	%rbx, 24(%rsp)
	call	*%rax
	movq	(%r15), %rsi
	testq	%rsi, %rsi
	je	.L204
.L206:
	movq	(%rsi), %rax
	movq	%rax, (%r15)
	testq	%rax, %rax
	jne	.L203
	movq	$0, 8(%r15)
	jmp	.L203
	.p2align 4,,10
	.p2align 3
.L204:
	subq	$16, %r15
	cmpq	%r14, %r15
	jne	.L202
	leaq	40(%r12), %rdi
	call	pthread_mutex_destroy@PLT
	movl	$152, %esi
	movq	%r12, %rdi
	call	_ZdlPvm@PLT
	testq	%r13, %r13
	jne	.L189
.L188:
	movq	8(%rsp), %rbx
	leaq	120(%rbx), %rdi
	call	pthread_mutex_destroy@PLT
	movl	92(%rbx), %r8d
	cmpl	$-1, %r8d
	je	.L247
	movq	8(%rsp), %rbx
	movl	88(%rbx), %edi
	cmpl	%edi, %r8d
	jne	.L248
.L208:
	call	close@PLT
.L209:
	movq	8(%rsp), %rax
	leaq	48(%rax), %rdi
	call	pthread_mutex_destroy@PLT
	movq	40(%rsp), %rax
	subq	%fs:40, %rax
	jne	.L249
	movq	8(%rsp), %rdi
	addq	$56, %rsp
	.cfi_remember_state
	.cfi_def_cfa_offset 56
	movl	$176, %esi
	popq	%rbx
	.cfi_def_cfa_offset 48
	popq	%rbp
	.cfi_def_cfa_offset 40
	popq	%r12
	.cfi_def_cfa_offset 32
	popq	%r13
	.cfi_def_cfa_offset 24
	popq	%r14
	.cfi_def_cfa_offset 16
	popq	%r15
	.cfi_def_cfa_offset 8
	jmp	_ZdlPvm@PLT
.L248:
	.cfi_restore_state
	movl	%r8d, %edi
	call	close@PLT
	movl	88(%rbx), %edi
.L207:
	cmpl	$-1, %edi
	je	.L209
	jmp	.L208
.L247:
	movq	8(%rsp), %rax
	movl	88(%rax), %edi
	jmp	.L207
.L249:
	call	__stack_chk_fail@PLT
	.cfi_endproc
.LFE3291:
	.section	.gcc_except_table._ZN4asio6detail13epoll_reactorD0Ev,"aG",@progbits,_ZN4asio6detail13epoll_reactorD5Ev,comdat
.LLSDA3291:
	.byte	0xff
	.byte	0xff
	.byte	0x1
	.uleb128 .LLSDACSE3291-.LLSDACSB3291
.LLSDACSB3291:
.LLSDACSE3291:
	.section	.text._ZN4asio6detail13epoll_reactorD0Ev,"axG",@progbits,_ZN4asio6detail13epoll_reactorD5Ev,comdat
	.size	_ZN4asio6detail13epoll_reactorD0Ev, .-_ZN4asio6detail13epoll_reactorD0Ev
	.section	.text._ZN4asio6detail13epoll_reactor16shutdown_serviceEv,"axG",@progbits,_ZN4asio6detail13epoll_reactor16shutdown_serviceEv,comdat
	.align 2
	.p2align 4
	.weak	_ZN4asio6detail13epoll_reactor16shutdown_serviceEv
	.type	_ZN4asio6detail13epoll_reactor16shutdown_serviceEv, @function
_ZN4asio6detail13epoll_reactor16shutdown_serviceEv:
.LFB3292:
	.cfi_startproc
	.cfi_personality 0x9b,DW.ref.__gxx_personality_v0
	.cfi_lsda 0x1b,.LLSDA3292
	pushq	%r13
	.cfi_def_cfa_offset 16
	.cfi_offset 13, -16
	pushq	%r12
	.cfi_def_cfa_offset 24
	.cfi_offset 12, -24
	pushq	%rbp
	.cfi_def_cfa_offset 32
	.cfi_offset 6, -32
	leaq	48(%rdi), %rbp
	pushq	%rbx
	.cfi_def_cfa_offset 40
	.cfi_offset 3, -40
	movq	%rdi, %rbx
	movq	%rbp, %rdi
	subq	$72, %rsp
	.cfi_def_cfa_offset 112
	movq	%fs:40, %rax
	movq	%rax, 56(%rsp)
	xorl	%eax, %eax
	call	pthread_mutex_lock@PLT
	movb	$1, 112(%rbx)
	movq	%rbp, %rdi
	call	pthread_mutex_unlock@PLT
	movq	160(%rbx), %rax
	pxor	%xmm0, %xmm0
	movaps	%xmm0, 16(%rsp)
	testq	%rax, %rax
	je	.L325
	xorl	%esi, %esi
	xorl	%edx, %edx
	xorl	%r8d, %r8d
	xorl	%ebp, %ebp
	pxor	%xmm0, %xmm0
	jmp	.L251
	.p2align 4,,10
	.p2align 3
.L255:
	movq	%rcx, (%rdx)
.L256:
	movq	104(%rax), %rdx
	movl	$1, %esi
	movups	%xmm0, 96(%rax)
.L254:
	movq	112(%rax), %rcx
	testq	%rcx, %rcx
	je	.L257
	testq	%rdx, %rdx
	je	.L326
	movq	%rcx, (%rdx)
.L259:
	movq	120(%rax), %rdx
	movl	$1, %esi
	movups	%xmm0, 112(%rax)
.L257:
	movq	128(%rax), %rcx
	testq	%rcx, %rcx
	je	.L260
	testq	%rdx, %rdx
	je	.L327
	movq	%rcx, (%rdx)
.L262:
	movq	136(%rax), %rdx
	movl	$1, %esi
	movups	%xmm0, 128(%rax)
.L260:
	movq	24(%rax), %rcx
	movb	$1, 144(%rax)
	movq	%rcx, 160(%rbx)
	movq	32(%rax), %rcx
	testq	%rcx, %rcx
	je	.L263
	movq	24(%rax), %rdi
	movq	%rdi, 24(%rcx)
.L263:
	movq	24(%rax), %rcx
	testq	%rcx, %rcx
	je	.L264
	movq	32(%rax), %rdi
	movq	%rdi, 32(%rcx)
.L264:
	movq	168(%rbx), %rcx
	movq	$0, 32(%rax)
	movq	%rcx, 24(%rax)
	movq	%rax, 168(%rbx)
	movq	160(%rbx), %rax
	testq	%rax, %rax
	je	.L328
.L251:
	movq	96(%rax), %rcx
	testq	%rcx, %rcx
	je	.L254
	testq	%rdx, %rdx
	jne	.L255
	movq	%rcx, %rbp
	movl	$1, %r8d
	jmp	.L256
	.p2align 4,,10
	.p2align 3
.L327:
	movq	%rcx, %rbp
	movl	$1, %r8d
	jmp	.L262
	.p2align 4,,10
	.p2align 3
.L326:
	movq	%rcx, %rbp
	movl	$1, %r8d
	jmp	.L259
	.p2align 4,,10
	.p2align 3
.L328:
	testb	%r8b, %r8b
	je	.L282
	movq	%rbp, 16(%rsp)
.L267:
	testb	%sil, %sil
	je	.L268
	movq	%rdx, 24(%rsp)
.L268:
	movq	104(%rbx), %rbx
	testq	%rbx, %rbx
	je	.L269
.L253:
	leaq	16(%rsp), %rbp
	.p2align 4,,10
	.p2align 3
.L270:
	movq	(%rbx), %rax
	movq	%rbp, %rsi
	movq	%rbx, %rdi
.LEHB0:
	call	*48(%rax)
.LEHE0:
	movq	8(%rbx), %rbx
	testq	%rbx, %rbx
	jne	.L270
	movq	16(%rsp), %rbp
.L269:
	testq	%rbp, %rbp
	je	.L250
	pxor	%xmm0, %xmm0
	leaq	32(%rsp), %rbx
	movaps	%xmm0, 16(%rsp)
	call	_ZNSt3_V215system_categoryEv@PLT
	movq	%rax, %r12
	.p2align 4,,10
	.p2align 3
.L271:
	movq	%rbp, %rsi
	movq	0(%rbp), %rbp
	xorl	%ecx, %ecx
	xorl	%edi, %edi
	movq	$0, (%rsi)
	movq	8(%rsi), %rax
	movq	%rbx, %rdx
	movl	$0, 32(%rsp)
	movq	%r12, 40(%rsp)
	call	*%rax
	testq	%rbp, %rbp
	jne	.L271
	movq	16(%rsp), %rsi
	testq	%rsi, %rsi
	movq	%rsi, 8(%rsp)
	je	.L250
	call	_ZNSt3_V215system_categoryEv@PLT
	movq	8(%rsp), %rsi
	movq	%rax, %rbp
	jmp	.L276
	.p2align 4,,10
	.p2align 3
.L273:
	movq	$0, (%rsi)
	movq	8(%rsi), %rax
	xorl	%ecx, %ecx
	movq	%rbx, %rdx
	movl	$0, 32(%rsp)
	xorl	%edi, %edi
	movq	%rbp, 40(%rsp)
	call	*%rax
	movq	16(%rsp), %rsi
	testq	%rsi, %rsi
	je	.L250
.L276:
	movq	(%rsi), %rax
	movq	%rax, 16(%rsp)
	testq	%rax, %rax
	jne	.L273
	movq	$0, 24(%rsp)
	jmp	.L273
.L325:
	movq	104(%rbx), %rbx
	testq	%rbx, %rbx
	jne	.L253
	.p2align 4,,10
	.p2align 3
.L250:
	movq	56(%rsp), %rax
	subq	%fs:40, %rax
	jne	.L329
	addq	$72, %rsp
	.cfi_remember_state
	.cfi_def_cfa_offset 40
	popq	%rbx
	.cfi_def_cfa_offset 32
	popq	%rbp
	.cfi_def_cfa_offset 24
	popq	%r12
	.cfi_def_cfa_offset 16
	popq	%r13
	.cfi_def_cfa_offset 8
	ret
.L282:
	.cfi_restore_state
	xorl	%ebp, %ebp
	jmp	.L267
.L329:
	call	__stack_chk_fail@PLT
.L283:
	movq	%rax, %r12
	leaq	32(%rsp), %rbx
.L277:
	movq	16(%rsp), %rbp
	testq	%rbp, %rbp
	jne	.L330
	movq	%r12, %rdi
.LEHB1:
	call	_Unwind_Resume@PLT
.LEHE1:
.L330:
	movq	0(%rbp), %rax
	movq	%rax, 16(%rsp)
	testq	%rax, %rax
	jne	.L279
	movq	$0, 24(%rsp)
.L279:
	movq	$0, 0(%rbp)
	movq	8(%rbp), %r13
	movl	$0, 32(%rsp)
	call	_ZNSt3_V215system_categoryEv@PLT
	xorl	%ecx, %ecx
	movq	%rbx, %rdx
	movq	%rbp, %rsi
	movq	%rax, 40(%rsp)
	xorl	%edi, %edi
	call	*%r13
	jmp	.L277
	.cfi_endproc
.LFE3292:
	.section	.gcc_except_table._ZN4asio6detail13epoll_reactor16shutdown_serviceEv,"aG",@progbits,_ZN4asio6detail13epoll_reactor16shutdown_serviceEv,comdat
.LLSDA3292:
	.byte	0xff
	.byte	0xff
	.byte	0x1
	.uleb128 .LLSDACSE3292-.LLSDACSB3292
.LLSDACSB3292:
	.uleb128 .LEHB0-.LFB3292
	.uleb128 .LEHE0-.LEHB0
	.uleb128 .L283-.LFB3292
	.uleb128 0
	.uleb128 .LEHB1-.LFB3292
	.uleb128 .LEHE1-.LEHB1
	.uleb128 0
	.uleb128 0
.LLSDACSE3292:
	.section	.text._ZN4asio6detail13epoll_reactor16shutdown_serviceEv,"axG",@progbits,_ZN4asio6detail13epoll_reactor16shutdown_serviceEv,comdat
	.size	_ZN4asio6detail13epoll_reactor16shutdown_serviceEv, .-_ZN4asio6detail13epoll_reactor16shutdown_serviceEv
	.section	.text.unlikely
.LCOLDB4:
	.text
.LHOTB4:
	.p2align 4
	.type	_ZN4asio6detail18completion_handlerINS0_7binder2IZN7asiopal13SerialChannel13BeginReadImplEN7openpal6WSliceEEUlRKSt10error_codemE_S7_mEEE11do_completeEPNS0_15task_io_serviceEPNS0_25task_io_service_operationES9_m, @function
_ZN4asio6detail18completion_handlerINS0_7binder2IZN7asiopal13SerialChannel13BeginReadImplEN7openpal6WSliceEEUlRKSt10error_codemE_S7_mEEE11do_completeEPNS0_15task_io_serviceEPNS0_25task_io_service_operationES9_m:
.LFB9417:
	.cfi_startproc
	.cfi_personality 0x9b,DW.ref.__gxx_personality_v0
	.cfi_lsda 0x1b,.LLSDA9417
	pushq	%rbp
	.cfi_def_cfa_offset 16
	.cfi_offset 6, -16
	movq	%rsi, %rbp
	pushq	%rbx
	.cfi_def_cfa_offset 24
	.cfi_offset 3, -24
	movq	%rdi, %rbx
	subq	$88, %rsp
	.cfi_def_cfa_offset 112
	movdqu	24(%rsi), %xmm0
	movdqu	40(%rsi), %xmm1
	movq	%fs:40, %rax
	movq	%rax, 72(%rsp)
	xorl	%eax, %eax
	leaq	32(%rsp), %rax
	movq	%rsi, 8(%rsp)
	movq	%rax, (%rsp)
	movq	$0, 16(%rsp)
	movups	%xmm0, 32(%rsp)
	movups	%xmm1, 48(%rsp)
	data16	leaq	_ZN4asio6detail15keyword_tss_ptrINS0_10call_stackINS0_15task_io_serviceENS0_27task_io_service_thread_infoEE7contextEE6value_E@tlsgd(%rip), %rdi
	.value	0x6666
	rex64
	call	__tls_get_addr@PLT
	movq	(%rax), %rax
	testq	%rax, %rax
	je	.L332
	movq	8(%rax), %rax
	testq	%rax, %rax
	je	.L332
	cmpq	$0, (%rax)
	je	.L363
.L332:
	movq	%rbp, %rdi
	call	_ZdlPv@PLT
.L333:
	movq	$0, 8(%rsp)
	testq	%rbx, %rbx
	je	.L331
	movq	32(%rsp), %rax
	movq	56(%rsp), %rdx
	movq	40(%rax), %rdi
	movb	$0, 57(%rax)
	testq	%rdi, %rdi
	je	.L338
	cmpb	$0, 56(%rax)
	je	.L364
.L338:
	sfence
	cmpq	$0, 16(%rsp)
	je	.L365
.L336:
	movq	$0, 16(%rsp)
	movq	8(%rsp), %rbp
.L339:
	testq	%rbp, %rbp
	je	.L331
	data16	leaq	_ZN4asio6detail15keyword_tss_ptrINS0_10call_stackINS0_15task_io_serviceENS0_27task_io_service_thread_infoEE7contextEE6value_E@tlsgd(%rip), %rdi
	.value	0x6666
	rex64
	call	__tls_get_addr@PLT
	movq	(%rax), %rax
	testq	%rax, %rax
	je	.L342
	movq	8(%rax), %rax
	testq	%rax, %rax
	je	.L342
	cmpq	$0, (%rax)
	je	.L366
.L342:
	movq	%rbp, %rdi
	call	_ZdlPv@PLT
.L331:
	movq	72(%rsp), %rax
	subq	%fs:40, %rax
	jne	.L367
	addq	$88, %rsp
	.cfi_remember_state
	.cfi_def_cfa_offset 24
	popq	%rbx
	.cfi_def_cfa_offset 16
	popq	%rbp
	.cfi_def_cfa_offset 8
	ret
	.p2align 4,,10
	.p2align 3
.L364:
	.cfi_restore_state
	movq	(%rdi), %rax
	leaq	40(%rsp), %rsi
.LEHB2:
	call	*16(%rax)
.LEHE2:
	sfence
	cmpq	$0, 16(%rsp)
	jne	.L336
.L365:
	movq	8(%rsp), %rbp
	jmp	.L339
	.p2align 4,,10
	.p2align 3
.L363:
	movzbl	56(%rbp), %edx
	movb	%dl, 0(%rbp)
	movq	%rbp, (%rax)
	jmp	.L333
	.p2align 4,,10
	.p2align 3
.L366:
	movzbl	56(%rbp), %edx
	movb	%dl, 0(%rbp)
	movq	%rbp, (%rax)
	jmp	.L331
.L367:
	call	__stack_chk_fail@PLT
.L345:
	movq	%rax, %rbp
	jmp	.L343
	.section	.gcc_except_table,"a",@progbits
.LLSDA9417:
	.byte	0xff
	.byte	0xff
	.byte	0x1
	.uleb128 .LLSDACSE9417-.LLSDACSB9417
.LLSDACSB9417:
	.uleb128 .LEHB2-.LFB9417
	.uleb128 .LEHE2-.LEHB2
	.uleb128 .L345-.LFB9417
	.uleb128 0
.LLSDACSE9417:
	.text
	.cfi_endproc
	.section	.text.unlikely
	.cfi_startproc
	.cfi_personality 0x9b,DW.ref.__gxx_personality_v0
	.cfi_lsda 0x1b,.LLSDAC9417
	.type	_ZN4asio6detail18completion_handlerINS0_7binder2IZN7asiopal13SerialChannel13BeginReadImplEN7openpal6WSliceEEUlRKSt10error_codemE_S7_mEEE11do_completeEPNS0_15task_io_serviceEPNS0_25task_io_service_operationES9_m.cold, @function
_ZN4asio6detail18completion_handlerINS0_7binder2IZN7asiopal13SerialChannel13BeginReadImplEN7openpal6WSliceEEUlRKSt10error_codemE_S7_mEEE11do_completeEPNS0_15task_io_serviceEPNS0_25task_io_service_operationES9_m.cold:
.LFSB9417:
.L343:
	.cfi_def_cfa_offset 112
	.cfi_offset 3, -24
	.cfi_offset 6, -16
	sfence
	movq	%rsp, %rdi
	call	_ZN4asio6detail18completion_handlerINS0_7binder2IZN7asiopal13SerialChannel13BeginReadImplEN7openpal6WSliceEEUlRKSt10error_codemE_S7_mEEE3ptr5resetEv
	movq	%rbp, %rdi
.LEHB3:
	call	_Unwind_Resume@PLT
.LEHE3:
	.cfi_endproc
.LFE9417:
	.section	.gcc_except_table
.LLSDAC9417:
	.byte	0xff
	.byte	0xff
	.byte	0x1
	.uleb128 .LLSDACSEC9417-.LLSDACSBC9417
.LLSDACSBC9417:
	.uleb128 .LEHB3-.LCOLDB4
	.uleb128 .LEHE3-.LEHB3
	.uleb128 0
	.uleb128 0
.LLSDACSEC9417:
	.section	.text.unlikely
	.text
	.size	_ZN4asio6detail18completion_handlerINS0_7binder2IZN7asiopal13SerialChannel13BeginReadImplEN7openpal6WSliceEEUlRKSt10error_codemE_S7_mEEE11do_completeEPNS0_15task_io_serviceEPNS0_25task_io_service_operationES9_m, .-_ZN4asio6detail18completion_handlerINS0_7binder2IZN7asiopal13SerialChannel13BeginReadImplEN7openpal6WSliceEEUlRKSt10error_codemE_S7_mEEE11do_completeEPNS0_15task_io_serviceEPNS0_25task_io_service_operationES9_m
	.section	.text.unlikely
	.size	_ZN4asio6detail18completion_handlerINS0_7binder2IZN7asiopal13SerialChannel13BeginReadImplEN7openpal6WSliceEEUlRKSt10error_codemE_S7_mEEE11do_completeEPNS0_15task_io_serviceEPNS0_25task_io_service_operationES9_m.cold, .-_ZN4asio6detail18completion_handlerINS0_7binder2IZN7asiopal13SerialChannel13BeginReadImplEN7openpal6WSliceEEUlRKSt10error_codemE_S7_mEEE11do_completeEPNS0_15task_io_serviceEPNS0_25task_io_service_operationES9_m.cold
.LCOLDE4:
	.text
.LHOTE4:
	.section	.text.unlikely
.LCOLDB5:
	.text
.LHOTB5:
	.p2align 4
	.type	_ZN4asio6detail18completion_handlerINS0_7binder2IZN7asiopal13SerialChannel14BeginWriteImplERKN7openpal6RSliceEEUlRKSt10error_codemE_S9_mEEE11do_completeEPNS0_15task_io_serviceEPNS0_25task_io_service_operationESB_m, @function
_ZN4asio6detail18completion_handlerINS0_7binder2IZN7asiopal13SerialChannel14BeginWriteImplERKN7openpal6RSliceEEUlRKSt10error_codemE_S9_mEEE11do_completeEPNS0_15task_io_serviceEPNS0_25task_io_service_operationESB_m:
.LFB9050:
	.cfi_startproc
	.cfi_personality 0x9b,DW.ref.__gxx_personality_v0
	.cfi_lsda 0x1b,.LLSDA9050
	pushq	%rbp
	.cfi_def_cfa_offset 16
	.cfi_offset 6, -16
	movq	%rsi, %rbp
	pushq	%rbx
	.cfi_def_cfa_offset 24
	.cfi_offset 3, -24
	movq	%rdi, %rbx
	subq	$88, %rsp
	.cfi_def_cfa_offset 112
	movdqu	24(%rsi), %xmm0
	movdqu	40(%rsi), %xmm1
	movq	%fs:40, %rax
	movq	%rax, 72(%rsp)
	xorl	%eax, %eax
	leaq	32(%rsp), %rax
	movq	%rsi, 8(%rsp)
	movq	%rax, (%rsp)
	movq	$0, 16(%rsp)
	movups	%xmm0, 32(%rsp)
	movups	%xmm1, 48(%rsp)
	data16	leaq	_ZN4asio6detail15keyword_tss_ptrINS0_10call_stackINS0_15task_io_serviceENS0_27task_io_service_thread_infoEE7contextEE6value_E@tlsgd(%rip), %rdi
	.value	0x6666
	rex64
	call	__tls_get_addr@PLT
	movq	(%rax), %rax
	testq	%rax, %rax
	je	.L369
	movq	8(%rax), %rax
	testq	%rax, %rax
	je	.L369
	cmpq	$0, (%rax)
	je	.L400
.L369:
	movq	%rbp, %rdi
	call	_ZdlPv@PLT
.L370:
	movq	$0, 8(%rsp)
	testq	%rbx, %rbx
	je	.L368
	movq	32(%rsp), %rax
	movq	56(%rsp), %rdx
	movq	40(%rax), %rdi
	movb	$0, 58(%rax)
	testq	%rdi, %rdi
	je	.L375
	cmpb	$0, 56(%rax)
	je	.L401
.L375:
	sfence
	cmpq	$0, 16(%rsp)
	je	.L402
.L373:
	movq	$0, 16(%rsp)
	movq	8(%rsp), %rbp
.L376:
	testq	%rbp, %rbp
	je	.L368
	data16	leaq	_ZN4asio6detail15keyword_tss_ptrINS0_10call_stackINS0_15task_io_serviceENS0_27task_io_service_thread_infoEE7contextEE6value_E@tlsgd(%rip), %rdi
	.value	0x6666
	rex64
	call	__tls_get_addr@PLT
	movq	(%rax), %rax
	testq	%rax, %rax
	je	.L379
	movq	8(%rax), %rax
	testq	%rax, %rax
	je	.L379
	cmpq	$0, (%rax)
	je	.L403
.L379:
	movq	%rbp, %rdi
	call	_ZdlPv@PLT
.L368:
	movq	72(%rsp), %rax
	subq	%fs:40, %rax
	jne	.L404
	addq	$88, %rsp
	.cfi_remember_state
	.cfi_def_cfa_offset 24
	popq	%rbx
	.cfi_def_cfa_offset 16
	popq	%rbp
	.cfi_def_cfa_offset 8
	ret
	.p2align 4,,10
	.p2align 3
.L401:
	.cfi_restore_state
	movq	(%rdi), %rax
	leaq	40(%rsp), %rsi
.LEHB4:
	call	*24(%rax)
.LEHE4:
	sfence
	cmpq	$0, 16(%rsp)
	jne	.L373
.L402:
	movq	8(%rsp), %rbp
	jmp	.L376
	.p2align 4,,10
	.p2align 3
.L400:
	movzbl	56(%rbp), %edx
	movb	%dl, 0(%rbp)
	movq	%rbp, (%rax)
	jmp	.L370
	.p2align 4,,10
	.p2align 3
.L403:
	movzbl	56(%rbp), %edx
	movb	%dl, 0(%rbp)
	movq	%rbp, (%rax)
	jmp	.L368
.L404:
	call	__stack_chk_fail@PLT
.L382:
	movq	%rax, %rbp
	jmp	.L380
	.section	.gcc_except_table
.LLSDA9050:
	.byte	0xff
	.byte	0xff
	.byte	0x1
	.uleb128 .LLSDACSE9050-.LLSDACSB9050
.LLSDACSB9050:
	.uleb128 .LEHB4-.LFB9050
	.uleb128 .LEHE4-.LEHB4
	.uleb128 .L382-.LFB9050
	.uleb128 0
.LLSDACSE9050:
	.text
	.cfi_endproc
	.section	.text.unlikely
	.cfi_startproc
	.cfi_personality 0x9b,DW.ref.__gxx_personality_v0
	.cfi_lsda 0x1b,.LLSDAC9050
	.type	_ZN4asio6detail18completion_handlerINS0_7binder2IZN7asiopal13SerialChannel14BeginWriteImplERKN7openpal6RSliceEEUlRKSt10error_codemE_S9_mEEE11do_completeEPNS0_15task_io_serviceEPNS0_25task_io_service_operationESB_m.cold, @function
_ZN4asio6detail18completion_handlerINS0_7binder2IZN7asiopal13SerialChannel14BeginWriteImplERKN7openpal6RSliceEEUlRKSt10error_codemE_S9_mEEE11do_completeEPNS0_15task_io_serviceEPNS0_25task_io_service_operationESB_m.cold:
.LFSB9050:
.L380:
	.cfi_def_cfa_offset 112
	.cfi_offset 3, -24
	.cfi_offset 6, -16
	sfence
	movq	%rsp, %rdi
	call	_ZN4asio6detail18completion_handlerINS0_7binder2IZN7asiopal13SerialChannel14BeginWriteImplERKN7openpal6RSliceEEUlRKSt10error_codemE_S9_mEEE3ptr5resetEv
	movq	%rbp, %rdi
.LEHB5:
	call	_Unwind_Resume@PLT
.LEHE5:
	.cfi_endproc
.LFE9050:
	.section	.gcc_except_table
.LLSDAC9050:
	.byte	0xff
	.byte	0xff
	.byte	0x1
	.uleb128 .LLSDACSEC9050-.LLSDACSBC9050
.LLSDACSBC9050:
	.uleb128 .LEHB5-.LCOLDB5
	.uleb128 .LEHE5-.LEHB5
	.uleb128 0
	.uleb128 0
.LLSDACSEC9050:
	.section	.text.unlikely
	.text
	.size	_ZN4asio6detail18completion_handlerINS0_7binder2IZN7asiopal13SerialChannel14BeginWriteImplERKN7openpal6RSliceEEUlRKSt10error_codemE_S9_mEEE11do_completeEPNS0_15task_io_serviceEPNS0_25task_io_service_operationESB_m, .-_ZN4asio6detail18completion_handlerINS0_7binder2IZN7asiopal13SerialChannel14BeginWriteImplERKN7openpal6RSliceEEUlRKSt10error_codemE_S9_mEEE11do_completeEPNS0_15task_io_serviceEPNS0_25task_io_service_operationESB_m
	.section	.text.unlikely
	.size	_ZN4asio6detail18completion_handlerINS0_7binder2IZN7asiopal13SerialChannel14BeginWriteImplERKN7openpal6RSliceEEUlRKSt10error_codemE_S9_mEEE11do_completeEPNS0_15task_io_serviceEPNS0_25task_io_service_operationESB_m.cold, .-_ZN4asio6detail18completion_handlerINS0_7binder2IZN7asiopal13SerialChannel14BeginWriteImplERKN7openpal6RSliceEEUlRKSt10error_codemE_S9_mEEE11do_completeEPNS0_15task_io_serviceEPNS0_25task_io_service_operationESB_m.cold
.LCOLDE5:
	.text
.LHOTE5:
	.section	.rodata._ZNK4asio6detail15system_category7messageB5cxx11Ei.str1.8,"aMS",@progbits,1
	.align 8
.LC6:
	.string	"basic_string::_M_construct null not valid"
	.section	.text._ZNK4asio6detail15system_category7messageB5cxx11Ei,"axG",@progbits,_ZNK4asio6detail15system_category7messageB5cxx11Ei,comdat
	.align 2
	.p2align 4
	.weak	_ZNK4asio6detail15system_category7messageB5cxx11Ei
	.type	_ZNK4asio6detail15system_category7messageB5cxx11Ei, @function
_ZNK4asio6detail15system_category7messageB5cxx11Ei:
.LFB2381:
	.cfi_startproc
	pushq	%r14
	.cfi_def_cfa_offset 16
	.cfi_offset 14, -16
	pushq	%r13
	.cfi_def_cfa_offset 24
	.cfi_offset 13, -24
	pushq	%r12
	.cfi_def_cfa_offset 32
	.cfi_offset 12, -32
	movq	%rdi, %r12
	pushq	%rbp
	.cfi_def_cfa_offset 40
	.cfi_offset 6, -40
	leaq	16(%rdi), %rbp
	subq	$296, %rsp
	.cfi_def_cfa_offset 336
	movq	%fs:40, %rax
	movq	%rax, 280(%rsp)
	xorl	%eax, %eax
	cmpl	$125, %edx
	je	.L420
	pxor	%xmm0, %xmm0
	movl	%edx, %edi
	leaq	16(%rsp), %rsi
	movl	$256, %edx
	movups	%xmm0, 16(%rsp)
	movups	%xmm0, 32(%rsp)
	movups	%xmm0, 48(%rsp)
	movups	%xmm0, 64(%rsp)
	movups	%xmm0, 80(%rsp)
	movups	%xmm0, 96(%rsp)
	movups	%xmm0, 112(%rsp)
	movups	%xmm0, 128(%rsp)
	movups	%xmm0, 144(%rsp)
	movups	%xmm0, 160(%rsp)
	movups	%xmm0, 176(%rsp)
	movups	%xmm0, 192(%rsp)
	movups	%xmm0, 208(%rsp)
	movups	%xmm0, 224(%rsp)
	movups	%xmm0, 240(%rsp)
	movups	%xmm0, 256(%rsp)
	call	strerror_r@PLT
	movq	%rbp, (%r12)
	movq	%rax, %r13
	testq	%rax, %rax
	je	.L408
	movq	%rax, %rdi
	call	strlen@PLT
	movq	%rax, 8(%rsp)
	movq	%rax, %r14
	cmpq	$15, %rax
	ja	.L421
	cmpq	$1, %rax
	jne	.L412
	movzbl	0(%r13), %edx
	movb	%dl, 16(%r12)
.L413:
	movq	%rax, 8(%r12)
	movb	$0, 0(%rbp,%rax)
.L405:
	movq	280(%rsp), %rax
	subq	%fs:40, %rax
	jne	.L422
	addq	$296, %rsp
	.cfi_remember_state
	.cfi_def_cfa_offset 40
	movq	%r12, %rax
	popq	%rbp
	.cfi_def_cfa_offset 32
	popq	%r12
	.cfi_def_cfa_offset 24
	popq	%r13
	.cfi_def_cfa_offset 16
	popq	%r14
	.cfi_def_cfa_offset 8
	ret
	.p2align 4,,10
	.p2align 3
.L421:
	.cfi_restore_state
	leaq	8(%rsp), %rsi
	xorl	%edx, %edx
	movq	%r12, %rdi
	call	_ZNSt7__cxx1112basic_stringIcSt11char_traitsIcESaIcEE9_M_createERmm@PLT
	movq	%rax, (%r12)
	movq	%rax, %rbp
	movq	8(%rsp), %rax
	movq	%rax, 16(%r12)
.L411:
	movq	%rbp, %rdi
	movq	%r14, %rdx
	movq	%r13, %rsi
	call	memcpy@PLT
	movq	8(%rsp), %rax
	movq	(%r12), %rbp
	jmp	.L413
	.p2align 4,,10
	.p2align 3
.L420:
	movq	%rbp, (%rdi)
	xorl	%edx, %edx
	leaq	8(%rsp), %rsi
	movq	$18, 8(%rsp)
	call	_ZNSt7__cxx1112basic_stringIcSt11char_traitsIcESaIcEE9_M_createERmm@PLT
	movq	8(%rsp), %rdx
	movdqa	.LC7(%rip), %xmm0
	movq	%rax, (%r12)
	movq	%rdx, 16(%r12)
	movl	$11876, %edx
	movw	%dx, 16(%rax)
	movups	%xmm0, (%rax)
	movq	8(%rsp), %rax
	movq	(%r12), %rdx
	movq	%rax, 8(%r12)
	movb	$0, (%rdx,%rax)
	jmp	.L405
	.p2align 4,,10
	.p2align 3
.L412:
	testq	%rax, %rax
	je	.L413
	jmp	.L411
.L408:
	leaq	.LC6(%rip), %rdi
	call	_ZSt19__throw_logic_errorPKc@PLT
.L422:
	call	__stack_chk_fail@PLT
	.cfi_endproc
.LFE2381:
	.size	_ZNK4asio6detail15system_category7messageB5cxx11Ei, .-_ZNK4asio6detail15system_category7messageB5cxx11Ei
	.section	.text._ZN4asio6detail24descriptor_write_op_baseINS_15const_buffers_1EE10do_performEPNS0_10reactor_opE,"axG",@progbits,_ZN4asio6detail24descriptor_write_op_baseINS_15const_buffers_1EE10do_performEPNS0_10reactor_opE,comdat
	.p2align 4
	.weak	_ZN4asio6detail24descriptor_write_op_baseINS_15const_buffers_1EE10do_performEPNS0_10reactor_opE
	.type	_ZN4asio6detail24descriptor_write_op_baseINS_15const_buffers_1EE10do_performEPNS0_10reactor_opE, @function
_ZN4asio6detail24descriptor_write_op_baseINS_15const_buffers_1EE10do_performEPNS0_10reactor_opE:
.LFB9288:
	.cfi_startproc
	pushq	%r15
	.cfi_def_cfa_offset 16
	.cfi_offset 15, -16
	movq	%rdi, %r15
	pushq	%r14
	.cfi_def_cfa_offset 24
	.cfi_offset 14, -24
	pushq	%r13
	.cfi_def_cfa_offset 32
	.cfi_offset 13, -32
	pushq	%r12
	.cfi_def_cfa_offset 40
	.cfi_offset 12, -40
	pushq	%rbp
	.cfi_def_cfa_offset 48
	.cfi_offset 6, -48
	pushq	%rbx
	.cfi_def_cfa_offset 56
	.cfi_offset 3, -56
	subq	$56, %rsp
	.cfi_def_cfa_offset 112
	movq	72(%rdi), %xmm0
	movl	56(%rdi), %r14d
	movq	%fs:40, %rax
	movq	%rax, 40(%rsp)
	movq	64(%rdi), %rax
	leaq	16(%rsp), %r13
	punpcklqdq	%xmm0, %xmm0
	movups	%xmm0, 24(%rsp)
	movq	%rax, 16(%rsp)
	call	__errno_location@PLT
	movq	_ZGVZN4asio15system_categoryEvE8instance@GOTPCREL(%rip), %rbp
	movq	_ZZN4asio15system_categoryEvE8instance@GOTPCREL(%rip), %rbx
	movq	%rax, %r12
.L431:
	movl	$0, (%r12)
	movl	$1, %edx
	movq	%r13, %rsi
	movl	%r14d, %edi
	call	writev@PLT
	movq	%rax, 8(%rsp)
	movzbl	0(%rbp), %eax
	testb	%al, %al
	je	.L459
.L425:
	movl	(%r12), %eax
	movq	%rbx, 32(%r15)
	movl	%eax, 24(%r15)
	movzbl	0(%rbp), %eax
	testb	%al, %al
	je	.L460
.L428:
	cmpq	%rbx, 32(%r15)
	je	.L461
.L430:
	movzbl	0(%rbp), %eax
	testb	%al, %al
	je	.L462
.L433:
	cmpq	%rbx, 32(%r15)
	je	.L463
.L435:
	movzbl	0(%rbp), %eax
	testb	%al, %al
	je	.L464
.L438:
	cmpq	%rbx, 32(%r15)
	je	.L465
.L440:
	movq	8(%rsp), %rbx
	testq	%rbx, %rbx
	js	.L442
	call	_ZNSt3_V215system_categoryEv@PLT
	movl	$0, 24(%r15)
	movq	%rbx, 40(%r15)
	movq	%rax, 32(%r15)
	movl	$1, %eax
.L423:
	movq	40(%rsp), %rcx
	subq	%fs:40, %rcx
	jne	.L466
	addq	$56, %rsp
	.cfi_remember_state
	.cfi_def_cfa_offset 56
	popq	%rbx
	.cfi_def_cfa_offset 48
	popq	%rbp
	.cfi_def_cfa_offset 40
	popq	%r12
	.cfi_def_cfa_offset 32
	popq	%r13
	.cfi_def_cfa_offset 24
	popq	%r14
	.cfi_def_cfa_offset 16
	popq	%r15
	.cfi_def_cfa_offset 8
	ret
	.p2align 4,,10
	.p2align 3
.L442:
	.cfi_restore_state
	movq	$0, 40(%r15)
	movl	$1, %eax
	jmp	.L423
	.p2align 4,,10
	.p2align 3
.L459:
	movq	%rbp, %rdi
	call	__cxa_guard_acquire@PLT
	testl	%eax, %eax
	je	.L425
	movq	_ZN4asio6detail15system_categoryD1Ev@GOTPCREL(%rip), %rdi
	leaq	__dso_handle(%rip), %rdx
	movq	%rbx, %rsi
	call	__cxa_atexit@PLT
	movq	%rbp, %rdi
	call	__cxa_guard_release@PLT
	jmp	.L425
	.p2align 4,,10
	.p2align 3
.L460:
	movq	%rbp, %rdi
	call	__cxa_guard_acquire@PLT
	testl	%eax, %eax
	je	.L428
	movq	_ZN4asio6detail15system_categoryD1Ev@GOTPCREL(%rip), %rdi
	leaq	__dso_handle(%rip), %rdx
	movq	%rbx, %rsi
	call	__cxa_atexit@PLT
	movq	%rbp, %rdi
	call	__cxa_guard_release@PLT
	cmpq	%rbx, 32(%r15)
	jne	.L430
	.p2align 4,,10
	.p2align 3
.L461:
	cmpl	$4, 24(%r15)
	je	.L431
	movzbl	0(%rbp), %eax
	testb	%al, %al
	jne	.L433
.L462:
	movq	%rbp, %rdi
	call	__cxa_guard_acquire@PLT
	testl	%eax, %eax
	je	.L433
	movq	_ZN4asio6detail15system_categoryD1Ev@GOTPCREL(%rip), %rdi
	leaq	__dso_handle(%rip), %rdx
	movq	%rbx, %rsi
	call	__cxa_atexit@PLT
	movq	%rbp, %rdi
	call	__cxa_guard_release@PLT
	cmpq	%rbx, 32(%r15)
	jne	.L435
	.p2align 4,,10
	.p2align 3
.L463:
	cmpl	$11, 24(%r15)
	jne	.L435
	xorl	%eax, %eax
	jmp	.L423
	.p2align 4,,10
	.p2align 3
.L464:
	movq	%rbp, %rdi
	call	__cxa_guard_acquire@PLT
	testl	%eax, %eax
	je	.L438
	movq	_ZN4asio6detail15system_categoryD1Ev@GOTPCREL(%rip), %rdi
	leaq	__dso_handle(%rip), %rdx
	movq	%rbx, %rsi
	call	__cxa_atexit@PLT
	movq	%rbp, %rdi
	call	__cxa_guard_release@PLT
	jmp	.L438
	.p2align 4,,10
	.p2align 3
.L465:
	cmpl	$11, 24(%r15)
	jne	.L440
	xorl	%eax, %eax
	jmp	.L423
.L466:
	call	__stack_chk_fail@PLT
	.cfi_endproc
.LFE9288:
	.size	_ZN4asio6detail24descriptor_write_op_baseINS_15const_buffers_1EE10do_performEPNS0_10reactor_opE, .-_ZN4asio6detail24descriptor_write_op_baseINS_15const_buffers_1EE10do_performEPNS0_10reactor_opE
	.section	.text._ZN4asio6detail23descriptor_read_op_baseINS_17mutable_buffers_1EE10do_performEPNS0_10reactor_opE,"axG",@progbits,_ZN4asio6detail23descriptor_read_op_baseINS_17mutable_buffers_1EE10do_performEPNS0_10reactor_opE,comdat
	.p2align 4
	.weak	_ZN4asio6detail23descriptor_read_op_baseINS_17mutable_buffers_1EE10do_performEPNS0_10reactor_opE
	.type	_ZN4asio6detail23descriptor_read_op_baseINS_17mutable_buffers_1EE10do_performEPNS0_10reactor_opE, @function
_ZN4asio6detail23descriptor_read_op_baseINS_17mutable_buffers_1EE10do_performEPNS0_10reactor_opE:
.LFB9165:
	.cfi_startproc
	pushq	%r15
	.cfi_def_cfa_offset 16
	.cfi_offset 15, -16
	movq	%rdi, %r15
	pushq	%r14
	.cfi_def_cfa_offset 24
	.cfi_offset 14, -24
	pushq	%r13
	.cfi_def_cfa_offset 32
	.cfi_offset 13, -32
	pushq	%r12
	.cfi_def_cfa_offset 40
	.cfi_offset 12, -40
	pushq	%rbp
	.cfi_def_cfa_offset 48
	.cfi_offset 6, -48
	pushq	%rbx
	.cfi_def_cfa_offset 56
	.cfi_offset 3, -56
	subq	$56, %rsp
	.cfi_def_cfa_offset 112
	movq	72(%rdi), %xmm0
	movl	56(%rdi), %r14d
	movq	%fs:40, %rax
	movq	%rax, 40(%rsp)
	movq	64(%rdi), %rax
	punpcklqdq	%xmm0, %xmm0
	movups	%xmm0, 24(%rsp)
	movq	%rax, 16(%rsp)
	call	__errno_location@PLT
	movq	_ZGVZN4asio15system_categoryEvE8instance@GOTPCREL(%rip), %rbp
	movq	_ZZN4asio15system_categoryEvE8instance@GOTPCREL(%rip), %r12
	movq	%rax, %r13
	leaq	16(%rsp), %rax
	movq	%rax, 8(%rsp)
.L480:
	movl	$0, 0(%r13)
	movq	8(%rsp), %rsi
	movl	$1, %edx
	movl	%r14d, %edi
	call	readv@PLT
	movq	%rax, %rbx
	movzbl	0(%rbp), %eax
	testb	%al, %al
	je	.L511
.L469:
	movl	0(%r13), %eax
	movq	%r12, 32(%r15)
	movl	%eax, 24(%r15)
	testq	%rbx, %rbx
	je	.L512
	movzbl	0(%rbp), %eax
	testb	%al, %al
	je	.L513
.L477:
	cmpq	%r12, 32(%r15)
	je	.L514
.L479:
	movzbl	0(%rbp), %eax
	testb	%al, %al
	je	.L515
.L482:
	cmpq	%r12, 32(%r15)
	je	.L516
.L484:
	movzbl	0(%rbp), %eax
	testb	%al, %al
	je	.L517
.L486:
	cmpq	%r12, 32(%r15)
	je	.L518
.L488:
	testq	%rbx, %rbx
	jle	.L490
	call	_ZNSt3_V215system_categoryEv@PLT
	movl	$0, 24(%r15)
	movq	%rbx, 40(%r15)
	movq	%rax, 32(%r15)
	movl	$1, %eax
.L467:
	movq	40(%rsp), %rcx
	subq	%fs:40, %rcx
	jne	.L519
	addq	$56, %rsp
	.cfi_remember_state
	.cfi_def_cfa_offset 56
	popq	%rbx
	.cfi_def_cfa_offset 48
	popq	%rbp
	.cfi_def_cfa_offset 40
	popq	%r12
	.cfi_def_cfa_offset 32
	popq	%r13
	.cfi_def_cfa_offset 24
	popq	%r14
	.cfi_def_cfa_offset 16
	popq	%r15
	.cfi_def_cfa_offset 8
	ret
	.p2align 4,,10
	.p2align 3
.L490:
	.cfi_restore_state
	movq	$0, 40(%r15)
	movl	$1, %eax
	jmp	.L467
	.p2align 4,,10
	.p2align 3
.L511:
	movq	%rbp, %rdi
	call	__cxa_guard_acquire@PLT
	testl	%eax, %eax
	je	.L469
	movq	_ZN4asio6detail15system_categoryD1Ev@GOTPCREL(%rip), %rdi
	leaq	__dso_handle(%rip), %rdx
	movq	%r12, %rsi
	call	__cxa_atexit@PLT
	movq	%rbp, %rdi
	call	__cxa_guard_release@PLT
	jmp	.L469
	.p2align 4,,10
	.p2align 3
.L513:
	movq	%rbp, %rdi
	call	__cxa_guard_acquire@PLT
	testl	%eax, %eax
	je	.L477
	movq	_ZN4asio6detail15system_categoryD1Ev@GOTPCREL(%rip), %rdi
	leaq	__dso_handle(%rip), %rdx
	movq	%r12, %rsi
	call	__cxa_atexit@PLT
	movq	%rbp, %rdi
	call	__cxa_guard_release@PLT
	cmpq	%r12, 32(%r15)
	jne	.L479
	.p2align 4,,10
	.p2align 3
.L514:
	cmpl	$4, 24(%r15)
	je	.L480
	movzbl	0(%rbp), %eax
	testb	%al, %al
	jne	.L482
.L515:
	movq	%rbp, %rdi
	call	__cxa_guard_acquire@PLT
	testl	%eax, %eax
	je	.L482
	movq	_ZN4asio6detail15system_categoryD1Ev@GOTPCREL(%rip), %rdi
	leaq	__dso_handle(%rip), %rdx
	movq	%r12, %rsi
	call	__cxa_atexit@PLT
	movq	%rbp, %rdi
	call	__cxa_guard_release@PLT
	cmpq	%r12, 32(%r15)
	jne	.L484
	.p2align 4,,10
	.p2align 3
.L516:
	cmpl	$11, 24(%r15)
	jne	.L484
	xorl	%eax, %eax
	jmp	.L467
	.p2align 4,,10
	.p2align 3
.L517:
	movq	%rbp, %rdi
	call	__cxa_guard_acquire@PLT
	testl	%eax, %eax
	je	.L486
	movq	_ZN4asio6detail15system_categoryD1Ev@GOTPCREL(%rip), %rdi
	leaq	__dso_handle(%rip), %rdx
	movq	%r12, %rsi
	call	__cxa_atexit@PLT
	movq	%rbp, %rdi
	call	__cxa_guard_release@PLT
	jmp	.L486
	.p2align 4,,10
	.p2align 3
.L518:
	cmpl	$11, 24(%r15)
	jne	.L488
	xorl	%eax, %eax
	jmp	.L467
	.p2align 4,,10
	.p2align 3
.L512:
	movq	_ZGVZN4asio5error17get_misc_categoryEvE8instance@GOTPCREL(%rip), %rbp
	movzbl	0(%rbp), %eax
	testb	%al, %al
	je	.L472
.L509:
	movq	_ZZN4asio5error17get_misc_categoryEvE8instance@GOTPCREL(%rip), %rbx
.L473:
	movl	$2, 24(%r15)
	movl	$1, %eax
	movq	%rbx, 32(%r15)
	jmp	.L467
	.p2align 4,,10
	.p2align 3
.L472:
	movq	%rbp, %rdi
	call	__cxa_guard_acquire@PLT
	testl	%eax, %eax
	je	.L509
	movq	_ZZN4asio5error17get_misc_categoryEvE8instance@GOTPCREL(%rip), %rbx
	movq	_ZN4asio5error6detail13misc_categoryD1Ev@GOTPCREL(%rip), %rdi
	leaq	__dso_handle(%rip), %rdx
	movq	%rbx, %rsi
	call	__cxa_atexit@PLT
	movq	%rbp, %rdi
	call	__cxa_guard_release@PLT
	jmp	.L473
.L519:
	call	__stack_chk_fail@PLT
	.cfi_endproc
.LFE9165:
	.size	_ZN4asio6detail23descriptor_read_op_baseINS_17mutable_buffers_1EE10do_performEPNS0_10reactor_opE, .-_ZN4asio6detail23descriptor_read_op_baseINS_17mutable_buffers_1EE10do_performEPNS0_10reactor_opE
	.section	.text._ZNK4asio5error6detail17addrinfo_category7messageB5cxx11Ei,"axG",@progbits,_ZNK4asio5error6detail17addrinfo_category7messageB5cxx11Ei,comdat
	.align 2
	.p2align 4
	.weak	_ZNK4asio5error6detail17addrinfo_category7messageB5cxx11Ei
	.type	_ZNK4asio5error6detail17addrinfo_category7messageB5cxx11Ei, @function
_ZNK4asio5error6detail17addrinfo_category7messageB5cxx11Ei:
.LFB2427:
	.cfi_startproc
	pushq	%r12
	.cfi_def_cfa_offset 16
	.cfi_offset 12, -16
	movq	%rdi, %r12
	subq	$16, %rsp
	.cfi_def_cfa_offset 32
	movq	%fs:40, %rax
	movq	%rax, 8(%rsp)
	xorl	%eax, %eax
	leaq	16(%rdi), %rax
	movq	%rax, (%rdi)
	cmpl	$-8, %edx
	je	.L526
	cmpl	$-7, %edx
	je	.L527
	xorl	%edx, %edx
	movq	%rsp, %rsi
	movq	$19, (%rsp)
	call	_ZNSt7__cxx1112basic_stringIcSt11char_traitsIcESaIcEE9_M_createERmm@PLT
	movq	(%rsp), %rdx
	movdqa	.LC10(%rip), %xmm0
	movq	%rax, (%r12)
	movq	%rdx, 16(%r12)
	movl	$28530, %edx
	movw	%dx, 16(%rax)
	movb	$114, 18(%rax)
	movups	%xmm0, (%rax)
	movq	(%rsp), %rax
	movq	(%r12), %rdx
	movq	%rax, 8(%r12)
	movb	$0, (%rdx,%rax)
.L520:
	movq	8(%rsp), %rax
	subq	%fs:40, %rax
	jne	.L528
	addq	$16, %rsp
	.cfi_remember_state
	.cfi_def_cfa_offset 16
	movq	%r12, %rax
	popq	%r12
	.cfi_def_cfa_offset 8
	ret
	.p2align 4,,10
	.p2align 3
.L527:
	.cfi_restore_state
	xorl	%edx, %edx
	movq	%rsp, %rsi
	movq	$25, (%rsp)
	call	_ZNSt7__cxx1112basic_stringIcSt11char_traitsIcESaIcEE9_M_createERmm@PLT
	movq	(%rsp), %rdx
	movdqa	.LC9(%rip), %xmm0
	movabsq	$7310593918082512243, %rcx
	movq	%rax, (%r12)
	movq	%rdx, 16(%r12)
	movq	%rcx, 16(%rax)
	movb	$100, 24(%rax)
	movups	%xmm0, (%rax)
	movq	(%rsp), %rax
	movq	(%r12), %rdx
	movq	%rax, 8(%r12)
	movb	$0, (%rdx,%rax)
	jmp	.L520
	.p2align 4,,10
	.p2align 3
.L526:
	xorl	%edx, %edx
	movq	%rsp, %rsi
	movq	$17, (%rsp)
	call	_ZNSt7__cxx1112basic_stringIcSt11char_traitsIcESaIcEE9_M_createERmm@PLT
	movq	(%rsp), %rdx
	movdqa	.LC8(%rip), %xmm0
	movq	%rax, (%r12)
	movq	%rdx, 16(%r12)
	movb	$100, 16(%rax)
	movups	%xmm0, (%rax)
	movq	(%rsp), %rax
	movq	(%r12), %rdx
	movq	%rax, 8(%r12)
	movb	$0, (%rdx,%rax)
	jmp	.L520
.L528:
	call	__stack_chk_fail@PLT
	.cfi_endproc
.LFE2427:
	.size	_ZNK4asio5error6detail17addrinfo_category7messageB5cxx11Ei, .-_ZNK4asio5error6detail17addrinfo_category7messageB5cxx11Ei
	.section	.text._ZNK4asio5error6detail13misc_category7messageB5cxx11Ei,"axG",@progbits,_ZNK4asio5error6detail13misc_category7messageB5cxx11Ei,comdat
	.align 2
	.p2align 4
	.weak	_ZNK4asio5error6detail13misc_category7messageB5cxx11Ei
	.type	_ZNK4asio5error6detail13misc_category7messageB5cxx11Ei, @function
_ZNK4asio5error6detail13misc_category7messageB5cxx11Ei:
.LFB2433:
	.cfi_startproc
	pushq	%r12
	.cfi_def_cfa_offset 16
	.cfi_offset 12, -16
	movq	%rdi, %r12
	subq	$16, %rsp
	.cfi_def_cfa_offset 32
	movq	%fs:40, %rax
	movq	%rax, 8(%rsp)
	xorl	%eax, %eax
	leaq	16(%rdi), %rax
	movq	%rax, (%rdi)
	cmpl	$1, %edx
	je	.L537
	cmpl	$2, %edx
	je	.L538
	cmpl	$3, %edx
	je	.L539
	cmpl	$4, %edx
	je	.L540
	movabsq	$8316298233121436513, %rcx
	movl	$28530, %edx
	movq	%rcx, 16(%rdi)
	movl	$1919230051, 8(%rax)
	movw	%dx, 12(%rax)
	movb	$114, 14(%rax)
	movq	$15, 8(%rdi)
	movb	$0, 31(%rdi)
.L529:
	movq	8(%rsp), %rax
	subq	%fs:40, %rax
	jne	.L541
	addq	$16, %rsp
	.cfi_remember_state
	.cfi_def_cfa_offset 16
	movq	%r12, %rax
	popq	%r12
	.cfi_def_cfa_offset 8
	ret
	.p2align 4,,10
	.p2align 3
.L537:
	.cfi_restore_state
	movabsq	$2340011850872286273, %rcx
	movq	%rcx, 16(%rdi)
	movl	$1852141679, 8(%rax)
	movq	$12, 8(%rdi)
	movb	$0, 28(%rdi)
	jmp	.L529
	.p2align 4,,10
	.p2align 3
.L540:
	movq	%rsp, %rsi
	xorl	%edx, %edx
	movq	$57, (%rsp)
	call	_ZNSt7__cxx1112basic_stringIcSt11char_traitsIcESaIcEE9_M_createERmm@PLT
	movq	(%rsp), %rdx
	movdqa	.LC12(%rip), %xmm0
	movabsq	$7310291504967217959, %rsi
	movq	%rax, (%r12)
	movq	%rdx, 16(%r12)
	movups	%xmm0, (%rax)
	movdqa	.LC13(%rip), %xmm0
	movq	%rsi, 48(%rax)
	movups	%xmm0, 16(%rax)
	movdqa	.LC14(%rip), %xmm0
	movb	$116, 56(%rax)
	movups	%xmm0, 32(%rax)
	movq	(%rsp), %rax
	movq	(%r12), %rdx
	movq	%rax, 8(%r12)
	movb	$0, (%rdx,%rax)
	jmp	.L529
	.p2align 4,,10
	.p2align 3
.L538:
	movabsq	$7358994418594246213, %rcx
	movq	%rcx, 16(%rdi)
	movl	$27753, %ecx
	movw	%cx, 8(%rax)
	movb	$101, 10(%rax)
	movq	$11, 8(%rdi)
	movb	$0, 27(%rdi)
	jmp	.L529
	.p2align 4,,10
	.p2align 3
.L539:
	xorl	%edx, %edx
	movq	%rsp, %rsi
	movq	$17, (%rsp)
	call	_ZNSt7__cxx1112basic_stringIcSt11char_traitsIcESaIcEE9_M_createERmm@PLT
	movq	(%rsp), %rdx
	movdqa	.LC11(%rip), %xmm0
	movq	%rax, (%r12)
	movq	%rdx, 16(%r12)
	movb	$100, 16(%rax)
	movups	%xmm0, (%rax)
	movq	(%rsp), %rax
	movq	(%r12), %rdx
	movq	%rax, 8(%r12)
	movb	$0, (%rdx,%rax)
	jmp	.L529
.L541:
	call	__stack_chk_fail@PLT
	.cfi_endproc
.LFE2433:
	.size	_ZNK4asio5error6detail13misc_category7messageB5cxx11Ei, .-_ZNK4asio5error6detail13misc_category7messageB5cxx11Ei
	.section	.text._ZNK4asio5error6detail14netdb_category7messageB5cxx11Ei,"axG",@progbits,_ZNK4asio5error6detail14netdb_category7messageB5cxx11Ei,comdat
	.align 2
	.p2align 4
	.weak	_ZNK4asio5error6detail14netdb_category7messageB5cxx11Ei
	.type	_ZNK4asio5error6detail14netdb_category7messageB5cxx11Ei, @function
_ZNK4asio5error6detail14netdb_category7messageB5cxx11Ei:
.LFB2421:
	.cfi_startproc
	pushq	%r12
	.cfi_def_cfa_offset 16
	.cfi_offset 12, -16
	movq	%rdi, %r12
	subq	$16, %rsp
	.cfi_def_cfa_offset 32
	movq	%fs:40, %rax
	movq	%rax, 8(%rsp)
	xorl	%eax, %eax
	leaq	16(%rdi), %rax
	movq	%rax, (%rdi)
	cmpl	$1, %edx
	je	.L550
	cmpl	$2, %edx
	je	.L551
	cmpl	$4, %edx
	je	.L552
	cmpl	$3, %edx
	je	.L553
	xorl	%edx, %edx
	movq	%rsp, %rsi
	movq	$16, (%rsp)
	call	_ZNSt7__cxx1112basic_stringIcSt11char_traitsIcESaIcEE9_M_createERmm@PLT
	movq	(%rsp), %rdx
	movdqa	.LC24(%rip), %xmm0
	movq	%rax, (%r12)
	movq	%rdx, 16(%r12)
	movups	%xmm0, (%rax)
	movq	(%rsp), %rax
	movq	(%r12), %rdx
	movq	%rax, 8(%r12)
	movb	$0, (%rdx,%rax)
.L542:
	movq	8(%rsp), %rax
	subq	%fs:40, %rax
	jne	.L554
	addq	$16, %rsp
	.cfi_remember_state
	.cfi_def_cfa_offset 16
	movq	%r12, %rax
	popq	%r12
	.cfi_def_cfa_offset 8
	ret
	.p2align 4,,10
	.p2align 3
.L550:
	.cfi_restore_state
	movq	%rsp, %rsi
	xorl	%edx, %edx
	movq	$30, (%rsp)
	call	_ZNSt7__cxx1112basic_stringIcSt11char_traitsIcESaIcEE9_M_createERmm@PLT
	movq	(%rsp), %rdx
	movl	$10597, %esi
	movdqa	.LC15(%rip), %xmm0
	movabsq	$8388361603773658465, %rcx
	movq	%rax, (%r12)
	movq	%rdx, 16(%r12)
	movq	%rcx, 16(%rax)
	movl	$1986622561, 24(%rax)
	movw	%si, 28(%rax)
	movups	%xmm0, (%rax)
	movq	(%rsp), %rax
	movq	(%r12), %rdx
	movq	%rax, 8(%r12)
	movb	$0, (%rdx,%rax)
	jmp	.L542
	.p2align 4,,10
	.p2align 3
.L553:
	xorl	%edx, %edx
	movq	%rsp, %rsi
	movq	$55, (%rsp)
	call	_ZNSt7__cxx1112basic_stringIcSt11char_traitsIcESaIcEE9_M_createERmm@PLT
	movq	(%rsp), %rdx
	movdqa	.LC21(%rip), %xmm0
	movq	%rax, (%r12)
	movq	%rdx, 16(%r12)
	movl	$30059, %edx
	movups	%xmm0, (%rax)
	movdqa	.LC22(%rip), %xmm0
	movl	$1869573152, 48(%rax)
	movups	%xmm0, 16(%rax)
	movdqa	.LC23(%rip), %xmm0
	movw	%dx, 52(%rax)
	movb	$112, 54(%rax)
	movups	%xmm0, 32(%rax)
	movq	(%rsp), %rax
	movq	(%r12), %rdx
	movq	%rax, 8(%r12)
	movb	$0, (%rdx,%rax)
	jmp	.L542
	.p2align 4,,10
	.p2align 3
.L551:
	xorl	%edx, %edx
	movq	%rsp, %rsi
	movq	$51, (%rsp)
	call	_ZNSt7__cxx1112basic_stringIcSt11char_traitsIcESaIcEE9_M_createERmm@PLT
	movq	(%rsp), %rdx
	movl	$25972, %ecx
	movdqa	.LC15(%rip), %xmm0
	movq	%rax, (%r12)
	movq	%rdx, 16(%r12)
	movups	%xmm0, (%rax)
	movdqa	.LC16(%rip), %xmm0
	movw	%cx, 48(%rax)
	movups	%xmm0, 16(%rax)
	movdqa	.LC17(%rip), %xmm0
	movb	$114, 50(%rax)
	movups	%xmm0, 32(%rax)
	movq	(%rsp), %rax
	movq	(%r12), %rdx
	movq	%rax, 8(%r12)
	movb	$0, (%rdx,%rax)
	jmp	.L542
	.p2align 4,,10
	.p2align 3
.L552:
	xorl	%edx, %edx
	movq	%rsp, %rsi
	movq	$56, (%rsp)
	call	_ZNSt7__cxx1112basic_stringIcSt11char_traitsIcESaIcEE9_M_createERmm@PLT
	movq	(%rsp), %rdx
	movdqa	.LC18(%rip), %xmm0
	movabsq	$7022344801645520244, %rcx
	movq	%rax, (%r12)
	movq	%rdx, 16(%r12)
	movups	%xmm0, (%rax)
	movdqa	.LC19(%rip), %xmm0
	movq	%rcx, 48(%rax)
	movups	%xmm0, 16(%rax)
	movdqa	.LC20(%rip), %xmm0
	movups	%xmm0, 32(%rax)
	movq	(%rsp), %rax
	movq	(%r12), %rdx
	movq	%rax, 8(%r12)
	movb	$0, (%rdx,%rax)
	jmp	.L542
.L554:
	call	__stack_chk_fail@PLT
	.cfi_endproc
.LFE2421:
	.size	_ZNK4asio5error6detail14netdb_category7messageB5cxx11Ei, .-_ZNK4asio5error6detail14netdb_category7messageB5cxx11Ei
	.text
	.align 2
	.p2align 4
	.globl	_ZN7asiopal13SerialChannel12ShutdownImplEv
	.type	_ZN7asiopal13SerialChannel12ShutdownImplEv, @function
_ZN7asiopal13SerialChannel12ShutdownImplEv:
.LFB7054:
	.cfi_startproc
	pushq	%r15
	.cfi_def_cfa_offset 16
	.cfi_offset 15, -16
	movq	%rdi, %r15
	pushq	%r14
	.cfi_def_cfa_offset 24
	.cfi_offset 14, -24
	pushq	%r13
	.cfi_def_cfa_offset 32
	.cfi_offset 13, -32
	pushq	%r12
	.cfi_def_cfa_offset 40
	.cfi_offset 12, -40
	pushq	%rbp
	.cfi_def_cfa_offset 48
	.cfi_offset 6, -48
	pushq	%rbx
	.cfi_def_cfa_offset 56
	.cfi_offset 3, -56
	subq	$72, %rsp
	.cfi_def_cfa_offset 128
	movl	64(%rdi), %r12d
	movq	%fs:40, %rax
	movq	%rax, 56(%rsp)
	xorl	%eax, %eax
	cmpl	$-1, %r12d
	jne	.L655
.L557:
	movl	$-1, 64(%r15)
	movb	$0, 68(%r15)
	movq	56(%rsp), %rax
	subq	%fs:40, %rax
	jne	.L656
	addq	$72, %rsp
	.cfi_remember_state
	.cfi_def_cfa_offset 56
	popq	%rbx
	.cfi_def_cfa_offset 48
	popq	%rbp
	.cfi_def_cfa_offset 40
	popq	%r12
	.cfi_def_cfa_offset 32
	popq	%r13
	.cfi_def_cfa_offset 24
	popq	%r14
	.cfi_def_cfa_offset 16
	popq	%r15
	.cfi_def_cfa_offset 8
	ret
	.p2align 4,,10
	.p2align 3
.L655:
	.cfi_restore_state
	movq	72(%rdi), %rbp
	testq	%rbp, %rbp
	je	.L558
	movq	80(%rdi), %rax
	movzbl	68(%rdi), %ebx
	movq	40(%rax), %rax
	movq	%rax, 16(%rsp)
	leaq	40(%rbp), %rax
	movq	%rax, %rdi
	movq	%rax, 24(%rsp)
	call	pthread_mutex_lock@PLT
	movq	72(%r15), %r11
	cmpb	$0, 144(%r11)
	jne	.L559
	andl	$4, %ebx
	jne	.L657
.L560:
	movq	$0, 8(%rsp)
	xorl	%ebp, %ebp
	movl	$0, 4(%rsp)
.L569:
	movslq	4(%rsp), %r10
	movq	%r10, %rax
	salq	$4, %rax
	movq	96(%rax,%r11), %rbx
	testq	%rbx, %rbx
	je	.L599
	movq	_ZGVZN4asio15system_categoryEvE8instance@GOTPCREL(%rip), %r14
	movq	_ZZN4asio15system_categoryEvE8instance@GOTPCREL(%rip), %r12
	movq	%rax, %r13
	movzbl	(%r14), %eax
	testb	%al, %al
	je	.L658
	.p2align 4,,10
	.p2align 3
.L564:
	movq	72(%r15), %r11
	movl	$125, 24(%rbx)
	movq	%r12, 32(%rbx)
	leaq	(%r11,%r13), %rdi
	movq	96(%rdi), %rax
	testq	%rax, %rax
	je	.L566
	movq	(%rax), %rdx
	movq	%rdx, 96(%rdi)
	testq	%rdx, %rdx
	je	.L659
	movq	$0, (%rax)
	movq	$0, (%rbx)
	testq	%rbp, %rbp
	je	.L660
.L597:
	movq	%rbx, 0(%rbp)
	testq	%rdx, %rdx
	je	.L561
.L568:
	movzbl	(%r14), %eax
	movq	%rbx, %rbp
	movq	%rdx, %rbx
	testb	%al, %al
	jne	.L564
.L658:
	movq	%r14, %rdi
	call	__cxa_guard_acquire@PLT
	testl	%eax, %eax
	je	.L564
	movq	_ZN4asio6detail15system_categoryD1Ev@GOTPCREL(%rip), %rdi
	leaq	__dso_handle(%rip), %rdx
	movq	%r12, %rsi
	call	__cxa_atexit@PLT
	movq	%r14, %rdi
	call	__cxa_guard_release@PLT
	jmp	.L564
	.p2align 4,,10
	.p2align 3
.L559:
	movq	24(%rsp), %rdi
	call	pthread_mutex_unlock@PLT
.L580:
	movl	64(%r15), %r12d
	cmpl	$-1, %r12d
	je	.L557
.L558:
	call	__errno_location@PLT
	movl	%r12d, %edi
	movl	$0, (%rax)
	movq	%rax, %rbx
	call	close@PLT
	movq	_ZGVZN4asio15system_categoryEvE8instance@GOTPCREL(%rip), %r14
	movl	%eax, %ebp
	movzbl	(%r14), %eax
	testb	%al, %al
	je	.L661
.L588:
	testl	%ebp, %ebp
	je	.L557
	movl	(%rbx), %ebp
	movzbl	(%r14), %eax
	testb	%al, %al
	je	.L662
.L591:
	cmpl	$11, %ebp
	je	.L593
.L654:
	movzbl	(%r14), %eax
	testb	%al, %al
	jne	.L557
	movq	%r14, %rdi
	call	__cxa_guard_acquire@PLT
	testl	%eax, %eax
	je	.L557
	movq	_ZZN4asio15system_categoryEvE8instance@GOTPCREL(%rip), %rsi
	movq	_ZN4asio6detail15system_categoryD1Ev@GOTPCREL(%rip), %rdi
	leaq	__dso_handle(%rip), %rdx
	call	__cxa_atexit@PLT
	movq	%r14, %rdi
	call	__cxa_guard_release@PLT
	jmp	.L557
	.p2align 4,,10
	.p2align 3
.L566:
	movq	$0, (%rbx)
	testq	%rbp, %rbp
	je	.L602
	movq	%rbx, 0(%rbp)
.L561:
	addl	$1, 4(%rsp)
	movl	4(%rsp), %eax
	cmpl	$3, %eax
	je	.L663
.L601:
	movq	%rbx, %rbp
	jmp	.L569
	.p2align 4,,10
	.p2align 3
.L659:
	movq	$0, 104(%rdi)
	movq	$0, (%rax)
	movq	$0, (%rbx)
	testq	%rbp, %rbp
	jne	.L597
	.p2align 4,,10
	.p2align 3
.L602:
	addl	$1, 4(%rsp)
	movl	4(%rsp), %eax
	movq	%rbx, 8(%rsp)
	cmpl	$3, %eax
	jne	.L601
.L663:
	movl	$-1, 88(%r11)
	movq	24(%rsp), %rdi
	movb	$1, 144(%r11)
	call	pthread_mutex_unlock@PLT
	movq	16(%rsp), %r14
	movq	72(%r15), %rbp
	leaq	120(%r14), %r12
	movq	%r12, %rdi
	call	pthread_mutex_lock@PLT
	cmpq	160(%r14), %rbp
	je	.L664
.L570:
	movq	32(%rbp), %rax
	testq	%rax, %rax
	je	.L571
	movq	24(%rbp), %rdx
	movq	%rdx, 24(%rax)
.L571:
	movq	24(%rbp), %rax
	testq	%rax, %rax
	je	.L572
	movq	32(%rbp), %rdx
	movq	%rdx, 32(%rax)
.L572:
	movq	16(%rsp), %r14
	movq	%r12, %rdi
	movq	168(%r14), %rax
	movq	$0, 32(%rbp)
	movq	%rax, 24(%rbp)
	movq	%rbp, 168(%r14)
	call	pthread_mutex_unlock@PLT
	cmpq	$0, 8(%rsp)
	movq	$0, 72(%r15)
	je	.L580
	movq	40(%r14), %rbp
	cmpb	$0, 40(%rbp)
	je	.L574
	data16	leaq	_ZN4asio6detail15keyword_tss_ptrINS0_10call_stackINS0_15task_io_serviceENS0_27task_io_service_thread_infoEE7contextEE6value_E@tlsgd(%rip), %rdi
	.value	0x6666
	rex64
	call	__tls_get_addr@PLT
	movq	(%rax), %rax
	testq	%rax, %rax
	jne	.L577
	jmp	.L574
	.p2align 4,,10
	.p2align 3
.L575:
	movq	16(%rax), %rax
	testq	%rax, %rax
	je	.L574
.L577:
	cmpq	(%rax), %rbp
	jne	.L575
	movq	8(%rax), %rax
	testq	%rax, %rax
	je	.L574
	movq	16(%rax), %rdx
	movq	8(%rsp), %rcx
	testq	%rdx, %rdx
	je	.L578
	movq	%rcx, (%rdx)
.L579:
	movq	%rbx, 16(%rax)
	jmp	.L580
	.p2align 4,,10
	.p2align 3
.L660:
	movq	%rbx, 8(%rsp)
	jmp	.L568
	.p2align 4,,10
	.p2align 3
.L661:
	movq	%r14, %rdi
	call	__cxa_guard_acquire@PLT
	testl	%eax, %eax
	je	.L588
	movq	_ZZN4asio15system_categoryEvE8instance@GOTPCREL(%rip), %rsi
	movq	_ZN4asio6detail15system_categoryD1Ev@GOTPCREL(%rip), %rdi
	leaq	__dso_handle(%rip), %rdx
	call	__cxa_atexit@PLT
	movq	%r14, %rdi
	call	__cxa_guard_release@PLT
	jmp	.L588
	.p2align 4,,10
	.p2align 3
.L574:
	leaq	48(%rbp), %r12
	movq	%r12, %rdi
	call	pthread_mutex_lock@PLT
	movq	200(%rbp), %rax
	testq	%rax, %rax
	je	.L581
	movq	8(%rsp), %rcx
	movq	%rcx, (%rax)
.L582:
	movq	136(%rbp), %rax
	movq	%rbx, 200(%rbp)
	orq	$1, %rax
	movq	%rax, 136(%rbp)
	cmpq	$1, %rax
	je	.L583
	movq	%r12, %rdi
	call	pthread_mutex_unlock@PLT
	leaq	88(%rbp), %rdi
	call	pthread_cond_signal@PLT
	jmp	.L580
.L583:
	cmpb	$0, 176(%rbp)
	jne	.L585
	movq	144(%rbp), %rax
	testq	%rax, %rax
	je	.L585
	movb	$1, 176(%rbp)
	leaq	88(%rax), %rdx
	leaq	44(%rsp), %rcx
	movl	$3, %esi
	movq	%rdx, 48(%rsp)
	movl	88(%rax), %edx
	movl	$-2147483639, 44(%rsp)
	movl	96(%rax), %edi
	call	epoll_ctl@PLT
.L585:
	movq	%r12, %rdi
	call	pthread_mutex_unlock@PLT
	jmp	.L580
	.p2align 4,,10
	.p2align 3
.L599:
	movq	%rbp, %rbx
	jmp	.L561
	.p2align 4,,10
	.p2align 3
.L657:
	movq	16(%rsp), %rax
	movl	$0, 44(%rsp)
	leaq	44(%rsp), %rcx
	movl	%r12d, %edx
	movq	$0, 48(%rsp)
	movl	$2, %esi
	movl	96(%rax), %edi
	call	epoll_ctl@PLT
	movq	72(%r15), %r11
	jmp	.L560
	.p2align 4,,10
	.p2align 3
.L662:
	movq	%r14, %rdi
	call	__cxa_guard_acquire@PLT
	testl	%eax, %eax
	je	.L591
	movq	_ZZN4asio15system_categoryEvE8instance@GOTPCREL(%rip), %rsi
	movq	_ZN4asio6detail15system_categoryD1Ev@GOTPCREL(%rip), %rdi
	leaq	__dso_handle(%rip), %rdx
	call	__cxa_atexit@PLT
	movq	%r14, %rdi
	call	__cxa_guard_release@PLT
	jmp	.L591
	.p2align 4,,10
	.p2align 3
.L664:
	movq	24(%rbp), %rax
	movq	16(%rsp), %rcx
	movq	%rax, 160(%rcx)
	jmp	.L570
	.p2align 4,,10
	.p2align 3
.L593:
	movl	%r12d, %edi
	leaq	44(%rsp), %rdx
	movl	$21537, %esi
	xorl	%eax, %eax
	movl	$0, 44(%rsp)
	call	ioctl@PLT
	andb	$-4, 68(%r15)
	movl	%r12d, %edi
	movl	$0, (%rbx)
	call	close@PLT
	jmp	.L654
.L581:
	movq	8(%rsp), %rax
	movq	%rax, 192(%rbp)
	jmp	.L582
.L578:
	movq	%rcx, 8(%rax)
	jmp	.L579
.L656:
	call	__stack_chk_fail@PLT
	.cfi_endproc
.LFE7054:
	.size	_ZN7asiopal13SerialChannel12ShutdownImplEv, .-_ZN7asiopal13SerialChannel12ShutdownImplEv
	.section	.text._ZN7asiopal13SerialChannelD2Ev,"axG",@progbits,_ZN7asiopal13SerialChannelD5Ev,comdat
	.align 2
	.p2align 4
	.weak	_ZN7asiopal13SerialChannelD2Ev
	.type	_ZN7asiopal13SerialChannelD2Ev, @function
_ZN7asiopal13SerialChannelD2Ev:
.LFB9435:
	.cfi_startproc
	.cfi_personality 0x9b,DW.ref.__gxx_personality_v0
	.cfi_lsda 0x1b,.LLSDA9435
	pushq	%r15
	.cfi_def_cfa_offset 16
	.cfi_offset 15, -16
	movq	%rdi, %r15
	pushq	%r14
	.cfi_def_cfa_offset 24
	.cfi_offset 14, -24
	pushq	%r13
	.cfi_def_cfa_offset 32
	.cfi_offset 13, -32
	pushq	%r12
	.cfi_def_cfa_offset 40
	.cfi_offset 12, -40
	pushq	%rbp
	.cfi_def_cfa_offset 48
	.cfi_offset 6, -48
	pushq	%rbx
	.cfi_def_cfa_offset 56
	.cfi_offset 3, -56
	subq	$72, %rsp
	.cfi_def_cfa_offset 128
	movl	64(%rdi), %r12d
	movq	%fs:40, %rax
	movq	%rax, 56(%rsp)
	movq	_ZTVN7asiopal13SerialChannelE@GOTPCREL(%rip), %rax
	addq	$16, %rax
	movq	%rax, (%rdi)
	cmpl	$-1, %r12d
	jne	.L786
.L696:
	movq	_ZTVN7asiopal13IAsyncChannelE@GOTPCREL(%rip), %rax
	movq	48(%r15), %rbp
	addq	$16, %rax
	movq	%rax, (%r15)
	testq	%rbp, %rbp
	je	.L708
	movq	_ZL28__gthrw___pthread_key_createPjPFvPvE@GOTPCREL(%rip), %rbx
	testq	%rbx, %rbx
	jne	.L787
	movl	8(%rbp), %eax
	leal	-1(%rax), %edx
	movl	%edx, 8(%rbp)
.L710:
	cmpl	$1, %eax
	je	.L788
.L708:
	movq	32(%r15), %rbp
	testq	%rbp, %rbp
	je	.L715
	movq	_ZL28__gthrw___pthread_key_createPjPFvPvE@GOTPCREL(%rip), %rbx
	testq	%rbx, %rbx
	jne	.L789
	movl	8(%rbp), %eax
	leal	-1(%rax), %edx
	movl	%edx, 8(%rbp)
.L717:
	cmpl	$1, %eax
	je	.L790
.L715:
	movq	16(%r15), %rdi
	testq	%rdi, %rdi
	je	.L665
	cmpq	$0, _ZL28__gthrw___pthread_key_createPjPFvPvE@GOTPCREL(%rip)
	jne	.L791
	movl	12(%rdi), %eax
	leal	-1(%rax), %edx
	movl	%edx, 12(%rdi)
.L724:
	cmpl	$1, %eax
	je	.L792
.L665:
	movq	56(%rsp), %rax
	subq	%fs:40, %rax
	jne	.L781
	addq	$72, %rsp
	.cfi_remember_state
	.cfi_def_cfa_offset 56
	popq	%rbx
	.cfi_def_cfa_offset 48
	popq	%rbp
	.cfi_def_cfa_offset 40
	popq	%r12
	.cfi_def_cfa_offset 32
	popq	%r13
	.cfi_def_cfa_offset 24
	popq	%r14
	.cfi_def_cfa_offset 16
	popq	%r15
	.cfi_def_cfa_offset 8
	ret
	.p2align 4,,10
	.p2align 3
.L786:
	.cfi_restore_state
	movq	72(%rdi), %rbp
	testq	%rbp, %rbp
	je	.L695
	movq	80(%rdi), %rax
	movzbl	68(%rdi), %ebx
	movq	40(%rax), %rax
	movq	%rax, 16(%rsp)
	leaq	40(%rbp), %rax
	movq	%rax, %rdi
	movq	%rax, 24(%rsp)
	call	pthread_mutex_lock@PLT
	movq	72(%r15), %r11
	cmpb	$0, 144(%r11)
	jne	.L668
	andl	$4, %ebx
	jne	.L793
.L669:
	movq	$0, 8(%rsp)
	xorl	%ebp, %ebp
	movl	$0, 4(%rsp)
.L678:
	movslq	4(%rsp), %r10
	movq	%r10, %rax
	salq	$4, %rax
	movq	96(%rax,%r11), %rbx
	testq	%rbx, %rbx
	je	.L729
	movq	_ZGVZN4asio15system_categoryEvE8instance@GOTPCREL(%rip), %r14
	movq	_ZZN4asio15system_categoryEvE8instance@GOTPCREL(%rip), %r12
	movq	%rax, %r13
	movzbl	(%r14), %eax
	testb	%al, %al
	je	.L794
	.p2align 4,,10
	.p2align 3
.L673:
	movq	72(%r15), %r11
	movl	$125, 24(%rbx)
	movq	%r12, 32(%rbx)
	leaq	(%r11,%r13), %rdi
	movq	96(%rdi), %rax
	testq	%rax, %rax
	je	.L675
	movq	(%rax), %rdx
	movq	%rdx, 96(%rdi)
	testq	%rdx, %rdx
	je	.L795
	movq	$0, (%rax)
	movq	$0, (%rbx)
	testq	%rbp, %rbp
	je	.L796
.L727:
	movq	%rbx, 0(%rbp)
	testq	%rdx, %rdx
	je	.L670
.L677:
	movzbl	(%r14), %eax
	movq	%rbx, %rbp
	movq	%rdx, %rbx
	testb	%al, %al
	jne	.L673
.L794:
	movq	%r14, %rdi
	call	__cxa_guard_acquire@PLT
	testl	%eax, %eax
	je	.L673
	movq	_ZN4asio6detail15system_categoryD1Ev@GOTPCREL(%rip), %rdi
	leaq	__dso_handle(%rip), %rdx
	movq	%r12, %rsi
	call	__cxa_atexit@PLT
	movq	%r14, %rdi
	call	__cxa_guard_release@PLT
	jmp	.L673
	.p2align 4,,10
	.p2align 3
.L668:
	movq	24(%rsp), %rdi
	call	pthread_mutex_unlock@PLT
.L779:
	movl	64(%r15), %r12d
	cmpl	$-1, %r12d
	je	.L696
.L695:
	call	__errno_location@PLT
	movl	%r12d, %edi
	movl	$0, (%rax)
	movq	%rax, %rbx
	call	close@PLT
	movq	_ZGVZN4asio15system_categoryEvE8instance@GOTPCREL(%rip), %r14
	movl	%eax, %ebp
	movzbl	(%r14), %eax
	testb	%al, %al
	je	.L797
.L698:
	testl	%ebp, %ebp
	je	.L696
	movl	(%rbx), %ebp
	movzbl	(%r14), %eax
	testb	%al, %al
	je	.L798
.L701:
	cmpl	$11, %ebp
	je	.L703
.L785:
	movzbl	(%r14), %eax
	testb	%al, %al
	jne	.L696
	movq	%r14, %rdi
	call	__cxa_guard_acquire@PLT
	testl	%eax, %eax
	je	.L696
	movq	_ZZN4asio15system_categoryEvE8instance@GOTPCREL(%rip), %rsi
	movq	_ZN4asio6detail15system_categoryD1Ev@GOTPCREL(%rip), %rdi
	leaq	__dso_handle(%rip), %rdx
	call	__cxa_atexit@PLT
	movq	%r14, %rdi
	call	__cxa_guard_release@PLT
	jmp	.L696
	.p2align 4,,10
	.p2align 3
.L788:
	movq	0(%rbp), %rax
	movq	%rbp, %rdi
	call	*16(%rax)
	testq	%rbx, %rbx
	jne	.L799
	movl	12(%rbp), %eax
	leal	-1(%rax), %edx
	movl	%edx, 12(%rbp)
.L713:
	cmpl	$1, %eax
	jne	.L708
	movq	0(%rbp), %rax
	movq	%rbp, %rdi
	call	*24(%rax)
	jmp	.L708
	.p2align 4,,10
	.p2align 3
.L790:
	movq	0(%rbp), %rax
	movq	%rbp, %rdi
	call	*16(%rax)
	testq	%rbx, %rbx
	jne	.L800
	movl	12(%rbp), %eax
	leal	-1(%rax), %edx
	movl	%edx, 12(%rbp)
.L720:
	cmpl	$1, %eax
	jne	.L715
	movq	0(%rbp), %rax
	movq	%rbp, %rdi
	call	*24(%rax)
	jmp	.L715
	.p2align 4,,10
	.p2align 3
.L792:
	movq	56(%rsp), %rax
	subq	%fs:40, %rax
	jne	.L781
	movq	(%rdi), %rax
	movq	24(%rax), %rax
	addq	$72, %rsp
	.cfi_remember_state
	.cfi_def_cfa_offset 56
	popq	%rbx
	.cfi_def_cfa_offset 48
	popq	%rbp
	.cfi_def_cfa_offset 40
	popq	%r12
	.cfi_def_cfa_offset 32
	popq	%r13
	.cfi_def_cfa_offset 24
	popq	%r14
	.cfi_def_cfa_offset 16
	popq	%r15
	.cfi_def_cfa_offset 8
	jmp	*%rax
	.p2align 4,,10
	.p2align 3
.L789:
	.cfi_restore_state
	movl	$-1, %eax
	lock xaddl	%eax, 8(%rbp)
	jmp	.L717
	.p2align 4,,10
	.p2align 3
.L791:
	movl	$-1, %eax
	lock xaddl	%eax, 12(%rdi)
	jmp	.L724
	.p2align 4,,10
	.p2align 3
.L787:
	movl	$-1, %eax
	lock xaddl	%eax, 8(%rbp)
	jmp	.L710
	.p2align 4,,10
	.p2align 3
.L675:
	movq	$0, (%rbx)
	testq	%rbp, %rbp
	je	.L732
	movq	%rbx, 0(%rbp)
.L670:
	addl	$1, 4(%rsp)
	movl	4(%rsp), %eax
	cmpl	$3, %eax
	je	.L801
.L731:
	movq	%rbx, %rbp
	jmp	.L678
	.p2align 4,,10
	.p2align 3
.L795:
	movq	$0, 104(%rdi)
	movq	$0, (%rax)
	movq	$0, (%rbx)
	testq	%rbp, %rbp
	jne	.L727
	.p2align 4,,10
	.p2align 3
.L732:
	addl	$1, 4(%rsp)
	movl	4(%rsp), %eax
	movq	%rbx, 8(%rsp)
	cmpl	$3, %eax
	jne	.L731
.L801:
	movl	$-1, 88(%r11)
	movq	24(%rsp), %rdi
	movb	$1, 144(%r11)
	call	pthread_mutex_unlock@PLT
	movq	16(%rsp), %r14
	movq	72(%r15), %rbp
	leaq	120(%r14), %r12
	movq	%r12, %rdi
	call	pthread_mutex_lock@PLT
	cmpq	160(%r14), %rbp
	je	.L802
.L679:
	movq	32(%rbp), %rax
	testq	%rax, %rax
	je	.L680
	movq	24(%rbp), %rdx
	movq	%rdx, 24(%rax)
.L680:
	movq	24(%rbp), %rax
	testq	%rax, %rax
	je	.L681
	movq	32(%rbp), %rdx
	movq	%rdx, 32(%rax)
.L681:
	movq	16(%rsp), %r14
	movq	%r12, %rdi
	movq	168(%r14), %rax
	movq	$0, 32(%rbp)
	movq	%rax, 24(%rbp)
	movq	%rbp, 168(%r14)
	call	pthread_mutex_unlock@PLT
	cmpq	$0, 8(%rsp)
	movq	$0, 72(%r15)
	je	.L779
	movq	40(%r14), %rbp
	cmpb	$0, 40(%rbp)
	je	.L683
	data16	leaq	_ZN4asio6detail15keyword_tss_ptrINS0_10call_stackINS0_15task_io_serviceENS0_27task_io_service_thread_infoEE7contextEE6value_E@tlsgd(%rip), %rdi
	.value	0x6666
	rex64
	call	__tls_get_addr@PLT
	movq	(%rax), %rax
	testq	%rax, %rax
	jne	.L686
	jmp	.L683
	.p2align 4,,10
	.p2align 3
.L684:
	movq	16(%rax), %rax
	testq	%rax, %rax
	je	.L683
.L686:
	cmpq	(%rax), %rbp
	jne	.L684
	movq	8(%rax), %rax
	testq	%rax, %rax
	je	.L683
	movq	16(%rax), %rdx
	movq	8(%rsp), %rcx
	testq	%rdx, %rdx
	je	.L687
	movq	%rcx, (%rdx)
.L688:
	movq	%rbx, 16(%rax)
	jmp	.L779
	.p2align 4,,10
	.p2align 3
.L796:
	movq	%rbx, 8(%rsp)
	jmp	.L677
	.p2align 4,,10
	.p2align 3
.L797:
	movq	%r14, %rdi
	call	__cxa_guard_acquire@PLT
	testl	%eax, %eax
	je	.L698
	movq	_ZZN4asio15system_categoryEvE8instance@GOTPCREL(%rip), %rsi
	movq	_ZN4asio6detail15system_categoryD1Ev@GOTPCREL(%rip), %rdi
	leaq	__dso_handle(%rip), %rdx
	call	__cxa_atexit@PLT
	movq	%r14, %rdi
	call	__cxa_guard_release@PLT
	jmp	.L698
	.p2align 4,,10
	.p2align 3
.L683:
	leaq	48(%rbp), %r12
	movq	%r12, %rdi
	call	pthread_mutex_lock@PLT
	movq	200(%rbp), %rax
	testq	%rax, %rax
	je	.L690
	movq	8(%rsp), %rcx
	movq	%rcx, (%rax)
.L691:
	movq	136(%rbp), %rax
	movq	%rbx, 200(%rbp)
	orq	$1, %rax
	movq	%rax, 136(%rbp)
	cmpq	$1, %rax
	je	.L692
	movq	%r12, %rdi
	call	pthread_mutex_unlock@PLT
	leaq	88(%rbp), %rdi
	call	pthread_cond_signal@PLT
	jmp	.L779
.L692:
	cmpb	$0, 176(%rbp)
	jne	.L694
	movq	144(%rbp), %rax
	testq	%rax, %rax
	je	.L694
	movb	$1, 176(%rbp)
	leaq	88(%rax), %rdx
	leaq	44(%rsp), %rcx
	movl	$3, %esi
	movq	%rdx, 48(%rsp)
	movl	88(%rax), %edx
	movl	$-2147483639, 44(%rsp)
	movl	96(%rax), %edi
	call	epoll_ctl@PLT
.L694:
	movq	%r12, %rdi
	call	pthread_mutex_unlock@PLT
	jmp	.L779
	.p2align 4,,10
	.p2align 3
.L799:
	movl	$-1, %eax
	lock xaddl	%eax, 12(%rbp)
	jmp	.L713
	.p2align 4,,10
	.p2align 3
.L800:
	movl	$-1, %eax
	lock xaddl	%eax, 12(%rbp)
	jmp	.L720
	.p2align 4,,10
	.p2align 3
.L729:
	movq	%rbp, %rbx
	jmp	.L670
	.p2align 4,,10
	.p2align 3
.L793:
	movq	16(%rsp), %rax
	movl	$0, 44(%rsp)
	leaq	44(%rsp), %rcx
	movl	%r12d, %edx
	movq	$0, 48(%rsp)
	movl	$2, %esi
	movl	96(%rax), %edi
	call	epoll_ctl@PLT
	movq	72(%r15), %r11
	jmp	.L669
	.p2align 4,,10
	.p2align 3
.L798:
	movq	%r14, %rdi
	call	__cxa_guard_acquire@PLT
	testl	%eax, %eax
	je	.L701
	movq	_ZZN4asio15system_categoryEvE8instance@GOTPCREL(%rip), %rsi
	movq	_ZN4asio6detail15system_categoryD1Ev@GOTPCREL(%rip), %rdi
	leaq	__dso_handle(%rip), %rdx
	call	__cxa_atexit@PLT
	movq	%r14, %rdi
	call	__cxa_guard_release@PLT
	jmp	.L701
	.p2align 4,,10
	.p2align 3
.L802:
	movq	24(%rbp), %rax
	movq	16(%rsp), %rcx
	movq	%rax, 160(%rcx)
	jmp	.L679
	.p2align 4,,10
	.p2align 3
.L703:
	movl	%r12d, %edi
	leaq	44(%rsp), %rdx
	movl	$21537, %esi
	xorl	%eax, %eax
	movl	$0, 44(%rsp)
	call	ioctl@PLT
	andb	$-4, 68(%r15)
	movl	%r12d, %edi
	movl	$0, (%rbx)
	call	close@PLT
	jmp	.L785
.L690:
	movq	8(%rsp), %rax
	movq	%rax, 192(%rbp)
	jmp	.L691
.L687:
	movq	%rcx, 8(%rax)
	jmp	.L688
.L781:
	call	__stack_chk_fail@PLT
	.cfi_endproc
.LFE9435:
	.section	.gcc_except_table
.LLSDA9435:
	.byte	0xff
	.byte	0xff
	.byte	0x1
	.uleb128 .LLSDACSE9435-.LLSDACSB9435
.LLSDACSB9435:
.LLSDACSE9435:
	.section	.text._ZN7asiopal13SerialChannelD2Ev,"axG",@progbits,_ZN7asiopal13SerialChannelD5Ev,comdat
	.size	_ZN7asiopal13SerialChannelD2Ev, .-_ZN7asiopal13SerialChannelD2Ev
	.weak	_ZN7asiopal13SerialChannelD1Ev
	.set	_ZN7asiopal13SerialChannelD1Ev,_ZN7asiopal13SerialChannelD2Ev
	.section	.text._ZN7asiopal13SerialChannelD0Ev,"axG",@progbits,_ZN7asiopal13SerialChannelD5Ev,comdat
	.align 2
	.p2align 4
	.weak	_ZN7asiopal13SerialChannelD0Ev
	.type	_ZN7asiopal13SerialChannelD0Ev, @function
_ZN7asiopal13SerialChannelD0Ev:
.LFB9437:
	.cfi_startproc
	.cfi_personality 0x9b,DW.ref.__gxx_personality_v0
	.cfi_lsda 0x1b,.LLSDA9437
	pushq	%r15
	.cfi_def_cfa_offset 16
	.cfi_offset 15, -16
	movq	%rdi, %r15
	pushq	%r14
	.cfi_def_cfa_offset 24
	.cfi_offset 14, -24
	pushq	%r13
	.cfi_def_cfa_offset 32
	.cfi_offset 13, -32
	pushq	%r12
	.cfi_def_cfa_offset 40
	.cfi_offset 12, -40
	pushq	%rbp
	.cfi_def_cfa_offset 48
	.cfi_offset 6, -48
	pushq	%rbx
	.cfi_def_cfa_offset 56
	.cfi_offset 3, -56
	subq	$72, %rsp
	.cfi_def_cfa_offset 128
	movl	64(%rdi), %r12d
	movq	%fs:40, %rax
	movq	%rax, 56(%rsp)
	movq	_ZTVN7asiopal13SerialChannelE@GOTPCREL(%rip), %rax
	addq	$16, %rax
	movq	%rax, (%rdi)
	cmpl	$-1, %r12d
	jne	.L923
.L834:
	movq	_ZTVN7asiopal13IAsyncChannelE@GOTPCREL(%rip), %rax
	movq	48(%r15), %rbp
	addq	$16, %rax
	movq	%rax, (%r15)
	testq	%rbp, %rbp
	je	.L846
	movq	_ZL28__gthrw___pthread_key_createPjPFvPvE@GOTPCREL(%rip), %rbx
	testq	%rbx, %rbx
	jne	.L924
	movl	8(%rbp), %eax
	leal	-1(%rax), %edx
	movl	%edx, 8(%rbp)
.L848:
	cmpl	$1, %eax
	je	.L925
.L846:
	movq	32(%r15), %rbp
	testq	%rbp, %rbp
	je	.L853
	movq	_ZL28__gthrw___pthread_key_createPjPFvPvE@GOTPCREL(%rip), %rbx
	testq	%rbx, %rbx
	jne	.L926
	movl	8(%rbp), %eax
	leal	-1(%rax), %edx
	movl	%edx, 8(%rbp)
.L855:
	cmpl	$1, %eax
	je	.L927
.L853:
	movq	16(%r15), %rdi
	testq	%rdi, %rdi
	je	.L860
	cmpq	$0, _ZL28__gthrw___pthread_key_createPjPFvPvE@GOTPCREL(%rip)
	jne	.L928
	movl	12(%rdi), %eax
	leal	-1(%rax), %edx
	movl	%edx, 12(%rdi)
.L862:
	cmpl	$1, %eax
	je	.L929
.L860:
	movq	56(%rsp), %rax
	subq	%fs:40, %rax
	jne	.L930
	addq	$72, %rsp
	.cfi_remember_state
	.cfi_def_cfa_offset 56
	movq	%r15, %rdi
	movl	$88, %esi
	popq	%rbx
	.cfi_def_cfa_offset 48
	popq	%rbp
	.cfi_def_cfa_offset 40
	popq	%r12
	.cfi_def_cfa_offset 32
	popq	%r13
	.cfi_def_cfa_offset 24
	popq	%r14
	.cfi_def_cfa_offset 16
	popq	%r15
	.cfi_def_cfa_offset 8
	jmp	_ZdlPvm@PLT
	.p2align 4,,10
	.p2align 3
.L923:
	.cfi_restore_state
	movq	72(%rdi), %rbp
	testq	%rbp, %rbp
	je	.L833
	movq	80(%rdi), %rax
	movzbl	68(%rdi), %ebx
	movq	40(%rax), %rax
	movq	%rax, 16(%rsp)
	leaq	40(%rbp), %rax
	movq	%rax, %rdi
	movq	%rax, 24(%rsp)
	call	pthread_mutex_lock@PLT
	movq	72(%r15), %r11
	cmpb	$0, 144(%r11)
	jne	.L806
	andl	$4, %ebx
	jne	.L931
.L807:
	movq	$0, 8(%rsp)
	xorl	%ebp, %ebp
	movl	$0, 4(%rsp)
.L816:
	movslq	4(%rsp), %r10
	movq	%r10, %rax
	salq	$4, %rax
	movq	96(%rax,%r11), %rbx
	testq	%rbx, %rbx
	je	.L867
	movq	_ZGVZN4asio15system_categoryEvE8instance@GOTPCREL(%rip), %r14
	movq	_ZZN4asio15system_categoryEvE8instance@GOTPCREL(%rip), %r12
	movq	%rax, %r13
	movzbl	(%r14), %eax
	testb	%al, %al
	je	.L932
	.p2align 4,,10
	.p2align 3
.L811:
	movq	72(%r15), %r11
	movl	$125, 24(%rbx)
	movq	%r12, 32(%rbx)
	leaq	(%r11,%r13), %rdi
	movq	96(%rdi), %rax
	testq	%rax, %rax
	je	.L813
	movq	(%rax), %rdx
	movq	%rdx, 96(%rdi)
	testq	%rdx, %rdx
	je	.L933
	movq	$0, (%rax)
	movq	$0, (%rbx)
	testq	%rbp, %rbp
	je	.L934
.L865:
	movq	%rbx, 0(%rbp)
	testq	%rdx, %rdx
	je	.L808
.L815:
	movzbl	(%r14), %eax
	movq	%rbx, %rbp
	movq	%rdx, %rbx
	testb	%al, %al
	jne	.L811
.L932:
	movq	%r14, %rdi
	call	__cxa_guard_acquire@PLT
	testl	%eax, %eax
	je	.L811
	movq	_ZN4asio6detail15system_categoryD1Ev@GOTPCREL(%rip), %rdi
	leaq	__dso_handle(%rip), %rdx
	movq	%r12, %rsi
	call	__cxa_atexit@PLT
	movq	%r14, %rdi
	call	__cxa_guard_release@PLT
	jmp	.L811
	.p2align 4,,10
	.p2align 3
.L806:
	movq	24(%rsp), %rdi
	call	pthread_mutex_unlock@PLT
.L917:
	movl	64(%r15), %r12d
	cmpl	$-1, %r12d
	je	.L834
.L833:
	call	__errno_location@PLT
	movl	%r12d, %edi
	movl	$0, (%rax)
	movq	%rax, %rbx
	call	close@PLT
	movq	_ZGVZN4asio15system_categoryEvE8instance@GOTPCREL(%rip), %r14
	movl	%eax, %ebp
	movzbl	(%r14), %eax
	testb	%al, %al
	je	.L935
.L836:
	testl	%ebp, %ebp
	je	.L834
	movl	(%rbx), %ebp
	movzbl	(%r14), %eax
	testb	%al, %al
	je	.L936
.L839:
	cmpl	$11, %ebp
	je	.L841
.L922:
	movzbl	(%r14), %eax
	testb	%al, %al
	jne	.L834
	movq	%r14, %rdi
	call	__cxa_guard_acquire@PLT
	testl	%eax, %eax
	je	.L834
	movq	_ZZN4asio15system_categoryEvE8instance@GOTPCREL(%rip), %rsi
	movq	_ZN4asio6detail15system_categoryD1Ev@GOTPCREL(%rip), %rdi
	leaq	__dso_handle(%rip), %rdx
	call	__cxa_atexit@PLT
	movq	%r14, %rdi
	call	__cxa_guard_release@PLT
	jmp	.L834
	.p2align 4,,10
	.p2align 3
.L925:
	movq	0(%rbp), %rax
	movq	%rbp, %rdi
	call	*16(%rax)
	testq	%rbx, %rbx
	jne	.L937
	movl	12(%rbp), %eax
	leal	-1(%rax), %edx
	movl	%edx, 12(%rbp)
.L851:
	cmpl	$1, %eax
	jne	.L846
	movq	0(%rbp), %rax
	movq	%rbp, %rdi
	call	*24(%rax)
	jmp	.L846
	.p2align 4,,10
	.p2align 3
.L927:
	movq	0(%rbp), %rax
	movq	%rbp, %rdi
	call	*16(%rax)
	testq	%rbx, %rbx
	jne	.L938
	movl	12(%rbp), %eax
	leal	-1(%rax), %edx
	movl	%edx, 12(%rbp)
.L858:
	cmpl	$1, %eax
	jne	.L853
	movq	0(%rbp), %rax
	movq	%rbp, %rdi
	call	*24(%rax)
	jmp	.L853
	.p2align 4,,10
	.p2align 3
.L929:
	movq	(%rdi), %rax
	call	*24(%rax)
	jmp	.L860
	.p2align 4,,10
	.p2align 3
.L926:
	movl	$-1, %eax
	lock xaddl	%eax, 8(%rbp)
	jmp	.L855
	.p2align 4,,10
	.p2align 3
.L928:
	movl	$-1, %eax
	lock xaddl	%eax, 12(%rdi)
	jmp	.L862
	.p2align 4,,10
	.p2align 3
.L924:
	movl	$-1, %eax
	lock xaddl	%eax, 8(%rbp)
	jmp	.L848
	.p2align 4,,10
	.p2align 3
.L813:
	movq	$0, (%rbx)
	testq	%rbp, %rbp
	je	.L870
	movq	%rbx, 0(%rbp)
.L808:
	addl	$1, 4(%rsp)
	movl	4(%rsp), %eax
	cmpl	$3, %eax
	je	.L939
.L869:
	movq	%rbx, %rbp
	jmp	.L816
	.p2align 4,,10
	.p2align 3
.L933:
	movq	$0, 104(%rdi)
	movq	$0, (%rax)
	movq	$0, (%rbx)
	testq	%rbp, %rbp
	jne	.L865
	.p2align 4,,10
	.p2align 3
.L870:
	addl	$1, 4(%rsp)
	movl	4(%rsp), %eax
	movq	%rbx, 8(%rsp)
	cmpl	$3, %eax
	jne	.L869
.L939:
	movl	$-1, 88(%r11)
	movq	24(%rsp), %rdi
	movb	$1, 144(%r11)
	call	pthread_mutex_unlock@PLT
	movq	16(%rsp), %r14
	movq	72(%r15), %rbp
	leaq	120(%r14), %r12
	movq	%r12, %rdi
	call	pthread_mutex_lock@PLT
	cmpq	160(%r14), %rbp
	je	.L940
.L817:
	movq	32(%rbp), %rax
	testq	%rax, %rax
	je	.L818
	movq	24(%rbp), %rdx
	movq	%rdx, 24(%rax)
.L818:
	movq	24(%rbp), %rax
	testq	%rax, %rax
	je	.L819
	movq	32(%rbp), %rdx
	movq	%rdx, 32(%rax)
.L819:
	movq	16(%rsp), %r14
	movq	%r12, %rdi
	movq	168(%r14), %rax
	movq	$0, 32(%rbp)
	movq	%rax, 24(%rbp)
	movq	%rbp, 168(%r14)
	call	pthread_mutex_unlock@PLT
	cmpq	$0, 8(%rsp)
	movq	$0, 72(%r15)
	je	.L917
	movq	40(%r14), %rbp
	cmpb	$0, 40(%rbp)
	je	.L821
	data16	leaq	_ZN4asio6detail15keyword_tss_ptrINS0_10call_stackINS0_15task_io_serviceENS0_27task_io_service_thread_infoEE7contextEE6value_E@tlsgd(%rip), %rdi
	.value	0x6666
	rex64
	call	__tls_get_addr@PLT
	movq	(%rax), %rax
	testq	%rax, %rax
	jne	.L824
	jmp	.L821
	.p2align 4,,10
	.p2align 3
.L822:
	movq	16(%rax), %rax
	testq	%rax, %rax
	je	.L821
.L824:
	cmpq	(%rax), %rbp
	jne	.L822
	movq	8(%rax), %rax
	testq	%rax, %rax
	je	.L821
	movq	16(%rax), %rdx
	movq	8(%rsp), %rcx
	testq	%rdx, %rdx
	je	.L825
	movq	%rcx, (%rdx)
.L826:
	movq	%rbx, 16(%rax)
	jmp	.L917
	.p2align 4,,10
	.p2align 3
.L934:
	movq	%rbx, 8(%rsp)
	jmp	.L815
	.p2align 4,,10
	.p2align 3
.L935:
	movq	%r14, %rdi
	call	__cxa_guard_acquire@PLT
	testl	%eax, %eax
	je	.L836
	movq	_ZZN4asio15system_categoryEvE8instance@GOTPCREL(%rip), %rsi
	movq	_ZN4asio6detail15system_categoryD1Ev@GOTPCREL(%rip), %rdi
	leaq	__dso_handle(%rip), %rdx
	call	__cxa_atexit@PLT
	movq	%r14, %rdi
	call	__cxa_guard_release@PLT
	jmp	.L836
	.p2align 4,,10
	.p2align 3
.L821:
	leaq	48(%rbp), %r12
	movq	%r12, %rdi
	call	pthread_mutex_lock@PLT
	movq	200(%rbp), %rax
	testq	%rax, %rax
	je	.L828
	movq	8(%rsp), %rcx
	movq	%rcx, (%rax)
.L829:
	movq	136(%rbp), %rax
	movq	%rbx, 200(%rbp)
	orq	$1, %rax
	movq	%rax, 136(%rbp)
	cmpq	$1, %rax
	je	.L830
	movq	%r12, %rdi
	call	pthread_mutex_unlock@PLT
	leaq	88(%rbp), %rdi
	call	pthread_cond_signal@PLT
	jmp	.L917
.L830:
	cmpb	$0, 176(%rbp)
	jne	.L832
	movq	144(%rbp), %rax
	testq	%rax, %rax
	je	.L832
	movb	$1, 176(%rbp)
	leaq	88(%rax), %rdx
	leaq	44(%rsp), %rcx
	movl	$3, %esi
	movq	%rdx, 48(%rsp)
	movl	88(%rax), %edx
	movl	$-2147483639, 44(%rsp)
	movl	96(%rax), %edi
	call	epoll_ctl@PLT
.L832:
	movq	%r12, %rdi
	call	pthread_mutex_unlock@PLT
	jmp	.L917
	.p2align 4,,10
	.p2align 3
.L937:
	movl	$-1, %eax
	lock xaddl	%eax, 12(%rbp)
	jmp	.L851
	.p2align 4,,10
	.p2align 3
.L938:
	movl	$-1, %eax
	lock xaddl	%eax, 12(%rbp)
	jmp	.L858
	.p2align 4,,10
	.p2align 3
.L867:
	movq	%rbp, %rbx
	jmp	.L808
	.p2align 4,,10
	.p2align 3
.L931:
	movq	16(%rsp), %rax
	movl	$0, 44(%rsp)
	leaq	44(%rsp), %rcx
	movl	%r12d, %edx
	movq	$0, 48(%rsp)
	movl	$2, %esi
	movl	96(%rax), %edi
	call	epoll_ctl@PLT
	movq	72(%r15), %r11
	jmp	.L807
	.p2align 4,,10
	.p2align 3
.L936:
	movq	%r14, %rdi
	call	__cxa_guard_acquire@PLT
	testl	%eax, %eax
	je	.L839
	movq	_ZZN4asio15system_categoryEvE8instance@GOTPCREL(%rip), %rsi
	movq	_ZN4asio6detail15system_categoryD1Ev@GOTPCREL(%rip), %rdi
	leaq	__dso_handle(%rip), %rdx
	call	__cxa_atexit@PLT
	movq	%r14, %rdi
	call	__cxa_guard_release@PLT
	jmp	.L839
	.p2align 4,,10
	.p2align 3
.L940:
	movq	24(%rbp), %rax
	movq	16(%rsp), %rcx
	movq	%rax, 160(%rcx)
	jmp	.L817
	.p2align 4,,10
	.p2align 3
.L841:
	movl	%r12d, %edi
	leaq	44(%rsp), %rdx
	movl	$21537, %esi
	xorl	%eax, %eax
	movl	$0, 44(%rsp)
	call	ioctl@PLT
	andb	$-4, 68(%r15)
	movl	%r12d, %edi
	movl	$0, (%rbx)
	call	close@PLT
	jmp	.L922
.L828:
	movq	8(%rsp), %rax
	movq	%rax, 192(%rbp)
	jmp	.L829
.L825:
	movq	%rcx, 8(%rax)
	jmp	.L826
.L930:
	call	__stack_chk_fail@PLT
	.cfi_endproc
.LFE9437:
	.section	.gcc_except_table
.LLSDA9437:
	.byte	0xff
	.byte	0xff
	.byte	0x1
	.uleb128 .LLSDACSE9437-.LLSDACSB9437
.LLSDACSB9437:
.LLSDACSE9437:
	.section	.text._ZN7asiopal13SerialChannelD0Ev,"axG",@progbits,_ZN7asiopal13SerialChannelD5Ev,comdat
	.size	_ZN7asiopal13SerialChannelD0Ev, .-_ZN7asiopal13SerialChannelD0Ev
	.section	.text.unlikely
	.align 2
.LCOLDB25:
	.text
.LHOTB25:
	.align 2
	.p2align 4
	.globl	_ZN7asiopal13SerialChannel13BeginReadImplEN7openpal6WSliceE
	.type	_ZN7asiopal13SerialChannel13BeginReadImplEN7openpal6WSliceE, @function
_ZN7asiopal13SerialChannel13BeginReadImplEN7openpal6WSliceE:
.LFB7044:
	.cfi_startproc
	.cfi_personality 0x9b,DW.ref.__gxx_personality_v0
	.cfi_lsda 0x1b,.LLSDA7044
	pushq	%r15
	.cfi_def_cfa_offset 16
	.cfi_offset 15, -16
	pushq	%r14
	.cfi_def_cfa_offset 24
	.cfi_offset 14, -24
	movq	%rdx, %r14
	pushq	%r13
	.cfi_def_cfa_offset 32
	.cfi_offset 13, -32
	movl	%esi, %r13d
	pushq	%r12
	.cfi_def_cfa_offset 40
	.cfi_offset 12, -40
	movq	%rdi, %r12
	pushq	%rbp
	.cfi_def_cfa_offset 48
	.cfi_offset 6, -48
	pushq	%rbx
	.cfi_def_cfa_offset 56
	.cfi_offset 3, -56
	subq	$136, %rsp
	.cfi_def_cfa_offset 192
	movq	%fs:40, %rax
	movq	%rax, 120(%rsp)
	movq	24(%rdi), %rax
	movq	%rdi, 96(%rsp)
	movdqu	40(%rax), %xmm0
	movq	48(%rax), %rbp
	movq	80(%rdi), %rax
	movaps	%xmm0, 80(%rsp)
	movq	%rax, 8(%rsp)
	data16	leaq	_ZN4asio6detail15keyword_tss_ptrINS0_10call_stackINS0_14strand_service11strand_implEhE7contextEE6value_E@tlsgd(%rip), %rdi
	.value	0x6666
	rex64
	call	__tls_get_addr@PLT
	movq	(%rax), %rbx
	testq	%rbx, %rbx
	jne	.L944
	jmp	.L942
	.p2align 4,,10
	.p2align 3
.L943:
	movq	16(%rbx), %rbx
	testq	%rbx, %rbx
	je	.L942
.L944:
	cmpq	(%rbx), %rbp
	jne	.L943
	movq	8(%rbx), %rbx
.L942:
	pxor	%xmm0, %xmm0
	leaq	80(%rsp), %rax
	movq	%rax, 48(%rsp)
	movups	%xmm0, 56(%rsp)
	data16	leaq	_ZN4asio6detail15keyword_tss_ptrINS0_10call_stackINS0_15task_io_serviceENS0_27task_io_service_thread_infoEE7contextEE6value_E@tlsgd(%rip), %rdi
	.value	0x6666
	rex64
	call	__tls_get_addr@PLT
	movq	(%rax), %rax
	testq	%rax, %rax
	je	.L945
	movq	8(%rax), %rax
	testq	%rax, %rax
	je	.L945
	movq	(%rax), %rbp
	testq	%rbp, %rbp
	je	.L945
	movq	$0, (%rax)
	movzbl	0(%rbp), %eax
	cmpb	$103, %al
	jbe	.L946
	movb	%al, 104(%rbp)
	jmp	.L947
	.p2align 4,,10
	.p2align 3
.L946:
	movq	%rbp, %rdi
	call	_ZdlPv@PLT
.L945:
	movl	$105, %edi
.LEHB6:
	call	_Znwm@PLT
.LEHE6:
	movb	$104, 104(%rax)
	movq	%rax, %rbp
.L947:
	leaq	_ZN4asio6detail18descriptor_read_opINS_17mutable_buffers_1ENS0_15wrapped_handlerINS_10io_service6strandEZN7asiopal13SerialChannel13BeginReadImplEN7openpal6WSliceEEUlRKSt10error_codemE_NS0_26is_continuation_if_runningEEEE11do_completeEPNS0_15task_io_serviceEPNS0_25task_io_service_operationESC_m(%rip), %rax
	movl	64(%r12), %r15d
	movq	%rbp, 56(%rsp)
	movl	$0, 16(%rbp)
	movq	$0, 0(%rbp)
	movq	%rax, 8(%rbp)
	movl	$0, 24(%rbp)
	call	_ZNSt3_V215system_categoryEv@PLT
	movdqa	80(%rsp), %xmm1
	movl	%r15d, 56(%rbp)
	movq	%rax, 32(%rbp)
	movq	%rax, %rcx
	movq	_ZN4asio6detail23descriptor_read_op_baseINS_17mutable_buffers_1EE10do_performEPNS0_10reactor_opE@GOTPCREL(%rip), %rax
	movq	$0, 40(%rbp)
	movq	%rax, 48(%rbp)
	movq	96(%rsp), %rax
	movq	%r14, 64(%rbp)
	movq	%r13, 72(%rbp)
	movq	%rax, 96(%rbp)
	movq	%rbp, 64(%rsp)
	movups	%xmm1, 80(%rbp)
	testq	%r13, %r13
	je	.L948
	testb	$3, 68(%r12)
	jne	.L949
	cmpl	$-1, %r15d
	je	.L1110
	movq	%rcx, 16(%rsp)
	call	__errno_location@PLT
	movl	%r15d, %edi
	leaq	36(%rsp), %rdx
	movl	$21537, %esi
	movl	$0, (%rax)
	movq	%rax, %r14
	xorl	%eax, %eax
	movl	$1, 36(%rsp)
	call	ioctl@PLT
	movq	_ZGVZN4asio15system_categoryEvE8instance@GOTPCREL(%rip), %r13
	movl	%eax, %r15d
	movzbl	0(%r13), %eax
	testb	%al, %al
	movq	16(%rsp), %rcx
	je	.L954
.L1090:
	movq	_ZZN4asio15system_categoryEvE8instance@GOTPCREL(%rip), %rsi
.L955:
	movl	(%r14), %eax
	movq	%rsi, 32(%rbp)
	movl	%eax, 24(%rbp)
	testl	%r15d, %r15d
	jns	.L1111
.L948:
	movq	8(%rsp), %rax
	movq	40(%rax), %rax
	movq	40(%rax), %r12
	testq	%rbx, %rbx
	jne	.L1020
	cmpb	$0, 40(%r12)
	je	.L1004
.L1020:
	data16	leaq	_ZN4asio6detail15keyword_tss_ptrINS0_10call_stackINS0_15task_io_serviceENS0_27task_io_service_thread_infoEE7contextEE6value_E@tlsgd(%rip), %rdi
	.value	0x6666
	rex64
	call	__tls_get_addr@PLT
	movq	(%rax), %rax
	testq	%rax, %rax
	jne	.L1008
	jmp	.L1004
	.p2align 4,,10
	.p2align 3
.L1006:
	movq	16(%rax), %rax
	testq	%rax, %rax
	je	.L1004
.L1008:
	cmpq	(%rax), %r12
	jne	.L1006
.L1109:
	movq	8(%rax), %rax
	testq	%rax, %rax
	je	.L1004
	addq	$1, 24(%rax)
	movq	$0, 0(%rbp)
	cmpq	$0, 16(%rax)
	je	.L1009
	movq	16(%rax), %rdx
	movq	%rbp, (%rdx)
	movq	%rbp, 16(%rax)
	jmp	.L941
	.p2align 4,,10
	.p2align 3
.L1111:
	movl	$0, 24(%rbp)
	movl	64(%r12), %r15d
	movq	%rcx, 32(%rbp)
	orb	$2, 68(%r12)
.L949:
	movq	8(%rsp), %rax
	movq	72(%r12), %r13
	movq	40(%rax), %r14
	testq	%r13, %r13
	je	.L1112
	addq	$40, %r13
	movq	%r13, %rdi
	call	pthread_mutex_lock@PLT
	movq	72(%r12), %rax
	cmpb	$0, 144(%rax)
	jne	.L1113
	cmpq	$0, 96(%rax)
	je	.L1114
.L987:
	movq	104(%rax), %rdx
	movq	$0, 0(%rbp)
	testq	%rdx, %rdx
	je	.L1001
	movq	%rbp, (%rdx)
	movq	%rbp, 104(%rax)
.L1002:
	movq	40(%r14), %rax
	lock addq	$1, 184(%rax)
	movq	%r13, %rdi
	call	pthread_mutex_unlock@PLT
	jmp	.L941
.L1112:
	movq	_ZGVZN4asio15system_categoryEvE8instance@GOTPCREL(%rip), %r12
	movzbl	(%r12), %eax
	testb	%al, %al
	je	.L959
.L1091:
	movq	_ZZN4asio15system_categoryEvE8instance@GOTPCREL(%rip), %rsi
.L960:
	movq	40(%r14), %r12
	movl	$9, 24(%rbp)
	movq	%rsi, 32(%rbp)
	cmpb	$0, 40(%r12)
	jne	.L1017
	testq	%rbx, %rbx
	jne	.L1017
	.p2align 4,,10
	.p2align 3
.L1004:
	lock addq	$1, 184(%r12)
	leaq	48(%r12), %r13
	movq	%r13, %rdi
	call	pthread_mutex_lock@PLT
	movq	$0, 0(%rbp)
	cmpq	$0, 200(%r12)
	je	.L1010
	movq	200(%r12), %rax
	movq	%rbp, (%rax)
	movq	%rbp, 200(%r12)
.L1011:
	movq	136(%r12), %rax
	orq	$1, %rax
	movq	%rax, 136(%r12)
	cmpq	$1, %rax
	je	.L1012
	movq	%r13, %rdi
	call	pthread_mutex_unlock@PLT
	leaq	88(%r12), %rdi
	call	pthread_cond_signal@PLT
	.p2align 4,,10
	.p2align 3
.L941:
	movq	120(%rsp), %rax
	subq	%fs:40, %rax
	jne	.L1115
	addq	$136, %rsp
	.cfi_remember_state
	.cfi_def_cfa_offset 56
	popq	%rbx
	.cfi_def_cfa_offset 48
	popq	%rbp
	.cfi_def_cfa_offset 40
	popq	%r12
	.cfi_def_cfa_offset 32
	popq	%r13
	.cfi_def_cfa_offset 24
	popq	%r14
	.cfi_def_cfa_offset 16
	popq	%r15
	.cfi_def_cfa_offset 8
	ret
	.p2align 4,,10
	.p2align 3
.L1012:
	.cfi_restore_state
	cmpb	$0, 176(%r12)
	jne	.L981
	movq	144(%r12), %rax
	testq	%rax, %rax
	je	.L981
	leaq	88(%rax), %rdx
	leaq	36(%rsp), %rcx
	movl	$3, %esi
	movb	$1, 176(%r12)
	movl	$-2147483639, 36(%rsp)
	movq	%rdx, 40(%rsp)
	movl	88(%rax), %edx
	movl	96(%rax), %edi
	call	epoll_ctl@PLT
.L981:
	movq	%r13, %rdi
	call	pthread_mutex_unlock@PLT
	jmp	.L941
.L1009:
	movq	%rbp, %xmm0
	punpcklqdq	%xmm0, %xmm0
	movups	%xmm0, 8(%rax)
	jmp	.L941
.L1001:
	movq	%rbp, %xmm0
	punpcklqdq	%xmm0, %xmm0
	movups	%xmm0, 96(%rax)
	jmp	.L1002
	.p2align 4,,10
	.p2align 3
.L954:
	movq	%r13, %rdi
	movq	%rcx, 16(%rsp)
	call	__cxa_guard_acquire@PLT
	movq	16(%rsp), %rcx
	testl	%eax, %eax
	je	.L1090
	movq	_ZZN4asio15system_categoryEvE8instance@GOTPCREL(%rip), %rsi
	movq	_ZN4asio6detail15system_categoryD1Ev@GOTPCREL(%rip), %rdi
	movq	%rcx, 24(%rsp)
	leaq	__dso_handle(%rip), %rdx
	movq	%rsi, 16(%rsp)
	call	__cxa_atexit@PLT
	movq	%r13, %rdi
	call	__cxa_guard_release@PLT
	movq	24(%rsp), %rcx
	movq	16(%rsp), %rsi
	jmp	.L955
	.p2align 4,,10
	.p2align 3
.L1010:
	movq	%rbp, %xmm0
	punpcklqdq	%xmm0, %xmm0
	movups	%xmm0, 192(%r12)
	jmp	.L1011
.L1017:
	data16	leaq	_ZN4asio6detail15keyword_tss_ptrINS0_10call_stackINS0_15task_io_serviceENS0_27task_io_service_thread_infoEE7contextEE6value_E@tlsgd(%rip), %rdi
	.value	0x6666
	rex64
	call	__tls_get_addr@PLT
	movq	(%rax), %rax
	testq	%rax, %rax
	jne	.L966
	jmp	.L1004
	.p2align 4,,10
	.p2align 3
.L964:
	movq	16(%rax), %rax
	testq	%rax, %rax
	je	.L1004
.L966:
	cmpq	(%rax), %r12
	jne	.L964
	jmp	.L1109
.L1113:
	movq	40(%r14), %r12
	cmpb	$0, 40(%r12)
	jne	.L1018
	testq	%rbx, %rbx
	je	.L975
.L1018:
	data16	leaq	_ZN4asio6detail15keyword_tss_ptrINS0_10call_stackINS0_15task_io_serviceENS0_27task_io_service_thread_infoEE7contextEE6value_E@tlsgd(%rip), %rdi
	.value	0x6666
	rex64
	call	__tls_get_addr@PLT
	movq	(%rax), %rax
	testq	%rax, %rax
	jne	.L979
	jmp	.L975
	.p2align 4,,10
	.p2align 3
.L977:
	movq	16(%rax), %rax
	testq	%rax, %rax
	je	.L975
.L979:
	cmpq	(%rax), %r12
	jne	.L977
	movq	8(%rax), %rax
	testq	%rax, %rax
	je	.L975
	addq	$1, 24(%rax)
	cmpq	$0, 16(%rax)
	movq	$0, 0(%rbp)
	je	.L980
	movq	16(%rax), %rdx
	movq	%rbp, (%rdx)
	movq	%rbp, 16(%rax)
	jmp	.L981
.L1110:
	movq	_ZGVZN4asio15system_categoryEvE8instance@GOTPCREL(%rip), %r12
	movzbl	(%r12), %eax
	testb	%al, %al
	je	.L951
.L1089:
	movq	_ZZN4asio15system_categoryEvE8instance@GOTPCREL(%rip), %rsi
.L952:
	movl	$9, 24(%rbp)
	movq	%rsi, 32(%rbp)
	jmp	.L948
.L1114:
	cmpq	$0, 128(%rax)
	je	.L1116
	movl	92(%rax), %edx
	movq	%rax, 40(%rsp)
	leaq	36(%rsp), %rcx
	movl	$3, %esi
	movl	%edx, 36(%rsp)
	movl	96(%r14), %edi
	movl	%r15d, %edx
	call	epoll_ctl@PLT
.L1092:
	movq	72(%r12), %rax
	jmp	.L987
.L959:
	movq	%r12, %rdi
	call	__cxa_guard_acquire@PLT
	testl	%eax, %eax
	je	.L1091
	movq	_ZZN4asio15system_categoryEvE8instance@GOTPCREL(%rip), %rsi
	movq	_ZN4asio6detail15system_categoryD1Ev@GOTPCREL(%rip), %rdi
	leaq	__dso_handle(%rip), %rdx
	movq	%rsi, 8(%rsp)
	call	__cxa_atexit@PLT
	movq	%r12, %rdi
	call	__cxa_guard_release@PLT
	movq	8(%rsp), %rsi
	jmp	.L960
.L951:
	movq	%r12, %rdi
	call	__cxa_guard_acquire@PLT
	testl	%eax, %eax
	je	.L1089
	movq	_ZZN4asio15system_categoryEvE8instance@GOTPCREL(%rip), %rsi
	movq	_ZN4asio6detail15system_categoryD1Ev@GOTPCREL(%rip), %rdi
	leaq	__dso_handle(%rip), %rdx
	movq	%rsi, 16(%rsp)
	call	__cxa_atexit@PLT
	movq	%r12, %rdi
	call	__cxa_guard_release@PLT
	movq	16(%rsp), %rsi
	jmp	.L952
.L975:
	lock addq	$1, 184(%r12)
	leaq	48(%r12), %r14
	movq	%r14, %rdi
	call	pthread_mutex_lock@PLT
	movq	$0, 0(%rbp)
	cmpq	$0, 200(%r12)
	je	.L982
	movq	200(%r12), %rax
	movq	%rbp, (%rax)
	movq	%rbp, 200(%r12)
.L983:
	movq	136(%r12), %rax
	orq	$1, %rax
	movq	%rax, 136(%r12)
	cmpq	$1, %rax
	je	.L984
	movq	%r14, %rdi
	call	pthread_mutex_unlock@PLT
	leaq	88(%r12), %rdi
	call	pthread_cond_signal@PLT
	jmp	.L981
.L984:
	cmpb	$0, 176(%r12)
	jne	.L986
	movq	144(%r12), %rax
	testq	%rax, %rax
	je	.L986
	leaq	88(%rax), %rdx
	leaq	36(%rsp), %rcx
	movl	$3, %esi
	movb	$1, 176(%r12)
	movq	%rdx, 40(%rsp)
	movl	88(%rax), %edx
	movl	$-2147483639, 36(%rsp)
	movl	96(%rax), %edi
	call	epoll_ctl@PLT
.L986:
	movq	%r14, %rdi
	call	pthread_mutex_unlock@PLT
	jmp	.L981
.L982:
	movq	%rbp, %xmm0
	punpcklqdq	%xmm0, %xmm0
	movups	%xmm0, 192(%r12)
	jmp	.L983
.L1116:
	movq	%rbp, %rdi
.LEHB7:
	call	*48(%rbp)
.LEHE7:
	testb	%al, %al
	je	.L1092
	movq	%r13, %rdi
	call	pthread_mutex_unlock@PLT
	movq	40(%r14), %r12
	testq	%rbx, %rbx
	jne	.L1019
	cmpb	$0, 40(%r12)
	je	.L1004
.L1019:
	data16	leaq	_ZN4asio6detail15keyword_tss_ptrINS0_10call_stackINS0_15task_io_serviceENS0_27task_io_service_thread_infoEE7contextEE6value_E@tlsgd(%rip), %rdi
	.value	0x6666
	rex64
	call	__tls_get_addr@PLT
	movq	(%rax), %rax
	testq	%rax, %rax
	jne	.L994
	jmp	.L1004
	.p2align 4,,10
	.p2align 3
.L992:
	movq	16(%rax), %rax
	testq	%rax, %rax
	je	.L1004
.L994:
	cmpq	(%rax), %r12
	jne	.L992
	jmp	.L1109
.L980:
	movq	%rbp, %xmm0
	punpcklqdq	%xmm0, %xmm0
	movups	%xmm0, 8(%rax)
	jmp	.L981
.L1115:
	call	__stack_chk_fail@PLT
.L1016:
	movq	%rax, %rbp
	jmp	.L1003
	.section	.gcc_except_table
.LLSDA7044:
	.byte	0xff
	.byte	0xff
	.byte	0x1
	.uleb128 .LLSDACSE7044-.LLSDACSB7044
.LLSDACSB7044:
	.uleb128 .LEHB6-.LFB7044
	.uleb128 .LEHE6-.LEHB6
	.uleb128 0
	.uleb128 0
	.uleb128 .LEHB7-.LFB7044
	.uleb128 .LEHE7-.LEHB7
	.uleb128 .L1016-.LFB7044
	.uleb128 0
.LLSDACSE7044:
	.text
	.cfi_endproc
	.section	.text.unlikely
	.cfi_startproc
	.cfi_personality 0x9b,DW.ref.__gxx_personality_v0
	.cfi_lsda 0x1b,.LLSDAC7044
	.type	_ZN7asiopal13SerialChannel13BeginReadImplEN7openpal6WSliceE.cold, @function
_ZN7asiopal13SerialChannel13BeginReadImplEN7openpal6WSliceE.cold:
.LFSB7044:
.L1003:
	.cfi_def_cfa_offset 192
	.cfi_offset 3, -56
	.cfi_offset 6, -48
	.cfi_offset 12, -40
	.cfi_offset 13, -32
	.cfi_offset 14, -24
	.cfi_offset 15, -16
	movq	%r13, %rdi
	call	pthread_mutex_unlock@PLT
	leaq	48(%rsp), %rdi
	call	_ZN4asio6detail18descriptor_read_opINS_17mutable_buffers_1ENS0_15wrapped_handlerINS_10io_service6strandEZN7asiopal13SerialChannel13BeginReadImplEN7openpal6WSliceEEUlRKSt10error_codemE_NS0_26is_continuation_if_runningEEEE3ptr5resetEv
	movq	%rbp, %rdi
.LEHB8:
	call	_Unwind_Resume@PLT
.LEHE8:
	.cfi_endproc
.LFE7044:
	.section	.gcc_except_table
.LLSDAC7044:
	.byte	0xff
	.byte	0xff
	.byte	0x1
	.uleb128 .LLSDACSEC7044-.LLSDACSBC7044
.LLSDACSBC7044:
	.uleb128 .LEHB8-.LCOLDB25
	.uleb128 .LEHE8-.LEHB8
	.uleb128 0
	.uleb128 0
.LLSDACSEC7044:
	.section	.text.unlikely
	.text
	.size	_ZN7asiopal13SerialChannel13BeginReadImplEN7openpal6WSliceE, .-_ZN7asiopal13SerialChannel13BeginReadImplEN7openpal6WSliceE
	.section	.text.unlikely
	.size	_ZN7asiopal13SerialChannel13BeginReadImplEN7openpal6WSliceE.cold, .-_ZN7asiopal13SerialChannel13BeginReadImplEN7openpal6WSliceE.cold
.LCOLDE25:
	.text
.LHOTE25:
	.section	.rodata._ZNSt12system_errorC2ESt10error_codePKc.str1.1,"aMS",@progbits,1
.LC26:
	.string	": "
	.section	.text._ZNSt12system_errorC2ESt10error_codePKc,"axG",@progbits,_ZNSt12system_errorC5ESt10error_codePKc,comdat
	.align 2
	.p2align 4
	.weak	_ZNSt12system_errorC2ESt10error_codePKc
	.type	_ZNSt12system_errorC2ESt10error_codePKc, @function
_ZNSt12system_errorC2ESt10error_codePKc:
.LFB2319:
	.cfi_startproc
	.cfi_personality 0x9b,DW.ref.__gxx_personality_v0
	.cfi_lsda 0x1b,.LLSDA2319
	pushq	%r14
	.cfi_def_cfa_offset 16
	.cfi_offset 14, -16
	movq	%rcx, %r14
	pushq	%r13
	.cfi_def_cfa_offset 24
	.cfi_offset 13, -24
	pushq	%r12
	.cfi_def_cfa_offset 32
	.cfi_offset 12, -32
	movq	%rsi, %r12
	pushq	%rbp
	.cfi_def_cfa_offset 40
	.cfi_offset 6, -40
	movq	%rdx, %rbp
	pushq	%rbx
	.cfi_def_cfa_offset 48
	.cfi_offset 3, -48
	movq	%rdi, %rbx
	subq	$112, %rsp
	.cfi_def_cfa_offset 160
	movq	%fs:40, %rax
	movq	%rax, 104(%rsp)
	xorl	%eax, %eax
	movq	(%rdx), %rax
	leaq	64(%rsp), %r13
	movl	%esi, %edx
	movq	%r13, %rdi
	movq	%rbp, %rsi
.LEHB9:
	call	*32(%rax)
.LEHE9:
	movl	$2, %r8d
	xorl	%edx, %edx
	xorl	%esi, %esi
	leaq	.LC26(%rip), %rcx
	movq	%r13, %rdi
.LEHB10:
	call	_ZNSt7__cxx1112basic_stringIcSt11char_traitsIcESaIcEE10_M_replaceEmmPKcm@PLT
.LEHE10:
	leaq	48(%rsp), %r13
	leaq	16(%rax), %rdx
	movq	%r13, 32(%rsp)
	movq	(%rax), %rcx
	cmpq	%rdx, %rcx
	je	.L1137
	movq	%rcx, 32(%rsp)
	movq	16(%rax), %rcx
	movq	%rcx, 48(%rsp)
.L1119:
	movq	8(%rax), %rcx
	movb	$0, 16(%rax)
	movq	%r14, %rdi
	movq	%rcx, 40(%rsp)
	movq	%rdx, (%rax)
	movq	$0, 8(%rax)
	call	strlen@PLT
	leaq	32(%rsp), %rdi
	movq	%r14, %rcx
	xorl	%edx, %edx
	movq	%rax, %r8
	xorl	%esi, %esi
.LEHB11:
	call	_ZNSt7__cxx1112basic_stringIcSt11char_traitsIcESaIcEE10_M_replaceEmmPKcm@PLT
.LEHE11:
	leaq	16(%rsp), %r14
	leaq	16(%rax), %rdx
	movq	%r14, (%rsp)
	movq	(%rax), %rcx
	cmpq	%rdx, %rcx
	je	.L1138
	movq	%rcx, (%rsp)
	movq	16(%rax), %rcx
	movq	%rcx, 16(%rsp)
.L1121:
	movq	8(%rax), %rcx
	movb	$0, 16(%rax)
	movq	%rsp, %rsi
	movq	%rbx, %rdi
	movq	%rcx, 8(%rsp)
	movq	%rdx, (%rax)
	movq	$0, 8(%rax)
.LEHB12:
	call	_ZNSt13runtime_errorC2ERKNSt7__cxx1112basic_stringIcSt11char_traitsIcESaIcEEE@PLT
.LEHE12:
	movq	(%rsp), %rdi
	cmpq	%r14, %rdi
	je	.L1122
	movq	16(%rsp), %rax
	leaq	1(%rax), %rsi
	call	_ZdlPvm@PLT
.L1122:
	movq	32(%rsp), %rdi
	cmpq	%r13, %rdi
	je	.L1123
	movq	48(%rsp), %rax
	leaq	1(%rax), %rsi
	call	_ZdlPvm@PLT
.L1123:
	movq	64(%rsp), %rdi
	leaq	80(%rsp), %rax
	cmpq	%rax, %rdi
	je	.L1124
	movq	80(%rsp), %rax
	leaq	1(%rax), %rsi
	call	_ZdlPvm@PLT
.L1124:
	movq	_ZTVSt12system_error@GOTPCREL(%rip), %rax
	movq	%r12, 16(%rbx)
	movq	%rbp, 24(%rbx)
	addq	$16, %rax
	movq	%rax, (%rbx)
	movq	104(%rsp), %rax
	subq	%fs:40, %rax
	jne	.L1139
	addq	$112, %rsp
	.cfi_remember_state
	.cfi_def_cfa_offset 48
	popq	%rbx
	.cfi_def_cfa_offset 40
	popq	%rbp
	.cfi_def_cfa_offset 32
	popq	%r12
	.cfi_def_cfa_offset 24
	popq	%r13
	.cfi_def_cfa_offset 16
	popq	%r14
	.cfi_def_cfa_offset 8
	ret
	.p2align 4,,10
	.p2align 3
.L1137:
	.cfi_restore_state
	movdqu	16(%rax), %xmm0
	movaps	%xmm0, 48(%rsp)
	jmp	.L1119
	.p2align 4,,10
	.p2align 3
.L1138:
	movdqu	16(%rax), %xmm1
	movaps	%xmm1, 16(%rsp)
	jmp	.L1121
.L1139:
	call	__stack_chk_fail@PLT
.L1134:
	movq	%rax, %rbp
	jmp	.L1125
.L1132:
	movq	%rax, %rbp
	jmp	.L1129
.L1133:
	movq	%rax, %rbp
	jmp	.L1127
.L1125:
	movq	(%rsp), %rdi
	cmpq	%r14, %rdi
	je	.L1127
	movq	16(%rsp), %rax
	leaq	1(%rax), %rsi
	call	_ZdlPvm@PLT
.L1127:
	movq	32(%rsp), %rdi
	cmpq	%r13, %rdi
	je	.L1129
	movq	48(%rsp), %rax
	leaq	1(%rax), %rsi
	call	_ZdlPvm@PLT
.L1129:
	movq	64(%rsp), %rdi
	leaq	80(%rsp), %rax
	cmpq	%rax, %rdi
	je	.L1130
	movq	80(%rsp), %rax
	leaq	1(%rax), %rsi
	call	_ZdlPvm@PLT
.L1130:
	movq	%rbp, %rdi
.LEHB13:
	call	_Unwind_Resume@PLT
.LEHE13:
	.cfi_endproc
.LFE2319:
	.section	.gcc_except_table
.LLSDA2319:
	.byte	0xff
	.byte	0xff
	.byte	0x1
	.uleb128 .LLSDACSE2319-.LLSDACSB2319
.LLSDACSB2319:
	.uleb128 .LEHB9-.LFB2319
	.uleb128 .LEHE9-.LEHB9
	.uleb128 0
	.uleb128 0
	.uleb128 .LEHB10-.LFB2319
	.uleb128 .LEHE10-.LEHB10
	.uleb128 .L1132-.LFB2319
	.uleb128 0
	.uleb128 .LEHB11-.LFB2319
	.uleb128 .LEHE11-.LEHB11
	.uleb128 .L1133-.LFB2319
	.uleb128 0
	.uleb128 .LEHB12-.LFB2319
	.uleb128 .LEHE12-.LEHB12
	.uleb128 .L1134-.LFB2319
	.uleb128 0
	.uleb128 .LEHB13-.LFB2319
	.uleb128 .LEHE13-.LEHB13
	.uleb128 0
	.uleb128 0
.LLSDACSE2319:
	.section	.text._ZNSt12system_errorC2ESt10error_codePKc,"axG",@progbits,_ZNSt12system_errorC5ESt10error_codePKc,comdat
	.size	_ZNSt12system_errorC2ESt10error_codePKc, .-_ZNSt12system_errorC2ESt10error_codePKc
	.weak	_ZNSt12system_errorC1ESt10error_codePKc
	.set	_ZNSt12system_errorC1ESt10error_codePKc,_ZNSt12system_errorC2ESt10error_codePKc
	.section	.text._ZN4asio15system_categoryEv,"axG",@progbits,_ZN4asio15system_categoryEv,comdat
	.p2align 4
	.weak	_ZN4asio15system_categoryEv
	.type	_ZN4asio15system_categoryEv, @function
_ZN4asio15system_categoryEv:
.LFB2384:
	.cfi_startproc
	pushq	%r12
	.cfi_def_cfa_offset 16
	.cfi_offset 12, -16
	pushq	%rbp
	.cfi_def_cfa_offset 24
	.cfi_offset 6, -24
	subq	$8, %rsp
	.cfi_def_cfa_offset 32
	movq	_ZGVZN4asio15system_categoryEvE8instance@GOTPCREL(%rip), %rbp
	movzbl	0(%rbp), %eax
	testb	%al, %al
	je	.L1141
.L1148:
	movq	_ZZN4asio15system_categoryEvE8instance@GOTPCREL(%rip), %r12
	addq	$8, %rsp
	.cfi_remember_state
	.cfi_def_cfa_offset 24
	popq	%rbp
	.cfi_def_cfa_offset 16
	movq	%r12, %rax
	popq	%r12
	.cfi_def_cfa_offset 8
	ret
	.p2align 4,,10
	.p2align 3
.L1141:
	.cfi_restore_state
	movq	%rbp, %rdi
	call	__cxa_guard_acquire@PLT
	testl	%eax, %eax
	je	.L1148
	movq	_ZZN4asio15system_categoryEvE8instance@GOTPCREL(%rip), %r12
	movq	_ZN4asio6detail15system_categoryD1Ev@GOTPCREL(%rip), %rdi
	leaq	__dso_handle(%rip), %rdx
	movq	%r12, %rsi
	call	__cxa_atexit@PLT
	movq	%rbp, %rdi
	call	__cxa_guard_release@PLT
	addq	$8, %rsp
	.cfi_def_cfa_offset 24
	movq	%r12, %rax
	popq	%rbp
	.cfi_def_cfa_offset 16
	popq	%r12
	.cfi_def_cfa_offset 8
	ret
	.cfi_endproc
.LFE2384:
	.size	_ZN4asio15system_categoryEv, .-_ZN4asio15system_categoryEv
	.section	.text.unlikely._ZN4asio6detail14do_throw_errorERKSt10error_codePKc,"axG",@progbits,_ZN4asio6detail14do_throw_errorERKSt10error_codePKc,comdat
	.weak	_ZN4asio6detail14do_throw_errorERKSt10error_codePKc
	.type	_ZN4asio6detail14do_throw_errorERKSt10error_codePKc, @function
_ZN4asio6detail14do_throw_errorERKSt10error_codePKc:
.LFB2414:
	.cfi_startproc
	.cfi_personality 0x9b,DW.ref.__gxx_personality_v0
	.cfi_lsda 0x1b,.LLSDA2414
	pushq	%r12
	.cfi_def_cfa_offset 16
	.cfi_offset 12, -16
	movq	%rsi, %rcx
	pushq	%rbp
	.cfi_def_cfa_offset 24
	.cfi_offset 6, -24
	subq	$56, %rsp
	.cfi_def_cfa_offset 80
	movq	8(%rdi), %rdx
	movl	(%rdi), %esi
	movq	%fs:40, %rax
	movq	%rax, 40(%rsp)
	xorl	%eax, %eax
	leaq	8(%rsp), %r12
	movq	%r12, %rdi
.LEHB14:
	call	_ZNSt12system_errorC1ESt10error_codePKc@PLT
.LEHE14:
	movl	$32, %edi
	call	__cxa_allocate_exception@PLT
	movq	%r12, %rsi
	movq	%rax, %rdi
	movq	%rax, %rbp
	call	_ZNSt13runtime_errorC2ERKS_@PLT
	movq	_ZTVSt12system_error@GOTPCREL(%rip), %rax
	movq	%rbp, %rdi
	movups	24(%rsp), %xmm0
	movq	_ZNSt12system_errorD1Ev@GOTPCREL(%rip), %rdx
	movq	_ZTISt12system_error@GOTPCREL(%rip), %rsi
	addq	$16, %rax
	movups	%xmm0, 16(%rbp)
	movq	%rax, 0(%rbp)
.LEHB15:
	call	__cxa_throw@PLT
.LEHE15:
.L1152:
	movq	%rax, %rbp
.L1150:
	movq	%r12, %rdi
	call	_ZNSt12system_errorD1Ev@PLT
	movq	%rbp, %rdi
.LEHB16:
	call	_Unwind_Resume@PLT
.LEHE16:
	.cfi_endproc
.LFE2414:
	.section	.gcc_except_table
.LLSDA2414:
	.byte	0xff
	.byte	0xff
	.byte	0x1
	.uleb128 .LLSDACSE2414-.LLSDACSB2414
.LLSDACSB2414:
	.uleb128 .LEHB14-.LFB2414
	.uleb128 .LEHE14-.LEHB14
	.uleb128 0
	.uleb128 0
	.uleb128 .LEHB15-.LFB2414
	.uleb128 .LEHE15-.LEHB15
	.uleb128 .L1152-.LFB2414
	.uleb128 0
	.uleb128 .LEHB16-.LFB2414
	.uleb128 .LEHE16-.LEHB16
	.uleb128 0
	.uleb128 0
.LLSDACSE2414:
	.section	.text.unlikely._ZN4asio6detail14do_throw_errorERKSt10error_codePKc,"axG",@progbits,_ZN4asio6detail14do_throw_errorERKSt10error_codePKc,comdat
	.size	_ZN4asio6detail14do_throw_errorERKSt10error_codePKc, .-_ZN4asio6detail14do_throw_errorERKSt10error_codePKc
	.section	.rodata._ZN4asio6detail13epoll_reactor12fork_serviceENS_10io_service10fork_eventE.str1.1,"aMS",@progbits,1
.LC27:
	.string	"epoll"
.LC29:
	.string	"eventfd_select_interrupter"
.LC30:
	.string	"epoll re-registration"
	.section	.text._ZN4asio6detail13epoll_reactor12fork_serviceENS_10io_service10fork_eventE,"axG",@progbits,_ZN4asio6detail13epoll_reactor12fork_serviceENS_10io_service10fork_eventE,comdat
	.align 2
	.p2align 4
	.weak	_ZN4asio6detail13epoll_reactor12fork_serviceENS_10io_service10fork_eventE
	.type	_ZN4asio6detail13epoll_reactor12fork_serviceENS_10io_service10fork_eventE, @function
_ZN4asio6detail13epoll_reactor12fork_serviceENS_10io_service10fork_eventE:
.LFB3293:
	.cfi_startproc
	.cfi_personality 0x9b,DW.ref.__gxx_personality_v0
	.cfi_lsda 0x1b,.LLSDA3293
	pushq	%r15
	.cfi_def_cfa_offset 16
	.cfi_offset 15, -16
	pushq	%r14
	.cfi_def_cfa_offset 24
	.cfi_offset 14, -24
	pushq	%r13
	.cfi_def_cfa_offset 32
	.cfi_offset 13, -32
	pushq	%r12
	.cfi_def_cfa_offset 40
	.cfi_offset 12, -40
	pushq	%rbp
	.cfi_def_cfa_offset 48
	.cfi_offset 6, -48
	pushq	%rbx
	.cfi_def_cfa_offset 56
	.cfi_offset 3, -56
	subq	$120, %rsp
	.cfi_def_cfa_offset 176
	movq	%fs:40, %rax
	movq	%rax, 104(%rsp)
	xorl	%eax, %eax
	cmpl	$2, %esi
	je	.L1257
.L1154:
	movq	104(%rsp), %rax
	subq	%fs:40, %rax
	jne	.L1258
	addq	$120, %rsp
	.cfi_remember_state
	.cfi_def_cfa_offset 56
	popq	%rbx
	.cfi_def_cfa_offset 48
	popq	%rbp
	.cfi_def_cfa_offset 40
	popq	%r12
	.cfi_def_cfa_offset 32
	popq	%r13
	.cfi_def_cfa_offset 24
	popq	%r14
	.cfi_def_cfa_offset 16
	popq	%r15
	.cfi_def_cfa_offset 8
	ret
	.p2align 4,,10
	.p2align 3
.L1257:
	.cfi_restore_state
	movq	%rdi, %rbx
	movl	96(%rdi), %edi
	cmpl	$-1, %edi
	jne	.L1259
.L1156:
	movl	$-1, 96(%rbx)
	movl	$524288, %edi
	call	epoll_create1@PLT
	movl	%eax, %ebp
	cmpl	$-1, %eax
	je	.L1260
.L1157:
	movl	100(%rbx), %edi
	movl	%ebp, 96(%rbx)
	cmpl	$-1, %edi
	jne	.L1261
.L1163:
	movl	$-1, 100(%rbx)
	movl	$524288, %esi
	movl	$1, %edi
	call	timerfd_create@PLT
	movl	%eax, %ebp
	cmpl	$-1, %eax
	je	.L1262
.L1164:
	movl	92(%rbx), %r8d
	movl	88(%rbx), %edi
	movl	%ebp, 100(%rbx)
	leaq	88(%rbx), %r12
	cmpl	$-1, %r8d
	je	.L1165
	cmpl	%edi, %r8d
	jne	.L1263
.L1166:
.LEHB17:
	call	close@PLT
.L1167:
	movq	.LC28(%rip), %rax
	movl	$526336, %esi
	xorl	%edi, %edi
	movq	%rax, 88(%rbx)
	call	eventfd@PLT
	movd	%eax, %xmm0
	movl	%eax, %edx
	pshufd	$0, %xmm0, %xmm0
	movq	%xmm0, 88(%rbx)
	cmpl	$-1, %eax
	je	.L1264
.L1168:
	movl	96(%rbx), %edi
	leaq	20(%rsp), %rbp
	movl	$1, %esi
	movl	$-2147483639, 20(%rsp)
	movq	%rbp, %rcx
	movq	%r12, 24(%rsp)
	call	epoll_ctl@PLT
	leaq	64(%rsp), %rax
	movl	92(%rbx), %edi
	movl	$8, %edx
	movq	%rax, %rsi
	movq	%rax, 8(%rsp)
	movq	$1, 64(%rsp)
	call	write@PLT
.LEHE17:
	movl	100(%rbx), %edx
	cmpl	$-1, %edx
	jne	.L1265
.L1176:
	movl	88(%rbx), %edx
	movl	96(%rbx), %edi
	movl	$3, %esi
	movq	%r12, 68(%rsp)
	movq	8(%rsp), %rcx
	movl	$-2147483639, 64(%rsp)
	call	epoll_ctl@PLT
.L1182:
	leaq	120(%rbx), %r13
	movq	%r13, %rdi
	call	pthread_mutex_lock@PLT
	movq	160(%rbx), %r15
	testq	%r15, %r15
	jne	.L1183
	jmp	.L1189
	.p2align 4,,10
	.p2align 3
.L1184:
	movq	24(%r15), %r15
	testq	%r15, %r15
	je	.L1189
.L1183:
	movl	92(%r15), %eax
	movl	88(%r15), %edx
	movq	%rbp, %rcx
	movl	$1, %esi
	movl	96(%rbx), %edi
	movq	%r15, 24(%rsp)
	movl	%eax, 20(%rsp)
	call	epoll_ctl@PLT
	testl	%eax, %eax
	je	.L1184
	movq	_ZGVZN4asio15system_categoryEvE8instance@GOTPCREL(%rip), %r12
	movzbl	(%r12), %eax
	testb	%al, %al
	je	.L1185
.L1256:
	movq	_ZZN4asio15system_categoryEvE8instance@GOTPCREL(%rip), %r14
.L1186:
	call	__errno_location@PLT
	movq	%r14, 72(%rsp)
	movl	(%rax), %eax
	movl	%eax, 64(%rsp)
	testl	%eax, %eax
	je	.L1184
	movq	8(%rsp), %rdi
	leaq	.LC30(%rip), %rsi
.LEHB18:
	call	_ZN4asio6detail14do_throw_errorERKSt10error_codePKc@PLT
.LEHE18:
	.p2align 4,,10
	.p2align 3
.L1263:
	movl	%r8d, %edi
.LEHB19:
	call	close@PLT
	movl	88(%rbx), %edi
.L1165:
	cmpl	$-1, %edi
	je	.L1167
	jmp	.L1166
	.p2align 4,,10
	.p2align 3
.L1265:
	movl	96(%rbx), %edi
	leaq	100(%rbx), %rax
	movq	%rbp, %rcx
	movl	$1, %esi
	movl	$9, 20(%rsp)
	movq	%rax, 24(%rsp)
	call	epoll_ctl@PLT
	movl	100(%rbx), %edi
	cmpl	$-1, %edi
	je	.L1176
	movq	104(%rbx), %r12
	pxor	%xmm0, %xmm0
	movaps	%xmm0, 32(%rsp)
	testq	%r12, %r12
	je	.L1177
	movl	$300000000, %esi
	.p2align 4,,10
	.p2align 3
.L1179:
	movq	(%r12), %rax
	movq	%r12, %rdi
	call	*32(%rax)
	movq	8(%r12), %r12
	movq	%rax, %rsi
	testq	%r12, %r12
	jne	.L1179
	movabsq	$4835703278458516699, %rdx
	xorl	%r8d, %r8d
	movl	100(%rbx), %edi
	imulq	%rdx
	movq	%rsi, %rax
	sarq	$63, %rax
	sarq	$18, %rdx
	subq	%rax, %rdx
	testq	%rsi, %rsi
	movl	$1, %eax
	movq	%rdx, 48(%rsp)
	sete	%r8b
	je	.L1181
	imulq	$1000000, %rdx, %rdx
	subq	%rdx, %rsi
	imulq	$1000, %rsi, %rax
.L1181:
	movq	8(%rsp), %rcx
	leaq	32(%rsp), %rdx
	movl	%r8d, %esi
	movq	%rax, 56(%rsp)
	call	timerfd_settime@PLT
	jmp	.L1182
	.p2align 4,,10
	.p2align 3
.L1261:
	call	close@PLT
	jmp	.L1163
	.p2align 4,,10
	.p2align 3
.L1259:
	call	close@PLT
	jmp	.L1156
	.p2align 4,,10
	.p2align 3
.L1185:
	movq	%r12, %rdi
	call	__cxa_guard_acquire@PLT
	testl	%eax, %eax
	je	.L1256
	movq	_ZZN4asio15system_categoryEvE8instance@GOTPCREL(%rip), %r14
	movq	_ZN4asio6detail15system_categoryD1Ev@GOTPCREL(%rip), %rdi
	leaq	__dso_handle(%rip), %rdx
	movq	%r14, %rsi
	call	__cxa_atexit@PLT
	movq	%r12, %rdi
	call	__cxa_guard_release@PLT
	jmp	.L1186
	.p2align 4,,10
	.p2align 3
.L1189:
	movq	%r13, %rdi
	call	pthread_mutex_unlock@PLT
	jmp	.L1154
	.p2align 4,,10
	.p2align 3
.L1264:
	call	__errno_location@PLT
	cmpl	$22, (%rax)
	movq	%rax, %rbp
	je	.L1266
.L1170:
	leaq	96(%rsp), %rdi
	call	pipe@PLT
	testl	%eax, %eax
	je	.L1191
	movq	_ZGVZN4asio15system_categoryEvE8instance@GOTPCREL(%rip), %r13
	movzbl	0(%r13), %eax
	testb	%al, %al
	je	.L1172
.L1255:
	movq	_ZZN4asio15system_categoryEvE8instance@GOTPCREL(%rip), %r14
.L1173:
	movl	0(%rbp), %eax
	movq	%r14, 72(%rsp)
	movl	%eax, 64(%rsp)
	testl	%eax, %eax
	jne	.L1267
.L1171:
	movl	88(%rbx), %edx
	jmp	.L1168
	.p2align 4,,10
	.p2align 3
.L1262:
	call	__errno_location@PLT
	cmpl	$22, (%rax)
	jne	.L1164
	xorl	%esi, %esi
	movl	$1, %edi
	call	timerfd_create@PLT
	movl	%eax, %ebp
	cmpl	$-1, %eax
	je	.L1164
	movl	%eax, %edi
	movl	$1, %edx
	movl	$2, %esi
	xorl	%eax, %eax
	call	fcntl@PLT
	jmp	.L1164
	.p2align 4,,10
	.p2align 3
.L1260:
	call	__errno_location@PLT
	movq	%rax, %r13
	movl	(%rax), %eax
	subl	$22, %eax
	andl	$-17, %eax
	jne	.L1158
	movl	$20000, %edi
	call	epoll_create@PLT
	movl	%eax, %r12d
	cmpl	$-1, %eax
	je	.L1158
	movl	%eax, %edi
	movl	$1, %edx
	movl	$2, %esi
	xorl	%eax, %eax
	call	fcntl@PLT
	movl	%r12d, %ebp
	jmp	.L1157
.L1158:
	movq	_ZGVZN4asio15system_categoryEvE8instance@GOTPCREL(%rip), %r12
	movzbl	(%r12), %eax
	testb	%al, %al
	je	.L1159
.L1254:
	movq	_ZZN4asio15system_categoryEvE8instance@GOTPCREL(%rip), %r14
.L1160:
	movl	0(%r13), %eax
	movq	%r14, 72(%rsp)
	movl	%eax, 64(%rsp)
	testl	%eax, %eax
	je	.L1157
	leaq	64(%rsp), %rdi
	leaq	.LC27(%rip), %rsi
	call	_ZN4asio6detail14do_throw_errorERKSt10error_codePKc@PLT
	.p2align 4,,10
	.p2align 3
.L1191:
	movl	96(%rsp), %edi
	movl	$2048, %edx
	movl	$4, %esi
	xorl	%eax, %eax
	movl	%edi, 88(%rbx)
	call	fcntl@PLT
	movl	88(%rbx), %edi
	movl	$1, %edx
	xorl	%eax, %eax
	movl	$2, %esi
	call	fcntl@PLT
	movl	100(%rsp), %edi
	movl	$2048, %edx
	xorl	%eax, %eax
	movl	$4, %esi
	movl	%edi, 92(%rbx)
	call	fcntl@PLT
	movl	92(%rbx), %edi
	movl	$1, %edx
	xorl	%eax, %eax
	movl	$2, %esi
	call	fcntl@PLT
	jmp	.L1171
.L1159:
	movq	%r12, %rdi
	call	__cxa_guard_acquire@PLT
	testl	%eax, %eax
	je	.L1254
	movq	_ZZN4asio15system_categoryEvE8instance@GOTPCREL(%rip), %r14
	movq	_ZN4asio6detail15system_categoryD1Ev@GOTPCREL(%rip), %rdi
	leaq	__dso_handle(%rip), %rdx
	movq	%r14, %rsi
	call	__cxa_atexit@PLT
	movq	%r12, %rdi
	call	__cxa_guard_release@PLT
	jmp	.L1160
.L1266:
	xorl	%edi, %edi
	xorl	%esi, %esi
	call	eventfd@PLT
	movd	%eax, %xmm0
	movl	%eax, %edi
	pshufd	$0, %xmm0, %xmm0
	movq	%xmm0, 88(%rbx)
	cmpl	$-1, %eax
	je	.L1170
	movl	$2048, %edx
	movl	$4, %esi
	xorl	%eax, %eax
	call	fcntl@PLT
	movl	88(%rbx), %edi
	movl	$1, %edx
	xorl	%eax, %eax
	movl	$2, %esi
	call	fcntl@PLT
	movl	88(%rbx), %edx
	cmpl	$-1, %edx
	jne	.L1168
	jmp	.L1170
	.p2align 4,,10
	.p2align 3
.L1177:
	movq	$300, 48(%rsp)
	xorl	%r8d, %r8d
	xorl	%eax, %eax
	jmp	.L1181
.L1172:
	movq	%r13, %rdi
	call	__cxa_guard_acquire@PLT
	testl	%eax, %eax
	je	.L1255
	movq	_ZZN4asio15system_categoryEvE8instance@GOTPCREL(%rip), %r14
	movq	_ZN4asio6detail15system_categoryD1Ev@GOTPCREL(%rip), %rdi
	leaq	__dso_handle(%rip), %rdx
	movq	%r14, %rsi
	call	__cxa_atexit@PLT
	movq	%r13, %rdi
	call	__cxa_guard_release@PLT
	jmp	.L1173
.L1258:
	call	__stack_chk_fail@PLT
.L1267:
	leaq	64(%rsp), %rdi
	leaq	.LC29(%rip), %rsi
	call	_ZN4asio6detail14do_throw_errorERKSt10error_codePKc@PLT
.L1195:
	movq	%rax, %rbp
.L1190:
	movq	%r13, %rdi
	call	pthread_mutex_unlock@PLT
	movq	%rbp, %rdi
	call	_Unwind_Resume@PLT
.LEHE19:
	.cfi_endproc
.LFE3293:
	.section	.gcc_except_table
.LLSDA3293:
	.byte	0xff
	.byte	0xff
	.byte	0x1
	.uleb128 .LLSDACSE3293-.LLSDACSB3293
.LLSDACSB3293:
	.uleb128 .LEHB17-.LFB3293
	.uleb128 .LEHE17-.LEHB17
	.uleb128 0
	.uleb128 0
	.uleb128 .LEHB18-.LFB3293
	.uleb128 .LEHE18-.LEHB18
	.uleb128 .L1195-.LFB3293
	.uleb128 0
	.uleb128 .LEHB19-.LFB3293
	.uleb128 .LEHE19-.LEHB19
	.uleb128 0
	.uleb128 0
.LLSDACSE3293:
	.section	.text._ZN4asio6detail13epoll_reactor12fork_serviceENS_10io_service10fork_eventE,"axG",@progbits,_ZN4asio6detail13epoll_reactor12fork_serviceENS_10io_service10fork_eventE,comdat
	.size	_ZN4asio6detail13epoll_reactor12fork_serviceENS_10io_service10fork_eventE, .-_ZN4asio6detail13epoll_reactor12fork_serviceENS_10io_service10fork_eventE
	.section	.text._ZN4asio6detail13epoll_reactor32perform_io_cleanup_on_block_exitD2Ev,"axG",@progbits,_ZN4asio6detail13epoll_reactor32perform_io_cleanup_on_block_exitD5Ev,comdat
	.align 2
	.p2align 4
	.weak	_ZN4asio6detail13epoll_reactor32perform_io_cleanup_on_block_exitD2Ev
	.type	_ZN4asio6detail13epoll_reactor32perform_io_cleanup_on_block_exitD2Ev, @function
_ZN4asio6detail13epoll_reactor32perform_io_cleanup_on_block_exitD2Ev:
.LFB3317:
	.cfi_startproc
	.cfi_personality 0x9b,DW.ref.__gxx_personality_v0
	.cfi_lsda 0x1b,.LLSDA3317
	pushq	%r13
	.cfi_def_cfa_offset 16
	.cfi_offset 13, -16
	pushq	%r12
	.cfi_def_cfa_offset 24
	.cfi_offset 12, -24
	pushq	%rbp
	.cfi_def_cfa_offset 32
	.cfi_offset 6, -32
	pushq	%rbx
	.cfi_def_cfa_offset 40
	.cfi_offset 3, -40
	movq	%rdi, %rbx
	subq	$56, %rsp
	.cfi_def_cfa_offset 96
	movq	%fs:40, %rax
	movq	%rax, 40(%rsp)
	xorl	%eax, %eax
	cmpq	$0, 24(%rdi)
	je	.L1269
	movq	8(%rdi), %r12
	testq	%r12, %r12
	je	.L1268
	movq	(%rdi), %rax
	movq	40(%rax), %rbp
	cmpb	$0, 40(%rbp)
	je	.L1271
	data16	leaq	_ZN4asio6detail15keyword_tss_ptrINS0_10call_stackINS0_15task_io_serviceENS0_27task_io_service_thread_infoEE7contextEE6value_E@tlsgd(%rip), %rdi
	.value	0x6666
	rex64
	call	__tls_get_addr@PLT
	movq	(%rax), %rax
	testq	%rax, %rax
	jne	.L1274
	.p2align 4,,10
	.p2align 3
.L1271:
	leaq	48(%rbp), %r13
	movq	%r13, %rdi
	call	pthread_mutex_lock@PLT
	movq	8(%rbx), %rax
	testq	%rax, %rax
	je	.L1277
	movq	200(%rbp), %rdx
	testq	%rdx, %rdx
	je	.L1278
	movq	%rax, (%rdx)
.L1279:
	movq	16(%rbx), %rax
	pxor	%xmm0, %xmm0
	movq	%rax, 200(%rbp)
	movups	%xmm0, 8(%rbx)
.L1277:
	movq	136(%rbp), %rax
	orq	$1, %rax
	movq	%rax, 136(%rbp)
	cmpq	$1, %rax
	je	.L1280
	movq	%r13, %rdi
	call	pthread_mutex_unlock@PLT
	leaq	88(%rbp), %rdi
	call	pthread_cond_signal@PLT
.L1284:
	movq	8(%rbx), %rsi
	testq	%rsi, %rsi
	je	.L1268
	movq	%rsi, 8(%rsp)
	leaq	16(%rsp), %r12
	call	_ZNSt3_V215system_categoryEv@PLT
	movq	8(%rsp), %rsi
	movq	%rax, %rbp
	jmp	.L1287
	.p2align 4,,10
	.p2align 3
.L1285:
	movq	$0, (%rsi)
	movq	8(%rsi), %rax
	xorl	%ecx, %ecx
	movq	%r12, %rdx
	movl	$0, 16(%rsp)
	xorl	%edi, %edi
	movq	%rbp, 24(%rsp)
	call	*%rax
	movq	8(%rbx), %rsi
	testq	%rsi, %rsi
	je	.L1268
.L1287:
	movq	(%rsi), %rax
	movq	%rax, 8(%rbx)
	testq	%rax, %rax
	jne	.L1285
	movq	$0, 16(%rbx)
	jmp	.L1285
	.p2align 4,,10
	.p2align 3
.L1272:
	movq	16(%rax), %rax
	testq	%rax, %rax
	je	.L1271
.L1274:
	cmpq	(%rax), %rbp
	jne	.L1272
	movq	8(%rax), %rax
	testq	%rax, %rax
	je	.L1271
	movq	16(%rax), %rdx
	testq	%rdx, %rdx
	je	.L1275
	movq	%r12, (%rdx)
.L1276:
	movq	16(%rbx), %rdx
	movq	%rdx, 16(%rax)
	.p2align 4,,10
	.p2align 3
.L1268:
	movq	40(%rsp), %rax
	subq	%fs:40, %rax
	jne	.L1316
	addq	$56, %rsp
	.cfi_remember_state
	.cfi_def_cfa_offset 40
	popq	%rbx
	.cfi_def_cfa_offset 32
	popq	%rbp
	.cfi_def_cfa_offset 24
	popq	%r12
	.cfi_def_cfa_offset 16
	popq	%r13
	.cfi_def_cfa_offset 8
	ret
	.p2align 4,,10
	.p2align 3
.L1269:
	.cfi_restore_state
	movq	(%rdi), %rax
	movq	40(%rax), %rax
	lock addq	$1, 184(%rax)
	jmp	.L1284
	.p2align 4,,10
	.p2align 3
.L1280:
	cmpb	$0, 176(%rbp)
	jne	.L1282
	movq	144(%rbp), %rax
	testq	%rax, %rax
	je	.L1282
	movb	$1, 176(%rbp)
	leaq	88(%rax), %rdx
	leaq	16(%rsp), %r12
	movl	$3, %esi
	movq	%rdx, 20(%rsp)
	movl	88(%rax), %edx
	movq	%r12, %rcx
	movl	$-2147483639, 16(%rsp)
	movl	96(%rax), %edi
	call	epoll_ctl@PLT
.L1282:
	movq	%r13, %rdi
	call	pthread_mutex_unlock@PLT
	jmp	.L1284
.L1278:
	movq	%rax, 192(%rbp)
	jmp	.L1279
.L1275:
	movq	%r12, 8(%rax)
	jmp	.L1276
.L1316:
	call	__stack_chk_fail@PLT
	.cfi_endproc
.LFE3317:
	.section	.gcc_except_table
.LLSDA3317:
	.byte	0xff
	.byte	0xff
	.byte	0x1
	.uleb128 .LLSDACSE3317-.LLSDACSB3317
.LLSDACSB3317:
.LLSDACSE3317:
	.section	.text._ZN4asio6detail13epoll_reactor32perform_io_cleanup_on_block_exitD2Ev,"axG",@progbits,_ZN4asio6detail13epoll_reactor32perform_io_cleanup_on_block_exitD5Ev,comdat
	.size	_ZN4asio6detail13epoll_reactor32perform_io_cleanup_on_block_exitD2Ev, .-_ZN4asio6detail13epoll_reactor32perform_io_cleanup_on_block_exitD2Ev
	.weak	_ZN4asio6detail13epoll_reactor32perform_io_cleanup_on_block_exitD1Ev
	.set	_ZN4asio6detail13epoll_reactor32perform_io_cleanup_on_block_exitD1Ev,_ZN4asio6detail13epoll_reactor32perform_io_cleanup_on_block_exitD2Ev
	.section	.text._ZN4asio6detail13epoll_reactor16descriptor_state11do_completeEPNS0_15task_io_serviceEPNS0_25task_io_service_operationERKSt10error_codem,"axG",@progbits,_ZN4asio6detail13epoll_reactor16descriptor_state11do_completeEPNS0_15task_io_serviceEPNS0_25task_io_service_operationERKSt10error_codem,comdat
	.align 2
	.p2align 4
	.weak	_ZN4asio6detail13epoll_reactor16descriptor_state11do_completeEPNS0_15task_io_serviceEPNS0_25task_io_service_operationERKSt10error_codem
	.type	_ZN4asio6detail13epoll_reactor16descriptor_state11do_completeEPNS0_15task_io_serviceEPNS0_25task_io_service_operationERKSt10error_codem, @function
_ZN4asio6detail13epoll_reactor16descriptor_state11do_completeEPNS0_15task_io_serviceEPNS0_25task_io_service_operationERKSt10error_codem:
.LFB3323:
	.cfi_startproc
	.cfi_personality 0x9b,DW.ref.__gxx_personality_v0
	.cfi_lsda 0x1b,.LLSDA3323
	pushq	%r15
	.cfi_def_cfa_offset 16
	.cfi_offset 15, -16
	pushq	%r14
	.cfi_def_cfa_offset 24
	.cfi_offset 14, -24
	pushq	%r13
	.cfi_def_cfa_offset 32
	.cfi_offset 13, -32
	pushq	%r12
	.cfi_def_cfa_offset 40
	.cfi_offset 12, -40
	pushq	%rbp
	.cfi_def_cfa_offset 48
	.cfi_offset 6, -48
	pushq	%rbx
	.cfi_def_cfa_offset 56
	.cfi_offset 3, -56
	subq	$88, %rsp
	.cfi_def_cfa_offset 144
	movq	%rdx, 8(%rsp)
	movq	%fs:40, %rax
	movq	%rax, 72(%rsp)
	xorl	%eax, %eax
	testq	%rdi, %rdi
	je	.L1317
	leaq	40(%rsi), %r15
	movq	%rsi, %rbp
	movq	%rdi, %r14
	movl	%ecx, %r13d
	movq	%r15, %rdi
	subq	$-128, %rbp
	call	pthread_mutex_lock@PLT
	movq	-48(%rbp), %rax
	movq	_ZZN4asio6detail13epoll_reactor16descriptor_state10perform_ioEjE4flag@GOTPCREL(%rip), %r12
	movq	$0, 40(%rsp)
	movq	$0, 48(%rsp)
	movq	%rax, 32(%rsp)
	leaq	-12(%r12), %rax
	movq	$0, 56(%rsp)
	movq	%rax, (%rsp)
.L1326:
	movl	8(%r12), %eax
	orl	$24, %eax
	testl	%r13d, %eax
	jne	.L1398
.L1320:
	subq	$4, %r12
	subq	$16, %rbp
	cmpq	%r12, (%rsp)
	jne	.L1326
	movq	40(%rsp), %rbp
	movq	%rbp, 56(%rsp)
	testq	%rbp, %rbp
	je	.L1327
	movq	0(%rbp), %rax
	movq	%rax, 40(%rsp)
	testq	%rax, %rax
	je	.L1399
.L1328:
	movq	$0, 0(%rbp)
.L1327:
	movq	%r15, %rdi
	call	pthread_mutex_unlock@PLT
	cmpq	$0, 56(%rsp)
	je	.L1329
	movq	40(%rsp), %r12
	testq	%r12, %r12
	je	.L1330
	movq	32(%rsp), %rax
	movq	40(%rax), %rbx
	cmpb	$0, 40(%rbx)
	je	.L1331
	data16	leaq	_ZN4asio6detail15keyword_tss_ptrINS0_10call_stackINS0_15task_io_serviceENS0_27task_io_service_thread_infoEE7contextEE6value_E@tlsgd(%rip), %rdi
	.value	0x6666
	rex64
	call	__tls_get_addr@PLT
	movq	(%rax), %rax
	testq	%rax, %rax
	jne	.L1334
	jmp	.L1331
	.p2align 4,,10
	.p2align 3
.L1332:
	movq	16(%rax), %rax
	testq	%rax, %rax
	je	.L1331
.L1334:
	cmpq	(%rax), %rbx
	jne	.L1332
	movq	8(%rax), %rax
	testq	%rax, %rax
	je	.L1331
	movq	16(%rax), %rdx
	testq	%rdx, %rdx
	je	.L1335
	movq	%r12, (%rdx)
.L1336:
	movq	48(%rsp), %rdx
	movq	%rdx, 16(%rax)
	.p2align 4,,10
	.p2align 3
.L1330:
	testq	%rbp, %rbp
	je	.L1317
	movq	72(%rsp), %rax
	subq	%fs:40, %rax
	jne	.L1397
	movq	8(%rbp), %rax
	movq	8(%rsp), %rdx
	addq	$88, %rsp
	.cfi_remember_state
	.cfi_def_cfa_offset 56
	movq	%rbp, %rsi
	popq	%rbx
	.cfi_def_cfa_offset 48
	movq	%r14, %rdi
	popq	%rbp
	.cfi_def_cfa_offset 40
	xorl	%ecx, %ecx
	popq	%r12
	.cfi_def_cfa_offset 32
	popq	%r13
	.cfi_def_cfa_offset 24
	popq	%r14
	.cfi_def_cfa_offset 16
	popq	%r15
	.cfi_def_cfa_offset 8
.LEHB20:
	jmp	*%rax
.LEHE20:
	.p2align 4,,10
	.p2align 3
.L1317:
	.cfi_restore_state
	movq	72(%rsp), %rax
	subq	%fs:40, %rax
	jne	.L1397
	addq	$88, %rsp
	.cfi_remember_state
	.cfi_def_cfa_offset 56
	popq	%rbx
	.cfi_def_cfa_offset 48
	popq	%rbp
	.cfi_def_cfa_offset 40
	popq	%r12
	.cfi_def_cfa_offset 32
	popq	%r13
	.cfi_def_cfa_offset 24
	popq	%r14
	.cfi_def_cfa_offset 16
	popq	%r15
	.cfi_def_cfa_offset 8
	ret
	.p2align 4,,10
	.p2align 3
.L1398:
	.cfi_restore_state
	movq	0(%rbp), %rbx
	testq	%rbx, %rbx
	jne	.L1321
	jmp	.L1320
	.p2align 4,,10
	.p2align 3
.L1401:
	movq	%rbx, (%rdx)
	movq	%rbx, 48(%rsp)
.L1325:
	testq	%rax, %rax
	je	.L1320
	movq	%rax, %rbx
.L1321:
	movq	%rbx, %rdi
.LEHB21:
	call	*48(%rbx)
.LEHE21:
	testb	%al, %al
	je	.L1320
	movq	0(%rbp), %rdx
	xorl	%eax, %eax
	testq	%rdx, %rdx
	je	.L1322
	movq	(%rdx), %rax
	movq	%rax, 0(%rbp)
	testq	%rax, %rax
	je	.L1400
.L1323:
	movq	$0, (%rdx)
.L1322:
	movq	48(%rsp), %rdx
	movq	$0, (%rbx)
	testq	%rdx, %rdx
	jne	.L1401
	movq	%rbx, %xmm0
	punpcklqdq	%xmm0, %xmm0
	movups	%xmm0, 40(%rsp)
	jmp	.L1325
	.p2align 4,,10
	.p2align 3
.L1400:
	movq	$0, 8(%rbp)
	jmp	.L1323
	.p2align 4,,10
	.p2align 3
.L1329:
	movq	32(%rsp), %rax
	movq	40(%rax), %rax
	lock addq	$1, 184(%rax)
.L1343:
	movq	40(%rsp), %rsi
	testq	%rsi, %rsi
	movq	%rsi, (%rsp)
	je	.L1330
	call	_ZNSt3_V215system_categoryEv@PLT
	leaq	16(%rsp), %r12
	movq	(%rsp), %rsi
	movq	%rax, %rbx
	jmp	.L1346
	.p2align 4,,10
	.p2align 3
.L1344:
	movq	$0, (%rsi)
	movq	8(%rsi), %rax
	xorl	%ecx, %ecx
	movq	%r12, %rdx
	movl	$0, 16(%rsp)
	xorl	%edi, %edi
	movq	%rbx, 24(%rsp)
	call	*%rax
	movq	40(%rsp), %rsi
	testq	%rsi, %rsi
	je	.L1330
.L1346:
	movq	(%rsi), %rax
	movq	%rax, 40(%rsp)
	testq	%rax, %rax
	jne	.L1344
	movq	$0, 48(%rsp)
	jmp	.L1344
	.p2align 4,,10
	.p2align 3
.L1331:
	leaq	48(%rbx), %r13
	movq	%r13, %rdi
	call	pthread_mutex_lock@PLT
	movq	40(%rsp), %rax
	testq	%rax, %rax
	je	.L1337
	movq	200(%rbx), %rdx
	testq	%rdx, %rdx
	je	.L1338
	movq	%rax, (%rdx)
.L1339:
	movq	48(%rsp), %rax
	pxor	%xmm0, %xmm0
	movups	%xmm0, 40(%rsp)
	movq	%rax, 200(%rbx)
.L1337:
	movq	136(%rbx), %rax
	orq	$1, %rax
	movq	%rax, 136(%rbx)
	cmpq	$1, %rax
	je	.L1340
	movq	%r13, %rdi
	call	pthread_mutex_unlock@PLT
	leaq	88(%rbx), %rdi
	call	pthread_cond_signal@PLT
	jmp	.L1343
	.p2align 4,,10
	.p2align 3
.L1399:
	movq	$0, 48(%rsp)
	jmp	.L1328
	.p2align 4,,10
	.p2align 3
.L1340:
	cmpb	$0, 176(%rbx)
	jne	.L1342
	movq	144(%rbx), %rax
	testq	%rax, %rax
	je	.L1342
	movb	$1, 176(%rbx)
	leaq	88(%rax), %rdx
	leaq	16(%rsp), %r12
	movl	$3, %esi
	movq	%rdx, 20(%rsp)
	movl	88(%rax), %edx
	movq	%r12, %rcx
	movl	$-2147483639, 16(%rsp)
	movl	96(%rax), %edi
	call	epoll_ctl@PLT
.L1342:
	movq	%r13, %rdi
	call	pthread_mutex_unlock@PLT
	jmp	.L1343
.L1335:
	movq	%r12, 8(%rax)
	jmp	.L1336
.L1338:
	movq	%rax, 192(%rbx)
	jmp	.L1339
.L1397:
	call	__stack_chk_fail@PLT
.L1353:
	movq	%rax, %rbp
.L1347:
	movq	%r15, %rdi
	call	pthread_mutex_unlock@PLT
	leaq	32(%rsp), %rdi
	call	_ZN4asio6detail13epoll_reactor32perform_io_cleanup_on_block_exitD1Ev@PLT
	movq	%rbp, %rdi
.LEHB22:
	call	_Unwind_Resume@PLT
.LEHE22:
	.cfi_endproc
.LFE3323:
	.section	.gcc_except_table
.LLSDA3323:
	.byte	0xff
	.byte	0xff
	.byte	0x1
	.uleb128 .LLSDACSE3323-.LLSDACSB3323
.LLSDACSB3323:
	.uleb128 .LEHB20-.LFB3323
	.uleb128 .LEHE20-.LEHB20
	.uleb128 0
	.uleb128 0
	.uleb128 .LEHB21-.LFB3323
	.uleb128 .LEHE21-.LEHB21
	.uleb128 .L1353-.LFB3323
	.uleb128 0
	.uleb128 .LEHB22-.LFB3323
	.uleb128 .LEHE22-.LEHB22
	.uleb128 0
	.uleb128 0
.LLSDACSE3323:
	.section	.text._ZN4asio6detail13epoll_reactor16descriptor_state11do_completeEPNS0_15task_io_serviceEPNS0_25task_io_service_operationERKSt10error_codem,"axG",@progbits,_ZN4asio6detail13epoll_reactor16descriptor_state11do_completeEPNS0_15task_io_serviceEPNS0_25task_io_service_operationERKSt10error_codem,comdat
	.size	_ZN4asio6detail13epoll_reactor16descriptor_state11do_completeEPNS0_15task_io_serviceEPNS0_25task_io_service_operationERKSt10error_codem, .-_ZN4asio6detail13epoll_reactor16descriptor_state11do_completeEPNS0_15task_io_serviceEPNS0_25task_io_service_operationERKSt10error_codem
	.section	.text._ZN4asio6detail15task_io_service25post_immediate_completionEPNS0_25task_io_service_operationEb,"axG",@progbits,_ZN4asio6detail15task_io_service25post_immediate_completionEPNS0_25task_io_service_operationEb,comdat
	.align 2
	.p2align 4
	.weak	_ZN4asio6detail15task_io_service25post_immediate_completionEPNS0_25task_io_service_operationEb
	.type	_ZN4asio6detail15task_io_service25post_immediate_completionEPNS0_25task_io_service_operationEb, @function
_ZN4asio6detail15task_io_service25post_immediate_completionEPNS0_25task_io_service_operationEb:
.LFB3355:
	.cfi_startproc
	pushq	%r12
	.cfi_def_cfa_offset 16
	.cfi_offset 12, -16
	pushq	%rbp
	.cfi_def_cfa_offset 24
	.cfi_offset 6, -24
	movq	%rsi, %rbp
	pushq	%rbx
	.cfi_def_cfa_offset 32
	.cfi_offset 3, -32
	movq	%rdi, %rbx
	subq	$32, %rsp
	.cfi_def_cfa_offset 64
	movq	%fs:40, %rax
	movq	%rax, 24(%rsp)
	xorl	%eax, %eax
	cmpb	$0, 40(%rdi)
	jne	.L1417
	testb	%dl, %dl
	je	.L1403
.L1417:
	data16	leaq	_ZN4asio6detail15keyword_tss_ptrINS0_10call_stackINS0_15task_io_serviceENS0_27task_io_service_thread_infoEE7contextEE6value_E@tlsgd(%rip), %rdi
	.value	0x6666
	rex64
	call	__tls_get_addr@PLT
	movq	(%rax), %rax
	testq	%rax, %rax
	jne	.L1407
	jmp	.L1403
	.p2align 4,,10
	.p2align 3
.L1405:
	movq	16(%rax), %rax
	testq	%rax, %rax
	je	.L1403
.L1407:
	cmpq	(%rax), %rbx
	jne	.L1405
	movq	8(%rax), %rax
	testq	%rax, %rax
	je	.L1403
	addq	$1, 24(%rax)
	cmpq	$0, 16(%rax)
	movq	$0, 0(%rbp)
	je	.L1408
	movq	16(%rax), %rdx
	movq	%rbp, (%rdx)
	movq	%rbp, 16(%rax)
.L1402:
	movq	24(%rsp), %rax
	subq	%fs:40, %rax
	jne	.L1429
	addq	$32, %rsp
	.cfi_remember_state
	.cfi_def_cfa_offset 32
	popq	%rbx
	.cfi_def_cfa_offset 24
	popq	%rbp
	.cfi_def_cfa_offset 16
	popq	%r12
	.cfi_def_cfa_offset 8
	ret
	.p2align 4,,10
	.p2align 3
.L1403:
	.cfi_restore_state
	lock addq	$1, 184(%rbx)
	leaq	48(%rbx), %r12
	movq	%r12, %rdi
	call	pthread_mutex_lock@PLT
	cmpq	$0, 200(%rbx)
	movq	$0, 0(%rbp)
	je	.L1410
	movq	200(%rbx), %rax
	movq	%rbp, (%rax)
	movq	%rbp, 200(%rbx)
.L1411:
	movq	136(%rbx), %rax
	orq	$1, %rax
	movq	%rax, 136(%rbx)
	cmpq	$1, %rax
	je	.L1412
	movq	%r12, %rdi
	call	pthread_mutex_unlock@PLT
	movq	24(%rsp), %rax
	subq	%fs:40, %rax
	jne	.L1429
	addq	$32, %rsp
	.cfi_remember_state
	.cfi_def_cfa_offset 32
	leaq	88(%rbx), %rdi
	popq	%rbx
	.cfi_def_cfa_offset 24
	popq	%rbp
	.cfi_def_cfa_offset 16
	popq	%r12
	.cfi_def_cfa_offset 8
	jmp	pthread_cond_signal@PLT
	.p2align 4,,10
	.p2align 3
.L1412:
	.cfi_restore_state
	cmpb	$0, 176(%rbx)
	jne	.L1414
	movq	144(%rbx), %rax
	testq	%rax, %rax
	je	.L1414
	leaq	88(%rax), %rdx
	movb	$1, 176(%rbx)
	movl	96(%rax), %edi
	leaq	12(%rsp), %rcx
	movq	%rdx, 16(%rsp)
	movl	88(%rax), %edx
	movl	$3, %esi
	movl	$-2147483639, 12(%rsp)
	call	epoll_ctl@PLT
.L1414:
	movq	24(%rsp), %rax
	subq	%fs:40, %rax
	jne	.L1429
	addq	$32, %rsp
	.cfi_remember_state
	.cfi_def_cfa_offset 32
	movq	%r12, %rdi
	popq	%rbx
	.cfi_def_cfa_offset 24
	popq	%rbp
	.cfi_def_cfa_offset 16
	popq	%r12
	.cfi_def_cfa_offset 8
	jmp	pthread_mutex_unlock@PLT
	.p2align 4,,10
	.p2align 3
.L1410:
	.cfi_restore_state
	movq	%rbp, %xmm0
	punpcklqdq	%xmm0, %xmm0
	movups	%xmm0, 192(%rbx)
	jmp	.L1411
	.p2align 4,,10
	.p2align 3
.L1408:
	movq	%rbp, %xmm0
	punpcklqdq	%xmm0, %xmm0
	movups	%xmm0, 8(%rax)
	jmp	.L1402
.L1429:
	call	__stack_chk_fail@PLT
	.cfi_endproc
.LFE3355:
	.size	_ZN4asio6detail15task_io_service25post_immediate_completionEPNS0_25task_io_service_operationEb, .-_ZN4asio6detail15task_io_service25post_immediate_completionEPNS0_25task_io_service_operationEb
	.section	.text.unlikely
	.align 2
.LCOLDB31:
	.text
.LHOTB31:
	.align 2
	.p2align 4
	.globl	_ZN7asiopal13SerialChannel14BeginWriteImplERKN7openpal6RSliceE
	.type	_ZN7asiopal13SerialChannel14BeginWriteImplERKN7openpal6RSliceE, @function
_ZN7asiopal13SerialChannel14BeginWriteImplERKN7openpal6RSliceE:
.LFB7049:
	.cfi_startproc
	.cfi_personality 0x9b,DW.ref.__gxx_personality_v0
	.cfi_lsda 0x1b,.LLSDA7049
	pushq	%r15
	.cfi_def_cfa_offset 16
	.cfi_offset 15, -16
	pushq	%r14
	.cfi_def_cfa_offset 24
	.cfi_offset 14, -24
	leaq	64(%rdi), %r14
	pushq	%r13
	.cfi_def_cfa_offset 32
	.cfi_offset 13, -32
	pushq	%r12
	.cfi_def_cfa_offset 40
	.cfi_offset 12, -40
	pushq	%rbp
	.cfi_def_cfa_offset 48
	.cfi_offset 6, -48
	pushq	%rbx
	.cfi_def_cfa_offset 56
	.cfi_offset 3, -56
	movq	%rdi, %rbx
	subq	$184, %rsp
	.cfi_def_cfa_offset 240
	movl	(%rsi), %r12d
	movq	%fs:40, %rax
	movq	%rax, 168(%rsp)
	movq	24(%rdi), %rax
	movdqu	40(%rax), %xmm0
	movq	48(%rax), %rbp
	movq	8(%rsi), %rax
	movaps	%xmm0, 16(%rsp)
	movq	%rax, (%rsp)
	call	_ZNSt3_V215system_categoryEv@PLT
	movdqa	16(%rsp), %xmm0
	movq	%r14, %xmm1
	cmpq	$65536, %r12
	movq	%rax, %r13
	movl	$65536, %eax
	movhps	(%rsp), %xmm1
	movq	%r12, 112(%rsp)
	cmovbe	%r12, %rax
	movl	$1, 120(%rsp)
	movq	$0, 128(%rsp)
	movq	%rax, 8(%rsp)
	movq	80(%rbx), %rax
	movq	%rbx, 152(%rsp)
	movq	%rax, 32(%rsp)
	movaps	%xmm1, 96(%rsp)
	movups	%xmm0, 136(%rsp)
	data16	leaq	_ZN4asio6detail15keyword_tss_ptrINS0_10call_stackINS0_14strand_service11strand_implEhE7contextEE6value_E@tlsgd(%rip), %rdi
	.value	0x6666
	rex64
	call	__tls_get_addr@PLT
	movq	(%rax), %rax
	testq	%rax, %rax
	jne	.L1433
	jmp	.L1505
	.p2align 4,,10
	.p2align 3
.L1432:
	movq	16(%rax), %rax
	testq	%rax, %rax
	je	.L1505
.L1433:
	cmpq	(%rax), %rbp
	jne	.L1432
	cmpq	$0, 8(%rax)
	setne	%al
	setne	16(%rsp)
	movzbl	%al, %eax
	movl	%eax, 44(%rsp)
.L1431:
	pxor	%xmm0, %xmm0
	leaq	96(%rsp), %rax
	movq	%rax, 64(%rsp)
	movups	%xmm0, 72(%rsp)
	data16	leaq	_ZN4asio6detail15keyword_tss_ptrINS0_10call_stackINS0_15task_io_serviceENS0_27task_io_service_thread_infoEE7contextEE6value_E@tlsgd(%rip), %rdi
	.value	0x6666
	rex64
	call	__tls_get_addr@PLT
	movq	(%rax), %rax
	testq	%rax, %rax
	je	.L1434
	movq	8(%rax), %rax
	testq	%rax, %rax
	je	.L1434
	movq	(%rax), %rbp
	testq	%rbp, %rbp
	je	.L1434
	movq	$0, (%rax)
	movzbl	0(%rbp), %eax
	cmpb	$-113, %al
	jbe	.L1435
	movb	%al, 144(%rbp)
	xorl	%edx, %edx
	movl	$1, %ecx
.L1436:
	leaq	_ZN4asio6detail19descriptor_write_opINS_15const_buffers_1ENS0_8write_opINS_17basic_serial_portINS_19serial_port_serviceEEES2_NS0_14transfer_all_tENS0_15wrapped_handlerINS_10io_service6strandEZN7asiopal13SerialChannel14BeginWriteImplERKN7openpal6RSliceEEUlRKSt10error_codemE_NS0_26is_continuation_if_runningEEEEEE11do_completeEPNS0_15task_io_serviceEPNS0_25task_io_service_operationESJ_m(%rip), %rax
	movl	64(%rbx), %r15d
	movq	%r13, 32(%rbp)
	movq	%rbp, 72(%rsp)
	movdqu	104(%rsp), %xmm2
	movdqu	136(%rsp), %xmm3
	movq	%rax, 8(%rbp)
	movq	_ZN4asio6detail24descriptor_write_op_baseINS_15const_buffers_1EE10do_performEPNS0_10reactor_opE@GOTPCREL(%rip), %rax
	movq	$0, 0(%rbp)
	movl	$0, 16(%rbp)
	movq	%rax, 48(%rbp)
	movq	(%rsp), %rax
	movl	$0, 24(%rbp)
	movq	%rax, 64(%rbp)
	movq	8(%rsp), %rax
	movq	$0, 40(%rbp)
	movq	%rax, 72(%rbp)
	movq	152(%rsp), %rax
	movl	%r15d, 56(%rbp)
	movq	%r14, 80(%rbp)
	movl	%ecx, 104(%rbp)
	movq	%rdx, 112(%rbp)
	movq	%rax, 136(%rbp)
	movq	%rbp, 80(%rsp)
	movups	%xmm2, 88(%rbp)
	movups	%xmm3, 120(%rbp)
	testq	%r12, %r12
	je	.L1437
	testb	$3, 68(%rbx)
	jne	.L1438
	cmpl	$-1, %r15d
	je	.L1602
	call	__errno_location@PLT
	movl	%r15d, %edi
	leaq	52(%rsp), %rdx
	movl	$21537, %esi
	movl	$0, (%rax)
	movq	%rax, %r14
	xorl	%eax, %eax
	movl	$1, 52(%rsp)
	call	ioctl@PLT
	movq	_ZGVZN4asio15system_categoryEvE8instance@GOTPCREL(%rip), %r12
	movl	%eax, %r15d
	movzbl	(%r12), %eax
	testb	%al, %al
	je	.L1443
.L1583:
	movq	_ZZN4asio15system_categoryEvE8instance@GOTPCREL(%rip), %rcx
.L1444:
	movl	(%r14), %eax
	movq	%rcx, 32(%rbp)
	movl	%eax, 24(%rbp)
	testl	%r15d, %r15d
	jns	.L1603
.L1437:
	movq	32(%rsp), %rax
	movq	40(%rax), %rax
	movq	40(%rax), %rbx
	cmpb	$0, 40(%rbx)
	jne	.L1510
	cmpb	$0, 16(%rsp)
	je	.L1493
.L1510:
	data16	leaq	_ZN4asio6detail15keyword_tss_ptrINS0_10call_stackINS0_15task_io_serviceENS0_27task_io_service_thread_infoEE7contextEE6value_E@tlsgd(%rip), %rdi
	.value	0x6666
	rex64
	call	__tls_get_addr@PLT
	movq	(%rax), %rax
	testq	%rax, %rax
	jne	.L1497
	jmp	.L1493
	.p2align 4,,10
	.p2align 3
.L1495:
	movq	16(%rax), %rax
	testq	%rax, %rax
	je	.L1493
.L1497:
	cmpq	(%rax), %rbx
	jne	.L1495
.L1601:
	movq	8(%rax), %rax
	testq	%rax, %rax
	je	.L1493
	addq	$1, 24(%rax)
	movq	$0, 0(%rbp)
	cmpq	$0, 16(%rax)
	je	.L1498
	movq	16(%rax), %rdx
	movq	%rbp, (%rdx)
	movq	%rbp, 16(%rax)
	jmp	.L1430
	.p2align 4,,10
	.p2align 3
.L1435:
	movq	%rbp, %rdi
	call	_ZdlPv@PLT
.L1434:
	movl	$145, %edi
.LEHB23:
	call	_Znwm@PLT
.LEHE23:
	movq	96(%rsp), %r14
	movl	120(%rsp), %ecx
	movb	$-112, 144(%rax)
	movq	128(%rsp), %rdx
	movq	%rax, %rbp
	jmp	.L1436
	.p2align 4,,10
	.p2align 3
.L1605:
	movq	_ZGVZN4asio15system_categoryEvE8instance@GOTPCREL(%rip), %r12
	movzbl	(%r12), %eax
	testb	%al, %al
	je	.L1448
.L1584:
	movq	_ZZN4asio15system_categoryEvE8instance@GOTPCREL(%rip), %rcx
.L1449:
	movq	40(%r13), %rbx
	movl	$9, 24(%rbp)
	movq	%rcx, 32(%rbp)
	cmpb	$0, 40(%rbx)
	jne	.L1507
	cmpb	$0, 16(%rsp)
	jne	.L1507
	.p2align 4,,10
	.p2align 3
.L1493:
	lock addq	$1, 184(%rbx)
	leaq	48(%rbx), %r12
	movq	%r12, %rdi
	call	pthread_mutex_lock@PLT
	movq	$0, 0(%rbp)
	cmpq	$0, 200(%rbx)
	je	.L1499
	movq	200(%rbx), %rax
	movq	%rbp, (%rax)
	movq	%rbp, 200(%rbx)
.L1500:
	movq	136(%rbx), %rax
	orq	$1, %rax
	movq	%rax, 136(%rbx)
	cmpq	$1, %rax
	je	.L1501
	movq	%r12, %rdi
	call	pthread_mutex_unlock@PLT
	leaq	88(%rbx), %rdi
	call	pthread_cond_signal@PLT
	.p2align 4,,10
	.p2align 3
.L1430:
	movq	168(%rsp), %rax
	subq	%fs:40, %rax
	jne	.L1604
	addq	$184, %rsp
	.cfi_remember_state
	.cfi_def_cfa_offset 56
	popq	%rbx
	.cfi_def_cfa_offset 48
	popq	%rbp
	.cfi_def_cfa_offset 40
	popq	%r12
	.cfi_def_cfa_offset 32
	popq	%r13
	.cfi_def_cfa_offset 24
	popq	%r14
	.cfi_def_cfa_offset 16
	popq	%r15
	.cfi_def_cfa_offset 8
	ret
	.p2align 4,,10
	.p2align 3
.L1603:
	.cfi_restore_state
	movl	$0, 24(%rbp)
	movl	64(%rbx), %r15d
	movq	%r13, 32(%rbp)
	orb	$2, 68(%rbx)
.L1438:
	movq	32(%rsp), %rax
	movq	72(%rbx), %r12
	movq	40(%rax), %r13
	testq	%r12, %r12
	je	.L1605
	addq	$40, %r12
	movq	%r12, %rdi
	call	pthread_mutex_lock@PLT
	movq	72(%rbx), %rax
	cmpb	$0, 144(%rax)
	jne	.L1606
	cmpq	$0, 112(%rax)
	je	.L1607
.L1476:
	movq	120(%rax), %rdx
	movq	$0, 0(%rbp)
	testq	%rdx, %rdx
	je	.L1490
	movq	%rbp, (%rdx)
	movq	%rbp, 120(%rax)
.L1491:
	movq	40(%r13), %rax
	lock addq	$1, 184(%rax)
	movq	%r12, %rdi
	call	pthread_mutex_unlock@PLT
	jmp	.L1430
	.p2align 4,,10
	.p2align 3
.L1501:
	cmpb	$0, 176(%rbx)
	jne	.L1470
	movq	144(%rbx), %rax
	testq	%rax, %rax
	je	.L1470
	movb	$1, 176(%rbx)
	leaq	88(%rax), %rdx
	leaq	52(%rsp), %rcx
	movl	$3, %esi
	movl	$-2147483639, 52(%rsp)
	movq	%rdx, 56(%rsp)
	movl	88(%rax), %edx
	movl	96(%rax), %edi
	call	epoll_ctl@PLT
.L1470:
	movq	%r12, %rdi
	call	pthread_mutex_unlock@PLT
	jmp	.L1430
	.p2align 4,,10
	.p2align 3
.L1505:
	movl	$0, 44(%rsp)
	movb	$0, 16(%rsp)
	jmp	.L1431
	.p2align 4,,10
	.p2align 3
.L1498:
	movq	%rbp, %xmm0
	punpcklqdq	%xmm0, %xmm0
	movups	%xmm0, 8(%rax)
	jmp	.L1430
	.p2align 4,,10
	.p2align 3
.L1490:
	movq	%rbp, %xmm0
	punpcklqdq	%xmm0, %xmm0
	movups	%xmm0, 112(%rax)
	jmp	.L1491
	.p2align 4,,10
	.p2align 3
.L1443:
	movq	%r12, %rdi
	call	__cxa_guard_acquire@PLT
	testl	%eax, %eax
	je	.L1583
	movq	_ZZN4asio15system_categoryEvE8instance@GOTPCREL(%rip), %rcx
	movq	_ZN4asio6detail15system_categoryD1Ev@GOTPCREL(%rip), %rdi
	leaq	__dso_handle(%rip), %rdx
	movq	%rcx, %rsi
	movq	%rcx, (%rsp)
	call	__cxa_atexit@PLT
	movq	%r12, %rdi
	call	__cxa_guard_release@PLT
	movq	(%rsp), %rcx
	jmp	.L1444
	.p2align 4,,10
	.p2align 3
.L1499:
	movq	%rbp, %xmm0
	punpcklqdq	%xmm0, %xmm0
	movups	%xmm0, 192(%rbx)
	jmp	.L1500
	.p2align 4,,10
	.p2align 3
.L1507:
	data16	leaq	_ZN4asio6detail15keyword_tss_ptrINS0_10call_stackINS0_15task_io_serviceENS0_27task_io_service_thread_infoEE7contextEE6value_E@tlsgd(%rip), %rdi
	.value	0x6666
	rex64
	call	__tls_get_addr@PLT
	movq	(%rax), %rax
	testq	%rax, %rax
	jne	.L1455
	jmp	.L1493
	.p2align 4,,10
	.p2align 3
.L1453:
	movq	16(%rax), %rax
	testq	%rax, %rax
	je	.L1493
.L1455:
	cmpq	(%rax), %rbx
	jne	.L1453
	jmp	.L1601
	.p2align 4,,10
	.p2align 3
.L1606:
	movq	40(%r13), %rbx
	cmpb	$0, 40(%rbx)
	jne	.L1508
	cmpb	$0, 16(%rsp)
	je	.L1464
.L1508:
	data16	leaq	_ZN4asio6detail15keyword_tss_ptrINS0_10call_stackINS0_15task_io_serviceENS0_27task_io_service_thread_infoEE7contextEE6value_E@tlsgd(%rip), %rdi
	.value	0x6666
	rex64
	call	__tls_get_addr@PLT
	movq	(%rax), %rax
	testq	%rax, %rax
	jne	.L1468
	jmp	.L1464
	.p2align 4,,10
	.p2align 3
.L1466:
	movq	16(%rax), %rax
	testq	%rax, %rax
	je	.L1464
.L1468:
	cmpq	(%rax), %rbx
	jne	.L1466
	movq	8(%rax), %rax
	testq	%rax, %rax
	je	.L1464
	addq	$1, 24(%rax)
	cmpq	$0, 16(%rax)
	movq	$0, 0(%rbp)
	je	.L1469
	movq	16(%rax), %rdx
	movq	%rbp, (%rdx)
	movq	%rbp, 16(%rax)
	jmp	.L1470
	.p2align 4,,10
	.p2align 3
.L1602:
	movq	_ZGVZN4asio15system_categoryEvE8instance@GOTPCREL(%rip), %r12
	movzbl	(%r12), %eax
	testb	%al, %al
	je	.L1440
.L1582:
	movq	_ZZN4asio15system_categoryEvE8instance@GOTPCREL(%rip), %rcx
.L1441:
	movl	$9, 24(%rbp)
	movq	%rcx, 32(%rbp)
	jmp	.L1437
	.p2align 4,,10
	.p2align 3
.L1607:
	movq	%rbp, %rdi
.LEHB24:
	call	*48(%rbp)
.LEHE24:
	testb	%al, %al
	jne	.L1608
	movq	72(%rbx), %rax
	movl	92(%rax), %edx
	testb	$4, %dl
	jne	.L1476
	orl	$4, %edx
	movq	%rax, 56(%rsp)
	leaq	52(%rsp), %rcx
	movl	$3, %esi
	movl	%edx, 52(%rsp)
	movl	96(%r13), %edi
	movl	%r15d, %edx
	call	epoll_ctl@PLT
	testl	%eax, %eax
	jne	.L1489
	movq	72(%rbx), %rax
	movl	52(%rsp), %edx
	orl	%edx, 92(%rax)
	jmp	.L1476
.L1448:
	movq	%r12, %rdi
	call	__cxa_guard_acquire@PLT
	testl	%eax, %eax
	je	.L1584
	movq	_ZZN4asio15system_categoryEvE8instance@GOTPCREL(%rip), %rcx
	movq	_ZN4asio6detail15system_categoryD1Ev@GOTPCREL(%rip), %rdi
	leaq	__dso_handle(%rip), %rdx
	movq	%rcx, %rsi
	movq	%rcx, (%rsp)
	call	__cxa_atexit@PLT
	movq	%r12, %rdi
	call	__cxa_guard_release@PLT
	movq	(%rsp), %rcx
	jmp	.L1449
.L1440:
	movq	%r12, %rdi
	call	__cxa_guard_acquire@PLT
	testl	%eax, %eax
	je	.L1582
	movq	_ZZN4asio15system_categoryEvE8instance@GOTPCREL(%rip), %rcx
	movq	_ZN4asio6detail15system_categoryD1Ev@GOTPCREL(%rip), %rdi
	leaq	__dso_handle(%rip), %rdx
	movq	%rcx, %rsi
	movq	%rcx, (%rsp)
	call	__cxa_atexit@PLT
	movq	%r12, %rdi
	call	__cxa_guard_release@PLT
	movq	(%rsp), %rcx
	jmp	.L1441
.L1464:
	lock addq	$1, 184(%rbx)
	leaq	48(%rbx), %r13
	movq	%r13, %rdi
	call	pthread_mutex_lock@PLT
	cmpq	$0, 200(%rbx)
	movq	$0, 0(%rbp)
	je	.L1471
	movq	200(%rbx), %rax
	movq	%rbp, (%rax)
	movq	%rbp, 200(%rbx)
.L1472:
	movq	136(%rbx), %rax
	orq	$1, %rax
	movq	%rax, 136(%rbx)
	cmpq	$1, %rax
	je	.L1473
	movq	%r13, %rdi
	call	pthread_mutex_unlock@PLT
	leaq	88(%rbx), %rdi
	call	pthread_cond_signal@PLT
	jmp	.L1470
.L1473:
	cmpb	$0, 176(%rbx)
	jne	.L1475
	movq	144(%rbx), %rax
	testq	%rax, %rax
	je	.L1475
	movb	$1, 176(%rbx)
	leaq	88(%rax), %rdx
	leaq	52(%rsp), %rcx
	movl	$3, %esi
	movq	%rdx, 56(%rsp)
	movl	88(%rax), %edx
	movl	$-2147483639, 52(%rsp)
	movl	96(%rax), %edi
	call	epoll_ctl@PLT
.L1475:
	movq	%r13, %rdi
	call	pthread_mutex_unlock@PLT
	jmp	.L1470
.L1471:
	movq	%rbp, %xmm0
	punpcklqdq	%xmm0, %xmm0
	movups	%xmm0, 192(%rbx)
	jmp	.L1472
.L1469:
	movq	%rbp, %xmm0
	punpcklqdq	%xmm0, %xmm0
	movups	%xmm0, 8(%rax)
	jmp	.L1470
.L1608:
	movq	%r12, %rdi
	call	pthread_mutex_unlock@PLT
	movq	40(%r13), %rbx
	cmpb	$0, 40(%rbx)
	jne	.L1509
	cmpb	$0, 16(%rsp)
	je	.L1493
.L1509:
	data16	leaq	_ZN4asio6detail15keyword_tss_ptrINS0_10call_stackINS0_15task_io_serviceENS0_27task_io_service_thread_infoEE7contextEE6value_E@tlsgd(%rip), %rdi
	.value	0x6666
	rex64
	call	__tls_get_addr@PLT
	movq	(%rax), %rax
	testq	%rax, %rax
	jne	.L1482
	jmp	.L1493
	.p2align 4,,10
	.p2align 3
.L1480:
	movq	16(%rax), %rax
	testq	%rax, %rax
	je	.L1493
.L1482:
	cmpq	(%rax), %rbx
	jne	.L1480
	jmp	.L1601
.L1489:
	call	_ZN4asio15system_categoryEv@PLT
	movq	%rax, %rbx
	call	__errno_location@PLT
	movq	40(%r13), %rdi
	movl	44(%rsp), %edx
	movq	%rbp, %rsi
	movl	(%rax), %eax
	movq	%rbx, 32(%rbp)
	movl	%eax, 24(%rbp)
	call	_ZN4asio6detail15task_io_service25post_immediate_completionEPNS0_25task_io_service_operationEb@PLT
	jmp	.L1470
.L1604:
	call	__stack_chk_fail@PLT
.L1506:
	movq	%rax, %rbp
	jmp	.L1492
	.section	.gcc_except_table
.LLSDA7049:
	.byte	0xff
	.byte	0xff
	.byte	0x1
	.uleb128 .LLSDACSE7049-.LLSDACSB7049
.LLSDACSB7049:
	.uleb128 .LEHB23-.LFB7049
	.uleb128 .LEHE23-.LEHB23
	.uleb128 0
	.uleb128 0
	.uleb128 .LEHB24-.LFB7049
	.uleb128 .LEHE24-.LEHB24
	.uleb128 .L1506-.LFB7049
	.uleb128 0
.LLSDACSE7049:
	.text
	.cfi_endproc
	.section	.text.unlikely
	.cfi_startproc
	.cfi_personality 0x9b,DW.ref.__gxx_personality_v0
	.cfi_lsda 0x1b,.LLSDAC7049
	.type	_ZN7asiopal13SerialChannel14BeginWriteImplERKN7openpal6RSliceE.cold, @function
_ZN7asiopal13SerialChannel14BeginWriteImplERKN7openpal6RSliceE.cold:
.LFSB7049:
.L1492:
	.cfi_def_cfa_offset 240
	.cfi_offset 3, -56
	.cfi_offset 6, -48
	.cfi_offset 12, -40
	.cfi_offset 13, -32
	.cfi_offset 14, -24
	.cfi_offset 15, -16
	movq	%r12, %rdi
	call	pthread_mutex_unlock@PLT
	leaq	64(%rsp), %rdi
	call	_ZN4asio6detail19descriptor_write_opINS_15const_buffers_1ENS0_8write_opINS_17basic_serial_portINS_19serial_port_serviceEEES2_NS0_14transfer_all_tENS0_15wrapped_handlerINS_10io_service6strandEZN7asiopal13SerialChannel14BeginWriteImplERKN7openpal6RSliceEEUlRKSt10error_codemE_NS0_26is_continuation_if_runningEEEEEE3ptr5resetEv
	movq	%rbp, %rdi
.LEHB25:
	call	_Unwind_Resume@PLT
.LEHE25:
	.cfi_endproc
.LFE7049:
	.section	.gcc_except_table
.LLSDAC7049:
	.byte	0xff
	.byte	0xff
	.byte	0x1
	.uleb128 .LLSDACSEC7049-.LLSDACSBC7049
.LLSDACSBC7049:
	.uleb128 .LEHB25-.LCOLDB31
	.uleb128 .LEHE25-.LEHB25
	.uleb128 0
	.uleb128 0
.LLSDACSEC7049:
	.section	.text.unlikely
	.text
	.size	_ZN7asiopal13SerialChannel14BeginWriteImplERKN7openpal6RSliceE, .-_ZN7asiopal13SerialChannel14BeginWriteImplERKN7openpal6RSliceE
	.section	.text.unlikely
	.size	_ZN7asiopal13SerialChannel14BeginWriteImplERKN7openpal6RSliceE.cold, .-_ZN7asiopal13SerialChannel14BeginWriteImplERKN7openpal6RSliceE.cold
.LCOLDE31:
	.text
.LHOTE31:
	.section	.text._ZN4asio6detail14strand_service16on_dispatch_exitD2Ev,"axG",@progbits,_ZN4asio6detail14strand_service16on_dispatch_exitD5Ev,comdat
	.align 2
	.p2align 4
	.weak	_ZN4asio6detail14strand_service16on_dispatch_exitD2Ev
	.type	_ZN4asio6detail14strand_service16on_dispatch_exitD2Ev, @function
_ZN4asio6detail14strand_service16on_dispatch_exitD2Ev:
.LFB6394:
	.cfi_startproc
	pushq	%r12
	.cfi_def_cfa_offset 16
	.cfi_offset 12, -16
	pushq	%rbp
	.cfi_def_cfa_offset 24
	.cfi_offset 6, -24
	pushq	%rbx
	.cfi_def_cfa_offset 32
	.cfi_offset 3, -32
	movq	%rdi, %rbx
	subq	$32, %rsp
	.cfi_def_cfa_offset 64
	movq	%fs:40, %rax
	movq	%rax, 24(%rsp)
	movq	8(%rdi), %rax
	leaq	24(%rax), %rdi
	call	pthread_mutex_lock@PLT
	movq	8(%rbx), %rdi
	movq	72(%rdi), %rbp
	testq	%rbp, %rbp
	je	.L1642
	movq	96(%rdi), %rax
	testq	%rax, %rax
	je	.L1612
	movq	%rbp, (%rax)
	movq	88(%rdi), %rbp
.L1613:
	movq	80(%rdi), %rax
	pxor	%xmm0, %xmm0
	movups	%xmm0, 72(%rdi)
	movq	%rax, 96(%rdi)
.L1611:
	testq	%rbp, %rbp
	setne	64(%rdi)
	addq	$24, %rdi
	call	pthread_mutex_unlock@PLT
	testq	%rbp, %rbp
	jne	.L1643
.L1609:
	movq	24(%rsp), %rax
	subq	%fs:40, %rax
	jne	.L1641
	addq	$32, %rsp
	.cfi_remember_state
	.cfi_def_cfa_offset 32
	popq	%rbx
	.cfi_def_cfa_offset 24
	popq	%rbp
	.cfi_def_cfa_offset 16
	popq	%r12
	.cfi_def_cfa_offset 8
	ret
	.p2align 4,,10
	.p2align 3
.L1612:
	.cfi_restore_state
	movq	%rbp, 88(%rdi)
	jmp	.L1613
	.p2align 4,,10
	.p2align 3
.L1643:
	movq	(%rbx), %rbp
	movq	8(%rbx), %rbx
	cmpb	$0, 40(%rbp)
	je	.L1615
	data16	leaq	_ZN4asio6detail15keyword_tss_ptrINS0_10call_stackINS0_15task_io_serviceENS0_27task_io_service_thread_infoEE7contextEE6value_E@tlsgd(%rip), %rdi
	.value	0x6666
	rex64
	call	__tls_get_addr@PLT
	movq	(%rax), %rax
	testq	%rax, %rax
	jne	.L1618
	jmp	.L1615
	.p2align 4,,10
	.p2align 3
.L1616:
	movq	16(%rax), %rax
	testq	%rax, %rax
	je	.L1615
.L1618:
	cmpq	(%rax), %rbp
	jne	.L1616
	movq	8(%rax), %rax
	testq	%rax, %rax
	je	.L1615
	addq	$1, 24(%rax)
	cmpq	$0, 16(%rax)
	movq	$0, (%rbx)
	je	.L1619
	movq	16(%rax), %rdx
	movq	%rbx, (%rdx)
	movq	%rbx, 16(%rax)
	jmp	.L1609
	.p2align 4,,10
	.p2align 3
.L1615:
	lock addq	$1, 184(%rbp)
	leaq	48(%rbp), %r12
	movq	%r12, %rdi
	call	pthread_mutex_lock@PLT
	cmpq	$0, 200(%rbp)
	movq	$0, (%rbx)
	je	.L1620
	movq	200(%rbp), %rax
	movq	%rbx, (%rax)
	movq	%rbx, 200(%rbp)
.L1621:
	movq	136(%rbp), %rax
	orq	$1, %rax
	movq	%rax, 136(%rbp)
	cmpq	$1, %rax
	je	.L1622
	movq	%r12, %rdi
	call	pthread_mutex_unlock@PLT
	movq	24(%rsp), %rax
	subq	%fs:40, %rax
	jne	.L1641
	addq	$32, %rsp
	.cfi_remember_state
	.cfi_def_cfa_offset 32
	leaq	88(%rbp), %rdi
	popq	%rbx
	.cfi_def_cfa_offset 24
	popq	%rbp
	.cfi_def_cfa_offset 16
	popq	%r12
	.cfi_def_cfa_offset 8
	jmp	pthread_cond_signal@PLT
	.p2align 4,,10
	.p2align 3
.L1642:
	.cfi_restore_state
	movq	88(%rdi), %rbp
	jmp	.L1611
	.p2align 4,,10
	.p2align 3
.L1620:
	movq	%rbx, %xmm0
	punpcklqdq	%xmm0, %xmm0
	movups	%xmm0, 192(%rbp)
	jmp	.L1621
	.p2align 4,,10
	.p2align 3
.L1622:
	cmpb	$0, 176(%rbp)
	jne	.L1624
	movq	144(%rbp), %rax
	testq	%rax, %rax
	je	.L1624
	leaq	88(%rax), %rdx
	movb	$1, 176(%rbp)
	movl	96(%rax), %edi
	leaq	12(%rsp), %rcx
	movq	%rdx, 16(%rsp)
	movl	88(%rax), %edx
	movl	$3, %esi
	movl	$-2147483639, 12(%rsp)
	call	epoll_ctl@PLT
.L1624:
	movq	24(%rsp), %rax
	subq	%fs:40, %rax
	jne	.L1641
	addq	$32, %rsp
	.cfi_remember_state
	.cfi_def_cfa_offset 32
	movq	%r12, %rdi
	popq	%rbx
	.cfi_def_cfa_offset 24
	popq	%rbp
	.cfi_def_cfa_offset 16
	popq	%r12
	.cfi_def_cfa_offset 8
	jmp	pthread_mutex_unlock@PLT
	.p2align 4,,10
	.p2align 3
.L1619:
	.cfi_restore_state
	movq	%rbx, %xmm0
	punpcklqdq	%xmm0, %xmm0
	movups	%xmm0, 8(%rax)
	jmp	.L1609
.L1641:
	call	__stack_chk_fail@PLT
	.cfi_endproc
.LFE6394:
	.size	_ZN4asio6detail14strand_service16on_dispatch_exitD2Ev, .-_ZN4asio6detail14strand_service16on_dispatch_exitD2Ev
	.weak	_ZN4asio6detail14strand_service16on_dispatch_exitD1Ev
	.set	_ZN4asio6detail14strand_service16on_dispatch_exitD1Ev,_ZN4asio6detail14strand_service16on_dispatch_exitD2Ev
	.section	.text.unlikely
	.align 2
.LCOLDB32:
	.text
.LHOTB32:
	.align 2
	.p2align 4
	.type	_ZN4asio6detail14strand_service8dispatchINS0_7binder2IZN7asiopal13SerialChannel13BeginReadImplEN7openpal6WSliceEEUlRKSt10error_codemE_S8_mEEEEvRPNS1_11strand_implERT_, @function
_ZN4asio6detail14strand_service8dispatchINS0_7binder2IZN7asiopal13SerialChannel13BeginReadImplEN7openpal6WSliceEEUlRKSt10error_codemE_S8_mEEEEvRPNS1_11strand_implERT_:
.LFB9401:
	.cfi_startproc
	.cfi_personality 0x9b,DW.ref.__gxx_personality_v0
	.cfi_lsda 0x1b,.LLSDA9401
	pushq	%r14
	.cfi_def_cfa_offset 16
	.cfi_offset 14, -16
	pushq	%r13
	.cfi_def_cfa_offset 24
	.cfi_offset 13, -24
	movq	%rdi, %r13
	pushq	%r12
	.cfi_def_cfa_offset 32
	.cfi_offset 12, -32
	movq	%rsi, %r12
	pushq	%rbp
	.cfi_def_cfa_offset 40
	.cfi_offset 6, -40
	movq	%rdx, %rbp
	pushq	%rbx
	.cfi_def_cfa_offset 48
	.cfi_offset 3, -48
	subq	$160, %rsp
	.cfi_def_cfa_offset 208
	movq	(%rsi), %rbx
	movq	%fs:40, %rax
	movq	%rax, 152(%rsp)
	xorl	%eax, %eax
	data16	leaq	_ZN4asio6detail15keyword_tss_ptrINS0_10call_stackINS0_14strand_service11strand_implEhE7contextEE6value_E@tlsgd(%rip), %rdi
	.value	0x6666
	rex64
	call	__tls_get_addr@PLT
	movq	(%rax), %rax
	testq	%rax, %rax
	jne	.L1648
	jmp	.L1645
	.p2align 4,,10
	.p2align 3
.L1646:
	movq	16(%rax), %rax
	testq	%rax, %rax
	je	.L1645
.L1648:
	cmpq	(%rax), %rbx
	jne	.L1646
	cmpq	$0, 8(%rax)
	je	.L1645
	lfence
	movq	0(%rbp), %rax
	movq	24(%rbp), %rdx
	movq	40(%rax), %rdi
	movb	$0, 57(%rax)
	testq	%rdi, %rdi
	je	.L1651
	cmpb	$0, 56(%rax)
	jne	.L1651
	movq	(%rdi), %rax
	leaq	8(%rbp), %rsi
.LEHB26:
	call	*16(%rax)
.LEHE26:
.L1651:
	sfence
.L1644:
	movq	152(%rsp), %rax
	subq	%fs:40, %rax
	jne	.L1780
	addq	$160, %rsp
	.cfi_remember_state
	.cfi_def_cfa_offset 48
	popq	%rbx
	.cfi_def_cfa_offset 40
	popq	%rbp
	.cfi_def_cfa_offset 32
	popq	%r12
	.cfi_def_cfa_offset 24
	popq	%r13
	.cfi_def_cfa_offset 16
	popq	%r14
	.cfi_def_cfa_offset 8
	ret
	.p2align 4,,10
	.p2align 3
.L1645:
	.cfi_restore_state
	pxor	%xmm0, %xmm0
	movq	%rbp, 16(%rsp)
	movups	%xmm0, 24(%rsp)
	data16	leaq	_ZN4asio6detail15keyword_tss_ptrINS0_10call_stackINS0_15task_io_serviceENS0_27task_io_service_thread_infoEE7contextEE6value_E@tlsgd(%rip), %rdi
	.value	0x6666
	rex64
	call	__tls_get_addr@PLT
	movq	(%rax), %rax
	testq	%rax, %rax
	je	.L1652
	movq	8(%rax), %rax
	testq	%rax, %rax
	je	.L1652
	movq	(%rax), %r14
	testq	%r14, %r14
	je	.L1652
	movq	$0, (%rax)
	movzbl	(%r14), %eax
	cmpb	$55, %al
	jbe	.L1653
	movb	%al, 56(%r14)
	jmp	.L1654
.L1653:
	movq	%r14, %rdi
	call	_ZdlPv@PLT
.L1652:
	movl	$57, %edi
.LEHB27:
	call	_Znwm@PLT
.LEHE27:
	movb	$56, 56(%rax)
	movq	%rax, %r14
.L1654:
	leaq	_ZN4asio6detail18completion_handlerINS0_7binder2IZN7asiopal13SerialChannel13BeginReadImplEN7openpal6WSliceEEUlRKSt10error_codemE_S7_mEEE11do_completeEPNS0_15task_io_serviceEPNS0_25task_io_service_operationES9_m(%rip), %rax
	movq	%r14, 24(%rsp)
	movdqu	0(%rbp), %xmm1
	movdqu	16(%rbp), %xmm2
	movq	40(%r13), %rbx
	movq	$0, (%r14)
	movq	%rax, 8(%r14)
	movl	$0, 16(%r14)
	movups	%xmm1, 24(%r14)
	movups	%xmm2, 40(%r14)
	movq	%r14, 32(%rsp)
	data16	leaq	_ZN4asio6detail15keyword_tss_ptrINS0_10call_stackINS0_15task_io_serviceENS0_27task_io_service_thread_infoEE7contextEE6value_E@tlsgd(%rip), %rdi
	.value	0x6666
	rex64
	call	__tls_get_addr@PLT
	movq	(%rax), %rax
	testq	%rax, %rax
	jne	.L1659
	jmp	.L1655
	.p2align 4,,10
	.p2align 3
.L1656:
	movq	16(%rax), %rax
	testq	%rax, %rax
	je	.L1655
.L1659:
	cmpq	(%rax), %rbx
	jne	.L1656
	movq	8(%rax), %rbx
	movq	(%r12), %rax
	leaq	24(%rax), %rdi
	call	pthread_mutex_lock@PLT
	testq	%rbx, %rbx
	je	.L1658
	movq	(%r12), %rax
	cmpb	$0, 64(%rax)
	leaq	24(%rax), %rdi
	je	.L1781
.L1660:
	cmpq	$0, 80(%rax)
	movq	$0, (%r14)
	je	.L1664
	movq	80(%rax), %rdx
	movq	%r14, (%rdx)
	movq	%r14, 80(%rax)
.L1779:
	call	pthread_mutex_unlock@PLT
	jmp	.L1644
.L1781:
	movb	$1, 64(%rax)
	call	pthread_mutex_unlock@PLT
	movq	(%r12), %r12
	pxor	%xmm0, %xmm0
	movq	32(%rsp), %rbp
	movups	%xmm0, 24(%rsp)
	movq	%r12, 48(%rsp)
	data16	leaq	_ZN4asio6detail15keyword_tss_ptrINS0_10call_stackINS0_14strand_service11strand_implEhE7contextEE6value_E@tlsgd(%rip), %rdi
	.value	0x6666
	rex64
	call	__tls_get_addr@PLT
	movdqu	24(%rbp), %xmm4
	movq	40(%r13), %rbx
	movq	%r12, %xmm3
	leaq	112(%rsp), %r12
	movq	%rbp, 88(%rsp)
	movaps	%xmm4, 112(%rsp)
	movq	%rbx, %xmm0
	movdqu	40(%rbp), %xmm5
	punpcklqdq	%xmm3, %xmm0
	movq	%r12, 80(%rsp)
	movq	$0, 96(%rsp)
	movaps	%xmm0, (%rsp)
	movq	(%rax), %rdx
	movaps	%xmm5, 128(%rsp)
	movq	%rdx, 64(%rsp)
	leaq	48(%rsp), %rdx
	movq	%rdx, (%rax)
	movq	%rdx, 56(%rsp)
	data16	leaq	_ZN4asio6detail15keyword_tss_ptrINS0_10call_stackINS0_15task_io_serviceENS0_27task_io_service_thread_infoEE7contextEE6value_E@tlsgd(%rip), %rdi
	.value	0x6666
	rex64
	call	__tls_get_addr@PLT
	movq	(%rax), %rax
	testq	%rax, %rax
	je	.L1662
	movq	8(%rax), %rax
	testq	%rax, %rax
	je	.L1662
	cmpq	$0, (%rax)
	je	.L1782
.L1662:
	movq	%rbp, %rdi
	call	_ZdlPv@PLT
.L1679:
	movq	$0, 88(%rsp)
	testq	%rbx, %rbx
	je	.L1680
	movq	112(%rsp), %rax
	movq	136(%rsp), %rdx
	movq	40(%rax), %rdi
	movb	$0, 57(%rax)
	testq	%rdi, %rdi
	je	.L1684
	cmpb	$0, 56(%rax)
	je	.L1783
.L1684:
	sfence
	cmpq	$0, 96(%rsp)
	je	.L1784
	movq	$0, 96(%rsp)
	movq	88(%rsp), %rbp
.L1685:
	testq	%rbp, %rbp
	je	.L1680
	data16	leaq	_ZN4asio6detail15keyword_tss_ptrINS0_10call_stackINS0_15task_io_serviceENS0_27task_io_service_thread_infoEE7contextEE6value_E@tlsgd(%rip), %rdi
	.value	0x6666
	rex64
	call	__tls_get_addr@PLT
	movq	(%rax), %rax
	testq	%rax, %rax
	je	.L1686
	movq	8(%rax), %rax
	testq	%rax, %rax
	je	.L1686
	cmpq	$0, (%rax)
	je	.L1785
.L1686:
	movq	%rbp, %rdi
	call	_ZdlPv@PLT
.L1680:
	movq	8(%rsp), %rax
	leaq	24(%rax), %rdi
	call	pthread_mutex_lock@PLT
	movq	8(%rsp), %rdi
	movq	72(%rdi), %rbx
	testq	%rbx, %rbx
	je	.L1786
	movq	96(%rdi), %rax
	testq	%rax, %rax
	je	.L1690
	movq	%rbx, (%rax)
	movq	88(%rdi), %rbx
.L1691:
	movq	80(%rdi), %rax
	pxor	%xmm0, %xmm0
	movups	%xmm0, 72(%rdi)
	movq	%rax, 96(%rdi)
.L1688:
	testq	%rbx, %rbx
	setne	64(%rdi)
	addq	$24, %rdi
	call	pthread_mutex_unlock@PLT
	testq	%rbx, %rbx
	jne	.L1787
.L1692:
	data16	leaq	_ZN4asio6detail15keyword_tss_ptrINS0_10call_stackINS0_14strand_service11strand_implEhE7contextEE6value_E@tlsgd(%rip), %rdi
	.value	0x6666
	rex64
	call	__tls_get_addr@PLT
	movq	64(%rsp), %rdx
	cmpq	$0, 32(%rsp)
	movq	24(%rsp), %rbp
	movq	%rdx, (%rax)
	je	.L1703
	movq	$0, 32(%rsp)
.L1703:
	testq	%rbp, %rbp
	je	.L1644
	data16	leaq	_ZN4asio6detail15keyword_tss_ptrINS0_10call_stackINS0_15task_io_serviceENS0_27task_io_service_thread_infoEE7contextEE6value_E@tlsgd(%rip), %rdi
	.value	0x6666
	rex64
	call	__tls_get_addr@PLT
	movq	(%rax), %rax
	testq	%rax, %rax
	je	.L1705
	movq	8(%rax), %rax
	testq	%rax, %rax
	je	.L1705
	cmpq	$0, (%rax)
	je	.L1788
.L1705:
	movq	%rbp, %rdi
	call	_ZdlPv@PLT
	jmp	.L1644
	.p2align 4,,10
	.p2align 3
.L1655:
	movq	(%r12), %rax
	leaq	24(%rax), %rdi
	call	pthread_mutex_lock@PLT
.L1658:
	movq	(%r12), %rax
	cmpb	$0, 64(%rax)
	leaq	24(%rax), %rdi
	jne	.L1660
	movb	$1, 64(%rax)
	call	pthread_mutex_unlock@PLT
	movq	(%r12), %rbp
	movq	$0, (%r14)
	cmpq	$0, 96(%rbp)
	je	.L1667
	movq	96(%rbp), %rax
	movq	%r14, (%rax)
	movq	%r14, 96(%rbp)
.L1668:
	movq	40(%r13), %rbx
	cmpb	$0, 40(%rbx)
	je	.L1669
	data16	leaq	_ZN4asio6detail15keyword_tss_ptrINS0_10call_stackINS0_15task_io_serviceENS0_27task_io_service_thread_infoEE7contextEE6value_E@tlsgd(%rip), %rdi
	.value	0x6666
	rex64
	call	__tls_get_addr@PLT
	movq	(%rax), %rax
	testq	%rax, %rax
	jne	.L1672
	jmp	.L1669
	.p2align 4,,10
	.p2align 3
.L1670:
	movq	16(%rax), %rax
	testq	%rax, %rax
	je	.L1669
.L1672:
	cmpq	(%rax), %rbx
	jne	.L1670
	movq	8(%rax), %rax
	testq	%rax, %rax
	je	.L1669
	addq	$1, 24(%rax)
	cmpq	$0, 16(%rax)
	movq	$0, 0(%rbp)
	je	.L1673
	movq	16(%rax), %rdx
	movq	%rbp, (%rdx)
	movq	%rbp, 16(%rax)
	jmp	.L1644
.L1669:
	lock addq	$1, 184(%rbx)
	leaq	48(%rbx), %r12
	movq	%r12, %rdi
	call	pthread_mutex_lock@PLT
	cmpq	$0, 200(%rbx)
	movq	$0, 0(%rbp)
	je	.L1674
	movq	200(%rbx), %rax
	movq	%rbp, (%rax)
	movq	%rbp, 200(%rbx)
.L1675:
	movq	136(%rbx), %rax
	orq	$1, %rax
	movq	%rax, 136(%rbx)
	cmpq	$1, %rax
	je	.L1676
	movq	%r12, %rdi
	call	pthread_mutex_unlock@PLT
	leaq	88(%rbx), %rdi
	call	pthread_cond_signal@PLT
	jmp	.L1644
.L1664:
	movq	%r14, %xmm0
	punpcklqdq	%xmm0, %xmm0
	movups	%xmm0, 72(%rax)
	jmp	.L1779
.L1783:
	movq	(%rdi), %rax
	leaq	120(%rsp), %rsi
.LEHB28:
	call	*16(%rax)
.LEHE28:
	jmp	.L1684
.L1674:
	movq	%rbp, %xmm0
	punpcklqdq	%xmm0, %xmm0
	movups	%xmm0, 192(%rbx)
	jmp	.L1675
.L1787:
	movq	(%rsp), %rbx
	movq	8(%rsp), %rbp
	cmpb	$0, 40(%rbx)
	je	.L1693
	data16	leaq	_ZN4asio6detail15keyword_tss_ptrINS0_10call_stackINS0_15task_io_serviceENS0_27task_io_service_thread_infoEE7contextEE6value_E@tlsgd(%rip), %rdi
	.value	0x6666
	rex64
	call	__tls_get_addr@PLT
	movq	(%rax), %rax
	testq	%rax, %rax
	jne	.L1696
	jmp	.L1693
	.p2align 4,,10
	.p2align 3
.L1694:
	movq	16(%rax), %rax
	testq	%rax, %rax
	je	.L1693
.L1696:
	cmpq	(%rax), %rbx
	jne	.L1694
	movq	8(%rax), %rax
	testq	%rax, %rax
	je	.L1693
	addq	$1, 24(%rax)
	cmpq	$0, 16(%rax)
	movq	$0, 0(%rbp)
	je	.L1697
	movq	16(%rax), %rdx
	movq	%rbp, (%rdx)
	movq	%rbp, 16(%rax)
	jmp	.L1692
.L1676:
	cmpb	$0, 176(%rbx)
	jne	.L1678
	movq	144(%rbx), %rax
	testq	%rax, %rax
	je	.L1678
	movb	$1, 176(%rbx)
	leaq	88(%rax), %rdx
	leaq	112(%rsp), %rcx
	movl	$3, %esi
	movq	%rdx, 116(%rsp)
	movl	88(%rax), %edx
	movl	$-2147483639, 112(%rsp)
	movl	96(%rax), %edi
	call	epoll_ctl@PLT
.L1678:
	movq	%r12, %rdi
	jmp	.L1779
.L1786:
	movq	88(%rdi), %rbx
	jmp	.L1688
.L1784:
	movq	88(%rsp), %rbp
	jmp	.L1685
.L1693:
	lock addq	$1, 184(%rbx)
	leaq	48(%rbx), %r13
	movq	%r13, %rdi
	call	pthread_mutex_lock@PLT
	cmpq	$0, 200(%rbx)
	movq	$0, 0(%rbp)
	je	.L1698
	movq	200(%rbx), %rax
	movq	%rbp, (%rax)
	movq	%rbp, 200(%rbx)
.L1699:
	movq	136(%rbx), %rax
	orq	$1, %rax
	movq	%rax, 136(%rbx)
	cmpq	$1, %rax
	je	.L1700
	movq	%r13, %rdi
	call	pthread_mutex_unlock@PLT
	leaq	88(%rbx), %rdi
	call	pthread_cond_signal@PLT
	jmp	.L1692
.L1690:
	movq	%rbx, 88(%rdi)
	jmp	.L1691
.L1700:
	cmpb	$0, 176(%rbx)
	jne	.L1702
	movq	144(%rbx), %rax
	testq	%rax, %rax
	je	.L1702
	movb	$1, 176(%rbx)
	leaq	88(%rax), %rdx
	movq	%r12, %rcx
	movl	$3, %esi
	movq	%rdx, 116(%rsp)
	movl	88(%rax), %edx
	movl	$-2147483639, 112(%rsp)
	movl	96(%rax), %edi
	call	epoll_ctl@PLT
.L1702:
	movq	%r13, %rdi
	call	pthread_mutex_unlock@PLT
	jmp	.L1692
.L1788:
	movzbl	56(%rbp), %edx
	movb	%dl, 0(%rbp)
	movq	%rbp, (%rax)
	jmp	.L1644
.L1667:
	movq	%r14, %xmm0
	punpcklqdq	%xmm0, %xmm0
	movups	%xmm0, 88(%rbp)
	jmp	.L1668
.L1785:
	movzbl	56(%rbp), %edx
	movb	%dl, 0(%rbp)
	movq	%rbp, (%rax)
	jmp	.L1680
.L1782:
	movzbl	56(%rbp), %edx
	movb	%dl, 0(%rbp)
	movq	%rbp, (%rax)
	jmp	.L1679
.L1698:
	movq	%rbp, %xmm0
	punpcklqdq	%xmm0, %xmm0
	movups	%xmm0, 192(%rbx)
	jmp	.L1699
.L1673:
	movq	%rbp, %xmm0
	punpcklqdq	%xmm0, %xmm0
	movups	%xmm0, 8(%rax)
	jmp	.L1644
.L1697:
	movq	%rbp, %xmm0
	punpcklqdq	%xmm0, %xmm0
	movups	%xmm0, 8(%rax)
	jmp	.L1692
.L1780:
	call	__stack_chk_fail@PLT
.L1708:
	movq	%rax, %rdi
	jmp	.L1706
.L1709:
	movq	%rax, %rbp
	jmp	.L1689
	.section	.gcc_except_table
.LLSDA9401:
	.byte	0xff
	.byte	0xff
	.byte	0x1
	.uleb128 .LLSDACSE9401-.LLSDACSB9401
.LLSDACSB9401:
	.uleb128 .LEHB26-.LFB9401
	.uleb128 .LEHE26-.LEHB26
	.uleb128 .L1708-.LFB9401
	.uleb128 0
	.uleb128 .LEHB27-.LFB9401
	.uleb128 .LEHE27-.LEHB27
	.uleb128 0
	.uleb128 0
	.uleb128 .LEHB28-.LFB9401
	.uleb128 .LEHE28-.LEHB28
	.uleb128 .L1709-.LFB9401
	.uleb128 0
.LLSDACSE9401:
	.text
	.cfi_endproc
	.section	.text.unlikely
	.cfi_startproc
	.cfi_personality 0x9b,DW.ref.__gxx_personality_v0
	.cfi_lsda 0x1b,.LLSDAC9401
	.type	_ZN4asio6detail14strand_service8dispatchINS0_7binder2IZN7asiopal13SerialChannel13BeginReadImplEN7openpal6WSliceEEUlRKSt10error_codemE_S8_mEEEEvRPNS1_11strand_implERT_.cold, @function
_ZN4asio6detail14strand_service8dispatchINS0_7binder2IZN7asiopal13SerialChannel13BeginReadImplEN7openpal6WSliceEEUlRKSt10error_codemE_S8_mEEEEvRPNS1_11strand_implERT_.cold:
.LFSB9401:
.L1706:
	.cfi_def_cfa_offset 208
	.cfi_offset 3, -48
	.cfi_offset 6, -40
	.cfi_offset 12, -32
	.cfi_offset 13, -24
	.cfi_offset 14, -16
	sfence
.LEHB29:
	call	_Unwind_Resume@PLT
.L1689:
	sfence
	leaq	80(%rsp), %rdi
	call	_ZN4asio6detail18completion_handlerINS0_7binder2IZN7asiopal13SerialChannel13BeginReadImplEN7openpal6WSliceEEUlRKSt10error_codemE_S7_mEEE3ptr5resetEv
	movq	%rsp, %rdi
	call	_ZN4asio6detail14strand_service16on_dispatch_exitD1Ev@PLT
	data16	leaq	_ZN4asio6detail15keyword_tss_ptrINS0_10call_stackINS0_14strand_service11strand_implEhE7contextEE6value_E@tlsgd(%rip), %rdi
	.value	0x6666
	rex64
	call	__tls_get_addr@PLT
	movq	64(%rsp), %rdx
	leaq	16(%rsp), %rdi
	movq	%rdx, (%rax)
	call	_ZN4asio6detail18completion_handlerINS0_7binder2IZN7asiopal13SerialChannel13BeginReadImplEN7openpal6WSliceEEUlRKSt10error_codemE_S7_mEEE3ptr5resetEv
	movq	%rbp, %rdi
	call	_Unwind_Resume@PLT
.LEHE29:
	.cfi_endproc
.LFE9401:
	.section	.gcc_except_table
.LLSDAC9401:
	.byte	0xff
	.byte	0xff
	.byte	0x1
	.uleb128 .LLSDACSEC9401-.LLSDACSBC9401
.LLSDACSBC9401:
	.uleb128 .LEHB29-.LCOLDB32
	.uleb128 .LEHE29-.LEHB29
	.uleb128 0
	.uleb128 0
.LLSDACSEC9401:
	.section	.text.unlikely
	.text
	.size	_ZN4asio6detail14strand_service8dispatchINS0_7binder2IZN7asiopal13SerialChannel13BeginReadImplEN7openpal6WSliceEEUlRKSt10error_codemE_S8_mEEEEvRPNS1_11strand_implERT_, .-_ZN4asio6detail14strand_service8dispatchINS0_7binder2IZN7asiopal13SerialChannel13BeginReadImplEN7openpal6WSliceEEUlRKSt10error_codemE_S8_mEEEEvRPNS1_11strand_implERT_
	.section	.text.unlikely
	.size	_ZN4asio6detail14strand_service8dispatchINS0_7binder2IZN7asiopal13SerialChannel13BeginReadImplEN7openpal6WSliceEEUlRKSt10error_codemE_S8_mEEEEvRPNS1_11strand_implERT_.cold, .-_ZN4asio6detail14strand_service8dispatchINS0_7binder2IZN7asiopal13SerialChannel13BeginReadImplEN7openpal6WSliceEEUlRKSt10error_codemE_S8_mEEEEvRPNS1_11strand_implERT_.cold
.LCOLDE32:
	.text
.LHOTE32:
	.section	.text.unlikely
.LCOLDB33:
	.text
.LHOTB33:
	.p2align 4
	.type	_ZN4asio6detail18completion_handlerINS0_17rewrapped_handlerINS0_7binder2INS0_15wrapped_handlerINS_10io_service6strandEZN7asiopal13SerialChannel13BeginReadImplEN7openpal6WSliceEEUlRKSt10error_codemE_NS0_26is_continuation_if_runningEEESB_mEESE_EEE11do_completeEPNS0_15task_io_serviceEPNS0_25task_io_service_operationESD_m, @function
_ZN4asio6detail18completion_handlerINS0_17rewrapped_handlerINS0_7binder2INS0_15wrapped_handlerINS_10io_service6strandEZN7asiopal13SerialChannel13BeginReadImplEN7openpal6WSliceEEUlRKSt10error_codemE_NS0_26is_continuation_if_runningEEESB_mEESE_EEE11do_completeEPNS0_15task_io_serviceEPNS0_25task_io_service_operationESD_m:
.LFB9329:
	.cfi_startproc
	.cfi_personality 0x9b,DW.ref.__gxx_personality_v0
	.cfi_lsda 0x1b,.LLSDA9329
	pushq	%rbp
	.cfi_def_cfa_offset 16
	.cfi_offset 6, -16
	movq	%rsi, %rbp
	pushq	%rbx
	.cfi_def_cfa_offset 24
	.cfi_offset 3, -24
	movq	%rdi, %rbx
	subq	$152, %rsp
	.cfi_def_cfa_offset 176
	movdqu	32(%rsi), %xmm0
	movdqu	56(%rsi), %xmm1
	movq	%fs:40, %rax
	movq	%rax, 136(%rsp)
	xorl	%eax, %eax
	movq	24(%rsi), %rax
	movq	%rsi, 8(%rsp)
	movq	$0, 16(%rsp)
	movq	%rax, 80(%rsp)
	movq	48(%rsi), %rax
	movups	%xmm0, 88(%rsp)
	movq	%rax, 104(%rsp)
	movq	72(%rsi), %rax
	movups	%xmm1, 112(%rsp)
	movq	%rax, 128(%rsp)
	leaq	80(%rsp), %rax
	movq	%rax, (%rsp)
	data16	leaq	_ZN4asio6detail15keyword_tss_ptrINS0_10call_stackINS0_15task_io_serviceENS0_27task_io_service_thread_infoEE7contextEE6value_E@tlsgd(%rip), %rdi
	.value	0x6666
	rex64
	call	__tls_get_addr@PLT
	movq	(%rax), %rax
	testq	%rax, %rax
	je	.L1790
	movq	8(%rax), %rax
	testq	%rax, %rax
	je	.L1790
	cmpq	$0, (%rax)
	je	.L1818
.L1790:
	movq	%rbp, %rdi
	call	_ZdlPv@PLT
.L1791:
	movq	$0, 8(%rsp)
	testq	%rbx, %rbx
	je	.L1789
	movq	104(%rsp), %rax
	movq	88(%rsp), %rdi
	leaq	32(%rsp), %rdx
	leaq	96(%rsp), %rsi
	movq	%rax, 32(%rsp)
	movl	112(%rsp), %eax
	movl	%eax, 40(%rsp)
	movq	120(%rsp), %rax
	movq	%rax, 48(%rsp)
	movq	128(%rsp), %rax
	movq	%rax, 56(%rsp)
.LEHB30:
	call	_ZN4asio6detail14strand_service8dispatchINS0_7binder2IZN7asiopal13SerialChannel13BeginReadImplEN7openpal6WSliceEEUlRKSt10error_codemE_S8_mEEEEvRPNS1_11strand_implERT_
.LEHE30:
	sfence
	cmpq	$0, 16(%rsp)
	movq	8(%rsp), %rbp
	je	.L1793
	movq	$0, 16(%rsp)
.L1793:
	testq	%rbp, %rbp
	je	.L1789
	data16	leaq	_ZN4asio6detail15keyword_tss_ptrINS0_10call_stackINS0_15task_io_serviceENS0_27task_io_service_thread_infoEE7contextEE6value_E@tlsgd(%rip), %rdi
	.value	0x6666
	rex64
	call	__tls_get_addr@PLT
	movq	(%rax), %rax
	testq	%rax, %rax
	je	.L1795
	movq	8(%rax), %rax
	testq	%rax, %rax
	je	.L1795
	cmpq	$0, (%rax)
	je	.L1819
.L1795:
	movq	%rbp, %rdi
	call	_ZdlPv@PLT
.L1789:
	movq	136(%rsp), %rax
	subq	%fs:40, %rax
	jne	.L1820
	addq	$152, %rsp
	.cfi_remember_state
	.cfi_def_cfa_offset 24
	popq	%rbx
	.cfi_def_cfa_offset 16
	popq	%rbp
	.cfi_def_cfa_offset 8
	ret
	.p2align 4,,10
	.p2align 3
.L1818:
	.cfi_restore_state
	movzbl	80(%rbp), %edx
	movb	%dl, 0(%rbp)
	movq	%rbp, (%rax)
	jmp	.L1791
	.p2align 4,,10
	.p2align 3
.L1819:
	movzbl	80(%rbp), %edx
	movb	%dl, 0(%rbp)
	movq	%rbp, (%rax)
	jmp	.L1789
.L1820:
	call	__stack_chk_fail@PLT
.L1798:
	movq	%rax, %rbp
	jmp	.L1796
	.section	.gcc_except_table
.LLSDA9329:
	.byte	0xff
	.byte	0xff
	.byte	0x1
	.uleb128 .LLSDACSE9329-.LLSDACSB9329
.LLSDACSB9329:
	.uleb128 .LEHB30-.LFB9329
	.uleb128 .LEHE30-.LEHB30
	.uleb128 .L1798-.LFB9329
	.uleb128 0
.LLSDACSE9329:
	.text
	.cfi_endproc
	.section	.text.unlikely
	.cfi_startproc
	.cfi_personality 0x9b,DW.ref.__gxx_personality_v0
	.cfi_lsda 0x1b,.LLSDAC9329
	.type	_ZN4asio6detail18completion_handlerINS0_17rewrapped_handlerINS0_7binder2INS0_15wrapped_handlerINS_10io_service6strandEZN7asiopal13SerialChannel13BeginReadImplEN7openpal6WSliceEEUlRKSt10error_codemE_NS0_26is_continuation_if_runningEEESB_mEESE_EEE11do_completeEPNS0_15task_io_serviceEPNS0_25task_io_service_operationESD_m.cold, @function
_ZN4asio6detail18completion_handlerINS0_17rewrapped_handlerINS0_7binder2INS0_15wrapped_handlerINS_10io_service6strandEZN7asiopal13SerialChannel13BeginReadImplEN7openpal6WSliceEEUlRKSt10error_codemE_NS0_26is_continuation_if_runningEEESB_mEESE_EEE11do_completeEPNS0_15task_io_serviceEPNS0_25task_io_service_operationESD_m.cold:
.LFSB9329:
.L1796:
	.cfi_def_cfa_offset 176
	.cfi_offset 3, -24
	.cfi_offset 6, -16
	sfence
	movq	%rsp, %rdi
	call	_ZN4asio6detail18completion_handlerINS0_17rewrapped_handlerINS0_7binder2INS0_15wrapped_handlerINS_10io_service6strandEZN7asiopal13SerialChannel13BeginReadImplEN7openpal6WSliceEEUlRKSt10error_codemE_NS0_26is_continuation_if_runningEEESB_mEESE_EEE3ptr5resetEv
	movq	%rbp, %rdi
.LEHB31:
	call	_Unwind_Resume@PLT
.LEHE31:
	.cfi_endproc
.LFE9329:
	.section	.gcc_except_table
.LLSDAC9329:
	.byte	0xff
	.byte	0xff
	.byte	0x1
	.uleb128 .LLSDACSEC9329-.LLSDACSBC9329
.LLSDACSBC9329:
	.uleb128 .LEHB31-.LCOLDB33
	.uleb128 .LEHE31-.LEHB31
	.uleb128 0
	.uleb128 0
.LLSDACSEC9329:
	.section	.text.unlikely
	.text
	.size	_ZN4asio6detail18completion_handlerINS0_17rewrapped_handlerINS0_7binder2INS0_15wrapped_handlerINS_10io_service6strandEZN7asiopal13SerialChannel13BeginReadImplEN7openpal6WSliceEEUlRKSt10error_codemE_NS0_26is_continuation_if_runningEEESB_mEESE_EEE11do_completeEPNS0_15task_io_serviceEPNS0_25task_io_service_operationESD_m, .-_ZN4asio6detail18completion_handlerINS0_17rewrapped_handlerINS0_7binder2INS0_15wrapped_handlerINS_10io_service6strandEZN7asiopal13SerialChannel13BeginReadImplEN7openpal6WSliceEEUlRKSt10error_codemE_NS0_26is_continuation_if_runningEEESB_mEESE_EEE11do_completeEPNS0_15task_io_serviceEPNS0_25task_io_service_operationESD_m
	.section	.text.unlikely
	.size	_ZN4asio6detail18completion_handlerINS0_17rewrapped_handlerINS0_7binder2INS0_15wrapped_handlerINS_10io_service6strandEZN7asiopal13SerialChannel13BeginReadImplEN7openpal6WSliceEEUlRKSt10error_codemE_NS0_26is_continuation_if_runningEEESB_mEESE_EEE11do_completeEPNS0_15task_io_serviceEPNS0_25task_io_service_operationESD_m.cold, .-_ZN4asio6detail18completion_handlerINS0_17rewrapped_handlerINS0_7binder2INS0_15wrapped_handlerINS_10io_service6strandEZN7asiopal13SerialChannel13BeginReadImplEN7openpal6WSliceEEUlRKSt10error_codemE_NS0_26is_continuation_if_runningEEESB_mEESE_EEE11do_completeEPNS0_15task_io_serviceEPNS0_25task_io_service_operationESD_m.cold
.LCOLDE33:
	.text
.LHOTE33:
	.section	.text.unlikely
.LCOLDB34:
	.text
.LHOTB34:
	.p2align 4
	.type	_ZN4asio6detail18descriptor_read_opINS_17mutable_buffers_1ENS0_15wrapped_handlerINS_10io_service6strandEZN7asiopal13SerialChannel13BeginReadImplEN7openpal6WSliceEEUlRKSt10error_codemE_NS0_26is_continuation_if_runningEEEE11do_completeEPNS0_15task_io_serviceEPNS0_25task_io_service_operationESC_m, @function
_ZN4asio6detail18descriptor_read_opINS_17mutable_buffers_1ENS0_15wrapped_handlerINS_10io_service6strandEZN7asiopal13SerialChannel13BeginReadImplEN7openpal6WSliceEEUlRKSt10error_codemE_NS0_26is_continuation_if_runningEEEE11do_completeEPNS0_15task_io_serviceEPNS0_25task_io_service_operationESC_m:
.LFB9023:
	.cfi_startproc
	.cfi_personality 0x9b,DW.ref.__gxx_personality_v0
	.cfi_lsda 0x1b,.LLSDA9023
	pushq	%r13
	.cfi_def_cfa_offset 16
	.cfi_offset 13, -16
	pushq	%r12
	.cfi_def_cfa_offset 24
	.cfi_offset 12, -24
	pushq	%rbp
	.cfi_def_cfa_offset 32
	.cfi_offset 6, -32
	movq	%rsi, %rbp
	pushq	%rbx
	.cfi_def_cfa_offset 40
	.cfi_offset 3, -40
	movq	%rdi, %rbx
	subq	$456, %rsp
	.cfi_def_cfa_offset 496
	movdqu	80(%rsi), %xmm2
	movdqu	24(%rsi), %xmm3
	movq	%fs:40, %rax
	movq	%rax, 440(%rsp)
	xorl	%eax, %eax
	movq	96(%rsi), %rax
	movq	%rsi, 24(%rsp)
	movq	$0, 32(%rsp)
	movq	%rax, 208(%rsp)
	movq	40(%rsi), %rax
	movaps	%xmm2, 192(%rsp)
	movq	%rax, 232(%rsp)
	leaq	192(%rsp), %rax
	movq	%rax, 16(%rsp)
	movups	%xmm3, 216(%rsp)
	data16	leaq	_ZN4asio6detail15keyword_tss_ptrINS0_10call_stackINS0_15task_io_serviceENS0_27task_io_service_thread_infoEE7contextEE6value_E@tlsgd(%rip), %rdi
	.value	0x6666
	rex64
	call	__tls_get_addr@PLT
	movq	(%rax), %rax
	testq	%rax, %rax
	je	.L1822
	movq	8(%rax), %rax
	testq	%rax, %rax
	je	.L1822
	cmpq	$0, (%rax)
	je	.L1978
.L1822:
	movq	%rbp, %rdi
	call	_ZdlPv@PLT
.L1823:
	movq	$0, 24(%rsp)
	testq	%rbx, %rbx
	je	.L1821
	movq	208(%rsp), %rax
	movq	200(%rsp), %rbp
	movdqa	192(%rsp), %xmm1
	movdqu	216(%rsp), %xmm0
	movq	%rax, 240(%rsp)
	movq	%rax, 264(%rsp)
	movq	%rax, 368(%rsp)
	movq	%rax, 392(%rsp)
	movq	232(%rsp), %rax
	movups	%xmm1, 248(%rsp)
	movq	%rax, 416(%rsp)
	movaps	%xmm0, 272(%rsp)
	movups	%xmm1, 376(%rsp)
	movaps	%xmm0, 400(%rsp)
	data16	leaq	_ZN4asio6detail15keyword_tss_ptrINS0_10call_stackINS0_14strand_service11strand_implEhE7contextEE6value_E@tlsgd(%rip), %rdi
	.value	0x6666
	rex64
	call	__tls_get_addr@PLT
	movq	(%rax), %rax
	testq	%rax, %rax
	jne	.L1828
	jmp	.L1825
	.p2align 4,,10
	.p2align 3
.L1826:
	movq	16(%rax), %rax
	testq	%rax, %rax
	je	.L1825
.L1828:
	cmpq	(%rax), %rbp
	jne	.L1826
	cmpq	$0, 8(%rax)
	je	.L1825
	lfence
	movq	392(%rsp), %rax
	leaq	304(%rsp), %rdx
	leaq	384(%rsp), %rsi
	movq	376(%rsp), %rdi
	movq	%rax, 304(%rsp)
	movl	400(%rsp), %eax
	movl	%eax, 312(%rsp)
	movq	408(%rsp), %rax
	movq	%rax, 320(%rsp)
	movq	416(%rsp), %rax
	movq	%rax, 328(%rsp)
.LEHB32:
	call	_ZN4asio6detail14strand_service8dispatchINS0_7binder2IZN7asiopal13SerialChannel13BeginReadImplEN7openpal6WSliceEEUlRKSt10error_codemE_S8_mEEEEvRPNS1_11strand_implERT_
.LEHE32:
	sfence
.L1829:
	sfence
	cmpq	$0, 32(%rsp)
	movq	24(%rsp), %rbp
	je	.L1883
	movq	$0, 32(%rsp)
.L1883:
	testq	%rbp, %rbp
	je	.L1821
	data16	leaq	_ZN4asio6detail15keyword_tss_ptrINS0_10call_stackINS0_15task_io_serviceENS0_27task_io_service_thread_infoEE7contextEE6value_E@tlsgd(%rip), %rdi
	.value	0x6666
	rex64
	call	__tls_get_addr@PLT
	movq	(%rax), %rax
	testq	%rax, %rax
	je	.L1886
	movq	8(%rax), %rax
	testq	%rax, %rax
	je	.L1886
	cmpq	$0, (%rax)
	je	.L1979
.L1886:
	movq	%rbp, %rdi
	call	_ZdlPv@PLT
.L1821:
	movq	440(%rsp), %rax
	subq	%fs:40, %rax
	jne	.L1980
	addq	$456, %rsp
	.cfi_remember_state
	.cfi_def_cfa_offset 40
	popq	%rbx
	.cfi_def_cfa_offset 32
	popq	%rbp
	.cfi_def_cfa_offset 24
	popq	%r12
	.cfi_def_cfa_offset 16
	popq	%r13
	.cfi_def_cfa_offset 8
	ret
	.p2align 4,,10
	.p2align 3
.L1825:
	.cfi_restore_state
	pxor	%xmm0, %xmm0
	leaq	368(%rsp), %rax
	movq	192(%rsp), %r12
	movq	%rax, 48(%rsp)
	movups	%xmm0, 56(%rsp)
	data16	leaq	_ZN4asio6detail15keyword_tss_ptrINS0_10call_stackINS0_15task_io_serviceENS0_27task_io_service_thread_infoEE7contextEE6value_E@tlsgd(%rip), %rdi
	.value	0x6666
	rex64
	call	__tls_get_addr@PLT
	movq	(%rax), %rax
	testq	%rax, %rax
	je	.L1830
	movq	8(%rax), %rax
	testq	%rax, %rax
	je	.L1830
	movq	(%rax), %rbp
	testq	%rbp, %rbp
	je	.L1830
	movq	$0, (%rax)
	movzbl	0(%rbp), %eax
	cmpb	$79, %al
	jbe	.L1831
	movb	%al, 80(%rbp)
	jmp	.L1832
	.p2align 4,,10
	.p2align 3
.L1831:
	movq	%rbp, %rdi
	call	_ZdlPv@PLT
.L1830:
	movl	$81, %edi
.LEHB33:
	call	_Znwm@PLT
.LEHE33:
	movb	$80, 80(%rax)
	movq	%rax, %rbp
.L1832:
	leaq	_ZN4asio6detail18completion_handlerINS0_17rewrapped_handlerINS0_7binder2INS0_15wrapped_handlerINS_10io_service6strandEZN7asiopal13SerialChannel13BeginReadImplEN7openpal6WSliceEEUlRKSt10error_codemE_NS0_26is_continuation_if_runningEEESB_mEESE_EEE11do_completeEPNS0_15task_io_serviceEPNS0_25task_io_service_operationESD_m(%rip), %rax
	movq	%rbp, 56(%rsp)
	movdqu	376(%rsp), %xmm4
	movq	%rax, 8(%rbp)
	movq	40(%r12), %rbx
	movq	368(%rsp), %rax
	movl	$0, 16(%rbp)
	movdqa	400(%rsp), %xmm5
	movq	$0, 0(%rbp)
	movq	%rax, 24(%rbp)
	movq	392(%rsp), %rax
	movups	%xmm4, 32(%rbp)
	movq	%rax, 48(%rbp)
	movq	416(%rsp), %rax
	movups	%xmm5, 56(%rbp)
	movq	%rax, 72(%rbp)
	movq	%rbp, 64(%rsp)
	data16	leaq	_ZN4asio6detail15keyword_tss_ptrINS0_10call_stackINS0_15task_io_serviceENS0_27task_io_service_thread_infoEE7contextEE6value_E@tlsgd(%rip), %rdi
	.value	0x6666
	rex64
	call	__tls_get_addr@PLT
	movq	(%rax), %rax
	testq	%rax, %rax
	jne	.L1837
	jmp	.L1833
	.p2align 4,,10
	.p2align 3
.L1834:
	movq	16(%rax), %rax
	testq	%rax, %rax
	je	.L1833
.L1837:
	cmpq	(%rax), %rbx
	jne	.L1834
	movq	8(%rax), %rbx
	movq	200(%rsp), %rax
	leaq	24(%rax), %rdi
	call	pthread_mutex_lock@PLT
	testq	%rbx, %rbx
	je	.L1836
	movq	200(%rsp), %rax
	cmpb	$0, 64(%rax)
	leaq	24(%rax), %rdi
	je	.L1981
.L1838:
	cmpq	$0, 80(%rax)
	movq	$0, 0(%rbp)
	je	.L1842
	movq	80(%rax), %rdx
	movq	%rbp, (%rdx)
	movq	%rbp, 80(%rax)
.L1977:
	call	pthread_mutex_unlock@PLT
	jmp	.L1829
.L1981:
	movb	$1, 64(%rax)
	call	pthread_mutex_unlock@PLT
	pxor	%xmm0, %xmm0
	movq	64(%rsp), %rbp
	movq	200(%rsp), %r13
	movups	%xmm0, 56(%rsp)
	movq	%r13, 80(%rsp)
	data16	leaq	_ZN4asio6detail15keyword_tss_ptrINS0_10call_stackINS0_14strand_service11strand_implEhE7contextEE6value_E@tlsgd(%rip), %rdi
	.value	0x6666
	rex64
	call	__tls_get_addr@PLT
	movq	40(%r12), %rbx
	movq	%r13, %xmm6
	movdqu	32(%rbp), %xmm7
	leaq	304(%rsp), %r12
	movq	%rbp, 120(%rsp)
	movq	%rbx, %xmm0
	movq	%r12, 112(%rsp)
	movq	$0, 128(%rsp)
	punpcklqdq	%xmm6, %xmm0
	movdqu	56(%rbp), %xmm6
	movaps	%xmm0, (%rsp)
	movq	(%rax), %rdx
	movq	%rdx, 96(%rsp)
	leaq	80(%rsp), %rdx
	movq	%rdx, (%rax)
	movq	24(%rbp), %rax
	movq	%rdx, 88(%rsp)
	movq	%rax, 304(%rsp)
	movq	48(%rbp), %rax
	movups	%xmm7, 312(%rsp)
	movq	%rax, 328(%rsp)
	movq	72(%rbp), %rax
	movaps	%xmm6, 336(%rsp)
	movq	%rax, 352(%rsp)
	data16	leaq	_ZN4asio6detail15keyword_tss_ptrINS0_10call_stackINS0_15task_io_serviceENS0_27task_io_service_thread_infoEE7contextEE6value_E@tlsgd(%rip), %rdi
	.value	0x6666
	rex64
	call	__tls_get_addr@PLT
	movq	(%rax), %rax
	testq	%rax, %rax
	je	.L1840
	movq	8(%rax), %rax
	testq	%rax, %rax
	je	.L1840
	cmpq	$0, (%rax)
	je	.L1982
.L1840:
	movq	%rbp, %rdi
	call	_ZdlPv@PLT
.L1857:
	movq	$0, 120(%rsp)
	testq	%rbx, %rbx
	je	.L1860
	movq	328(%rsp), %rax
	movq	312(%rsp), %rdi
	leaq	144(%rsp), %rdx
	leaq	320(%rsp), %rsi
	movq	%rax, 144(%rsp)
	movl	336(%rsp), %eax
	movl	%eax, 152(%rsp)
	movq	344(%rsp), %rax
	movq	%rax, 160(%rsp)
	movq	352(%rsp), %rax
	movq	%rax, 168(%rsp)
.LEHB34:
	call	_ZN4asio6detail14strand_service8dispatchINS0_7binder2IZN7asiopal13SerialChannel13BeginReadImplEN7openpal6WSliceEEUlRKSt10error_codemE_S8_mEEEEvRPNS1_11strand_implERT_
.LEHE34:
	sfence
	movq	120(%rsp), %rbp
	cmpq	$0, 128(%rsp)
	je	.L1859
	movq	$0, 128(%rsp)
.L1859:
	testq	%rbp, %rbp
	je	.L1860
	data16	leaq	_ZN4asio6detail15keyword_tss_ptrINS0_10call_stackINS0_15task_io_serviceENS0_27task_io_service_thread_infoEE7contextEE6value_E@tlsgd(%rip), %rdi
	.value	0x6666
	rex64
	call	__tls_get_addr@PLT
	movq	(%rax), %rax
	testq	%rax, %rax
	je	.L1861
	movq	8(%rax), %rax
	testq	%rax, %rax
	je	.L1861
	cmpq	$0, (%rax)
	je	.L1983
.L1861:
	movq	%rbp, %rdi
	call	_ZdlPv@PLT
.L1860:
	movq	8(%rsp), %rax
	leaq	24(%rax), %rdi
	call	pthread_mutex_lock@PLT
	movq	8(%rsp), %rdi
	movq	72(%rdi), %rbx
	testq	%rbx, %rbx
	je	.L1984
	movq	96(%rdi), %rax
	testq	%rax, %rax
	je	.L1866
	movq	%rbx, (%rax)
	movq	88(%rdi), %rbx
.L1867:
	movq	80(%rdi), %rax
	pxor	%xmm0, %xmm0
	movups	%xmm0, 72(%rdi)
	movq	%rax, 96(%rdi)
.L1863:
	testq	%rbx, %rbx
	setne	64(%rdi)
	addq	$24, %rdi
	call	pthread_mutex_unlock@PLT
	testq	%rbx, %rbx
	jne	.L1985
.L1868:
	data16	leaq	_ZN4asio6detail15keyword_tss_ptrINS0_10call_stackINS0_14strand_service11strand_implEhE7contextEE6value_E@tlsgd(%rip), %rdi
	.value	0x6666
	rex64
	call	__tls_get_addr@PLT
	movq	96(%rsp), %rdx
	cmpq	$0, 64(%rsp)
	movq	56(%rsp), %rbp
	movq	%rdx, (%rax)
	je	.L1879
	movq	$0, 64(%rsp)
.L1879:
	testq	%rbp, %rbp
	je	.L1829
	data16	leaq	_ZN4asio6detail15keyword_tss_ptrINS0_10call_stackINS0_15task_io_serviceENS0_27task_io_service_thread_infoEE7contextEE6value_E@tlsgd(%rip), %rdi
	.value	0x6666
	rex64
	call	__tls_get_addr@PLT
	movq	(%rax), %rax
	testq	%rax, %rax
	je	.L1881
	movq	8(%rax), %rax
	testq	%rax, %rax
	je	.L1881
	cmpq	$0, (%rax)
	je	.L1986
.L1881:
	movq	%rbp, %rdi
	call	_ZdlPv@PLT
	jmp	.L1829
	.p2align 4,,10
	.p2align 3
.L1978:
	movzbl	104(%rbp), %edx
	movb	%dl, 0(%rbp)
	movq	%rbp, (%rax)
	jmp	.L1823
	.p2align 4,,10
	.p2align 3
.L1842:
	movq	%rbp, %xmm0
	punpcklqdq	%xmm0, %xmm0
	movups	%xmm0, 72(%rax)
	jmp	.L1977
	.p2align 4,,10
	.p2align 3
.L1833:
	movq	200(%rsp), %rax
	leaq	24(%rax), %rdi
	call	pthread_mutex_lock@PLT
.L1836:
	movq	200(%rsp), %rax
	cmpb	$0, 64(%rax)
	leaq	24(%rax), %rdi
	jne	.L1838
	movb	$1, 64(%rax)
	call	pthread_mutex_unlock@PLT
	movq	200(%rsp), %r13
	movq	$0, 0(%rbp)
	cmpq	$0, 96(%r13)
	je	.L1845
	movq	96(%r13), %rax
	movq	%rbp, (%rax)
	movq	%rbp, 96(%r13)
.L1846:
	movq	40(%r12), %rbx
	cmpb	$0, 40(%rbx)
	je	.L1847
	data16	leaq	_ZN4asio6detail15keyword_tss_ptrINS0_10call_stackINS0_15task_io_serviceENS0_27task_io_service_thread_infoEE7contextEE6value_E@tlsgd(%rip), %rdi
	.value	0x6666
	rex64
	call	__tls_get_addr@PLT
	movq	(%rax), %rax
	testq	%rax, %rax
	jne	.L1850
	jmp	.L1847
	.p2align 4,,10
	.p2align 3
.L1848:
	movq	16(%rax), %rax
	testq	%rax, %rax
	je	.L1847
.L1850:
	cmpq	(%rax), %rbx
	jne	.L1848
	movq	8(%rax), %rax
	testq	%rax, %rax
	je	.L1847
	addq	$1, 24(%rax)
	cmpq	$0, 16(%rax)
	movq	$0, 0(%r13)
	je	.L1851
	movq	16(%rax), %rdx
	movq	%r13, (%rdx)
	movq	%r13, 16(%rax)
	jmp	.L1829
	.p2align 4,,10
	.p2align 3
.L1847:
	lock addq	$1, 184(%rbx)
	leaq	48(%rbx), %rbp
	movq	%rbp, %rdi
	call	pthread_mutex_lock@PLT
	cmpq	$0, 200(%rbx)
	movq	$0, 0(%r13)
	je	.L1852
	movq	200(%rbx), %rax
	movq	%r13, (%rax)
	movq	%r13, 200(%rbx)
.L1853:
	movq	136(%rbx), %rax
	orq	$1, %rax
	movq	%rax, 136(%rbx)
	cmpq	$1, %rax
	je	.L1854
	movq	%rbp, %rdi
	call	pthread_mutex_unlock@PLT
	leaq	88(%rbx), %rdi
	call	pthread_cond_signal@PLT
	jmp	.L1829
.L1854:
	cmpb	$0, 176(%rbx)
	jne	.L1856
	movq	144(%rbx), %rax
	testq	%rax, %rax
	je	.L1856
	movb	$1, 176(%rbx)
	leaq	88(%rax), %rdx
	movl	$3, %esi
	leaq	304(%rsp), %rcx
	movq	%rdx, 308(%rsp)
	movl	88(%rax), %edx
	movl	$-2147483639, 304(%rsp)
	movl	96(%rax), %edi
	call	epoll_ctl@PLT
.L1856:
	movq	%rbp, %rdi
	jmp	.L1977
	.p2align 4,,10
	.p2align 3
.L1979:
	movzbl	104(%rbp), %edx
	movb	%dl, 0(%rbp)
	movq	%rbp, (%rax)
	jmp	.L1821
	.p2align 4,,10
	.p2align 3
.L1985:
	movq	(%rsp), %rbx
	movq	8(%rsp), %rbp
	cmpb	$0, 40(%rbx)
	je	.L1869
	data16	leaq	_ZN4asio6detail15keyword_tss_ptrINS0_10call_stackINS0_15task_io_serviceENS0_27task_io_service_thread_infoEE7contextEE6value_E@tlsgd(%rip), %rdi
	.value	0x6666
	rex64
	call	__tls_get_addr@PLT
	movq	(%rax), %rax
	testq	%rax, %rax
	jne	.L1872
	jmp	.L1869
	.p2align 4,,10
	.p2align 3
.L1870:
	movq	16(%rax), %rax
	testq	%rax, %rax
	je	.L1869
.L1872:
	cmpq	(%rax), %rbx
	jne	.L1870
	movq	8(%rax), %rax
	testq	%rax, %rax
	je	.L1869
	addq	$1, 24(%rax)
	cmpq	$0, 16(%rax)
	movq	$0, 0(%rbp)
	je	.L1873
	movq	16(%rax), %rdx
	movq	%rbp, (%rdx)
	movq	%rbp, 16(%rax)
	jmp	.L1868
.L1869:
	lock addq	$1, 184(%rbx)
	leaq	48(%rbx), %r13
	movq	%r13, %rdi
	call	pthread_mutex_lock@PLT
	cmpq	$0, 200(%rbx)
	movq	$0, 0(%rbp)
	je	.L1874
	movq	200(%rbx), %rax
	movq	%rbp, (%rax)
	movq	%rbp, 200(%rbx)
.L1875:
	movq	136(%rbx), %rax
	orq	$1, %rax
	movq	%rax, 136(%rbx)
	cmpq	$1, %rax
	je	.L1876
	movq	%r13, %rdi
	call	pthread_mutex_unlock@PLT
	leaq	88(%rbx), %rdi
	call	pthread_cond_signal@PLT
	jmp	.L1868
	.p2align 4,,10
	.p2align 3
.L1984:
	movq	88(%rdi), %rbx
	jmp	.L1863
.L1874:
	movq	%rbp, %xmm0
	punpcklqdq	%xmm0, %xmm0
	movups	%xmm0, 192(%rbx)
	jmp	.L1875
.L1866:
	movq	%rbx, 88(%rdi)
	jmp	.L1867
.L1986:
	movzbl	80(%rbp), %edx
	movb	%dl, 0(%rbp)
	movq	%rbp, (%rax)
	jmp	.L1829
.L1876:
	cmpb	$0, 176(%rbx)
	jne	.L1878
	movq	144(%rbx), %rax
	testq	%rax, %rax
	je	.L1878
	movb	$1, 176(%rbx)
	leaq	88(%rax), %rdx
	movq	%r12, %rcx
	movl	$3, %esi
	movq	%rdx, 308(%rsp)
	movl	88(%rax), %edx
	movl	$-2147483639, 304(%rsp)
	movl	96(%rax), %edi
	call	epoll_ctl@PLT
.L1878:
	movq	%r13, %rdi
	call	pthread_mutex_unlock@PLT
	jmp	.L1868
.L1845:
	movq	%rbp, %xmm0
	punpcklqdq	%xmm0, %xmm0
	movups	%xmm0, 88(%r13)
	jmp	.L1846
.L1852:
	movq	%r13, %xmm0
	punpcklqdq	%xmm0, %xmm0
	movups	%xmm0, 192(%rbx)
	jmp	.L1853
.L1983:
	movzbl	80(%rbp), %edx
	movb	%dl, 0(%rbp)
	movq	%rbp, (%rax)
	jmp	.L1860
.L1982:
	movzbl	80(%rbp), %edx
	movb	%dl, 0(%rbp)
	movq	%rbp, (%rax)
	jmp	.L1857
.L1851:
	movq	%r13, %xmm0
	punpcklqdq	%xmm0, %xmm0
	movups	%xmm0, 8(%rax)
	jmp	.L1829
.L1873:
	movq	%rbp, %xmm0
	punpcklqdq	%xmm0, %xmm0
	movups	%xmm0, 8(%rax)
	jmp	.L1868
.L1980:
	call	__stack_chk_fail@PLT
.L1889:
	movq	%rax, %rbp
	jmp	.L1884
.L1890:
	movq	%rax, %rbp
	jmp	.L1864
.L1888:
	movq	%rax, %rbp
	jmp	.L1865
	.section	.gcc_except_table
.LLSDA9023:
	.byte	0xff
	.byte	0xff
	.byte	0x1
	.uleb128 .LLSDACSE9023-.LLSDACSB9023
.LLSDACSB9023:
	.uleb128 .LEHB32-.LFB9023
	.uleb128 .LEHE32-.LEHB32
	.uleb128 .L1889-.LFB9023
	.uleb128 0
	.uleb128 .LEHB33-.LFB9023
	.uleb128 .LEHE33-.LEHB33
	.uleb128 .L1888-.LFB9023
	.uleb128 0
	.uleb128 .LEHB34-.LFB9023
	.uleb128 .LEHE34-.LEHB34
	.uleb128 .L1890-.LFB9023
	.uleb128 0
.LLSDACSE9023:
	.text
	.cfi_endproc
	.section	.text.unlikely
	.cfi_startproc
	.cfi_personality 0x9b,DW.ref.__gxx_personality_v0
	.cfi_lsda 0x1b,.LLSDAC9023
	.type	_ZN4asio6detail18descriptor_read_opINS_17mutable_buffers_1ENS0_15wrapped_handlerINS_10io_service6strandEZN7asiopal13SerialChannel13BeginReadImplEN7openpal6WSliceEEUlRKSt10error_codemE_NS0_26is_continuation_if_runningEEEE11do_completeEPNS0_15task_io_serviceEPNS0_25task_io_service_operationESC_m.cold, @function
_ZN4asio6detail18descriptor_read_opINS_17mutable_buffers_1ENS0_15wrapped_handlerINS_10io_service6strandEZN7asiopal13SerialChannel13BeginReadImplEN7openpal6WSliceEEUlRKSt10error_codemE_NS0_26is_continuation_if_runningEEEE11do_completeEPNS0_15task_io_serviceEPNS0_25task_io_service_operationESC_m.cold:
.LFSB9023:
.L1884:
	.cfi_def_cfa_offset 496
	.cfi_offset 3, -40
	.cfi_offset 6, -32
	.cfi_offset 12, -24
	.cfi_offset 13, -16
	sfence
	jmp	.L1865
.L1864:
	sfence
	leaq	112(%rsp), %rdi
	call	_ZN4asio6detail18completion_handlerINS0_17rewrapped_handlerINS0_7binder2INS0_15wrapped_handlerINS_10io_service6strandEZN7asiopal13SerialChannel13BeginReadImplEN7openpal6WSliceEEUlRKSt10error_codemE_NS0_26is_continuation_if_runningEEESB_mEESE_EEE3ptr5resetEv
	movq	%rsp, %rdi
	call	_ZN4asio6detail14strand_service16on_dispatch_exitD1Ev@PLT
	data16	leaq	_ZN4asio6detail15keyword_tss_ptrINS0_10call_stackINS0_14strand_service11strand_implEhE7contextEE6value_E@tlsgd(%rip), %rdi
	.value	0x6666
	rex64
	call	__tls_get_addr@PLT
	movq	96(%rsp), %rdx
	leaq	48(%rsp), %rdi
	movq	%rdx, (%rax)
	call	_ZN4asio6detail18completion_handlerINS0_17rewrapped_handlerINS0_7binder2INS0_15wrapped_handlerINS_10io_service6strandEZN7asiopal13SerialChannel13BeginReadImplEN7openpal6WSliceEEUlRKSt10error_codemE_NS0_26is_continuation_if_runningEEESB_mEESE_EEE3ptr5resetEv
.L1865:
	sfence
	leaq	16(%rsp), %rdi
	call	_ZN4asio6detail18descriptor_read_opINS_17mutable_buffers_1ENS0_15wrapped_handlerINS_10io_service6strandEZN7asiopal13SerialChannel13BeginReadImplEN7openpal6WSliceEEUlRKSt10error_codemE_NS0_26is_continuation_if_runningEEEE3ptr5resetEv
	movq	%rbp, %rdi
.LEHB35:
	call	_Unwind_Resume@PLT
.LEHE35:
	.cfi_endproc
.LFE9023:
	.section	.gcc_except_table
.LLSDAC9023:
	.byte	0xff
	.byte	0xff
	.byte	0x1
	.uleb128 .LLSDACSEC9023-.LLSDACSBC9023
.LLSDACSBC9023:
	.uleb128 .LEHB35-.LCOLDB34
	.uleb128 .LEHE35-.LEHB35
	.uleb128 0
	.uleb128 0
.LLSDACSEC9023:
	.section	.text.unlikely
	.text
	.size	_ZN4asio6detail18descriptor_read_opINS_17mutable_buffers_1ENS0_15wrapped_handlerINS_10io_service6strandEZN7asiopal13SerialChannel13BeginReadImplEN7openpal6WSliceEEUlRKSt10error_codemE_NS0_26is_continuation_if_runningEEEE11do_completeEPNS0_15task_io_serviceEPNS0_25task_io_service_operationESC_m, .-_ZN4asio6detail18descriptor_read_opINS_17mutable_buffers_1ENS0_15wrapped_handlerINS_10io_service6strandEZN7asiopal13SerialChannel13BeginReadImplEN7openpal6WSliceEEUlRKSt10error_codemE_NS0_26is_continuation_if_runningEEEE11do_completeEPNS0_15task_io_serviceEPNS0_25task_io_service_operationESC_m
	.section	.text.unlikely
	.size	_ZN4asio6detail18descriptor_read_opINS_17mutable_buffers_1ENS0_15wrapped_handlerINS_10io_service6strandEZN7asiopal13SerialChannel13BeginReadImplEN7openpal6WSliceEEUlRKSt10error_codemE_NS0_26is_continuation_if_runningEEEE11do_completeEPNS0_15task_io_serviceEPNS0_25task_io_service_operationESC_m.cold, .-_ZN4asio6detail18descriptor_read_opINS_17mutable_buffers_1ENS0_15wrapped_handlerINS_10io_service6strandEZN7asiopal13SerialChannel13BeginReadImplEN7openpal6WSliceEEUlRKSt10error_codemE_NS0_26is_continuation_if_runningEEEE11do_completeEPNS0_15task_io_serviceEPNS0_25task_io_service_operationESC_m.cold
.LCOLDE34:
	.text
.LHOTE34:
	.section	.text.unlikely
	.align 2
.LCOLDB35:
	.text
.LHOTB35:
	.align 2
	.p2align 4
	.type	_ZN4asio6detail14strand_service8dispatchINS0_7binder2IZN7asiopal13SerialChannel14BeginWriteImplERKN7openpal6RSliceEEUlRKSt10error_codemE_SA_mEEEEvRPNS1_11strand_implERT_.constprop.0, @function
_ZN4asio6detail14strand_service8dispatchINS0_7binder2IZN7asiopal13SerialChannel14BeginWriteImplERKN7openpal6RSliceEEUlRKSt10error_codemE_SA_mEEEEvRPNS1_11strand_implERT_.constprop.0:
.LFB9627:
	.cfi_startproc
	.cfi_personality 0x9b,DW.ref.__gxx_personality_v0
	.cfi_lsda 0x1b,.LLSDA9627
	pushq	%r14
	.cfi_def_cfa_offset 16
	.cfi_offset 14, -16
	pushq	%r13
	.cfi_def_cfa_offset 24
	.cfi_offset 13, -24
	movq	%rdi, %r13
	pushq	%r12
	.cfi_def_cfa_offset 32
	.cfi_offset 12, -32
	movq	%rsi, %r12
	pushq	%rbp
	.cfi_def_cfa_offset 40
	.cfi_offset 6, -40
	movq	%rdx, %rbp
	pushq	%rbx
	.cfi_def_cfa_offset 48
	.cfi_offset 3, -48
	subq	$160, %rsp
	.cfi_def_cfa_offset 208
	movq	(%rsi), %rbx
	movq	%fs:40, %rax
	movq	%rax, 152(%rsp)
	xorl	%eax, %eax
	data16	leaq	_ZN4asio6detail15keyword_tss_ptrINS0_10call_stackINS0_14strand_service11strand_implEhE7contextEE6value_E@tlsgd(%rip), %rdi
	.value	0x6666
	rex64
	call	__tls_get_addr@PLT
	movq	(%rax), %rax
	testq	%rax, %rax
	jne	.L1991
	jmp	.L1988
	.p2align 4,,10
	.p2align 3
.L1989:
	movq	16(%rax), %rax
	testq	%rax, %rax
	je	.L1988
.L1991:
	cmpq	(%rax), %rbx
	jne	.L1989
	cmpq	$0, 8(%rax)
	je	.L1988
	lfence
	movq	0(%rbp), %rax
	movq	24(%rbp), %rdx
	movq	40(%rax), %rdi
	movb	$0, 58(%rax)
	testq	%rdi, %rdi
	je	.L1994
	cmpb	$0, 56(%rax)
	jne	.L1994
	movq	(%rdi), %rax
	leaq	8(%rbp), %rsi
.LEHB36:
	call	*24(%rax)
.LEHE36:
.L1994:
	sfence
.L1987:
	movq	152(%rsp), %rax
	subq	%fs:40, %rax
	jne	.L2123
	addq	$160, %rsp
	.cfi_remember_state
	.cfi_def_cfa_offset 48
	popq	%rbx
	.cfi_def_cfa_offset 40
	popq	%rbp
	.cfi_def_cfa_offset 32
	popq	%r12
	.cfi_def_cfa_offset 24
	popq	%r13
	.cfi_def_cfa_offset 16
	popq	%r14
	.cfi_def_cfa_offset 8
	ret
	.p2align 4,,10
	.p2align 3
.L1988:
	.cfi_restore_state
	pxor	%xmm0, %xmm0
	movq	%rbp, 16(%rsp)
	movups	%xmm0, 24(%rsp)
	data16	leaq	_ZN4asio6detail15keyword_tss_ptrINS0_10call_stackINS0_15task_io_serviceENS0_27task_io_service_thread_infoEE7contextEE6value_E@tlsgd(%rip), %rdi
	.value	0x6666
	rex64
	call	__tls_get_addr@PLT
	movq	(%rax), %rax
	testq	%rax, %rax
	je	.L1995
	movq	8(%rax), %rax
	testq	%rax, %rax
	je	.L1995
	movq	(%rax), %r14
	testq	%r14, %r14
	je	.L1995
	movq	$0, (%rax)
	movzbl	(%r14), %eax
	cmpb	$55, %al
	jbe	.L1996
	movb	%al, 56(%r14)
	jmp	.L1997
.L1996:
	movq	%r14, %rdi
	call	_ZdlPv@PLT
.L1995:
	movl	$57, %edi
.LEHB37:
	call	_Znwm@PLT
.LEHE37:
	movb	$56, 56(%rax)
	movq	%rax, %r14
.L1997:
	leaq	_ZN4asio6detail18completion_handlerINS0_7binder2IZN7asiopal13SerialChannel14BeginWriteImplERKN7openpal6RSliceEEUlRKSt10error_codemE_S9_mEEE11do_completeEPNS0_15task_io_serviceEPNS0_25task_io_service_operationESB_m(%rip), %rax
	movq	%r14, 24(%rsp)
	movdqu	0(%rbp), %xmm1
	movdqu	16(%rbp), %xmm2
	movq	40(%r13), %rbx
	movq	$0, (%r14)
	movq	%rax, 8(%r14)
	movl	$0, 16(%r14)
	movups	%xmm1, 24(%r14)
	movups	%xmm2, 40(%r14)
	movq	%r14, 32(%rsp)
	data16	leaq	_ZN4asio6detail15keyword_tss_ptrINS0_10call_stackINS0_15task_io_serviceENS0_27task_io_service_thread_infoEE7contextEE6value_E@tlsgd(%rip), %rdi
	.value	0x6666
	rex64
	call	__tls_get_addr@PLT
	movq	(%rax), %rax
	testq	%rax, %rax
	jne	.L2002
	jmp	.L1998
	.p2align 4,,10
	.p2align 3
.L1999:
	movq	16(%rax), %rax
	testq	%rax, %rax
	je	.L1998
.L2002:
	cmpq	(%rax), %rbx
	jne	.L1999
	movq	8(%rax), %rbx
	movq	(%r12), %rax
	leaq	24(%rax), %rdi
	call	pthread_mutex_lock@PLT
	testq	%rbx, %rbx
	je	.L2001
	movq	(%r12), %rax
	cmpb	$0, 64(%rax)
	leaq	24(%rax), %rdi
	je	.L2124
.L2003:
	cmpq	$0, 80(%rax)
	movq	$0, (%r14)
	je	.L2007
	movq	80(%rax), %rdx
	movq	%r14, (%rdx)
	movq	%r14, 80(%rax)
.L2122:
	call	pthread_mutex_unlock@PLT
	jmp	.L1987
.L2124:
	movb	$1, 64(%rax)
	call	pthread_mutex_unlock@PLT
	movq	(%r12), %r12
	pxor	%xmm0, %xmm0
	movq	32(%rsp), %rbp
	movups	%xmm0, 24(%rsp)
	movq	%r12, 48(%rsp)
	data16	leaq	_ZN4asio6detail15keyword_tss_ptrINS0_10call_stackINS0_14strand_service11strand_implEhE7contextEE6value_E@tlsgd(%rip), %rdi
	.value	0x6666
	rex64
	call	__tls_get_addr@PLT
	movdqu	24(%rbp), %xmm4
	movq	40(%r13), %rbx
	movq	%r12, %xmm3
	leaq	112(%rsp), %r12
	movq	%rbp, 88(%rsp)
	movaps	%xmm4, 112(%rsp)
	movq	%rbx, %xmm0
	movdqu	40(%rbp), %xmm5
	punpcklqdq	%xmm3, %xmm0
	movq	%r12, 80(%rsp)
	movq	$0, 96(%rsp)
	movaps	%xmm0, (%rsp)
	movq	(%rax), %rdx
	movaps	%xmm5, 128(%rsp)
	movq	%rdx, 64(%rsp)
	leaq	48(%rsp), %rdx
	movq	%rdx, (%rax)
	movq	%rdx, 56(%rsp)
	data16	leaq	_ZN4asio6detail15keyword_tss_ptrINS0_10call_stackINS0_15task_io_serviceENS0_27task_io_service_thread_infoEE7contextEE6value_E@tlsgd(%rip), %rdi
	.value	0x6666
	rex64
	call	__tls_get_addr@PLT
	movq	(%rax), %rax
	testq	%rax, %rax
	je	.L2005
	movq	8(%rax), %rax
	testq	%rax, %rax
	je	.L2005
	cmpq	$0, (%rax)
	je	.L2125
.L2005:
	movq	%rbp, %rdi
	call	_ZdlPv@PLT
.L2022:
	movq	$0, 88(%rsp)
	testq	%rbx, %rbx
	je	.L2023
	movq	112(%rsp), %rax
	movq	136(%rsp), %rdx
	movq	40(%rax), %rdi
	movb	$0, 58(%rax)
	testq	%rdi, %rdi
	je	.L2027
	cmpb	$0, 56(%rax)
	je	.L2126
.L2027:
	sfence
	cmpq	$0, 96(%rsp)
	je	.L2127
	movq	$0, 96(%rsp)
	movq	88(%rsp), %rbp
.L2028:
	testq	%rbp, %rbp
	je	.L2023
	data16	leaq	_ZN4asio6detail15keyword_tss_ptrINS0_10call_stackINS0_15task_io_serviceENS0_27task_io_service_thread_infoEE7contextEE6value_E@tlsgd(%rip), %rdi
	.value	0x6666
	rex64
	call	__tls_get_addr@PLT
	movq	(%rax), %rax
	testq	%rax, %rax
	je	.L2029
	movq	8(%rax), %rax
	testq	%rax, %rax
	je	.L2029
	cmpq	$0, (%rax)
	je	.L2128
.L2029:
	movq	%rbp, %rdi
	call	_ZdlPv@PLT
.L2023:
	movq	8(%rsp), %rax
	leaq	24(%rax), %rdi
	call	pthread_mutex_lock@PLT
	movq	8(%rsp), %rdi
	movq	72(%rdi), %rbx
	testq	%rbx, %rbx
	je	.L2129
	movq	96(%rdi), %rax
	testq	%rax, %rax
	je	.L2033
	movq	%rbx, (%rax)
	movq	88(%rdi), %rbx
.L2034:
	movq	80(%rdi), %rax
	pxor	%xmm0, %xmm0
	movups	%xmm0, 72(%rdi)
	movq	%rax, 96(%rdi)
.L2031:
	testq	%rbx, %rbx
	setne	64(%rdi)
	addq	$24, %rdi
	call	pthread_mutex_unlock@PLT
	testq	%rbx, %rbx
	jne	.L2130
.L2035:
	data16	leaq	_ZN4asio6detail15keyword_tss_ptrINS0_10call_stackINS0_14strand_service11strand_implEhE7contextEE6value_E@tlsgd(%rip), %rdi
	.value	0x6666
	rex64
	call	__tls_get_addr@PLT
	movq	64(%rsp), %rdx
	cmpq	$0, 32(%rsp)
	movq	24(%rsp), %rbp
	movq	%rdx, (%rax)
	je	.L2046
	movq	$0, 32(%rsp)
.L2046:
	testq	%rbp, %rbp
	je	.L1987
	data16	leaq	_ZN4asio6detail15keyword_tss_ptrINS0_10call_stackINS0_15task_io_serviceENS0_27task_io_service_thread_infoEE7contextEE6value_E@tlsgd(%rip), %rdi
	.value	0x6666
	rex64
	call	__tls_get_addr@PLT
	movq	(%rax), %rax
	testq	%rax, %rax
	je	.L2048
	movq	8(%rax), %rax
	testq	%rax, %rax
	je	.L2048
	cmpq	$0, (%rax)
	je	.L2131
.L2048:
	movq	%rbp, %rdi
	call	_ZdlPv@PLT
	jmp	.L1987
	.p2align 4,,10
	.p2align 3
.L1998:
	movq	(%r12), %rax
	leaq	24(%rax), %rdi
	call	pthread_mutex_lock@PLT
.L2001:
	movq	(%r12), %rax
	cmpb	$0, 64(%rax)
	leaq	24(%rax), %rdi
	jne	.L2003
	movb	$1, 64(%rax)
	call	pthread_mutex_unlock@PLT
	movq	(%r12), %rbp
	movq	$0, (%r14)
	cmpq	$0, 96(%rbp)
	je	.L2010
	movq	96(%rbp), %rax
	movq	%r14, (%rax)
	movq	%r14, 96(%rbp)
.L2011:
	movq	40(%r13), %rbx
	cmpb	$0, 40(%rbx)
	je	.L2012
	data16	leaq	_ZN4asio6detail15keyword_tss_ptrINS0_10call_stackINS0_15task_io_serviceENS0_27task_io_service_thread_infoEE7contextEE6value_E@tlsgd(%rip), %rdi
	.value	0x6666
	rex64
	call	__tls_get_addr@PLT
	movq	(%rax), %rax
	testq	%rax, %rax
	jne	.L2015
	jmp	.L2012
	.p2align 4,,10
	.p2align 3
.L2013:
	movq	16(%rax), %rax
	testq	%rax, %rax
	je	.L2012
.L2015:
	cmpq	(%rax), %rbx
	jne	.L2013
	movq	8(%rax), %rax
	testq	%rax, %rax
	je	.L2012
	addq	$1, 24(%rax)
	cmpq	$0, 16(%rax)
	movq	$0, 0(%rbp)
	je	.L2016
	movq	16(%rax), %rdx
	movq	%rbp, (%rdx)
	movq	%rbp, 16(%rax)
	jmp	.L1987
.L2012:
	lock addq	$1, 184(%rbx)
	leaq	48(%rbx), %r12
	movq	%r12, %rdi
	call	pthread_mutex_lock@PLT
	cmpq	$0, 200(%rbx)
	movq	$0, 0(%rbp)
	je	.L2017
	movq	200(%rbx), %rax
	movq	%rbp, (%rax)
	movq	%rbp, 200(%rbx)
.L2018:
	movq	136(%rbx), %rax
	orq	$1, %rax
	movq	%rax, 136(%rbx)
	cmpq	$1, %rax
	je	.L2019
	movq	%r12, %rdi
	call	pthread_mutex_unlock@PLT
	leaq	88(%rbx), %rdi
	call	pthread_cond_signal@PLT
	jmp	.L1987
.L2007:
	movq	%r14, %xmm0
	punpcklqdq	%xmm0, %xmm0
	movups	%xmm0, 72(%rax)
	jmp	.L2122
.L2126:
	movq	(%rdi), %rax
	leaq	120(%rsp), %rsi
.LEHB38:
	call	*24(%rax)
.LEHE38:
	jmp	.L2027
.L2017:
	movq	%rbp, %xmm0
	punpcklqdq	%xmm0, %xmm0
	movups	%xmm0, 192(%rbx)
	jmp	.L2018
.L2130:
	movq	(%rsp), %rbx
	movq	8(%rsp), %rbp
	cmpb	$0, 40(%rbx)
	je	.L2036
	data16	leaq	_ZN4asio6detail15keyword_tss_ptrINS0_10call_stackINS0_15task_io_serviceENS0_27task_io_service_thread_infoEE7contextEE6value_E@tlsgd(%rip), %rdi
	.value	0x6666
	rex64
	call	__tls_get_addr@PLT
	movq	(%rax), %rax
	testq	%rax, %rax
	jne	.L2039
	jmp	.L2036
	.p2align 4,,10
	.p2align 3
.L2037:
	movq	16(%rax), %rax
	testq	%rax, %rax
	je	.L2036
.L2039:
	cmpq	(%rax), %rbx
	jne	.L2037
	movq	8(%rax), %rax
	testq	%rax, %rax
	je	.L2036
	addq	$1, 24(%rax)
	cmpq	$0, 16(%rax)
	movq	$0, 0(%rbp)
	je	.L2040
	movq	16(%rax), %rdx
	movq	%rbp, (%rdx)
	movq	%rbp, 16(%rax)
	jmp	.L2035
.L2019:
	cmpb	$0, 176(%rbx)
	jne	.L2021
	movq	144(%rbx), %rax
	testq	%rax, %rax
	je	.L2021
	movb	$1, 176(%rbx)
	leaq	88(%rax), %rdx
	leaq	112(%rsp), %rcx
	movl	$3, %esi
	movq	%rdx, 116(%rsp)
	movl	88(%rax), %edx
	movl	$-2147483639, 112(%rsp)
	movl	96(%rax), %edi
	call	epoll_ctl@PLT
.L2021:
	movq	%r12, %rdi
	jmp	.L2122
.L2129:
	movq	88(%rdi), %rbx
	jmp	.L2031
.L2127:
	movq	88(%rsp), %rbp
	jmp	.L2028
.L2036:
	lock addq	$1, 184(%rbx)
	leaq	48(%rbx), %r13
	movq	%r13, %rdi
	call	pthread_mutex_lock@PLT
	cmpq	$0, 200(%rbx)
	movq	$0, 0(%rbp)
	je	.L2041
	movq	200(%rbx), %rax
	movq	%rbp, (%rax)
	movq	%rbp, 200(%rbx)
.L2042:
	movq	136(%rbx), %rax
	orq	$1, %rax
	movq	%rax, 136(%rbx)
	cmpq	$1, %rax
	je	.L2043
	movq	%r13, %rdi
	call	pthread_mutex_unlock@PLT
	leaq	88(%rbx), %rdi
	call	pthread_cond_signal@PLT
	jmp	.L2035
.L2033:
	movq	%rbx, 88(%rdi)
	jmp	.L2034
.L2043:
	cmpb	$0, 176(%rbx)
	jne	.L2045
	movq	144(%rbx), %rax
	testq	%rax, %rax
	je	.L2045
	movb	$1, 176(%rbx)
	leaq	88(%rax), %rdx
	movq	%r12, %rcx
	movl	$3, %esi
	movq	%rdx, 116(%rsp)
	movl	88(%rax), %edx
	movl	$-2147483639, 112(%rsp)
	movl	96(%rax), %edi
	call	epoll_ctl@PLT
.L2045:
	movq	%r13, %rdi
	call	pthread_mutex_unlock@PLT
	jmp	.L2035
.L2131:
	movzbl	56(%rbp), %edx
	movb	%dl, 0(%rbp)
	movq	%rbp, (%rax)
	jmp	.L1987
.L2010:
	movq	%r14, %xmm0
	punpcklqdq	%xmm0, %xmm0
	movups	%xmm0, 88(%rbp)
	jmp	.L2011
.L2128:
	movzbl	56(%rbp), %edx
	movb	%dl, 0(%rbp)
	movq	%rbp, (%rax)
	jmp	.L2023
.L2125:
	movzbl	56(%rbp), %edx
	movb	%dl, 0(%rbp)
	movq	%rbp, (%rax)
	jmp	.L2022
.L2041:
	movq	%rbp, %xmm0
	punpcklqdq	%xmm0, %xmm0
	movups	%xmm0, 192(%rbx)
	jmp	.L2042
.L2016:
	movq	%rbp, %xmm0
	punpcklqdq	%xmm0, %xmm0
	movups	%xmm0, 8(%rax)
	jmp	.L1987
.L2040:
	movq	%rbp, %xmm0
	punpcklqdq	%xmm0, %xmm0
	movups	%xmm0, 8(%rax)
	jmp	.L2035
.L2123:
	call	__stack_chk_fail@PLT
.L2051:
	movq	%rax, %rdi
	jmp	.L2049
.L2052:
	movq	%rax, %rbp
	jmp	.L2032
	.section	.gcc_except_table
.LLSDA9627:
	.byte	0xff
	.byte	0xff
	.byte	0x1
	.uleb128 .LLSDACSE9627-.LLSDACSB9627
.LLSDACSB9627:
	.uleb128 .LEHB36-.LFB9627
	.uleb128 .LEHE36-.LEHB36
	.uleb128 .L2051-.LFB9627
	.uleb128 0
	.uleb128 .LEHB37-.LFB9627
	.uleb128 .LEHE37-.LEHB37
	.uleb128 0
	.uleb128 0
	.uleb128 .LEHB38-.LFB9627
	.uleb128 .LEHE38-.LEHB38
	.uleb128 .L2052-.LFB9627
	.uleb128 0
.LLSDACSE9627:
	.text
	.cfi_endproc
	.section	.text.unlikely
	.cfi_startproc
	.cfi_personality 0x9b,DW.ref.__gxx_personality_v0
	.cfi_lsda 0x1b,.LLSDAC9627
	.type	_ZN4asio6detail14strand_service8dispatchINS0_7binder2IZN7asiopal13SerialChannel14BeginWriteImplERKN7openpal6RSliceEEUlRKSt10error_codemE_SA_mEEEEvRPNS1_11strand_implERT_.constprop.0.cold, @function
_ZN4asio6detail14strand_service8dispatchINS0_7binder2IZN7asiopal13SerialChannel14BeginWriteImplERKN7openpal6RSliceEEUlRKSt10error_codemE_SA_mEEEEvRPNS1_11strand_implERT_.constprop.0.cold:
.LFSB9627:
.L2049:
	.cfi_def_cfa_offset 208
	.cfi_offset 3, -48
	.cfi_offset 6, -40
	.cfi_offset 12, -32
	.cfi_offset 13, -24
	.cfi_offset 14, -16
	sfence
.LEHB39:
	call	_Unwind_Resume@PLT
.L2032:
	sfence
	leaq	80(%rsp), %rdi
	call	_ZN4asio6detail18completion_handlerINS0_7binder2IZN7asiopal13SerialChannel14BeginWriteImplERKN7openpal6RSliceEEUlRKSt10error_codemE_S9_mEEE3ptr5resetEv
	movq	%rsp, %rdi
	call	_ZN4asio6detail14strand_service16on_dispatch_exitD1Ev@PLT
	data16	leaq	_ZN4asio6detail15keyword_tss_ptrINS0_10call_stackINS0_14strand_service11strand_implEhE7contextEE6value_E@tlsgd(%rip), %rdi
	.value	0x6666
	rex64
	call	__tls_get_addr@PLT
	movq	64(%rsp), %rdx
	leaq	16(%rsp), %rdi
	movq	%rdx, (%rax)
	call	_ZN4asio6detail18completion_handlerINS0_7binder2IZN7asiopal13SerialChannel14BeginWriteImplERKN7openpal6RSliceEEUlRKSt10error_codemE_S9_mEEE3ptr5resetEv
	movq	%rbp, %rdi
	call	_Unwind_Resume@PLT
.LEHE39:
	.cfi_endproc
.LFE9627:
	.section	.gcc_except_table
.LLSDAC9627:
	.byte	0xff
	.byte	0xff
	.byte	0x1
	.uleb128 .LLSDACSEC9627-.LLSDACSBC9627
.LLSDACSBC9627:
	.uleb128 .LEHB39-.LCOLDB35
	.uleb128 .LEHE39-.LEHB39
	.uleb128 0
	.uleb128 0
.LLSDACSEC9627:
	.section	.text.unlikely
	.text
	.size	_ZN4asio6detail14strand_service8dispatchINS0_7binder2IZN7asiopal13SerialChannel14BeginWriteImplERKN7openpal6RSliceEEUlRKSt10error_codemE_SA_mEEEEvRPNS1_11strand_implERT_.constprop.0, .-_ZN4asio6detail14strand_service8dispatchINS0_7binder2IZN7asiopal13SerialChannel14BeginWriteImplERKN7openpal6RSliceEEUlRKSt10error_codemE_SA_mEEEEvRPNS1_11strand_implERT_.constprop.0
	.section	.text.unlikely
	.size	_ZN4asio6detail14strand_service8dispatchINS0_7binder2IZN7asiopal13SerialChannel14BeginWriteImplERKN7openpal6RSliceEEUlRKSt10error_codemE_SA_mEEEEvRPNS1_11strand_implERT_.constprop.0.cold, .-_ZN4asio6detail14strand_service8dispatchINS0_7binder2IZN7asiopal13SerialChannel14BeginWriteImplERKN7openpal6RSliceEEUlRKSt10error_codemE_SA_mEEEEvRPNS1_11strand_implERT_.constprop.0.cold
.LCOLDE35:
	.text
.LHOTE35:
	.section	.text.unlikely
.LCOLDB36:
	.text
.LHOTB36:
	.p2align 4
	.type	_ZN4asio6detail18completion_handlerINS0_17rewrapped_handlerINS0_7binder2INS0_8write_opINS_17basic_serial_portINS_19serial_port_serviceEEENS_15const_buffers_1ENS0_14transfer_all_tENS0_15wrapped_handlerINS_10io_service6strandEZN7asiopal13SerialChannel14BeginWriteImplERKN7openpal6RSliceEEUlRKSt10error_codemE_NS0_26is_continuation_if_runningEEEEESJ_mEESM_EEE11do_completeEPNS0_15task_io_serviceEPNS0_25task_io_service_operationESL_m, @function
_ZN4asio6detail18completion_handlerINS0_17rewrapped_handlerINS0_7binder2INS0_8write_opINS_17basic_serial_portINS_19serial_port_serviceEEENS_15const_buffers_1ENS0_14transfer_all_tENS0_15wrapped_handlerINS_10io_service6strandEZN7asiopal13SerialChannel14BeginWriteImplERKN7openpal6RSliceEEUlRKSt10error_codemE_NS0_26is_continuation_if_runningEEEEESJ_mEESM_EEE11do_completeEPNS0_15task_io_serviceEPNS0_25task_io_service_operationESL_m:
.LFB9380:
	.cfi_startproc
	.cfi_personality 0x9b,DW.ref.__gxx_personality_v0
	.cfi_lsda 0x1b,.LLSDA9380
	pushq	%r15
	.cfi_def_cfa_offset 16
	.cfi_offset 15, -16
	pushq	%r14
	.cfi_def_cfa_offset 24
	.cfi_offset 14, -24
	pushq	%r13
	.cfi_def_cfa_offset 32
	.cfi_offset 13, -32
	pushq	%r12
	.cfi_def_cfa_offset 40
	.cfi_offset 12, -40
	pushq	%rbp
	.cfi_def_cfa_offset 48
	.cfi_offset 6, -48
	movq	%rsi, %rbp
	pushq	%rbx
	.cfi_def_cfa_offset 56
	.cfi_offset 3, -56
	movq	%rdi, %rbx
	subq	$328, %rsp
	.cfi_def_cfa_offset 384
	movdqu	40(%rsi), %xmm1
	movdqu	72(%rsi), %xmm2
	movq	%fs:40, %rax
	movq	%rax, 312(%rsp)
	xorl	%eax, %eax
	movq	24(%rsi), %rax
	movdqu	96(%rsi), %xmm3
	movq	%rsi, 56(%rsp)
	movq	$0, 64(%rsp)
	movq	%rax, 208(%rsp)
	movq	32(%rsi), %rax
	movaps	%xmm1, 224(%rsp)
	movq	%rax, 216(%rsp)
	movl	56(%rsi), %eax
	movaps	%xmm2, 256(%rsp)
	movl	%eax, 240(%rsp)
	movq	64(%rsi), %rax
	movups	%xmm3, 280(%rsp)
	movq	%rax, 248(%rsp)
	movq	88(%rsi), %rax
	movq	%rax, 272(%rsp)
	movq	112(%rsi), %rax
	movq	%rax, 296(%rsp)
	leaq	208(%rsp), %rax
	movq	%rax, 48(%rsp)
	data16	leaq	_ZN4asio6detail15keyword_tss_ptrINS0_10call_stackINS0_15task_io_serviceENS0_27task_io_service_thread_infoEE7contextEE6value_E@tlsgd(%rip), %rdi
	.value	0x6666
	rex64
	call	__tls_get_addr@PLT
	movq	(%rax), %rax
	testq	%rax, %rax
	je	.L2133
	movq	8(%rax), %rax
	testq	%rax, %rax
	je	.L2133
	cmpq	$0, (%rax)
	je	.L2312
.L2133:
	movq	%rbp, %rdi
	call	_ZdlPv@PLT
.L2134:
	movq	$0, 56(%rsp)
	testq	%rbx, %rbx
	je	.L2132
	movq	248(%rsp), %r15
	movq	296(%rsp), %rax
	movl	$0, 240(%rsp)
	movl	280(%rsp), %ecx
	addq	%rax, %r15
	movq	%r15, 248(%rsp)
	testq	%rax, %rax
	je	.L2136
	testl	%ecx, %ecx
	je	.L2313
.L2136:
	movq	272(%rsp), %rax
	movq	256(%rsp), %rdi
	movl	%ecx, 88(%rsp)
	leaq	80(%rsp), %rdx
	leaq	264(%rsp), %rsi
	movq	%r15, 104(%rsp)
	movq	%rax, 80(%rsp)
	movq	288(%rsp), %rax
	movq	%rax, 96(%rsp)
.LEHB40:
	call	_ZN4asio6detail14strand_service8dispatchINS0_7binder2IZN7asiopal13SerialChannel14BeginWriteImplERKN7openpal6RSliceEEUlRKSt10error_codemE_SA_mEEEEvRPNS1_11strand_implERT_.constprop.0
.L2206:
	sfence
	cmpq	$0, 64(%rsp)
	movq	56(%rsp), %rbp
	je	.L2208
	movq	$0, 64(%rsp)
.L2208:
	testq	%rbp, %rbp
	je	.L2132
	data16	leaq	_ZN4asio6detail15keyword_tss_ptrINS0_10call_stackINS0_15task_io_serviceENS0_27task_io_service_thread_infoEE7contextEE6value_E@tlsgd(%rip), %rdi
	.value	0x6666
	rex64
	call	__tls_get_addr@PLT
	movq	(%rax), %rax
	testq	%rax, %rax
	je	.L2210
	movq	8(%rax), %rax
	testq	%rax, %rax
	je	.L2210
	cmpq	$0, (%rax)
	je	.L2314
.L2210:
	movq	%rbp, %rdi
	call	_ZdlPv@PLT
.L2132:
	movq	312(%rsp), %rax
	subq	%fs:40, %rax
	jne	.L2315
	addq	$328, %rsp
	.cfi_remember_state
	.cfi_def_cfa_offset 56
	popq	%rbx
	.cfi_def_cfa_offset 48
	popq	%rbp
	.cfi_def_cfa_offset 40
	popq	%r12
	.cfi_def_cfa_offset 32
	popq	%r13
	.cfi_def_cfa_offset 24
	popq	%r14
	.cfi_def_cfa_offset 16
	popq	%r15
	.cfi_def_cfa_offset 8
	ret
	.p2align 4,,10
	.p2align 3
.L2313:
	.cfi_restore_state
	movq	232(%rsp), %rbx
	cmpq	%rbx, %r15
	je	.L2136
	movq	216(%rsp), %r12
	ja	.L2212
	movq	224(%rsp), %rax
	subq	%r15, %rbx
	movl	$65536, %r14d
	addq	%r15, %rax
	cmpq	$65536, %rbx
	movq	%rax, (%rsp)
	cmovbe	%rbx, %r14
.L2138:
	movq	16(%r12), %rax
	pxor	%xmm0, %xmm0
	movdqa	224(%rsp), %xmm4
	movq	%r12, 128(%rsp)
	movdqa	256(%rsp), %xmm5
	movq	%r15, 160(%rsp)
	movq	%rax, 8(%rsp)
	movq	272(%rsp), %rax
	movl	$0, 152(%rsp)
	movq	%rax, 184(%rsp)
	leaq	128(%rsp), %rax
	movq	%rax, 80(%rsp)
	movups	%xmm4, 136(%rsp)
	movups	%xmm5, 168(%rsp)
	movups	%xmm0, 88(%rsp)
	data16	leaq	_ZN4asio6detail15keyword_tss_ptrINS0_10call_stackINS0_15task_io_serviceENS0_27task_io_service_thread_infoEE7contextEE6value_E@tlsgd(%rip), %rdi
	.value	0x6666
	rex64
	call	__tls_get_addr@PLT
	movq	(%rax), %rax
	testq	%rax, %rax
	je	.L2139
	movq	8(%rax), %rax
	testq	%rax, %rax
	je	.L2139
	movq	(%rax), %rbp
	testq	%rbp, %rbp
	je	.L2139
	movq	$0, (%rax)
	movzbl	0(%rbp), %eax
	cmpb	$-113, %al
	jbe	.L2140
	movb	%al, 144(%rbp)
	movq	%r12, 24(%rsp)
	movl	$0, 20(%rsp)
	jmp	.L2141
	.p2align 4,,10
	.p2align 3
.L2314:
	movzbl	120(%rbp), %edx
	movb	%dl, 0(%rbp)
	movq	%rbp, (%rax)
	jmp	.L2132
	.p2align 4,,10
	.p2align 3
.L2312:
	movzbl	120(%rbp), %edx
	movb	%dl, 0(%rbp)
	movq	%rbp, (%rax)
	jmp	.L2134
	.p2align 4,,10
	.p2align 3
.L2140:
	movq	%rbp, %rdi
	call	_ZdlPv@PLT
.L2139:
	movl	$145, %edi
	call	_Znwm@PLT
.LEHE40:
	movb	$-112, 144(%rax)
	movq	%rax, %rbp
	movq	128(%rsp), %rax
	movq	160(%rsp), %r15
	movq	%rax, 24(%rsp)
	movl	152(%rsp), %eax
	movl	%eax, 20(%rsp)
.L2141:
	leaq	_ZN4asio6detail19descriptor_write_opINS_15const_buffers_1ENS0_8write_opINS_17basic_serial_portINS_19serial_port_serviceEEES2_NS0_14transfer_all_tENS0_15wrapped_handlerINS_10io_service6strandEZN7asiopal13SerialChannel14BeginWriteImplERKN7openpal6RSliceEEUlRKSt10error_codemE_NS0_26is_continuation_if_runningEEEEEE11do_completeEPNS0_15task_io_serviceEPNS0_25task_io_service_operationESJ_m(%rip), %rax
	movl	(%r12), %r13d
	movq	%rbp, 88(%rsp)
	movq	$0, 0(%rbp)
	movq	%rax, 8(%rbp)
	movl	$0, 16(%rbp)
	movl	$0, 24(%rbp)
	call	_ZNSt3_V215system_categoryEv@PLT
	movq	$0, 40(%rbp)
	movdqu	136(%rsp), %xmm6
	movdqu	168(%rsp), %xmm7
	movq	%rax, 32(%rbp)
	movq	%rax, %rcx
	movq	_ZN4asio6detail24descriptor_write_op_baseINS_15const_buffers_1EE10do_performEPNS0_10reactor_opE@GOTPCREL(%rip), %rax
	movl	%r13d, 56(%rbp)
	movq	%r14, 72(%rbp)
	movq	%rax, 48(%rbp)
	movq	(%rsp), %rax
	movq	%r15, 112(%rbp)
	movq	%rax, 64(%rbp)
	movq	24(%rsp), %rax
	movups	%xmm6, 88(%rbp)
	movq	%rax, 80(%rbp)
	movl	20(%rsp), %eax
	movups	%xmm7, 120(%rbp)
	movl	%eax, 104(%rbp)
	movq	184(%rsp), %rax
	movq	%rax, 136(%rbp)
	movq	%rbp, 96(%rsp)
	testq	%rbx, %rbx
	je	.L2142
	testb	$3, 4(%r12)
	jne	.L2143
	cmpl	$-1, %r13d
	je	.L2316
	movq	%rcx, (%rsp)
	call	__errno_location@PLT
	movl	%r13d, %edi
	leaq	36(%rsp), %rdx
	movl	$21537, %esi
	movl	$0, (%rax)
	movq	%rax, %rbx
	xorl	%eax, %eax
	movl	$1, 36(%rsp)
	call	ioctl@PLT
	movq	_ZGVZN4asio15system_categoryEvE8instance@GOTPCREL(%rip), %r13
	movl	%eax, %r14d
	movzbl	0(%r13), %eax
	testb	%al, %al
	movq	(%rsp), %rcx
	je	.L2148
.L2293:
	movq	_ZZN4asio15system_categoryEvE8instance@GOTPCREL(%rip), %r15
.L2149:
	movl	(%rbx), %eax
	movq	%r15, 32(%rbp)
	movl	%eax, 24(%rbp)
	testl	%r14d, %r14d
	js	.L2142
	movl	$0, 24(%rbp)
	movl	(%r12), %r13d
	movq	%rcx, 32(%rbp)
	orb	$2, 4(%r12)
.L2143:
	movq	8(%rsp), %rax
	movq	8(%r12), %r14
	movq	40(%rax), %rbx
	testq	%r14, %r14
	je	.L2317
	addq	$40, %r14
	movq	%r14, %rdi
	call	pthread_mutex_lock@PLT
	movq	8(%r12), %rax
	cmpb	$0, 144(%rax)
	jne	.L2318
	cmpq	$0, 112(%rax)
	je	.L2319
.L2179:
	movq	120(%rax), %rdx
	movq	$0, 0(%rbp)
	testq	%rdx, %rdx
	je	.L2192
	movq	%rbp, (%rdx)
	movq	%rbp, 120(%rax)
.L2193:
	movq	40(%rbx), %rax
	lock addq	$1, 184(%rax)
	movq	%r14, %rdi
	call	pthread_mutex_unlock@PLT
	jmp	.L2206
.L2316:
	movq	_ZGVZN4asio15system_categoryEvE8instance@GOTPCREL(%rip), %r12
	movzbl	(%r12), %eax
	testb	%al, %al
	je	.L2145
.L2292:
	movq	_ZZN4asio15system_categoryEvE8instance@GOTPCREL(%rip), %r15
.L2146:
	movl	$9, 24(%rbp)
	movq	%r15, 32(%rbp)
	.p2align 4,,10
	.p2align 3
.L2142:
	movq	8(%rsp), %rax
	movq	40(%rax), %rax
	movq	40(%rax), %rbx
	data16	leaq	_ZN4asio6detail15keyword_tss_ptrINS0_10call_stackINS0_15task_io_serviceENS0_27task_io_service_thread_infoEE7contextEE6value_E@tlsgd(%rip), %rdi
	.value	0x6666
	rex64
	call	__tls_get_addr@PLT
	movq	(%rax), %rax
	testq	%rax, %rax
	jne	.L2199
	jmp	.L2196
	.p2align 4,,10
	.p2align 3
.L2197:
	movq	16(%rax), %rax
	testq	%rax, %rax
	je	.L2196
.L2199:
	cmpq	(%rax), %rbx
	jne	.L2197
.L2311:
	movq	8(%rax), %rax
	testq	%rax, %rax
	je	.L2196
	addq	$1, 24(%rax)
	movq	$0, 0(%rbp)
	cmpq	$0, 16(%rax)
	je	.L2200
	movq	16(%rax), %rdx
	movq	%rbp, (%rdx)
	movq	%rbp, 16(%rax)
	jmp	.L2206
	.p2align 4,,10
	.p2align 3
.L2212:
	movq	$0, (%rsp)
	xorl	%r14d, %r14d
	xorl	%ebx, %ebx
	jmp	.L2138
	.p2align 4,,10
	.p2align 3
.L2196:
	lock addq	$1, 184(%rbx)
	leaq	48(%rbx), %r12
	movq	%r12, %rdi
	call	pthread_mutex_lock@PLT
	movq	$0, 0(%rbp)
	cmpq	$0, 200(%rbx)
	je	.L2201
	movq	200(%rbx), %rax
	movq	%rbp, (%rax)
	movq	%rbp, 200(%rbx)
.L2202:
	movq	136(%rbx), %rax
	orq	$1, %rax
	movq	%rax, 136(%rbx)
	cmpq	$1, %rax
	je	.L2203
	movq	%r12, %rdi
	call	pthread_mutex_unlock@PLT
	leaq	88(%rbx), %rdi
	call	pthread_cond_signal@PLT
	jmp	.L2206
	.p2align 4,,10
	.p2align 3
.L2203:
	cmpb	$0, 176(%rbx)
	jne	.L2205
	movq	144(%rbx), %rax
	testq	%rax, %rax
	je	.L2205
	movb	$1, 176(%rbx)
	leaq	88(%rax), %rdx
	leaq	36(%rsp), %rcx
	movl	$3, %esi
	movl	$-2147483639, 36(%rsp)
	movq	%rdx, 40(%rsp)
	movl	88(%rax), %edx
	movl	96(%rax), %edi
	call	epoll_ctl@PLT
.L2205:
	movq	%r12, %rdi
	call	pthread_mutex_unlock@PLT
	jmp	.L2206
	.p2align 4,,10
	.p2align 3
.L2148:
	movq	%r13, %rdi
	movq	%rcx, (%rsp)
	call	__cxa_guard_acquire@PLT
	movq	(%rsp), %rcx
	testl	%eax, %eax
	je	.L2293
	movq	_ZZN4asio15system_categoryEvE8instance@GOTPCREL(%rip), %r15
	movq	_ZN4asio6detail15system_categoryD1Ev@GOTPCREL(%rip), %rdi
	leaq	__dso_handle(%rip), %rdx
	movq	%rcx, (%rsp)
	movq	%r15, %rsi
	call	__cxa_atexit@PLT
	movq	%r13, %rdi
	call	__cxa_guard_release@PLT
	movq	(%rsp), %rcx
	jmp	.L2149
	.p2align 4,,10
	.p2align 3
.L2201:
	movq	%rbp, %xmm0
	punpcklqdq	%xmm0, %xmm0
	movups	%xmm0, 192(%rbx)
	jmp	.L2202
	.p2align 4,,10
	.p2align 3
.L2200:
	movq	%rbp, %xmm0
	punpcklqdq	%xmm0, %xmm0
	movups	%xmm0, 8(%rax)
	jmp	.L2206
.L2192:
	movq	%rbp, %xmm0
	punpcklqdq	%xmm0, %xmm0
	movups	%xmm0, 112(%rax)
	jmp	.L2193
.L2317:
	movq	_ZGVZN4asio15system_categoryEvE8instance@GOTPCREL(%rip), %r12
	movzbl	(%r12), %eax
	testb	%al, %al
	je	.L2153
.L2294:
	movq	_ZZN4asio15system_categoryEvE8instance@GOTPCREL(%rip), %r15
.L2154:
	movl	$9, 24(%rbp)
	movq	40(%rbx), %rbx
	movq	%r15, 32(%rbp)
	data16	leaq	_ZN4asio6detail15keyword_tss_ptrINS0_10call_stackINS0_15task_io_serviceENS0_27task_io_service_thread_infoEE7contextEE6value_E@tlsgd(%rip), %rdi
	.value	0x6666
	rex64
	call	__tls_get_addr@PLT
	movq	(%rax), %rax
	testq	%rax, %rax
	jne	.L2159
	jmp	.L2196
	.p2align 4,,10
	.p2align 3
.L2157:
	movq	16(%rax), %rax
	testq	%rax, %rax
	je	.L2196
.L2159:
	cmpq	(%rax), %rbx
	jne	.L2157
	jmp	.L2311
.L2318:
	data16	leaq	_ZN4asio6detail15keyword_tss_ptrINS0_10call_stackINS0_15task_io_serviceENS0_27task_io_service_thread_infoEE7contextEE6value_E@tlsgd(%rip), %rdi
	.value	0x6666
	rex64
	call	__tls_get_addr@PLT
	movq	40(%rbx), %rbx
	movq	(%rax), %rax
	testq	%rax, %rax
	jne	.L2171
	jmp	.L2168
	.p2align 4,,10
	.p2align 3
.L2169:
	movq	16(%rax), %rax
	testq	%rax, %rax
	je	.L2168
.L2171:
	cmpq	(%rax), %rbx
	jne	.L2169
	movq	8(%rax), %rax
	testq	%rax, %rax
	je	.L2168
	addq	$1, 24(%rax)
	cmpq	$0, 16(%rax)
	movq	$0, 0(%rbp)
	je	.L2172
	movq	16(%rax), %rdx
	movq	%rbp, (%rdx)
	movq	%rbp, 16(%rax)
.L2173:
	movq	%r14, %rdi
	call	pthread_mutex_unlock@PLT
	jmp	.L2206
.L2168:
	lock addq	$1, 184(%rbx)
	leaq	48(%rbx), %r12
	movq	%r12, %rdi
	call	pthread_mutex_lock@PLT
	cmpq	$0, 200(%rbx)
	movq	$0, 0(%rbp)
	je	.L2174
	movq	200(%rbx), %rax
	movq	%rbp, (%rax)
	movq	%rbp, 200(%rbx)
.L2175:
	movq	136(%rbx), %rax
	orq	$1, %rax
	movq	%rax, 136(%rbx)
	cmpq	$1, %rax
	je	.L2176
	movq	%r12, %rdi
	call	pthread_mutex_unlock@PLT
	leaq	88(%rbx), %rdi
	call	pthread_cond_signal@PLT
	jmp	.L2173
.L2319:
	movq	%rbp, %rdi
.LEHB41:
	call	*48(%rbp)
.LEHE41:
	testb	%al, %al
	jne	.L2320
	movq	8(%r12), %rax
	movl	92(%rax), %edx
	testb	$4, %dl
	jne	.L2179
	orl	$4, %edx
	movq	%rax, 40(%rsp)
	leaq	36(%rsp), %rcx
	movl	$3, %esi
	movl	%edx, 36(%rsp)
	movl	96(%rbx), %edi
	movl	%r13d, %edx
	call	epoll_ctl@PLT
	testl	%eax, %eax
	jne	.L2191
	movq	8(%r12), %rax
	movl	36(%rsp), %edx
	orl	%edx, 92(%rax)
	movq	8(%r12), %rax
	jmp	.L2179
.L2176:
	cmpb	$0, 176(%rbx)
	jne	.L2178
	movq	144(%rbx), %rax
	testq	%rax, %rax
	je	.L2178
	movb	$1, 176(%rbx)
	leaq	88(%rax), %rdx
	leaq	36(%rsp), %rcx
	movl	$3, %esi
	movq	%rdx, 40(%rsp)
	movl	88(%rax), %edx
	movl	$-2147483639, 36(%rsp)
	movl	96(%rax), %edi
	call	epoll_ctl@PLT
.L2178:
	movq	%r12, %rdi
	call	pthread_mutex_unlock@PLT
	jmp	.L2173
.L2153:
	movq	%r12, %rdi
	call	__cxa_guard_acquire@PLT
	testl	%eax, %eax
	je	.L2294
	movq	_ZZN4asio15system_categoryEvE8instance@GOTPCREL(%rip), %r15
	movq	_ZN4asio6detail15system_categoryD1Ev@GOTPCREL(%rip), %rdi
	leaq	__dso_handle(%rip), %rdx
	movq	%r15, %rsi
	call	__cxa_atexit@PLT
	movq	%r12, %rdi
	call	__cxa_guard_release@PLT
	jmp	.L2154
.L2145:
	movq	%r12, %rdi
	call	__cxa_guard_acquire@PLT
	testl	%eax, %eax
	je	.L2292
	movq	_ZZN4asio15system_categoryEvE8instance@GOTPCREL(%rip), %r15
	movq	_ZN4asio6detail15system_categoryD1Ev@GOTPCREL(%rip), %rdi
	leaq	__dso_handle(%rip), %rdx
	movq	%r15, %rsi
	call	__cxa_atexit@PLT
	movq	%r12, %rdi
	call	__cxa_guard_release@PLT
	jmp	.L2146
.L2174:
	movq	%rbp, %xmm0
	punpcklqdq	%xmm0, %xmm0
	movups	%xmm0, 192(%rbx)
	jmp	.L2175
.L2172:
	movq	%rbp, %xmm0
	punpcklqdq	%xmm0, %xmm0
	movups	%xmm0, 8(%rax)
	jmp	.L2173
.L2320:
	movq	%r14, %rdi
	call	pthread_mutex_unlock@PLT
	movq	40(%rbx), %rbx
	data16	leaq	_ZN4asio6detail15keyword_tss_ptrINS0_10call_stackINS0_15task_io_serviceENS0_27task_io_service_thread_infoEE7contextEE6value_E@tlsgd(%rip), %rdi
	.value	0x6666
	rex64
	call	__tls_get_addr@PLT
	movq	(%rax), %rax
	testq	%rax, %rax
	jne	.L2184
	jmp	.L2196
	.p2align 4,,10
	.p2align 3
.L2182:
	movq	16(%rax), %rax
	testq	%rax, %rax
	je	.L2196
.L2184:
	cmpq	(%rax), %rbx
	jne	.L2182
	jmp	.L2311
.L2315:
	call	__stack_chk_fail@PLT
.L2191:
	call	_ZN4asio15system_categoryEv@PLT
	movq	%rax, %r12
	call	__errno_location@PLT
	movq	40(%rbx), %rdi
	movl	$1, %edx
	movq	%rbp, %rsi
	movl	(%rax), %eax
	movq	%r12, 32(%rbp)
	movl	%eax, 24(%rbp)
	call	_ZN4asio6detail15task_io_service25post_immediate_completionEPNS0_25task_io_service_operationEb@PLT
	jmp	.L2173
.L2213:
	movq	%rax, %rbp
	jmp	.L2195
.L2214:
	movq	%rax, %rbp
	jmp	.L2194
	.section	.gcc_except_table
.LLSDA9380:
	.byte	0xff
	.byte	0xff
	.byte	0x1
	.uleb128 .LLSDACSE9380-.LLSDACSB9380
.LLSDACSB9380:
	.uleb128 .LEHB40-.LFB9380
	.uleb128 .LEHE40-.LEHB40
	.uleb128 .L2213-.LFB9380
	.uleb128 0
	.uleb128 .LEHB41-.LFB9380
	.uleb128 .LEHE41-.LEHB41
	.uleb128 .L2214-.LFB9380
	.uleb128 0
.LLSDACSE9380:
	.text
	.cfi_endproc
	.section	.text.unlikely
	.cfi_startproc
	.cfi_personality 0x9b,DW.ref.__gxx_personality_v0
	.cfi_lsda 0x1b,.LLSDAC9380
	.type	_ZN4asio6detail18completion_handlerINS0_17rewrapped_handlerINS0_7binder2INS0_8write_opINS_17basic_serial_portINS_19serial_port_serviceEEENS_15const_buffers_1ENS0_14transfer_all_tENS0_15wrapped_handlerINS_10io_service6strandEZN7asiopal13SerialChannel14BeginWriteImplERKN7openpal6RSliceEEUlRKSt10error_codemE_NS0_26is_continuation_if_runningEEEEESJ_mEESM_EEE11do_completeEPNS0_15task_io_serviceEPNS0_25task_io_service_operationESL_m.cold, @function
_ZN4asio6detail18completion_handlerINS0_17rewrapped_handlerINS0_7binder2INS0_8write_opINS_17basic_serial_portINS_19serial_port_serviceEEENS_15const_buffers_1ENS0_14transfer_all_tENS0_15wrapped_handlerINS_10io_service6strandEZN7asiopal13SerialChannel14BeginWriteImplERKN7openpal6RSliceEEUlRKSt10error_codemE_NS0_26is_continuation_if_runningEEEEESJ_mEESM_EEE11do_completeEPNS0_15task_io_serviceEPNS0_25task_io_service_operationESL_m.cold:
.LFSB9380:
.L2194:
	.cfi_def_cfa_offset 384
	.cfi_offset 3, -56
	.cfi_offset 6, -48
	.cfi_offset 12, -40
	.cfi_offset 13, -32
	.cfi_offset 14, -24
	.cfi_offset 15, -16
	movq	%r14, %rdi
	call	pthread_mutex_unlock@PLT
	leaq	80(%rsp), %rdi
	call	_ZN4asio6detail19descriptor_write_opINS_15const_buffers_1ENS0_8write_opINS_17basic_serial_portINS_19serial_port_serviceEEES2_NS0_14transfer_all_tENS0_15wrapped_handlerINS_10io_service6strandEZN7asiopal13SerialChannel14BeginWriteImplERKN7openpal6RSliceEEUlRKSt10error_codemE_NS0_26is_continuation_if_runningEEEEEE3ptr5resetEv
.L2195:
	sfence
	leaq	48(%rsp), %rdi
	call	_ZN4asio6detail18completion_handlerINS0_17rewrapped_handlerINS0_7binder2INS0_8write_opINS_17basic_serial_portINS_19serial_port_serviceEEENS_15const_buffers_1ENS0_14transfer_all_tENS0_15wrapped_handlerINS_10io_service6strandEZN7asiopal13SerialChannel14BeginWriteImplERKN7openpal6RSliceEEUlRKSt10error_codemE_NS0_26is_continuation_if_runningEEEEESJ_mEESM_EEE3ptr5resetEv
	movq	%rbp, %rdi
.LEHB42:
	call	_Unwind_Resume@PLT
.LEHE42:
	.cfi_endproc
.LFE9380:
	.section	.gcc_except_table
.LLSDAC9380:
	.byte	0xff
	.byte	0xff
	.byte	0x1
	.uleb128 .LLSDACSEC9380-.LLSDACSBC9380
.LLSDACSBC9380:
	.uleb128 .LEHB42-.LCOLDB36
	.uleb128 .LEHE42-.LEHB42
	.uleb128 0
	.uleb128 0
.LLSDACSEC9380:
	.section	.text.unlikely
	.text
	.size	_ZN4asio6detail18completion_handlerINS0_17rewrapped_handlerINS0_7binder2INS0_8write_opINS_17basic_serial_portINS_19serial_port_serviceEEENS_15const_buffers_1ENS0_14transfer_all_tENS0_15wrapped_handlerINS_10io_service6strandEZN7asiopal13SerialChannel14BeginWriteImplERKN7openpal6RSliceEEUlRKSt10error_codemE_NS0_26is_continuation_if_runningEEEEESJ_mEESM_EEE11do_completeEPNS0_15task_io_serviceEPNS0_25task_io_service_operationESL_m, .-_ZN4asio6detail18completion_handlerINS0_17rewrapped_handlerINS0_7binder2INS0_8write_opINS_17basic_serial_portINS_19serial_port_serviceEEENS_15const_buffers_1ENS0_14transfer_all_tENS0_15wrapped_handlerINS_10io_service6strandEZN7asiopal13SerialChannel14BeginWriteImplERKN7openpal6RSliceEEUlRKSt10error_codemE_NS0_26is_continuation_if_runningEEEEESJ_mEESM_EEE11do_completeEPNS0_15task_io_serviceEPNS0_25task_io_service_operationESL_m
	.section	.text.unlikely
	.size	_ZN4asio6detail18completion_handlerINS0_17rewrapped_handlerINS0_7binder2INS0_8write_opINS_17basic_serial_portINS_19serial_port_serviceEEENS_15const_buffers_1ENS0_14transfer_all_tENS0_15wrapped_handlerINS_10io_service6strandEZN7asiopal13SerialChannel14BeginWriteImplERKN7openpal6RSliceEEUlRKSt10error_codemE_NS0_26is_continuation_if_runningEEEEESJ_mEESM_EEE11do_completeEPNS0_15task_io_serviceEPNS0_25task_io_service_operationESL_m.cold, .-_ZN4asio6detail18completion_handlerINS0_17rewrapped_handlerINS0_7binder2INS0_8write_opINS_17basic_serial_portINS_19serial_port_serviceEEENS_15const_buffers_1ENS0_14transfer_all_tENS0_15wrapped_handlerINS_10io_service6strandEZN7asiopal13SerialChannel14BeginWriteImplERKN7openpal6RSliceEEUlRKSt10error_codemE_NS0_26is_continuation_if_runningEEEEESJ_mEESM_EEE11do_completeEPNS0_15task_io_serviceEPNS0_25task_io_service_operationESL_m.cold
.LCOLDE36:
	.text
.LHOTE36:
	.section	.text.unlikely
.LCOLDB37:
	.text
.LHOTB37:
	.p2align 4
	.type	_ZN4asio6detail19descriptor_write_opINS_15const_buffers_1ENS0_8write_opINS_17basic_serial_portINS_19serial_port_serviceEEES2_NS0_14transfer_all_tENS0_15wrapped_handlerINS_10io_service6strandEZN7asiopal13SerialChannel14BeginWriteImplERKN7openpal6RSliceEEUlRKSt10error_codemE_NS0_26is_continuation_if_runningEEEEEE11do_completeEPNS0_15task_io_serviceEPNS0_25task_io_service_operationESJ_m, @function
_ZN4asio6detail19descriptor_write_opINS_15const_buffers_1ENS0_8write_opINS_17basic_serial_portINS_19serial_port_serviceEEES2_NS0_14transfer_all_tENS0_15wrapped_handlerINS_10io_service6strandEZN7asiopal13SerialChannel14BeginWriteImplERKN7openpal6RSliceEEUlRKSt10error_codemE_NS0_26is_continuation_if_runningEEEEEE11do_completeEPNS0_15task_io_serviceEPNS0_25task_io_service_operationESJ_m:
.LFB9251:
	.cfi_startproc
	.cfi_personality 0x9b,DW.ref.__gxx_personality_v0
	.cfi_lsda 0x1b,.LLSDA9251
	pushq	%r15
	.cfi_def_cfa_offset 16
	.cfi_offset 15, -16
	pushq	%r14
	.cfi_def_cfa_offset 24
	.cfi_offset 14, -24
	pushq	%r13
	.cfi_def_cfa_offset 32
	.cfi_offset 13, -32
	pushq	%r12
	.cfi_def_cfa_offset 40
	.cfi_offset 12, -40
	pushq	%rbp
	.cfi_def_cfa_offset 48
	.cfi_offset 6, -48
	movq	%rsi, %rbp
	pushq	%rbx
	.cfi_def_cfa_offset 56
	.cfi_offset 3, -56
	movq	%rdi, %rbx
	subq	$536, %rsp
	.cfi_def_cfa_offset 592
	movdqu	88(%rsi), %xmm3
	movdqu	120(%rsi), %xmm4
	movq	%fs:40, %rax
	movq	%rax, 520(%rsp)
	xorl	%eax, %eax
	movq	80(%rsi), %rax
	movdqu	24(%rsi), %xmm5
	movq	%rsi, 72(%rsp)
	movq	$0, 80(%rsp)
	movq	%rax, 224(%rsp)
	movl	104(%rsi), %eax
	movups	%xmm3, 232(%rsp)
	movl	%eax, 248(%rsp)
	movq	112(%rsi), %rax
	movups	%xmm4, 264(%rsp)
	movq	%rax, 256(%rsp)
	movq	136(%rsi), %rax
	movaps	%xmm5, 288(%rsp)
	movq	%rax, 280(%rsp)
	movq	40(%rsi), %rax
	movq	%rax, 304(%rsp)
	leaq	224(%rsp), %rax
	movq	%rax, 64(%rsp)
	data16	leaq	_ZN4asio6detail15keyword_tss_ptrINS0_10call_stackINS0_15task_io_serviceENS0_27task_io_service_thread_infoEE7contextEE6value_E@tlsgd(%rip), %rdi
	.value	0x6666
	rex64
	call	__tls_get_addr@PLT
	movq	(%rax), %rax
	testq	%rax, %rax
	je	.L2322
	movq	8(%rax), %rax
	testq	%rax, %rax
	je	.L2322
	cmpq	$0, (%rax)
	je	.L2609
.L2322:
	movq	%rbp, %rdi
	call	_ZdlPv@PLT
.L2323:
	movq	$0, 72(%rsp)
	testq	%rbx, %rbx
	je	.L2321
	movq	280(%rsp), %rax
	movl	248(%rsp), %edx
	movq	224(%rsp), %r12
	movq	272(%rsp), %rbx
	movdqu	232(%rsp), %xmm2
	movq	%rax, 320(%rsp)
	movdqu	264(%rsp), %xmm1
	movq	%rax, 384(%rsp)
	movdqa	288(%rsp), %xmm0
	movq	%rax, 416(%rsp)
	movl	%edx, 448(%rsp)
	movq	256(%rsp), %rdx
	movq	%rax, 480(%rsp)
	movq	304(%rsp), %rax
	movq	%r12, 424(%rsp)
	movq	%rdx, 456(%rsp)
	movq	%rax, 504(%rsp)
	movaps	%xmm2, 336(%rsp)
	movaps	%xmm1, 368(%rsp)
	movups	%xmm0, 392(%rsp)
	movaps	%xmm2, 432(%rsp)
	movaps	%xmm1, 464(%rsp)
	movups	%xmm0, 488(%rsp)
	data16	leaq	_ZN4asio6detail15keyword_tss_ptrINS0_10call_stackINS0_14strand_service11strand_implEhE7contextEE6value_E@tlsgd(%rip), %rdi
	.value	0x6666
	rex64
	call	__tls_get_addr@PLT
	movq	(%rax), %rax
	testq	%rax, %rax
	jne	.L2328
	jmp	.L2325
	.p2align 4,,10
	.p2align 3
.L2326:
	movq	16(%rax), %rax
	testq	%rax, %rax
	je	.L2325
.L2328:
	cmpq	(%rax), %rbx
	jne	.L2326
	cmpq	$0, 8(%rax)
	je	.L2325
	lfence
	movq	456(%rsp), %r15
	movq	504(%rsp), %rax
	movl	488(%rsp), %ecx
	movl	$0, 448(%rsp)
	addq	%rax, %r15
	movq	%r15, 456(%rsp)
	testq	%rax, %rax
	je	.L2329
	testl	%ecx, %ecx
	jne	.L2329
	movq	440(%rsp), %rbx
	cmpq	%rbx, %r15
	je	.L2329
	movq	424(%rsp), %r12
	ja	.L2453
	movq	432(%rsp), %rax
	subq	%r15, %rbx
	movl	$65536, %r14d
	addq	%r15, %rax
	cmpq	$65536, %rbx
	movq	%rax, (%rsp)
	cmovbe	%rbx, %r14
.L2331:
	movq	16(%r12), %rax
	pxor	%xmm0, %xmm0
	movdqa	432(%rsp), %xmm7
	movq	%r12, 144(%rsp)
	movl	$0, 168(%rsp)
	movq	%rax, 8(%rsp)
	movq	480(%rsp), %rax
	movups	%xmm7, 152(%rsp)
	movdqa	464(%rsp), %xmm7
	movq	%rax, 200(%rsp)
	leaq	144(%rsp), %rax
	movq	%r15, 176(%rsp)
	movq	%rax, 96(%rsp)
	movups	%xmm7, 184(%rsp)
	movups	%xmm0, 104(%rsp)
	data16	leaq	_ZN4asio6detail15keyword_tss_ptrINS0_10call_stackINS0_15task_io_serviceENS0_27task_io_service_thread_infoEE7contextEE6value_E@tlsgd(%rip), %rdi
	.value	0x6666
	rex64
	call	__tls_get_addr@PLT
	movq	(%rax), %rax
	testq	%rax, %rax
	je	.L2332
	movq	8(%rax), %rax
	testq	%rax, %rax
	je	.L2332
	movq	(%rax), %rbp
	testq	%rbp, %rbp
	je	.L2332
	movq	$0, (%rax)
	movzbl	0(%rbp), %eax
	cmpb	$-113, %al
	jbe	.L2333
	movb	%al, 144(%rbp)
	movq	%r12, %rdi
	xorl	%esi, %esi
.L2334:
	leaq	_ZN4asio6detail19descriptor_write_opINS_15const_buffers_1ENS0_8write_opINS_17basic_serial_portINS_19serial_port_serviceEEES2_NS0_14transfer_all_tENS0_15wrapped_handlerINS_10io_service6strandEZN7asiopal13SerialChannel14BeginWriteImplERKN7openpal6RSliceEEUlRKSt10error_codemE_NS0_26is_continuation_if_runningEEEEEE11do_completeEPNS0_15task_io_serviceEPNS0_25task_io_service_operationESJ_m(%rip), %rax
	movl	(%r12), %r13d
	movq	%rbp, 104(%rsp)
	movq	$0, 0(%rbp)
	movq	%rax, 8(%rbp)
	movl	$0, 16(%rbp)
	movl	$0, 24(%rbp)
	movl	%esi, 28(%rsp)
	movq	%rdi, 16(%rsp)
	call	_ZNSt3_V215system_categoryEv@PLT
	movq	16(%rsp), %rdi
	movl	28(%rsp), %esi
	movq	$0, 40(%rbp)
	movdqu	152(%rsp), %xmm7
	movq	%rax, 32(%rbp)
	movq	%rax, %rcx
	movq	_ZN4asio6detail24descriptor_write_op_baseINS_15const_buffers_1EE10do_performEPNS0_10reactor_opE@GOTPCREL(%rip), %rax
	movl	%r13d, 56(%rbp)
	movups	%xmm7, 88(%rbp)
	movdqu	184(%rsp), %xmm7
	movq	%rax, 48(%rbp)
	movq	(%rsp), %rax
	movq	%r14, 72(%rbp)
	movq	%rax, 64(%rbp)
	movq	200(%rsp), %rax
	movq	%rdi, 80(%rbp)
	movl	%esi, 104(%rbp)
	movq	%r15, 112(%rbp)
	movq	%rax, 136(%rbp)
	movups	%xmm7, 120(%rbp)
	movq	%rbp, 112(%rsp)
	testq	%rbx, %rbx
	je	.L2335
	testb	$3, 4(%r12)
	jne	.L2336
	cmpl	$-1, %r13d
	je	.L2610
	movq	%rcx, (%rsp)
	call	__errno_location@PLT
	movl	%r13d, %edi
	leaq	48(%rsp), %rdx
	movl	$21537, %esi
	movl	$0, (%rax)
	movq	%rax, %r14
	xorl	%eax, %eax
	movl	$1, 48(%rsp)
	call	ioctl@PLT
	movq	_ZGVZN4asio15system_categoryEvE8instance@GOTPCREL(%rip), %r13
	movl	%eax, %r15d
	movzbl	0(%r13), %eax
	testb	%al, %al
	movq	(%rsp), %rcx
	je	.L2341
.L2589:
	movq	_ZZN4asio15system_categoryEvE8instance@GOTPCREL(%rip), %rbx
.L2342:
	movl	(%r14), %eax
	movq	%rbx, 32(%rbp)
	movl	%eax, 24(%rbp)
	testl	%r15d, %r15d
	jns	.L2611
.L2335:
	movq	8(%rsp), %rax
	movq	40(%rax), %rax
	movq	40(%rax), %rbx
	data16	leaq	_ZN4asio6detail15keyword_tss_ptrINS0_10call_stackINS0_15task_io_serviceENS0_27task_io_service_thread_infoEE7contextEE6value_E@tlsgd(%rip), %rdi
	.value	0x6666
	rex64
	call	__tls_get_addr@PLT
	movq	(%rax), %rax
	testq	%rax, %rax
	jne	.L2392
	jmp	.L2389
	.p2align 4,,10
	.p2align 3
.L2390:
	movq	16(%rax), %rax
	testq	%rax, %rax
	je	.L2389
.L2392:
	cmpq	(%rax), %rbx
	jne	.L2390
.L2608:
	movq	8(%rax), %rax
	testq	%rax, %rax
	je	.L2389
	addq	$1, 24(%rax)
	movq	$0, 0(%rbp)
	cmpq	$0, 16(%rax)
	je	.L2393
	movq	16(%rax), %rdx
	movq	%rbp, (%rdx)
	movq	%rbp, 16(%rax)
	jmp	.L2399
	.p2align 4,,10
	.p2align 3
.L2329:
	movq	480(%rsp), %rax
	movq	464(%rsp), %rdi
	movl	%ecx, 104(%rsp)
	leaq	96(%rsp), %rdx
	leaq	472(%rsp), %rsi
	movq	%r15, 120(%rsp)
	movq	%rax, 96(%rsp)
	movq	496(%rsp), %rax
	movq	%rax, 112(%rsp)
.LEHB43:
	call	_ZN4asio6detail14strand_service8dispatchINS0_7binder2IZN7asiopal13SerialChannel14BeginWriteImplERKN7openpal6RSliceEEUlRKSt10error_codemE_SA_mEEEEvRPNS1_11strand_implERT_.constprop.0
.LEHE43:
.L2399:
	sfence
.L2401:
	sfence
	cmpq	$0, 80(%rsp)
	movq	72(%rsp), %rbp
	je	.L2447
	movq	$0, 80(%rsp)
.L2447:
	testq	%rbp, %rbp
	je	.L2321
	data16	leaq	_ZN4asio6detail15keyword_tss_ptrINS0_10call_stackINS0_15task_io_serviceENS0_27task_io_service_thread_infoEE7contextEE6value_E@tlsgd(%rip), %rdi
	.value	0x6666
	rex64
	call	__tls_get_addr@PLT
	movq	(%rax), %rax
	testq	%rax, %rax
	je	.L2451
	movq	8(%rax), %rax
	testq	%rax, %rax
	je	.L2451
	cmpq	$0, (%rax)
	je	.L2612
.L2451:
	movq	%rbp, %rdi
	call	_ZdlPv@PLT
.L2321:
	movq	520(%rsp), %rax
	subq	%fs:40, %rax
	jne	.L2613
	addq	$536, %rsp
	.cfi_remember_state
	.cfi_def_cfa_offset 56
	popq	%rbx
	.cfi_def_cfa_offset 48
	popq	%rbp
	.cfi_def_cfa_offset 40
	popq	%r12
	.cfi_def_cfa_offset 32
	popq	%r13
	.cfi_def_cfa_offset 24
	popq	%r14
	.cfi_def_cfa_offset 16
	popq	%r15
	.cfi_def_cfa_offset 8
	ret
	.p2align 4,,10
	.p2align 3
.L2325:
	.cfi_restore_state
	pxor	%xmm0, %xmm0
	leaq	416(%rsp), %rax
	movq	264(%rsp), %r13
	movq	%rax, 96(%rsp)
	movups	%xmm0, 104(%rsp)
	data16	leaq	_ZN4asio6detail15keyword_tss_ptrINS0_10call_stackINS0_15task_io_serviceENS0_27task_io_service_thread_infoEE7contextEE6value_E@tlsgd(%rip), %rdi
	.value	0x6666
	rex64
	call	__tls_get_addr@PLT
	movq	(%rax), %rax
	testq	%rax, %rax
	je	.L2402
	movq	8(%rax), %rax
	testq	%rax, %rax
	je	.L2402
	movq	(%rax), %rbp
	testq	%rbp, %rbp
	je	.L2402
	movq	$0, (%rax)
	movzbl	0(%rbp), %eax
	cmpb	$119, %al
	jbe	.L2403
	movb	%al, 120(%rbp)
	jmp	.L2404
	.p2align 4,,10
	.p2align 3
.L2403:
	movq	%rbp, %rdi
	call	_ZdlPv@PLT
.L2402:
	movl	$121, %edi
.LEHB44:
	call	_Znwm@PLT
.LEHE44:
	movb	$120, 120(%rax)
	movq	424(%rsp), %r12
	movq	%rax, %rbp
.L2404:
	leaq	_ZN4asio6detail18completion_handlerINS0_17rewrapped_handlerINS0_7binder2INS0_8write_opINS_17basic_serial_portINS_19serial_port_serviceEEENS_15const_buffers_1ENS0_14transfer_all_tENS0_15wrapped_handlerINS_10io_service6strandEZN7asiopal13SerialChannel14BeginWriteImplERKN7openpal6RSliceEEUlRKSt10error_codemE_NS0_26is_continuation_if_runningEEEEESJ_mEESM_EEE11do_completeEPNS0_15task_io_serviceEPNS0_25task_io_service_operationESL_m(%rip), %rax
	movq	%rbp, 104(%rsp)
	movdqa	432(%rsp), %xmm6
	movq	%rax, 8(%rbp)
	movq	416(%rsp), %rax
	movups	%xmm6, 40(%rbp)
	movq	40(%r13), %rbx
	movdqa	464(%rsp), %xmm7
	movq	%rax, 24(%rbp)
	movl	448(%rsp), %eax
	movdqu	488(%rsp), %xmm6
	movl	$0, 16(%rbp)
	movl	%eax, 56(%rbp)
	movq	456(%rsp), %rax
	movq	$0, 0(%rbp)
	movq	%rax, 64(%rbp)
	movq	480(%rsp), %rax
	movq	%r12, 32(%rbp)
	movq	%rax, 88(%rbp)
	movq	504(%rsp), %rax
	movups	%xmm7, 72(%rbp)
	movq	%rax, 112(%rbp)
	movups	%xmm6, 96(%rbp)
	movq	%rbp, 112(%rsp)
	data16	leaq	_ZN4asio6detail15keyword_tss_ptrINS0_10call_stackINS0_15task_io_serviceENS0_27task_io_service_thread_infoEE7contextEE6value_E@tlsgd(%rip), %rdi
	.value	0x6666
	rex64
	call	__tls_get_addr@PLT
	movq	(%rax), %rax
	testq	%rax, %rax
	jne	.L2409
	jmp	.L2405
	.p2align 4,,10
	.p2align 3
.L2406:
	movq	16(%rax), %rax
	testq	%rax, %rax
	je	.L2405
.L2409:
	cmpq	(%rax), %rbx
	jne	.L2406
	movq	8(%rax), %rbx
	movq	272(%rsp), %rax
	leaq	24(%rax), %rdi
	call	pthread_mutex_lock@PLT
	testq	%rbx, %rbx
	je	.L2408
	movq	272(%rsp), %rax
	cmpb	$0, 64(%rax)
	leaq	24(%rax), %rdi
	je	.L2614
.L2410:
	cmpq	$0, 80(%rax)
	movq	$0, 0(%rbp)
	je	.L2413
	movq	80(%rax), %rdx
	movq	%rbp, (%rdx)
	movq	%rbp, 80(%rax)
.L2594:
	call	pthread_mutex_unlock@PLT
	jmp	.L2401
.L2614:
	movb	$1, 64(%rax)
	leaq	48(%rsp), %r12
	call	pthread_mutex_unlock@PLT
	pxor	%xmm0, %xmm0
	movq	112(%rsp), %r14
	movq	272(%rsp), %rbx
	movups	%xmm0, 104(%rsp)
	movq	%rbx, 144(%rsp)
	data16	leaq	_ZN4asio6detail15keyword_tss_ptrINS0_10call_stackINS0_14strand_service11strand_implEhE7contextEE6value_E@tlsgd(%rip), %rdi
	.value	0x6666
	rex64
	call	__tls_get_addr@PLT
	movq	40(%r13), %rbp
	movq	%rbx, %xmm7
	movl	$0, 48(%rsp)
	movq	%rbp, %xmm0
	punpcklqdq	%xmm7, %xmm0
	movaps	%xmm0, 32(%rsp)
	movq	(%rax), %rdx
	movq	%rdx, 160(%rsp)
	leaq	144(%rsp), %rdx
	movq	%rdx, 152(%rsp)
	movq	%rdx, (%rax)
	call	_ZNSt3_V215system_categoryEv@PLT
	xorl	%ecx, %ecx
	movq	%r12, %rdx
	movq	%r14, %rsi
	movq	%rbp, %rdi
	movq	%rax, 56(%rsp)
.LEHB45:
	call	_ZN4asio6detail18completion_handlerINS0_17rewrapped_handlerINS0_7binder2INS0_8write_opINS_17basic_serial_portINS_19serial_port_serviceEEENS_15const_buffers_1ENS0_14transfer_all_tENS0_15wrapped_handlerINS_10io_service6strandEZN7asiopal13SerialChannel14BeginWriteImplERKN7openpal6RSliceEEUlRKSt10error_codemE_NS0_26is_continuation_if_runningEEEEESJ_mEESM_EEE11do_completeEPNS0_15task_io_serviceEPNS0_25task_io_service_operationESL_m
.LEHE45:
	movq	40(%rsp), %rax
	leaq	24(%rax), %rdi
	call	pthread_mutex_lock@PLT
	movq	40(%rsp), %rdi
	movq	72(%rdi), %rbx
	testq	%rbx, %rbx
	je	.L2615
	movq	96(%rdi), %rax
	testq	%rax, %rax
	je	.L2430
	movq	%rbx, (%rax)
	movq	88(%rdi), %rbx
.L2431:
	movq	80(%rdi), %rax
	pxor	%xmm0, %xmm0
	movups	%xmm0, 72(%rdi)
	movq	%rax, 96(%rdi)
.L2429:
	testq	%rbx, %rbx
	setne	64(%rdi)
	addq	$24, %rdi
	call	pthread_mutex_unlock@PLT
	testq	%rbx, %rbx
	jne	.L2616
.L2432:
	data16	leaq	_ZN4asio6detail15keyword_tss_ptrINS0_10call_stackINS0_14strand_service11strand_implEhE7contextEE6value_E@tlsgd(%rip), %rdi
	.value	0x6666
	rex64
	call	__tls_get_addr@PLT
	cmpq	$0, 112(%rsp)
	movq	104(%rsp), %rbp
	movq	160(%rsp), %rdx
	movq	%rdx, (%rax)
	je	.L2443
	movq	$0, 112(%rsp)
.L2443:
	testq	%rbp, %rbp
	je	.L2401
	data16	leaq	_ZN4asio6detail15keyword_tss_ptrINS0_10call_stackINS0_15task_io_serviceENS0_27task_io_service_thread_infoEE7contextEE6value_E@tlsgd(%rip), %rdi
	.value	0x6666
	rex64
	call	__tls_get_addr@PLT
	movq	(%rax), %rax
	testq	%rax, %rax
	je	.L2445
	movq	8(%rax), %rax
	testq	%rax, %rax
	je	.L2445
	cmpq	$0, (%rax)
	je	.L2617
.L2445:
	movq	%rbp, %rdi
	call	_ZdlPv@PLT
	jmp	.L2401
	.p2align 4,,10
	.p2align 3
.L2609:
	movzbl	144(%rbp), %edx
	movb	%dl, 0(%rbp)
	movq	%rbp, (%rax)
	jmp	.L2323
	.p2align 4,,10
	.p2align 3
.L2413:
	movq	%rbp, %xmm0
	punpcklqdq	%xmm0, %xmm0
	movups	%xmm0, 72(%rax)
	jmp	.L2594
	.p2align 4,,10
	.p2align 3
.L2615:
	movq	88(%rdi), %rbx
	jmp	.L2429
	.p2align 4,,10
	.p2align 3
.L2405:
	movq	272(%rsp), %rax
	leaq	24(%rax), %rdi
	call	pthread_mutex_lock@PLT
.L2408:
	movq	272(%rsp), %rax
	cmpb	$0, 64(%rax)
	leaq	24(%rax), %rdi
	jne	.L2410
	movb	$1, 64(%rax)
	call	pthread_mutex_unlock@PLT
	movq	272(%rsp), %r12
	movq	$0, 0(%rbp)
	cmpq	$0, 96(%r12)
	je	.L2416
	movq	96(%r12), %rax
	movq	%rbp, (%rax)
	movq	%rbp, 96(%r12)
.L2417:
	movq	40(%r13), %rbx
	cmpb	$0, 40(%rbx)
	je	.L2418
	data16	leaq	_ZN4asio6detail15keyword_tss_ptrINS0_10call_stackINS0_15task_io_serviceENS0_27task_io_service_thread_infoEE7contextEE6value_E@tlsgd(%rip), %rdi
	.value	0x6666
	rex64
	call	__tls_get_addr@PLT
	movq	(%rax), %rax
	testq	%rax, %rax
	jne	.L2421
	jmp	.L2418
	.p2align 4,,10
	.p2align 3
.L2419:
	movq	16(%rax), %rax
	testq	%rax, %rax
	je	.L2418
.L2421:
	cmpq	(%rax), %rbx
	jne	.L2419
	movq	8(%rax), %rax
	testq	%rax, %rax
	je	.L2418
	addq	$1, 24(%rax)
	cmpq	$0, 16(%rax)
	movq	$0, (%r12)
	je	.L2422
	movq	16(%rax), %rdx
	movq	%r12, (%rdx)
	movq	%r12, 16(%rax)
	jmp	.L2401
	.p2align 4,,10
	.p2align 3
.L2418:
	lock addq	$1, 184(%rbx)
	leaq	48(%rbx), %rbp
	movq	%rbp, %rdi
	call	pthread_mutex_lock@PLT
	cmpq	$0, 200(%rbx)
	movq	$0, (%r12)
	je	.L2423
	movq	200(%rbx), %rax
	movq	%r12, (%rax)
	movq	%r12, 200(%rbx)
.L2424:
	movq	136(%rbx), %rax
	orq	$1, %rax
	movq	%rax, 136(%rbx)
	cmpq	$1, %rax
	je	.L2425
	movq	%rbp, %rdi
	call	pthread_mutex_unlock@PLT
	leaq	88(%rbx), %rdi
	call	pthread_cond_signal@PLT
	jmp	.L2401
.L2425:
	cmpb	$0, 176(%rbx)
	jne	.L2427
	movq	144(%rbx), %rax
	testq	%rax, %rax
	je	.L2427
	movb	$1, 176(%rbx)
	leaq	88(%rax), %rdx
	movl	$3, %esi
	leaq	144(%rsp), %rcx
	movq	%rdx, 148(%rsp)
	movl	88(%rax), %edx
	movl	$-2147483639, 144(%rsp)
	movl	96(%rax), %edi
	call	epoll_ctl@PLT
.L2427:
	movq	%rbp, %rdi
	jmp	.L2594
	.p2align 4,,10
	.p2align 3
.L2612:
	movzbl	144(%rbp), %edx
	movb	%dl, 0(%rbp)
	movq	%rbp, (%rax)
	jmp	.L2321
	.p2align 4,,10
	.p2align 3
.L2616:
	movq	32(%rsp), %rbx
	movq	40(%rsp), %rbp
	cmpb	$0, 40(%rbx)
	je	.L2433
