	.file	"TCPClientIOHandler.cpp"
	.text
	.section	.rodata._ZNK4asio6detail15system_category4nameEv.str1.1,"aMS",@progbits,1
.LC0:
	.string	"asio.system"
	.section	.text._ZNK4asio6detail15system_category4nameEv,"axG",@progbits,_ZNK4asio6detail15system_category4nameEv,comdat
	.align 2
	.p2align 4
	.weak	_ZNK4asio6detail15system_category4nameEv
	.type	_ZNK4asio6detail15system_category4nameEv, @function
_ZNK4asio6detail15system_category4nameEv:
.LFB2980:
	.cfi_startproc
	leaq	.LC0(%rip), %rax
	ret
	.cfi_endproc
.LFE2980:
	.size	_ZNK4asio6detail15system_category4nameEv, .-_ZNK4asio6detail15system_category4nameEv
	.section	.rodata._ZNK4asio5error6detail14netdb_category4nameEv.str1.1,"aMS",@progbits,1
.LC1:
	.string	"asio.netdb"
	.section	.text._ZNK4asio5error6detail14netdb_category4nameEv,"axG",@progbits,_ZNK4asio5error6detail14netdb_category4nameEv,comdat
	.align 2
	.p2align 4
	.weak	_ZNK4asio5error6detail14netdb_category4nameEv
	.type	_ZNK4asio5error6detail14netdb_category4nameEv, @function
_ZNK4asio5error6detail14netdb_category4nameEv:
.LFB3020:
	.cfi_startproc
	leaq	.LC1(%rip), %rax
	ret
	.cfi_endproc
.LFE3020:
	.size	_ZNK4asio5error6detail14netdb_category4nameEv, .-_ZNK4asio5error6detail14netdb_category4nameEv
	.section	.rodata._ZNK4asio5error6detail17addrinfo_category4nameEv.str1.1,"aMS",@progbits,1
.LC2:
	.string	"asio.addrinfo"
	.section	.text._ZNK4asio5error6detail17addrinfo_category4nameEv,"axG",@progbits,_ZNK4asio5error6detail17addrinfo_category4nameEv,comdat
	.align 2
	.p2align 4
	.weak	_ZNK4asio5error6detail17addrinfo_category4nameEv
	.type	_ZNK4asio5error6detail17addrinfo_category4nameEv, @function
_ZNK4asio5error6detail17addrinfo_category4nameEv:
.LFB3026:
	.cfi_startproc
	leaq	.LC2(%rip), %rax
	ret
	.cfi_endproc
.LFE3026:
	.size	_ZNK4asio5error6detail17addrinfo_category4nameEv, .-_ZNK4asio5error6detail17addrinfo_category4nameEv
	.section	.rodata._ZNK4asio5error6detail13misc_category4nameEv.str1.1,"aMS",@progbits,1
.LC3:
	.string	"asio.misc"
	.section	.text._ZNK4asio5error6detail13misc_category4nameEv,"axG",@progbits,_ZNK4asio5error6detail13misc_category4nameEv,comdat
	.align 2
	.p2align 4
	.weak	_ZNK4asio5error6detail13misc_category4nameEv
	.type	_ZNK4asio5error6detail13misc_category4nameEv, @function
_ZNK4asio5error6detail13misc_category4nameEv:
.LFB3032:
	.cfi_startproc
	leaq	.LC3(%rip), %rax
	ret
	.cfi_endproc
.LFE3032:
	.size	_ZNK4asio5error6detail13misc_category4nameEv, .-_ZNK4asio5error6detail13misc_category4nameEv
	.section	.text._ZN4asio6detail7tss_ptrINS0_10call_stackINS0_15task_io_serviceENS0_27task_io_service_thread_infoEE7contextEED2Ev,"axG",@progbits,_ZN4asio6detail7tss_ptrINS0_10call_stackINS0_15task_io_serviceENS0_27task_io_service_thread_infoEE7contextEED5Ev,comdat
	.align 2
	.p2align 4
	.weak	_ZN4asio6detail7tss_ptrINS0_10call_stackINS0_15task_io_serviceENS0_27task_io_service_thread_infoEE7contextEED2Ev
	.type	_ZN4asio6detail7tss_ptrINS0_10call_stackINS0_15task_io_serviceENS0_27task_io_service_thread_infoEE7contextEED2Ev, @function
_ZN4asio6detail7tss_ptrINS0_10call_stackINS0_15task_io_serviceENS0_27task_io_service_thread_infoEE7contextEED2Ev:
.LFB10506:
	.cfi_startproc
	ret
	.cfi_endproc
.LFE10506:
	.size	_ZN4asio6detail7tss_ptrINS0_10call_stackINS0_15task_io_serviceENS0_27task_io_service_thread_infoEE7contextEED2Ev, .-_ZN4asio6detail7tss_ptrINS0_10call_stackINS0_15task_io_serviceENS0_27task_io_service_thread_infoEE7contextEED2Ev
	.weak	_ZN4asio6detail7tss_ptrINS0_10call_stackINS0_15task_io_serviceENS0_27task_io_service_thread_infoEE7contextEED1Ev
	.set	_ZN4asio6detail7tss_ptrINS0_10call_stackINS0_15task_io_serviceENS0_27task_io_service_thread_infoEE7contextEED1Ev,_ZN4asio6detail7tss_ptrINS0_10call_stackINS0_15task_io_serviceENS0_27task_io_service_thread_infoEE7contextEED2Ev
	.section	.text._ZN4asio6detail10service_idINS0_13epoll_reactorEED2Ev,"axG",@progbits,_ZN4asio6detail10service_idINS0_13epoll_reactorEED5Ev,comdat
	.align 2
	.p2align 4
	.weak	_ZN4asio6detail10service_idINS0_13epoll_reactorEED2Ev
	.type	_ZN4asio6detail10service_idINS0_13epoll_reactorEED2Ev, @function
_ZN4asio6detail10service_idINS0_13epoll_reactorEED2Ev:
.LFB10509:
	.cfi_startproc
	ret
	.cfi_endproc
.LFE10509:
	.size	_ZN4asio6detail10service_idINS0_13epoll_reactorEED2Ev, .-_ZN4asio6detail10service_idINS0_13epoll_reactorEED2Ev
	.weak	_ZN4asio6detail10service_idINS0_13epoll_reactorEED1Ev
	.set	_ZN4asio6detail10service_idINS0_13epoll_reactorEED1Ev,_ZN4asio6detail10service_idINS0_13epoll_reactorEED2Ev
	.section	.text._ZN4asio6detail10service_idINS0_15task_io_serviceEED2Ev,"axG",@progbits,_ZN4asio6detail10service_idINS0_15task_io_serviceEED5Ev,comdat
	.align 2
	.p2align 4
	.weak	_ZN4asio6detail10service_idINS0_15task_io_serviceEED2Ev
	.type	_ZN4asio6detail10service_idINS0_15task_io_serviceEED2Ev, @function
_ZN4asio6detail10service_idINS0_15task_io_serviceEED2Ev:
.LFB10512:
	.cfi_startproc
	ret
	.cfi_endproc
.LFE10512:
	.size	_ZN4asio6detail10service_idINS0_15task_io_serviceEED2Ev, .-_ZN4asio6detail10service_idINS0_15task_io_serviceEED2Ev
	.weak	_ZN4asio6detail10service_idINS0_15task_io_serviceEED1Ev
	.set	_ZN4asio6detail10service_idINS0_15task_io_serviceEED1Ev,_ZN4asio6detail10service_idINS0_15task_io_serviceEED2Ev
	.section	.text._ZN4asio6detail7tss_ptrINS0_10call_stackINS0_14strand_service11strand_implEhE7contextEED2Ev,"axG",@progbits,_ZN4asio6detail7tss_ptrINS0_10call_stackINS0_14strand_service11strand_implEhE7contextEED5Ev,comdat
	.align 2
	.p2align 4
	.weak	_ZN4asio6detail7tss_ptrINS0_10call_stackINS0_14strand_service11strand_implEhE7contextEED2Ev
	.type	_ZN4asio6detail7tss_ptrINS0_10call_stackINS0_14strand_service11strand_implEhE7contextEED2Ev, @function
_ZN4asio6detail7tss_ptrINS0_10call_stackINS0_14strand_service11strand_implEhE7contextEED2Ev:
.LFB10515:
	.cfi_startproc
	ret
	.cfi_endproc
.LFE10515:
	.size	_ZN4asio6detail7tss_ptrINS0_10call_stackINS0_14strand_service11strand_implEhE7contextEED2Ev, .-_ZN4asio6detail7tss_ptrINS0_10call_stackINS0_14strand_service11strand_implEhE7contextEED2Ev
	.weak	_ZN4asio6detail7tss_ptrINS0_10call_stackINS0_14strand_service11strand_implEhE7contextEED1Ev
	.set	_ZN4asio6detail7tss_ptrINS0_10call_stackINS0_14strand_service11strand_implEhE7contextEED1Ev,_ZN4asio6detail7tss_ptrINS0_10call_stackINS0_14strand_service11strand_implEhE7contextEED2Ev
	.section	.text._ZN4asio6detail10service_idINS0_14strand_serviceEED2Ev,"axG",@progbits,_ZN4asio6detail10service_idINS0_14strand_serviceEED5Ev,comdat
	.align 2
	.p2align 4
	.weak	_ZN4asio6detail10service_idINS0_14strand_serviceEED2Ev
	.type	_ZN4asio6detail10service_idINS0_14strand_serviceEED2Ev, @function
_ZN4asio6detail10service_idINS0_14strand_serviceEED2Ev:
.LFB10518:
	.cfi_startproc
	ret
	.cfi_endproc
.LFE10518:
	.size	_ZN4asio6detail10service_idINS0_14strand_serviceEED2Ev, .-_ZN4asio6detail10service_idINS0_14strand_serviceEED2Ev
	.weak	_ZN4asio6detail10service_idINS0_14strand_serviceEED1Ev
	.set	_ZN4asio6detail10service_idINS0_14strand_serviceEED1Ev,_ZN4asio6detail10service_idINS0_14strand_serviceEED2Ev
	.section	.text._ZNSt23_Sp_counted_ptr_inplaceIN7asiopal13SocketChannelESaIS1_ELN9__gnu_cxx12_Lock_policyE2EED2Ev,"axG",@progbits,_ZNSt23_Sp_counted_ptr_inplaceIN7asiopal13SocketChannelESaIS1_ELN9__gnu_cxx12_Lock_policyE2EED5Ev,comdat
	.align 2
	.p2align 4
	.weak	_ZNSt23_Sp_counted_ptr_inplaceIN7asiopal13SocketChannelESaIS1_ELN9__gnu_cxx12_Lock_policyE2EED2Ev
	.type	_ZNSt23_Sp_counted_ptr_inplaceIN7asiopal13SocketChannelESaIS1_ELN9__gnu_cxx12_Lock_policyE2EED2Ev, @function
_ZNSt23_Sp_counted_ptr_inplaceIN7asiopal13SocketChannelESaIS1_ELN9__gnu_cxx12_Lock_policyE2EED2Ev:
.LFB10521:
	.cfi_startproc
	ret
	.cfi_endproc
.LFE10521:
	.size	_ZNSt23_Sp_counted_ptr_inplaceIN7asiopal13SocketChannelESaIS1_ELN9__gnu_cxx12_Lock_policyE2EED2Ev, .-_ZNSt23_Sp_counted_ptr_inplaceIN7asiopal13SocketChannelESaIS1_ELN9__gnu_cxx12_Lock_policyE2EED2Ev
	.weak	_ZNSt23_Sp_counted_ptr_inplaceIN7asiopal13SocketChannelESaIS1_ELN9__gnu_cxx12_Lock_policyE2EED1Ev
	.set	_ZNSt23_Sp_counted_ptr_inplaceIN7asiopal13SocketChannelESaIS1_ELN9__gnu_cxx12_Lock_policyE2EED1Ev,_ZNSt23_Sp_counted_ptr_inplaceIN7asiopal13SocketChannelESaIS1_ELN9__gnu_cxx12_Lock_policyE2EED2Ev
	.section	.text._ZNSt23_Sp_counted_ptr_inplaceIN7asiopal9TCPClientESaIS1_ELN9__gnu_cxx12_Lock_policyE2EED2Ev,"axG",@progbits,_ZNSt23_Sp_counted_ptr_inplaceIN7asiopal9TCPClientESaIS1_ELN9__gnu_cxx12_Lock_policyE2EED5Ev,comdat
	.align 2
	.p2align 4
	.weak	_ZNSt23_Sp_counted_ptr_inplaceIN7asiopal9TCPClientESaIS1_ELN9__gnu_cxx12_Lock_policyE2EED2Ev
	.type	_ZNSt23_Sp_counted_ptr_inplaceIN7asiopal9TCPClientESaIS1_ELN9__gnu_cxx12_Lock_policyE2EED2Ev, @function
_ZNSt23_Sp_counted_ptr_inplaceIN7asiopal9TCPClientESaIS1_ELN9__gnu_cxx12_Lock_policyE2EED2Ev:
.LFB10535:
	.cfi_startproc
	ret
	.cfi_endproc
.LFE10535:
	.size	_ZNSt23_Sp_counted_ptr_inplaceIN7asiopal9TCPClientESaIS1_ELN9__gnu_cxx12_Lock_policyE2EED2Ev, .-_ZNSt23_Sp_counted_ptr_inplaceIN7asiopal9TCPClientESaIS1_ELN9__gnu_cxx12_Lock_policyE2EED2Ev
	.weak	_ZNSt23_Sp_counted_ptr_inplaceIN7asiopal9TCPClientESaIS1_ELN9__gnu_cxx12_Lock_policyE2EED1Ev
	.set	_ZNSt23_Sp_counted_ptr_inplaceIN7asiopal9TCPClientESaIS1_ELN9__gnu_cxx12_Lock_policyE2EED1Ev,_ZNSt23_Sp_counted_ptr_inplaceIN7asiopal9TCPClientESaIS1_ELN9__gnu_cxx12_Lock_policyE2EED2Ev
	.section	.text._ZNSt23_Sp_counted_ptr_inplaceIN7asiopal9TCPClientESaIS1_ELN9__gnu_cxx12_Lock_policyE2EED0Ev,"axG",@progbits,_ZNSt23_Sp_counted_ptr_inplaceIN7asiopal9TCPClientESaIS1_ELN9__gnu_cxx12_Lock_policyE2EED5Ev,comdat
	.align 2
	.p2align 4
	.weak	_ZNSt23_Sp_counted_ptr_inplaceIN7asiopal9TCPClientESaIS1_ELN9__gnu_cxx12_Lock_policyE2EED0Ev
	.type	_ZNSt23_Sp_counted_ptr_inplaceIN7asiopal9TCPClientESaIS1_ELN9__gnu_cxx12_Lock_policyE2EED0Ev, @function
_ZNSt23_Sp_counted_ptr_inplaceIN7asiopal9TCPClientESaIS1_ELN9__gnu_cxx12_Lock_policyE2EED0Ev:
.LFB10537:
	.cfi_startproc
	movl	$264, %esi
	jmp	_ZdlPvm@PLT
	.cfi_endproc
.LFE10537:
	.size	_ZNSt23_Sp_counted_ptr_inplaceIN7asiopal9TCPClientESaIS1_ELN9__gnu_cxx12_Lock_policyE2EED0Ev, .-_ZNSt23_Sp_counted_ptr_inplaceIN7asiopal9TCPClientESaIS1_ELN9__gnu_cxx12_Lock_policyE2EED0Ev
	.section	.text._ZNSt23_Sp_counted_ptr_inplaceIN7asiopal13SocketChannelESaIS1_ELN9__gnu_cxx12_Lock_policyE2EED0Ev,"axG",@progbits,_ZNSt23_Sp_counted_ptr_inplaceIN7asiopal13SocketChannelESaIS1_ELN9__gnu_cxx12_Lock_policyE2EED5Ev,comdat
	.align 2
	.p2align 4
	.weak	_ZNSt23_Sp_counted_ptr_inplaceIN7asiopal13SocketChannelESaIS1_ELN9__gnu_cxx12_Lock_policyE2EED0Ev
	.type	_ZNSt23_Sp_counted_ptr_inplaceIN7asiopal13SocketChannelESaIS1_ELN9__gnu_cxx12_Lock_policyE2EED0Ev, @function
_ZNSt23_Sp_counted_ptr_inplaceIN7asiopal13SocketChannelESaIS1_ELN9__gnu_cxx12_Lock_policyE2EED0Ev:
.LFB10523:
	.cfi_startproc
	movl	$112, %esi
	jmp	_ZdlPvm@PLT
	.cfi_endproc
.LFE10523:
	.size	_ZNSt23_Sp_counted_ptr_inplaceIN7asiopal13SocketChannelESaIS1_ELN9__gnu_cxx12_Lock_policyE2EED0Ev, .-_ZNSt23_Sp_counted_ptr_inplaceIN7asiopal13SocketChannelESaIS1_ELN9__gnu_cxx12_Lock_policyE2EED0Ev
	.section	.text._ZNSt23_Sp_counted_ptr_inplaceIN7asiopal13SocketChannelESaIS1_ELN9__gnu_cxx12_Lock_policyE2EE10_M_destroyEv,"axG",@progbits,_ZNSt23_Sp_counted_ptr_inplaceIN7asiopal13SocketChannelESaIS1_ELN9__gnu_cxx12_Lock_policyE2EE10_M_destroyEv,comdat
	.align 2
	.p2align 4
	.weak	_ZNSt23_Sp_counted_ptr_inplaceIN7asiopal13SocketChannelESaIS1_ELN9__gnu_cxx12_Lock_policyE2EE10_M_destroyEv
	.type	_ZNSt23_Sp_counted_ptr_inplaceIN7asiopal13SocketChannelESaIS1_ELN9__gnu_cxx12_Lock_policyE2EE10_M_destroyEv, @function
_ZNSt23_Sp_counted_ptr_inplaceIN7asiopal13SocketChannelESaIS1_ELN9__gnu_cxx12_Lock_policyE2EE10_M_destroyEv:
.LFB10525:
	.cfi_startproc
	movl	$112, %esi
	jmp	_ZdlPvm@PLT
	.cfi_endproc
.LFE10525:
	.size	_ZNSt23_Sp_counted_ptr_inplaceIN7asiopal13SocketChannelESaIS1_ELN9__gnu_cxx12_Lock_policyE2EE10_M_destroyEv, .-_ZNSt23_Sp_counted_ptr_inplaceIN7asiopal13SocketChannelESaIS1_ELN9__gnu_cxx12_Lock_policyE2EE10_M_destroyEv
	.section	.text._ZNSt23_Sp_counted_ptr_inplaceIN7asiopal9TCPClientESaIS1_ELN9__gnu_cxx12_Lock_policyE2EE10_M_destroyEv,"axG",@progbits,_ZNSt23_Sp_counted_ptr_inplaceIN7asiopal9TCPClientESaIS1_ELN9__gnu_cxx12_Lock_policyE2EE10_M_destroyEv,comdat
	.align 2
	.p2align 4
	.weak	_ZNSt23_Sp_counted_ptr_inplaceIN7asiopal9TCPClientESaIS1_ELN9__gnu_cxx12_Lock_policyE2EE10_M_destroyEv
	.type	_ZNSt23_Sp_counted_ptr_inplaceIN7asiopal9TCPClientESaIS1_ELN9__gnu_cxx12_Lock_policyE2EE10_M_destroyEv, @function
_ZNSt23_Sp_counted_ptr_inplaceIN7asiopal9TCPClientESaIS1_ELN9__gnu_cxx12_Lock_policyE2EE10_M_destroyEv:
.LFB10539:
	.cfi_startproc
	movl	$264, %esi
	jmp	_ZdlPvm@PLT
	.cfi_endproc
.LFE10539:
	.size	_ZNSt23_Sp_counted_ptr_inplaceIN7asiopal9TCPClientESaIS1_ELN9__gnu_cxx12_Lock_policyE2EE10_M_destroyEv, .-_ZNSt23_Sp_counted_ptr_inplaceIN7asiopal9TCPClientESaIS1_ELN9__gnu_cxx12_Lock_policyE2EE10_M_destroyEv
	.section	.text._ZN4asio6detail15system_categoryD2Ev,"axG",@progbits,_ZN4asio6detail15system_categoryD5Ev,comdat
	.align 2
	.p2align 4
	.weak	_ZN4asio6detail15system_categoryD2Ev
	.type	_ZN4asio6detail15system_categoryD2Ev, @function
_ZN4asio6detail15system_categoryD2Ev:
.LFB10485:
	.cfi_startproc
	movq	_ZTVN4asio6detail15system_categoryE@GOTPCREL(%rip), %rax
	addq	$16, %rax
	movq	%rax, (%rdi)
	jmp	_ZNSt3_V214error_categoryD2Ev@PLT
	.cfi_endproc
.LFE10485:
	.size	_ZN4asio6detail15system_categoryD2Ev, .-_ZN4asio6detail15system_categoryD2Ev
	.weak	_ZN4asio6detail15system_categoryD1Ev
	.set	_ZN4asio6detail15system_categoryD1Ev,_ZN4asio6detail15system_categoryD2Ev
	.section	.text._ZN4asio6detail15system_categoryD0Ev,"axG",@progbits,_ZN4asio6detail15system_categoryD5Ev,comdat
	.align 2
	.p2align 4
	.weak	_ZN4asio6detail15system_categoryD0Ev
	.type	_ZN4asio6detail15system_categoryD0Ev, @function
_ZN4asio6detail15system_categoryD0Ev:
.LFB10487:
	.cfi_startproc
	movq	_ZTVN4asio6detail15system_categoryE@GOTPCREL(%rip), %rax
	pushq	%rbp
	.cfi_def_cfa_offset 16
	.cfi_offset 6, -16
	movq	%rdi, %rbp
	addq	$16, %rax
	movq	%rax, (%rdi)
	call	_ZNSt3_V214error_categoryD2Ev@PLT
	movq	%rbp, %rdi
	movl	$8, %esi
	popq	%rbp
	.cfi_def_cfa_offset 8
	jmp	_ZdlPvm@PLT
	.cfi_endproc
.LFE10487:
	.size	_ZN4asio6detail15system_categoryD0Ev, .-_ZN4asio6detail15system_categoryD0Ev
	.section	.text._ZN4asio5error6detail14netdb_categoryD2Ev,"axG",@progbits,_ZN4asio5error6detail14netdb_categoryD5Ev,comdat
	.align 2
	.p2align 4
	.weak	_ZN4asio5error6detail14netdb_categoryD2Ev
	.type	_ZN4asio5error6detail14netdb_categoryD2Ev, @function
_ZN4asio5error6detail14netdb_categoryD2Ev:
.LFB10473:
	.cfi_startproc
	movq	_ZTVN4asio5error6detail14netdb_categoryE@GOTPCREL(%rip), %rax
	addq	$16, %rax
	movq	%rax, (%rdi)
	jmp	_ZNSt3_V214error_categoryD2Ev@PLT
	.cfi_endproc
.LFE10473:
	.size	_ZN4asio5error6detail14netdb_categoryD2Ev, .-_ZN4asio5error6detail14netdb_categoryD2Ev
	.weak	_ZN4asio5error6detail14netdb_categoryD1Ev
	.set	_ZN4asio5error6detail14netdb_categoryD1Ev,_ZN4asio5error6detail14netdb_categoryD2Ev
	.section	.text._ZN4asio5error6detail14netdb_categoryD0Ev,"axG",@progbits,_ZN4asio5error6detail14netdb_categoryD5Ev,comdat
	.align 2
	.p2align 4
	.weak	_ZN4asio5error6detail14netdb_categoryD0Ev
	.type	_ZN4asio5error6detail14netdb_categoryD0Ev, @function
_ZN4asio5error6detail14netdb_categoryD0Ev:
.LFB10475:
	.cfi_startproc
	movq	_ZTVN4asio5error6detail14netdb_categoryE@GOTPCREL(%rip), %rax
	pushq	%rbp
	.cfi_def_cfa_offset 16
	.cfi_offset 6, -16
	movq	%rdi, %rbp
	addq	$16, %rax
	movq	%rax, (%rdi)
	call	_ZNSt3_V214error_categoryD2Ev@PLT
	movq	%rbp, %rdi
	movl	$8, %esi
	popq	%rbp
	.cfi_def_cfa_offset 8
	jmp	_ZdlPvm@PLT
	.cfi_endproc
.LFE10475:
	.size	_ZN4asio5error6detail14netdb_categoryD0Ev, .-_ZN4asio5error6detail14netdb_categoryD0Ev
	.section	.text._ZN4asio5error6detail17addrinfo_categoryD2Ev,"axG",@progbits,_ZN4asio5error6detail17addrinfo_categoryD5Ev,comdat
	.align 2
	.p2align 4
	.weak	_ZN4asio5error6detail17addrinfo_categoryD2Ev
	.type	_ZN4asio5error6detail17addrinfo_categoryD2Ev, @function
_ZN4asio5error6detail17addrinfo_categoryD2Ev:
.LFB10469:
	.cfi_startproc
	movq	_ZTVN4asio5error6detail17addrinfo_categoryE@GOTPCREL(%rip), %rax
	addq	$16, %rax
	movq	%rax, (%rdi)
	jmp	_ZNSt3_V214error_categoryD2Ev@PLT
	.cfi_endproc
.LFE10469:
	.size	_ZN4asio5error6detail17addrinfo_categoryD2Ev, .-_ZN4asio5error6detail17addrinfo_categoryD2Ev
	.weak	_ZN4asio5error6detail17addrinfo_categoryD1Ev
	.set	_ZN4asio5error6detail17addrinfo_categoryD1Ev,_ZN4asio5error6detail17addrinfo_categoryD2Ev
	.section	.text._ZN4asio5error6detail17addrinfo_categoryD0Ev,"axG",@progbits,_ZN4asio5error6detail17addrinfo_categoryD5Ev,comdat
	.align 2
	.p2align 4
	.weak	_ZN4asio5error6detail17addrinfo_categoryD0Ev
	.type	_ZN4asio5error6detail17addrinfo_categoryD0Ev, @function
_ZN4asio5error6detail17addrinfo_categoryD0Ev:
.LFB10471:
	.cfi_startproc
	movq	_ZTVN4asio5error6detail17addrinfo_categoryE@GOTPCREL(%rip), %rax
	pushq	%rbp
	.cfi_def_cfa_offset 16
	.cfi_offset 6, -16
	movq	%rdi, %rbp
	addq	$16, %rax
	movq	%rax, (%rdi)
	call	_ZNSt3_V214error_categoryD2Ev@PLT
	movq	%rbp, %rdi
	movl	$8, %esi
	popq	%rbp
	.cfi_def_cfa_offset 8
	jmp	_ZdlPvm@PLT
	.cfi_endproc
.LFE10471:
	.size	_ZN4asio5error6detail17addrinfo_categoryD0Ev, .-_ZN4asio5error6detail17addrinfo_categoryD0Ev
	.section	.text._ZN4asio5error6detail13misc_categoryD2Ev,"axG",@progbits,_ZN4asio5error6detail13misc_categoryD5Ev,comdat
	.align 2
	.p2align 4
	.weak	_ZN4asio5error6detail13misc_categoryD2Ev
	.type	_ZN4asio5error6detail13misc_categoryD2Ev, @function
_ZN4asio5error6detail13misc_categoryD2Ev:
.LFB10465:
	.cfi_startproc
	movq	_ZTVN4asio5error6detail13misc_categoryE@GOTPCREL(%rip), %rax
	addq	$16, %rax
	movq	%rax, (%rdi)
	jmp	_ZNSt3_V214error_categoryD2Ev@PLT
	.cfi_endproc
.LFE10465:
	.size	_ZN4asio5error6detail13misc_categoryD2Ev, .-_ZN4asio5error6detail13misc_categoryD2Ev
	.weak	_ZN4asio5error6detail13misc_categoryD1Ev
	.set	_ZN4asio5error6detail13misc_categoryD1Ev,_ZN4asio5error6detail13misc_categoryD2Ev
	.section	.text._ZN4asio5error6detail13misc_categoryD0Ev,"axG",@progbits,_ZN4asio5error6detail13misc_categoryD5Ev,comdat
	.align 2
	.p2align 4
	.weak	_ZN4asio5error6detail13misc_categoryD0Ev
	.type	_ZN4asio5error6detail13misc_categoryD0Ev, @function
_ZN4asio5error6detail13misc_categoryD0Ev:
.LFB10467:
	.cfi_startproc
	movq	_ZTVN4asio5error6detail13misc_categoryE@GOTPCREL(%rip), %rax
	pushq	%rbp
	.cfi_def_cfa_offset 16
	.cfi_offset 6, -16
	movq	%rdi, %rbp
	addq	$16, %rax
	movq	%rax, (%rdi)
	call	_ZNSt3_V214error_categoryD2Ev@PLT
	movq	%rbp, %rdi
	movl	$8, %esi
	popq	%rbp
	.cfi_def_cfa_offset 8
	jmp	_ZdlPvm@PLT
	.cfi_endproc
.LFE10467:
	.size	_ZN4asio5error6detail13misc_categoryD0Ev, .-_ZN4asio5error6detail13misc_categoryD0Ev
	.section	.text._ZNSt23_Sp_counted_ptr_inplaceIN7asiopal9TCPClientESaIS1_ELN9__gnu_cxx12_Lock_policyE2EE14_M_get_deleterERKSt9type_info,"axG",@progbits,_ZNSt23_Sp_counted_ptr_inplaceIN7asiopal9TCPClientESaIS1_ELN9__gnu_cxx12_Lock_policyE2EE14_M_get_deleterERKSt9type_info,comdat
	.align 2
	.p2align 4
	.weak	_ZNSt23_Sp_counted_ptr_inplaceIN7asiopal9TCPClientESaIS1_ELN9__gnu_cxx12_Lock_policyE2EE14_M_get_deleterERKSt9type_info
	.type	_ZNSt23_Sp_counted_ptr_inplaceIN7asiopal9TCPClientESaIS1_ELN9__gnu_cxx12_Lock_policyE2EE14_M_get_deleterERKSt9type_info, @function
_ZNSt23_Sp_counted_ptr_inplaceIN7asiopal9TCPClientESaIS1_ELN9__gnu_cxx12_Lock_policyE2EE14_M_get_deleterERKSt9type_info:
.LFB10540:
	.cfi_startproc
	cmpq	_ZZNSt19_Sp_make_shared_tag5_S_tiEvE5__tag@GOTPCREL(%rip), %rsi
	pushq	%r12
	.cfi_def_cfa_offset 16
	.cfi_offset 12, -16
	leaq	16(%rdi), %r12
	je	.L29
	movq	8(%rsi), %rdi
	movq	_ZTSSt19_Sp_make_shared_tag@GOTPCREL(%rip), %rsi
	cmpq	%rsi, %rdi
	je	.L29
	cmpb	$42, (%rdi)
	je	.L31
	call	strcmp@PLT
	testl	%eax, %eax
	movl	$0, %eax
	cmovne	%rax, %r12
.L29:
	movq	%r12, %rax
	popq	%r12
	.cfi_remember_state
	.cfi_def_cfa_offset 8
	ret
	.p2align 4,,10
	.p2align 3
.L31:
	.cfi_restore_state
	xorl	%r12d, %r12d
	movq	%r12, %rax
	popq	%r12
	.cfi_def_cfa_offset 8
	ret
	.cfi_endproc
.LFE10540:
	.size	_ZNSt23_Sp_counted_ptr_inplaceIN7asiopal9TCPClientESaIS1_ELN9__gnu_cxx12_Lock_policyE2EE14_M_get_deleterERKSt9type_info, .-_ZNSt23_Sp_counted_ptr_inplaceIN7asiopal9TCPClientESaIS1_ELN9__gnu_cxx12_Lock_policyE2EE14_M_get_deleterERKSt9type_info
	.section	.text._ZNSt23_Sp_counted_ptr_inplaceIN7asiopal13SocketChannelESaIS1_ELN9__gnu_cxx12_Lock_policyE2EE14_M_get_deleterERKSt9type_info,"axG",@progbits,_ZNSt23_Sp_counted_ptr_inplaceIN7asiopal13SocketChannelESaIS1_ELN9__gnu_cxx12_Lock_policyE2EE14_M_get_deleterERKSt9type_info,comdat
	.align 2
	.p2align 4
	.weak	_ZNSt23_Sp_counted_ptr_inplaceIN7asiopal13SocketChannelESaIS1_ELN9__gnu_cxx12_Lock_policyE2EE14_M_get_deleterERKSt9type_info
	.type	_ZNSt23_Sp_counted_ptr_inplaceIN7asiopal13SocketChannelESaIS1_ELN9__gnu_cxx12_Lock_policyE2EE14_M_get_deleterERKSt9type_info, @function
_ZNSt23_Sp_counted_ptr_inplaceIN7asiopal13SocketChannelESaIS1_ELN9__gnu_cxx12_Lock_policyE2EE14_M_get_deleterERKSt9type_info:
.LFB10526:
	.cfi_startproc
	cmpq	_ZZNSt19_Sp_make_shared_tag5_S_tiEvE5__tag@GOTPCREL(%rip), %rsi
	pushq	%r12
	.cfi_def_cfa_offset 16
	.cfi_offset 12, -16
	leaq	16(%rdi), %r12
	je	.L34
	movq	8(%rsi), %rdi
	movq	_ZTSSt19_Sp_make_shared_tag@GOTPCREL(%rip), %rsi
	cmpq	%rsi, %rdi
	je	.L34
	cmpb	$42, (%rdi)
	je	.L36
	call	strcmp@PLT
	testl	%eax, %eax
	movl	$0, %eax
	cmovne	%rax, %r12
.L34:
	movq	%r12, %rax
	popq	%r12
	.cfi_remember_state
	.cfi_def_cfa_offset 8
	ret
	.p2align 4,,10
	.p2align 3
.L36:
	.cfi_restore_state
	xorl	%r12d, %r12d
	movq	%r12, %rax
	popq	%r12
	.cfi_def_cfa_offset 8
	ret
	.cfi_endproc
.LFE10526:
	.size	_ZNSt23_Sp_counted_ptr_inplaceIN7asiopal13SocketChannelESaIS1_ELN9__gnu_cxx12_Lock_policyE2EE14_M_get_deleterERKSt9type_info, .-_ZNSt23_Sp_counted_ptr_inplaceIN7asiopal13SocketChannelESaIS1_ELN9__gnu_cxx12_Lock_policyE2EE14_M_get_deleterERKSt9type_info
	.section	.text._ZNSt8_Rb_treeIPN8opendnp317IScheduleCallbackES2_St9_IdentityIS2_ESt4lessIS2_ESaIS2_EE8_M_eraseEPSt13_Rb_tree_nodeIS2_E.isra.0,"axG",@progbits,_ZN8asiodnp39IOHandlerD5Ev,comdat
	.align 2
	.p2align 4
	.type	_ZNSt8_Rb_treeIPN8opendnp317IScheduleCallbackES2_St9_IdentityIS2_ESt4lessIS2_ESaIS2_EE8_M_eraseEPSt13_Rb_tree_nodeIS2_E.isra.0, @function
_ZNSt8_Rb_treeIPN8opendnp317IScheduleCallbackES2_St9_IdentityIS2_ESt4lessIS2_ESaIS2_EE8_M_eraseEPSt13_Rb_tree_nodeIS2_E.isra.0:
.LFB10679:
	.cfi_startproc
	pushq	%r15
	.cfi_def_cfa_offset 16
	.cfi_offset 15, -16
	pushq	%r14
	.cfi_def_cfa_offset 24
	.cfi_offset 14, -24
	pushq	%r13
	.cfi_def_cfa_offset 32
	.cfi_offset 13, -32
	pushq	%r12
	.cfi_def_cfa_offset 40
	.cfi_offset 12, -40
	pushq	%rbp
	.cfi_def_cfa_offset 48
	.cfi_offset 6, -48
	pushq	%rbx
	.cfi_def_cfa_offset 56
	.cfi_offset 3, -56
	subq	$40, %rsp
	.cfi_def_cfa_offset 96
	movq	%rdi, 16(%rsp)
	testq	%rdi, %rdi
	je	.L39
.L57:
	movq	16(%rsp), %rax
	movq	24(%rax), %r14
	testq	%r14, %r14
	je	.L41
.L56:
	movq	24(%r14), %r15
	testq	%r15, %r15
	je	.L42
.L55:
	movq	24(%r15), %rax
	movq	%rax, 8(%rsp)
	testq	%rax, %rax
	je	.L43
.L54:
	movq	8(%rsp), %rax
	movq	24(%rax), %rbp
	testq	%rbp, %rbp
	je	.L44
.L53:
	movq	24(%rbp), %r13
	testq	%r13, %r13
	je	.L45
.L52:
	movq	24(%r13), %r12
	testq	%r12, %r12
	je	.L46
.L51:
	movq	24(%r12), %r9
	testq	%r9, %r9
	je	.L47
.L50:
	movq	24(%r9), %rbx
	testq	%rbx, %rbx
	je	.L48
.L49:
	movq	24(%rbx), %rdi
	movq	%r9, 24(%rsp)
	call	_ZNSt8_Rb_treeIPN8opendnp317IScheduleCallbackES2_St9_IdentityIS2_ESt4lessIS2_ESaIS2_EE8_M_eraseEPSt13_Rb_tree_nodeIS2_E.isra.0
	movq	%rbx, %rdi
	movq	16(%rbx), %rbx
	movl	$40, %esi
	call	_ZdlPvm@PLT
	movq	24(%rsp), %r9
	testq	%rbx, %rbx
	jne	.L49
.L48:
	movq	16(%r9), %rbx
	movl	$40, %esi
	movq	%r9, %rdi
	call	_ZdlPvm@PLT
	testq	%rbx, %rbx
	je	.L47
	movq	%rbx, %r9
	jmp	.L50
.L45:
	movq	16(%rbp), %r12
	movl	$40, %esi
	movq	%rbp, %rdi
	call	_ZdlPvm@PLT
	testq	%r12, %r12
	je	.L44
	movq	%r12, %rbp
	jmp	.L53
	.p2align 4,,10
	.p2align 3
.L46:
	movq	16(%r13), %r12
	movl	$40, %esi
	movq	%r13, %rdi
	call	_ZdlPvm@PLT
	testq	%r12, %r12
	je	.L45
	movq	%r12, %r13
	jmp	.L52
.L44:
	movq	8(%rsp), %rdi
	movl	$40, %esi
	movq	16(%rdi), %rbp
	call	_ZdlPvm@PLT
	testq	%rbp, %rbp
	je	.L43
	movq	%rbp, 8(%rsp)
	jmp	.L54
	.p2align 4,,10
	.p2align 3
.L47:
	movq	16(%r12), %rax
	movl	$40, %esi
	movq	%r12, %rdi
	movq	%rax, 24(%rsp)
	call	_ZdlPvm@PLT
	movq	24(%rsp), %rax
	testq	%rax, %rax
	je	.L46
	movq	%rax, %r12
	jmp	.L51
.L43:
	movq	16(%r15), %rbx
	movl	$40, %esi
	movq	%r15, %rdi
	call	_ZdlPvm@PLT
	testq	%rbx, %rbx
	je	.L42
	movq	%rbx, %r15
	jmp	.L55
.L42:
	movq	16(%r14), %rbx
	movl	$40, %esi
	movq	%r14, %rdi
	call	_ZdlPvm@PLT
	testq	%rbx, %rbx
	je	.L41
	movq	%rbx, %r14
	jmp	.L56
.L41:
	movq	16(%rsp), %rdi
	movl	$40, %esi
	movq	16(%rdi), %rbx
	call	_ZdlPvm@PLT
	testq	%rbx, %rbx
	je	.L39
	movq	%rbx, 16(%rsp)
	jmp	.L57
.L39:
	addq	$40, %rsp
	.cfi_def_cfa_offset 56
	popq	%rbx
	.cfi_def_cfa_offset 48
	popq	%rbp
	.cfi_def_cfa_offset 40
	popq	%r12
	.cfi_def_cfa_offset 32
	popq	%r13
	.cfi_def_cfa_offset 24
	popq	%r14
	.cfi_def_cfa_offset 16
	popq	%r15
	.cfi_def_cfa_offset 8
	ret
	.cfi_endproc
.LFE10679:
	.size	_ZNSt8_Rb_treeIPN8opendnp317IScheduleCallbackES2_St9_IdentityIS2_ESt4lessIS2_ESaIS2_EE8_M_eraseEPSt13_Rb_tree_nodeIS2_E.isra.0, .-_ZNSt8_Rb_treeIPN8opendnp317IScheduleCallbackES2_St9_IdentityIS2_ESt4lessIS2_ESaIS2_EE8_M_eraseEPSt13_Rb_tree_nodeIS2_E.isra.0
	.section	.rodata._ZNK4asio6detail15system_category7messageB5cxx11Ei.str1.8,"aMS",@progbits,1
	.align 8
.LC4:
	.string	"basic_string::_M_construct null not valid"
	.section	.text._ZNK4asio6detail15system_category7messageB5cxx11Ei,"axG",@progbits,_ZNK4asio6detail15system_category7messageB5cxx11Ei,comdat
	.align 2
	.p2align 4
	.weak	_ZNK4asio6detail15system_category7messageB5cxx11Ei
	.type	_ZNK4asio6detail15system_category7messageB5cxx11Ei, @function
_ZNK4asio6detail15system_category7messageB5cxx11Ei:
.LFB2981:
	.cfi_startproc
	pushq	%r14
	.cfi_def_cfa_offset 16
	.cfi_offset 14, -16
	pushq	%r13
	.cfi_def_cfa_offset 24
	.cfi_offset 13, -24
	pushq	%r12
	.cfi_def_cfa_offset 32
	.cfi_offset 12, -32
	movq	%rdi, %r12
	pushq	%rbp
	.cfi_def_cfa_offset 40
	.cfi_offset 6, -40
	leaq	16(%rdi), %rbp
	subq	$296, %rsp
	.cfi_def_cfa_offset 336
	movq	%fs:40, %rax
	movq	%rax, 280(%rsp)
	xorl	%eax, %eax
	cmpl	$125, %edx
	je	.L110
	pxor	%xmm0, %xmm0
	movl	%edx, %edi
	leaq	16(%rsp), %rsi
	movl	$256, %edx
	movups	%xmm0, 16(%rsp)
	movups	%xmm0, 32(%rsp)
	movups	%xmm0, 48(%rsp)
	movups	%xmm0, 64(%rsp)
	movups	%xmm0, 80(%rsp)
	movups	%xmm0, 96(%rsp)
	movups	%xmm0, 112(%rsp)
	movups	%xmm0, 128(%rsp)
	movups	%xmm0, 144(%rsp)
	movups	%xmm0, 160(%rsp)
	movups	%xmm0, 176(%rsp)
	movups	%xmm0, 192(%rsp)
	movups	%xmm0, 208(%rsp)
	movups	%xmm0, 224(%rsp)
	movups	%xmm0, 240(%rsp)
	movups	%xmm0, 256(%rsp)
	call	strerror_r@PLT
	movq	%rbp, (%r12)
	movq	%rax, %r13
	testq	%rax, %rax
	je	.L98
	movq	%rax, %rdi
	call	strlen@PLT
	movq	%rax, 8(%rsp)
	movq	%rax, %r14
	cmpq	$15, %rax
	ja	.L111
	cmpq	$1, %rax
	jne	.L102
	movzbl	0(%r13), %edx
	movb	%dl, 16(%r12)
.L103:
	movq	%rax, 8(%r12)
	movb	$0, 0(%rbp,%rax)
.L95:
	movq	280(%rsp), %rax
	subq	%fs:40, %rax
	jne	.L112
	addq	$296, %rsp
	.cfi_remember_state
	.cfi_def_cfa_offset 40
	movq	%r12, %rax
	popq	%rbp
	.cfi_def_cfa_offset 32
	popq	%r12
	.cfi_def_cfa_offset 24
	popq	%r13
	.cfi_def_cfa_offset 16
	popq	%r14
	.cfi_def_cfa_offset 8
	ret
	.p2align 4,,10
	.p2align 3
.L111:
	.cfi_restore_state
	leaq	8(%rsp), %rsi
	xorl	%edx, %edx
	movq	%r12, %rdi
	call	_ZNSt7__cxx1112basic_stringIcSt11char_traitsIcESaIcEE9_M_createERmm@PLT
	movq	%rax, (%r12)
	movq	%rax, %rbp
	movq	8(%rsp), %rax
	movq	%rax, 16(%r12)
.L101:
	movq	%rbp, %rdi
	movq	%r14, %rdx
	movq	%r13, %rsi
	call	memcpy@PLT
	movq	8(%rsp), %rax
	movq	(%r12), %rbp
	jmp	.L103
	.p2align 4,,10
	.p2align 3
.L110:
	movq	%rbp, (%rdi)
	xorl	%edx, %edx
	leaq	8(%rsp), %rsi
	movq	$18, 8(%rsp)
	call	_ZNSt7__cxx1112basic_stringIcSt11char_traitsIcESaIcEE9_M_createERmm@PLT
	movq	8(%rsp), %rdx
	movdqa	.LC5(%rip), %xmm0
	movq	%rax, (%r12)
	movq	%rdx, 16(%r12)
	movl	$11876, %edx
	movw	%dx, 16(%rax)
	movups	%xmm0, (%rax)
	movq	8(%rsp), %rax
	movq	(%r12), %rdx
	movq	%rax, 8(%r12)
	movb	$0, (%rdx,%rax)
	jmp	.L95
	.p2align 4,,10
	.p2align 3
.L102:
	testq	%rax, %rax
	je	.L103
	jmp	.L101
.L98:
	leaq	.LC4(%rip), %rdi
	call	_ZSt19__throw_logic_errorPKc@PLT
.L112:
	call	__stack_chk_fail@PLT
	.cfi_endproc
.LFE2981:
	.size	_ZNK4asio6detail15system_category7messageB5cxx11Ei, .-_ZNK4asio6detail15system_category7messageB5cxx11Ei
	.section	.text._ZNK4asio5error6detail17addrinfo_category7messageB5cxx11Ei,"axG",@progbits,_ZNK4asio5error6detail17addrinfo_category7messageB5cxx11Ei,comdat
	.align 2
	.p2align 4
	.weak	_ZNK4asio5error6detail17addrinfo_category7messageB5cxx11Ei
	.type	_ZNK4asio5error6detail17addrinfo_category7messageB5cxx11Ei, @function
_ZNK4asio5error6detail17addrinfo_category7messageB5cxx11Ei:
.LFB3027:
	.cfi_startproc
	pushq	%r12
	.cfi_def_cfa_offset 16
	.cfi_offset 12, -16
	movq	%rdi, %r12
	subq	$16, %rsp
	.cfi_def_cfa_offset 32
	movq	%fs:40, %rax
	movq	%rax, 8(%rsp)
	xorl	%eax, %eax
	leaq	16(%rdi), %rax
	movq	%rax, (%rdi)
	cmpl	$-8, %edx
	je	.L119
	cmpl	$-7, %edx
	je	.L120
	xorl	%edx, %edx
	movq	%rsp, %rsi
	movq	$19, (%rsp)
	call	_ZNSt7__cxx1112basic_stringIcSt11char_traitsIcESaIcEE9_M_createERmm@PLT
	movq	(%rsp), %rdx
	movdqa	.LC8(%rip), %xmm0
	movq	%rax, (%r12)
	movq	%rdx, 16(%r12)
	movl	$28530, %edx
	movw	%dx, 16(%rax)
	movb	$114, 18(%rax)
	movups	%xmm0, (%rax)
	movq	(%rsp), %rax
	movq	(%r12), %rdx
	movq	%rax, 8(%r12)
	movb	$0, (%rdx,%rax)
.L113:
	movq	8(%rsp), %rax
	subq	%fs:40, %rax
	jne	.L121
	addq	$16, %rsp
	.cfi_remember_state
	.cfi_def_cfa_offset 16
	movq	%r12, %rax
	popq	%r12
	.cfi_def_cfa_offset 8
	ret
	.p2align 4,,10
	.p2align 3
.L120:
	.cfi_restore_state
	xorl	%edx, %edx
	movq	%rsp, %rsi
	movq	$25, (%rsp)
	call	_ZNSt7__cxx1112basic_stringIcSt11char_traitsIcESaIcEE9_M_createERmm@PLT
	movq	(%rsp), %rdx
	movdqa	.LC7(%rip), %xmm0
	movabsq	$7310593918082512243, %rcx
	movq	%rax, (%r12)
	movq	%rdx, 16(%r12)
	movq	%rcx, 16(%rax)
	movb	$100, 24(%rax)
	movups	%xmm0, (%rax)
	movq	(%rsp), %rax
	movq	(%r12), %rdx
	movq	%rax, 8(%r12)
	movb	$0, (%rdx,%rax)
	jmp	.L113
	.p2align 4,,10
	.p2align 3
.L119:
	xorl	%edx, %edx
	movq	%rsp, %rsi
	movq	$17, (%rsp)
	call	_ZNSt7__cxx1112basic_stringIcSt11char_traitsIcESaIcEE9_M_createERmm@PLT
	movq	(%rsp), %rdx
	movdqa	.LC6(%rip), %xmm0
	movq	%rax, (%r12)
	movq	%rdx, 16(%r12)
	movb	$100, 16(%rax)
	movups	%xmm0, (%rax)
	movq	(%rsp), %rax
	movq	(%r12), %rdx
	movq	%rax, 8(%r12)
	movb	$0, (%rdx,%rax)
	jmp	.L113
.L121:
	call	__stack_chk_fail@PLT
	.cfi_endproc
.LFE3027:
	.size	_ZNK4asio5error6detail17addrinfo_category7messageB5cxx11Ei, .-_ZNK4asio5error6detail17addrinfo_category7messageB5cxx11Ei
	.section	.text._ZNK4asio5error6detail14netdb_category7messageB5cxx11Ei,"axG",@progbits,_ZNK4asio5error6detail14netdb_category7messageB5cxx11Ei,comdat
	.align 2
	.p2align 4
	.weak	_ZNK4asio5error6detail14netdb_category7messageB5cxx11Ei
	.type	_ZNK4asio5error6detail14netdb_category7messageB5cxx11Ei, @function
_ZNK4asio5error6detail14netdb_category7messageB5cxx11Ei:
.LFB3021:
	.cfi_startproc
	pushq	%r12
	.cfi_def_cfa_offset 16
	.cfi_offset 12, -16
	movq	%rdi, %r12
	subq	$16, %rsp
	.cfi_def_cfa_offset 32
	movq	%fs:40, %rax
	movq	%rax, 8(%rsp)
	xorl	%eax, %eax
	leaq	16(%rdi), %rax
	movq	%rax, (%rdi)
	cmpl	$1, %edx
	je	.L130
	cmpl	$2, %edx
	je	.L131
	cmpl	$4, %edx
	je	.L132
	cmpl	$3, %edx
	je	.L133
	xorl	%edx, %edx
	movq	%rsp, %rsi
	movq	$16, (%rsp)
	call	_ZNSt7__cxx1112basic_stringIcSt11char_traitsIcESaIcEE9_M_createERmm@PLT
	movq	(%rsp), %rdx
	movdqa	.LC18(%rip), %xmm0
	movq	%rax, (%r12)
	movq	%rdx, 16(%r12)
	movups	%xmm0, (%rax)
	movq	(%rsp), %rax
	movq	(%r12), %rdx
	movq	%rax, 8(%r12)
	movb	$0, (%rdx,%rax)
.L122:
	movq	8(%rsp), %rax
	subq	%fs:40, %rax
	jne	.L134
	addq	$16, %rsp
	.cfi_remember_state
	.cfi_def_cfa_offset 16
	movq	%r12, %rax
	popq	%r12
	.cfi_def_cfa_offset 8
	ret
	.p2align 4,,10
	.p2align 3
.L130:
	.cfi_restore_state
	movq	%rsp, %rsi
	xorl	%edx, %edx
	movq	$30, (%rsp)
	call	_ZNSt7__cxx1112basic_stringIcSt11char_traitsIcESaIcEE9_M_createERmm@PLT
	movq	(%rsp), %rdx
	movl	$10597, %esi
	movdqa	.LC9(%rip), %xmm0
	movabsq	$8388361603773658465, %rcx
	movq	%rax, (%r12)
	movq	%rdx, 16(%r12)
	movq	%rcx, 16(%rax)
	movl	$1986622561, 24(%rax)
	movw	%si, 28(%rax)
	movups	%xmm0, (%rax)
	movq	(%rsp), %rax
	movq	(%r12), %rdx
	movq	%rax, 8(%r12)
	movb	$0, (%rdx,%rax)
	jmp	.L122
	.p2align 4,,10
	.p2align 3
.L133:
	xorl	%edx, %edx
	movq	%rsp, %rsi
	movq	$55, (%rsp)
	call	_ZNSt7__cxx1112basic_stringIcSt11char_traitsIcESaIcEE9_M_createERmm@PLT
	movq	(%rsp), %rdx
	movdqa	.LC15(%rip), %xmm0
	movq	%rax, (%r12)
	movq	%rdx, 16(%r12)
	movl	$30059, %edx
	movups	%xmm0, (%rax)
	movdqa	.LC16(%rip), %xmm0
	movl	$1869573152, 48(%rax)
	movups	%xmm0, 16(%rax)
	movdqa	.LC17(%rip), %xmm0
	movw	%dx, 52(%rax)
	movb	$112, 54(%rax)
	movups	%xmm0, 32(%rax)
	movq	(%rsp), %rax
	movq	(%r12), %rdx
	movq	%rax, 8(%r12)
	movb	$0, (%rdx,%rax)
	jmp	.L122
	.p2align 4,,10
	.p2align 3
.L131:
	xorl	%edx, %edx
	movq	%rsp, %rsi
	movq	$51, (%rsp)
	call	_ZNSt7__cxx1112basic_stringIcSt11char_traitsIcESaIcEE9_M_createERmm@PLT
	movq	(%rsp), %rdx
	movl	$25972, %ecx
	movdqa	.LC9(%rip), %xmm0
	movq	%rax, (%r12)
	movq	%rdx, 16(%r12)
	movups	%xmm0, (%rax)
	movdqa	.LC10(%rip), %xmm0
	movw	%cx, 48(%rax)
	movups	%xmm0, 16(%rax)
	movdqa	.LC11(%rip), %xmm0
	movb	$114, 50(%rax)
	movups	%xmm0, 32(%rax)
	movq	(%rsp), %rax
	movq	(%r12), %rdx
	movq	%rax, 8(%r12)
	movb	$0, (%rdx,%rax)
	jmp	.L122
	.p2align 4,,10
	.p2align 3
.L132:
	xorl	%edx, %edx
	movq	%rsp, %rsi
	movq	$56, (%rsp)
	call	_ZNSt7__cxx1112basic_stringIcSt11char_traitsIcESaIcEE9_M_createERmm@PLT
	movq	(%rsp), %rdx
	movdqa	.LC12(%rip), %xmm0
	movabsq	$7022344801645520244, %rcx
	movq	%rax, (%r12)
	movq	%rdx, 16(%r12)
	movups	%xmm0, (%rax)
	movdqa	.LC13(%rip), %xmm0
	movq	%rcx, 48(%rax)
	movups	%xmm0, 16(%rax)
	movdqa	.LC14(%rip), %xmm0
	movups	%xmm0, 32(%rax)
	movq	(%rsp), %rax
	movq	(%r12), %rdx
	movq	%rax, 8(%r12)
	movb	$0, (%rdx,%rax)
	jmp	.L122
.L134:
	call	__stack_chk_fail@PLT
	.cfi_endproc
.LFE3021:
	.size	_ZNK4asio5error6detail14netdb_category7messageB5cxx11Ei, .-_ZNK4asio5error6detail14netdb_category7messageB5cxx11Ei
	.section	.text._ZNK4asio5error6detail13misc_category7messageB5cxx11Ei,"axG",@progbits,_ZNK4asio5error6detail13misc_category7messageB5cxx11Ei,comdat
	.align 2
	.p2align 4
	.weak	_ZNK4asio5error6detail13misc_category7messageB5cxx11Ei
	.type	_ZNK4asio5error6detail13misc_category7messageB5cxx11Ei, @function
_ZNK4asio5error6detail13misc_category7messageB5cxx11Ei:
.LFB3033:
	.cfi_startproc
	pushq	%r12
	.cfi_def_cfa_offset 16
	.cfi_offset 12, -16
	movq	%rdi, %r12
	subq	$16, %rsp
	.cfi_def_cfa_offset 32
	movq	%fs:40, %rax
	movq	%rax, 8(%rsp)
	xorl	%eax, %eax
	leaq	16(%rdi), %rax
	movq	%rax, (%rdi)
	cmpl	$1, %edx
	je	.L143
	cmpl	$2, %edx
	je	.L144
	cmpl	$3, %edx
	je	.L145
	cmpl	$4, %edx
	je	.L146
	movabsq	$8316298233121436513, %rcx
	movl	$28530, %edx
	movq	%rcx, 16(%rdi)
	movl	$1919230051, 8(%rax)
	movw	%dx, 12(%rax)
	movb	$114, 14(%rax)
	movq	$15, 8(%rdi)
	movb	$0, 31(%rdi)
.L135:
	movq	8(%rsp), %rax
	subq	%fs:40, %rax
	jne	.L147
	addq	$16, %rsp
	.cfi_remember_state
	.cfi_def_cfa_offset 16
	movq	%r12, %rax
	popq	%r12
	.cfi_def_cfa_offset 8
	ret
	.p2align 4,,10
	.p2align 3
.L143:
	.cfi_restore_state
	movabsq	$2340011850872286273, %rcx
	movq	%rcx, 16(%rdi)
	movl	$1852141679, 8(%rax)
	movq	$12, 8(%rdi)
	movb	$0, 28(%rdi)
	jmp	.L135
	.p2align 4,,10
	.p2align 3
.L146:
	movq	%rsp, %rsi
	xorl	%edx, %edx
	movq	$57, (%rsp)
	call	_ZNSt7__cxx1112basic_stringIcSt11char_traitsIcESaIcEE9_M_createERmm@PLT
	movq	(%rsp), %rdx
	movdqa	.LC20(%rip), %xmm0
	movabsq	$7310291504967217959, %rsi
	movq	%rax, (%r12)
	movq	%rdx, 16(%r12)
	movups	%xmm0, (%rax)
	movdqa	.LC21(%rip), %xmm0
	movq	%rsi, 48(%rax)
	movups	%xmm0, 16(%rax)
	movdqa	.LC22(%rip), %xmm0
	movb	$116, 56(%rax)
	movups	%xmm0, 32(%rax)
	movq	(%rsp), %rax
	movq	(%r12), %rdx
	movq	%rax, 8(%r12)
	movb	$0, (%rdx,%rax)
	jmp	.L135
	.p2align 4,,10
	.p2align 3
.L144:
	movabsq	$7358994418594246213, %rcx
	movq	%rcx, 16(%rdi)
	movl	$27753, %ecx
	movw	%cx, 8(%rax)
	movb	$101, 10(%rax)
	movq	$11, 8(%rdi)
	movb	$0, 27(%rdi)
	jmp	.L135
	.p2align 4,,10
	.p2align 3
.L145:
	xorl	%edx, %edx
	movq	%rsp, %rsi
	movq	$17, (%rsp)
	call	_ZNSt7__cxx1112basic_stringIcSt11char_traitsIcESaIcEE9_M_createERmm@PLT
	movq	(%rsp), %rdx
	movdqa	.LC19(%rip), %xmm0
	movq	%rax, (%r12)
	movq	%rdx, 16(%r12)
	movb	$100, 16(%rax)
	movups	%xmm0, (%rax)
	movq	(%rsp), %rax
	movq	(%r12), %rdx
	movq	%rax, 8(%r12)
	movb	$0, (%rdx,%rax)
	jmp	.L135
.L147:
	call	__stack_chk_fail@PLT
	.cfi_endproc
.LFE3033:
	.size	_ZNK4asio5error6detail13misc_category7messageB5cxx11Ei, .-_ZNK4asio5error6detail13misc_category7messageB5cxx11Ei
	.section	.text.unlikely,"ax",@progbits
	.align 2
	.type	_ZZZN8asiodnp318TCPClientIOHandler12StartConnectERKSt10shared_ptrIN7asiopal9TCPClientEERKN7openpal12TimeDurationEENKUlRKS1_INS2_8ExecutorEEN4asio19basic_stream_socketINSF_2ip3tcpENSF_21stream_socket_serviceISI_EEEERKSt10error_codeE_clESE_SL_SO_ENUlvE_D2Ev, @function
_ZZZN8asiodnp318TCPClientIOHandler12StartConnectERKSt10shared_ptrIN7asiopal9TCPClientEERKN7openpal12TimeDurationEENKUlRKS1_INS2_8ExecutorEEN4asio19basic_stream_socketINSF_2ip3tcpENSF_21stream_socket_serviceISI_EEEERKSt10error_codeE_clESE_SL_SO_ENUlvE_D2Ev:
.LFB7758:
	.cfi_startproc
	pushq	%r12
	.cfi_def_cfa_offset 16
	.cfi_offset 12, -16
	pushq	%rbp
	.cfi_def_cfa_offset 24
	.cfi_offset 6, -24
	pushq	%rbx
	.cfi_def_cfa_offset 32
	.cfi_offset 3, -32
	movq	32(%rdi), %rbp
	movq	%rdi, %rbx
	testq	%rbp, %rbp
	je	.L150
	movq	_ZL28__gthrw___pthread_key_createPjPFvPvE@GOTPCREL(%rip), %r12
	testq	%r12, %r12
	je	.L151
	orl	$-1, %eax
	lock xaddl	%eax, 8(%rbp)
	jmp	.L152
.L151:
	movl	8(%rbp), %eax
	leal	-1(%rax), %edx
	movl	%edx, 8(%rbp)
.L152:
	decl	%eax
	jne	.L150
	movq	0(%rbp), %rax
	movq	%rbp, %rdi
	call	*16(%rax)
	testq	%r12, %r12
	je	.L154
	orl	$-1, %eax
	lock xaddl	%eax, 12(%rbp)
	jmp	.L155
.L154:
	movl	12(%rbp), %eax
	leal	-1(%rax), %edx
	movl	%edx, 12(%rbp)
.L155:
	decl	%eax
	jne	.L150
	movq	0(%rbp), %rax
	movq	%rbp, %rdi
	call	*24(%rax)
.L150:
	movq	8(%rbx), %rbp
	testq	%rbp, %rbp
	je	.L148
	movq	_ZL28__gthrw___pthread_key_createPjPFvPvE@GOTPCREL(%rip), %rbx
	testq	%rbx, %rbx
	je	.L158
	orl	$-1, %eax
	lock xaddl	%eax, 8(%rbp)
	jmp	.L159
.L158:
	movl	8(%rbp), %eax
	leal	-1(%rax), %edx
	movl	%edx, 8(%rbp)
.L159:
	decl	%eax
	jne	.L148
	movq	0(%rbp), %rax
	movq	%rbp, %rdi
	call	*16(%rax)
	testq	%rbx, %rbx
	je	.L161
	orl	$-1, %eax
	lock xaddl	%eax, 12(%rbp)
	jmp	.L162
.L161:
	movl	12(%rbp), %eax
	leal	-1(%rax), %edx
	movl	%edx, 12(%rbp)
.L162:
	decl	%eax
	jne	.L148
	movq	0(%rbp), %rax
	popq	%rbx
	.cfi_remember_state
	.cfi_def_cfa_offset 24
	movq	%rbp, %rdi
	popq	%rbp
	.cfi_def_cfa_offset 16
	popq	%r12
	.cfi_def_cfa_offset 8
	movq	24(%rax), %rax
	jmp	*%rax
.L148:
	.cfi_restore_state
	popq	%rbx
	.cfi_def_cfa_offset 24
	popq	%rbp
	.cfi_def_cfa_offset 16
	popq	%r12
	.cfi_def_cfa_offset 8
	ret
	.cfi_endproc
.LFE7758:
	.size	_ZZZN8asiodnp318TCPClientIOHandler12StartConnectERKSt10shared_ptrIN7asiopal9TCPClientEERKN7openpal12TimeDurationEENKUlRKS1_INS2_8ExecutorEEN4asio19basic_stream_socketINSF_2ip3tcpENSF_21stream_socket_serviceISI_EEEERKSt10error_codeE_clESE_SL_SO_ENUlvE_D2Ev, .-_ZZZN8asiodnp318TCPClientIOHandler12StartConnectERKSt10shared_ptrIN7asiopal9TCPClientEERKN7openpal12TimeDurationEENKUlRKS1_INS2_8ExecutorEEN4asio19basic_stream_socketINSF_2ip3tcpENSF_21stream_socket_serviceISI_EEEERKSt10error_codeE_clESE_SL_SO_ENUlvE_D2Ev
	.set	_ZZZN8asiodnp318TCPClientIOHandler12StartConnectERKSt10shared_ptrIN7asiopal9TCPClientEERKN7openpal12TimeDurationEENKUlRKS1_INS2_8ExecutorEEN4asio19basic_stream_socketINSF_2ip3tcpENSF_21stream_socket_serviceISI_EEEERKSt10error_codeE_clESE_SL_SO_ENUlvE_D1Ev,_ZZZN8asiodnp318TCPClientIOHandler12StartConnectERKSt10shared_ptrIN7asiopal9TCPClientEERKN7openpal12TimeDurationEENKUlRKS1_INS2_8ExecutorEEN4asio19basic_stream_socketINSF_2ip3tcpENSF_21stream_socket_serviceISI_EEEERKSt10error_codeE_clESE_SL_SO_ENUlvE_D2Ev
	.align 2
	.type	_ZZN8asiodnp318TCPClientIOHandler12StartConnectERKSt10shared_ptrIN7asiopal9TCPClientEERKN7openpal12TimeDurationEENUlRKS1_INS2_8ExecutorEEN4asio19basic_stream_socketINSF_2ip3tcpENSF_21stream_socket_serviceISI_EEEERKSt10error_codeE_D2Ev, @function
_ZZN8asiodnp318TCPClientIOHandler12StartConnectERKSt10shared_ptrIN7asiopal9TCPClientEERKN7openpal12TimeDurationEENUlRKS1_INS2_8ExecutorEEN4asio19basic_stream_socketINSF_2ip3tcpENSF_21stream_socket_serviceISI_EEEERKSt10error_codeE_D2Ev:
.LFB7767:
	.cfi_startproc
	pushq	%r12
	.cfi_def_cfa_offset 16
	.cfi_offset 12, -16
	pushq	%rbp
	.cfi_def_cfa_offset 24
	.cfi_offset 6, -24
	pushq	%rbx
	.cfi_def_cfa_offset 32
	.cfi_offset 3, -32
	movq	40(%rdi), %rbp
	movq	%rdi, %rbx
	testq	%rbp, %rbp
	je	.L166
	movq	_ZL28__gthrw___pthread_key_createPjPFvPvE@GOTPCREL(%rip), %r12
	testq	%r12, %r12
	je	.L167
	orl	$-1, %eax
	lock xaddl	%eax, 8(%rbp)
	jmp	.L168
.L167:
	movl	8(%rbp), %eax
	leal	-1(%rax), %edx
	movl	%edx, 8(%rbp)
.L168:
	decl	%eax
	jne	.L166
	movq	0(%rbp), %rax
	movq	%rbp, %rdi
	call	*16(%rax)
	testq	%r12, %r12
	je	.L170
	orl	$-1, %eax
	lock xaddl	%eax, 12(%rbp)
	jmp	.L171
.L170:
	movl	12(%rbp), %eax
	leal	-1(%rax), %edx
	movl	%edx, 12(%rbp)
.L171:
	decl	%eax
	jne	.L166
	movq	0(%rbp), %rax
	movq	%rbp, %rdi
	call	*24(%rax)
.L166:
	movq	8(%rbx), %rbp
	testq	%rbp, %rbp
	je	.L164
	movq	_ZL28__gthrw___pthread_key_createPjPFvPvE@GOTPCREL(%rip), %rbx
	testq	%rbx, %rbx
	je	.L174
	orl	$-1, %eax
	lock xaddl	%eax, 8(%rbp)
	jmp	.L175
.L174:
	movl	8(%rbp), %eax
	leal	-1(%rax), %edx
	movl	%edx, 8(%rbp)
.L175:
	decl	%eax
	jne	.L164
	movq	0(%rbp), %rax
	movq	%rbp, %rdi
	call	*16(%rax)
	testq	%rbx, %rbx
	je	.L177
	orl	$-1, %eax
	lock xaddl	%eax, 12(%rbp)
	jmp	.L178
.L177:
	movl	12(%rbp), %eax
	leal	-1(%rax), %edx
	movl	%edx, 12(%rbp)
.L178:
	decl	%eax
	jne	.L164
	movq	0(%rbp), %rax
	popq	%rbx
	.cfi_remember_state
	.cfi_def_cfa_offset 24
	movq	%rbp, %rdi
	popq	%rbp
	.cfi_def_cfa_offset 16
	popq	%r12
	.cfi_def_cfa_offset 8
	movq	24(%rax), %rax
	jmp	*%rax
.L164:
	.cfi_restore_state
	popq	%rbx
	.cfi_def_cfa_offset 24
	popq	%rbp
	.cfi_def_cfa_offset 16
	popq	%r12
	.cfi_def_cfa_offset 8
	ret
	.cfi_endproc
.LFE7767:
	.size	_ZZN8asiodnp318TCPClientIOHandler12StartConnectERKSt10shared_ptrIN7asiopal9TCPClientEERKN7openpal12TimeDurationEENUlRKS1_INS2_8ExecutorEEN4asio19basic_stream_socketINSF_2ip3tcpENSF_21stream_socket_serviceISI_EEEERKSt10error_codeE_D2Ev, .-_ZZN8asiodnp318TCPClientIOHandler12StartConnectERKSt10shared_ptrIN7asiopal9TCPClientEERKN7openpal12TimeDurationEENUlRKS1_INS2_8ExecutorEEN4asio19basic_stream_socketINSF_2ip3tcpENSF_21stream_socket_serviceISI_EEEERKSt10error_codeE_D2Ev
	.set	_ZZN8asiodnp318TCPClientIOHandler12StartConnectERKSt10shared_ptrIN7asiopal9TCPClientEERKN7openpal12TimeDurationEENUlRKS1_INS2_8ExecutorEEN4asio19basic_stream_socketINSF_2ip3tcpENSF_21stream_socket_serviceISI_EEEERKSt10error_codeE_D1Ev,_ZZN8asiodnp318TCPClientIOHandler12StartConnectERKSt10shared_ptrIN7asiopal9TCPClientEERKN7openpal12TimeDurationEENUlRKS1_INS2_8ExecutorEEN4asio19basic_stream_socketINSF_2ip3tcpENSF_21stream_socket_serviceISI_EEEERKSt10error_codeE_D2Ev
	.text
	.p2align 4
	.type	_ZNSt17_Function_handlerIFvRKSt10shared_ptrIN7asiopal8ExecutorEEN4asio19basic_stream_socketINS6_2ip3tcpENS6_21stream_socket_serviceIS9_EEEERKSt10error_codeEZN8asiodnp318TCPClientIOHandler12StartConnectERKS0_INS1_9TCPClientEERKN7openpal12TimeDurationEEUlS5_SC_SF_E_E10_M_managerERSt9_Any_dataRKST_St18_Manager_operation, @function
_ZNSt17_Function_handlerIFvRKSt10shared_ptrIN7asiopal8ExecutorEEN4asio19basic_stream_socketINS6_2ip3tcpENS6_21stream_socket_serviceIS9_EEEERKSt10error_codeEZN8asiodnp318TCPClientIOHandler12StartConnectERKS0_INS1_9TCPClientEERKN7openpal12TimeDurationEEUlS5_SC_SF_E_E10_M_managerERSt9_Any_dataRKST_St18_Manager_operation:
.LFB9197:
	.cfi_startproc
	pushq	%r12
	.cfi_def_cfa_offset 16
	.cfi_offset 12, -16
	pushq	%rbp
	.cfi_def_cfa_offset 24
	.cfi_offset 6, -24
	pushq	%rbx
	.cfi_def_cfa_offset 32
	.cfi_offset 3, -32
	movq	%rdi, %rbx
	testl	%edx, %edx
	je	.L181
	cmpl	$1, %edx
	je	.L182
	cmpl	$2, %edx
	je	.L185
	cmpl	$3, %edx
	jne	.L184
	movq	(%rdi), %rbp
	testq	%rbp, %rbp
	je	.L184
	movq	40(%rbp), %r12
	testq	%r12, %r12
	je	.L192
	movq	_ZL28__gthrw___pthread_key_createPjPFvPvE@GOTPCREL(%rip), %rbx
	testq	%rbx, %rbx
	jne	.L216
	movl	8(%r12), %eax
	leal	-1(%rax), %edx
	movl	%edx, 8(%r12)
.L194:
	cmpl	$1, %eax
	je	.L217
.L192:
	movq	8(%rbp), %r12
	testq	%r12, %r12
	je	.L199
	movq	_ZL28__gthrw___pthread_key_createPjPFvPvE@GOTPCREL(%rip), %rbx
	testq	%rbx, %rbx
	jne	.L218
	movl	8(%r12), %eax
	leal	-1(%rax), %edx
	movl	%edx, 8(%r12)
.L201:
	cmpl	$1, %eax
	je	.L219
.L199:
	movl	$48, %esi
	movq	%rbp, %rdi
	call	_ZdlPvm@PLT
.L184:
	popq	%rbx
	.cfi_remember_state
	.cfi_def_cfa_offset 24
	xorl	%eax, %eax
	popq	%rbp
	.cfi_def_cfa_offset 16
	popq	%r12
	.cfi_def_cfa_offset 8
	ret
	.p2align 4,,10
	.p2align 3
.L181:
	.cfi_restore_state
	leaq	_ZTIZN8asiodnp318TCPClientIOHandler12StartConnectERKSt10shared_ptrIN7asiopal9TCPClientEERKN7openpal12TimeDurationEEUlRKS1_INS2_8ExecutorEEN4asio19basic_stream_socketINSF_2ip3tcpENSF_21stream_socket_serviceISI_EEEERKSt10error_codeE_(%rip), %rax
	movq	%rax, (%rdi)
	xorl	%eax, %eax
	popq	%rbx
	.cfi_remember_state
	.cfi_def_cfa_offset 24
	popq	%rbp
	.cfi_def_cfa_offset 16
	popq	%r12
	.cfi_def_cfa_offset 8
	ret
	.p2align 4,,10
	.p2align 3
.L182:
	.cfi_restore_state
	movq	(%rsi), %rax
	movq	%rax, (%rdi)
	xorl	%eax, %eax
	popq	%rbx
	.cfi_remember_state
	.cfi_def_cfa_offset 24
	popq	%rbp
	.cfi_def_cfa_offset 16
	popq	%r12
	.cfi_def_cfa_offset 8
	ret
	.p2align 4,,10
	.p2align 3
.L185:
	.cfi_restore_state
	movq	(%rsi), %rbp
	movl	$48, %edi
	call	_Znwm@PLT
	movq	0(%rbp), %rdx
	movq	%rdx, (%rax)
	movq	8(%rbp), %rdx
	movq	%rdx, 8(%rax)
	testq	%rdx, %rdx
	je	.L187
	cmpq	$0, _ZL28__gthrw___pthread_key_createPjPFvPvE@GOTPCREL(%rip)
	jne	.L220
	addl	$1, 8(%rdx)
.L187:
	movq	16(%rbp), %rdx
	movq	%rdx, 16(%rax)
	movq	24(%rbp), %rdx
	movq	%rdx, 24(%rax)
	movq	32(%rbp), %rdx
	movq	%rdx, 32(%rax)
	movq	40(%rbp), %rdx
	movq	%rdx, 40(%rax)
	testq	%rdx, %rdx
	je	.L189
	cmpq	$0, _ZL28__gthrw___pthread_key_createPjPFvPvE@GOTPCREL(%rip)
	jne	.L221
	addl	$1, 8(%rdx)
.L189:
	movq	%rax, (%rbx)
	jmp	.L184
.L221:
	lock addl	$1, 8(%rdx)
	jmp	.L189
.L220:
	lock addl	$1, 8(%rdx)
	jmp	.L187
.L219:
	movq	(%r12), %rax
	movq	%r12, %rdi
	call	*16(%rax)
	testq	%rbx, %rbx
	jne	.L222
	movl	12(%r12), %eax
	leal	-1(%rax), %edx
	movl	%edx, 12(%r12)
.L204:
	cmpl	$1, %eax
	jne	.L199
	movq	(%r12), %rax
	movq	%r12, %rdi
	call	*24(%rax)
	jmp	.L199
.L217:
	movq	(%r12), %rax
	movq	%r12, %rdi
	call	*16(%rax)
	testq	%rbx, %rbx
	jne	.L223
	movl	12(%r12), %eax
	leal	-1(%rax), %edx
	movl	%edx, 12(%r12)
.L197:
	cmpl	$1, %eax
	jne	.L192
	movq	(%r12), %rax
	movq	%r12, %rdi
	call	*24(%rax)
	jmp	.L192
.L218:
	movl	$-1, %eax
	lock xaddl	%eax, 8(%r12)
	jmp	.L201
.L216:
	movl	$-1, %eax
	lock xaddl	%eax, 8(%r12)
	jmp	.L194
.L223:
	movl	$-1, %eax
	lock xaddl	%eax, 12(%r12)
	jmp	.L197
.L222:
	movl	$-1, %eax
	lock xaddl	%eax, 12(%r12)
	jmp	.L204
	.cfi_endproc
.LFE9197:
	.size	_ZNSt17_Function_handlerIFvRKSt10shared_ptrIN7asiopal8ExecutorEEN4asio19basic_stream_socketINS6_2ip3tcpENS6_21stream_socket_serviceIS9_EEEERKSt10error_codeEZN8asiodnp318TCPClientIOHandler12StartConnectERKS0_INS1_9TCPClientEERKN7openpal12TimeDurationEEUlS5_SC_SF_E_E10_M_managerERSt9_Any_dataRKST_St18_Manager_operation, .-_ZNSt17_Function_handlerIFvRKSt10shared_ptrIN7asiopal8ExecutorEEN4asio19basic_stream_socketINS6_2ip3tcpENS6_21stream_socket_serviceIS9_EEEERKSt10error_codeEZN8asiodnp318TCPClientIOHandler12StartConnectERKS0_INS1_9TCPClientEERKN7openpal12TimeDurationEEUlS5_SC_SF_E_E10_M_managerERSt9_Any_dataRKST_St18_Manager_operation
	.p2align 4
	.type	_ZNSt17_Function_handlerIFvvEZN7openpal8TimerRef5StartIZZN8asiodnp318TCPClientIOHandler12StartConnectERKSt10shared_ptrIN7asiopal9TCPClientEERKNS1_12TimeDurationEENKUlRKS6_INS7_8ExecutorEEN4asio19basic_stream_socketINSJ_2ip3tcpENSJ_21stream_socket_serviceISM_EEEERKSt10error_codeE_clESI_SP_SS_EUlvE_EEbSE_RKT_EUlvE_E10_M_managerERSt9_Any_dataRKS10_St18_Manager_operation, @function
_ZNSt17_Function_handlerIFvvEZN7openpal8TimerRef5StartIZZN8asiodnp318TCPClientIOHandler12StartConnectERKSt10shared_ptrIN7asiopal9TCPClientEERKNS1_12TimeDurationEENKUlRKS6_INS7_8ExecutorEEN4asio19basic_stream_socketINSJ_2ip3tcpENSJ_21stream_socket_serviceISM_EEEERKSt10error_codeE_clESI_SP_SS_EUlvE_EEbSE_RKT_EUlvE_E10_M_managerERSt9_Any_dataRKS10_St18_Manager_operation:
.LFB9522:
	.cfi_startproc
	pushq	%r12
	.cfi_def_cfa_offset 16
	.cfi_offset 12, -16
	pushq	%rbp
	.cfi_def_cfa_offset 24
	.cfi_offset 6, -24
	pushq	%rbx
	.cfi_def_cfa_offset 32
	.cfi_offset 3, -32
	movq	%rdi, %rbx
	testl	%edx, %edx
	je	.L225
	cmpl	$1, %edx
	je	.L226
	cmpl	$2, %edx
	je	.L229
	cmpl	$3, %edx
	jne	.L228
	movq	(%rdi), %rbp
	testq	%rbp, %rbp
	je	.L228
	movq	40(%rbp), %r12
	testq	%r12, %r12
	je	.L236
	movq	_ZL28__gthrw___pthread_key_createPjPFvPvE@GOTPCREL(%rip), %rbx
	testq	%rbx, %rbx
	jne	.L260
	movl	8(%r12), %eax
	leal	-1(%rax), %edx
	movl	%edx, 8(%r12)
.L238:
	cmpl	$1, %eax
	je	.L261
.L236:
	movq	16(%rbp), %r12
	testq	%r12, %r12
	je	.L243
	movq	_ZL28__gthrw___pthread_key_createPjPFvPvE@GOTPCREL(%rip), %rbx
	testq	%rbx, %rbx
	jne	.L262
	movl	8(%r12), %eax
	leal	-1(%rax), %edx
	movl	%edx, 8(%r12)
.L245:
	cmpl	$1, %eax
	je	.L263
.L243:
	movl	$56, %esi
	movq	%rbp, %rdi
	call	_ZdlPvm@PLT
.L228:
	popq	%rbx
	.cfi_remember_state
	.cfi_def_cfa_offset 24
	xorl	%eax, %eax
	popq	%rbp
	.cfi_def_cfa_offset 16
	popq	%r12
	.cfi_def_cfa_offset 8
	ret
	.p2align 4,,10
	.p2align 3
.L225:
	.cfi_restore_state
	leaq	_ZTIZN7openpal8TimerRef5StartIZZN8asiodnp318TCPClientIOHandler12StartConnectERKSt10shared_ptrIN7asiopal9TCPClientEERKNS_12TimeDurationEENKUlRKS4_INS5_8ExecutorEEN4asio19basic_stream_socketINSH_2ip3tcpENSH_21stream_socket_serviceISK_EEEERKSt10error_codeE_clESG_SN_SQ_EUlvE_EEbSC_RKT_EUlvE_(%rip), %rax
	movq	%rax, (%rdi)
	xorl	%eax, %eax
	popq	%rbx
	.cfi_remember_state
	.cfi_def_cfa_offset 24
	popq	%rbp
	.cfi_def_cfa_offset 16
	popq	%r12
	.cfi_def_cfa_offset 8
	ret
	.p2align 4,,10
	.p2align 3
.L226:
	.cfi_restore_state
	movq	(%rsi), %rax
	movq	%rax, (%rdi)
	xorl	%eax, %eax
	popq	%rbx
	.cfi_remember_state
	.cfi_def_cfa_offset 24
	popq	%rbp
	.cfi_def_cfa_offset 16
	popq	%r12
	.cfi_def_cfa_offset 8
	ret
	.p2align 4,,10
	.p2align 3
.L229:
	.cfi_restore_state
	movq	(%rsi), %rbp
	movl	$56, %edi
	call	_Znwm@PLT
	movq	0(%rbp), %rdx
	movq	%rdx, (%rax)
	movq	8(%rbp), %rdx
	movq	%rdx, 8(%rax)
	movq	16(%rbp), %rdx
	movq	%rdx, 16(%rax)
	testq	%rdx, %rdx
	je	.L231
	cmpq	$0, _ZL28__gthrw___pthread_key_createPjPFvPvE@GOTPCREL(%rip)
	jne	.L264
	addl	$1, 8(%rdx)
.L231:
	movq	24(%rbp), %rdx
	movq	%rdx, 24(%rax)
	movq	32(%rbp), %rdx
	movq	%rdx, 32(%rax)
	movq	40(%rbp), %rdx
	movq	%rdx, 40(%rax)
	testq	%rdx, %rdx
	je	.L233
	cmpq	$0, _ZL28__gthrw___pthread_key_createPjPFvPvE@GOTPCREL(%rip)
	jne	.L265
	addl	$1, 8(%rdx)
.L233:
	movq	48(%rbp), %rdx
	movq	%rdx, 48(%rax)
	movq	%rax, (%rbx)
	jmp	.L228
.L265:
	lock addl	$1, 8(%rdx)
	jmp	.L233
.L264:
	lock addl	$1, 8(%rdx)
	jmp	.L231
.L263:
	movq	(%r12), %rax
	movq	%r12, %rdi
	call	*16(%rax)
	testq	%rbx, %rbx
	jne	.L266
	movl	12(%r12), %eax
	leal	-1(%rax), %edx
	movl	%edx, 12(%r12)
.L248:
	cmpl	$1, %eax
	jne	.L243
	movq	(%r12), %rax
	movq	%r12, %rdi
	call	*24(%rax)
	jmp	.L243
.L261:
	movq	(%r12), %rax
	movq	%r12, %rdi
	call	*16(%rax)
	testq	%rbx, %rbx
	jne	.L267
	movl	12(%r12), %eax
	leal	-1(%rax), %edx
	movl	%edx, 12(%r12)
.L241:
	cmpl	$1, %eax
	jne	.L236
	movq	(%r12), %rax
	movq	%r12, %rdi
	call	*24(%rax)
	jmp	.L236
.L262:
	movl	$-1, %eax
	lock xaddl	%eax, 8(%r12)
	jmp	.L245
.L260:
	movl	$-1, %eax
	lock xaddl	%eax, 8(%r12)
	jmp	.L238
.L267:
	movl	$-1, %eax
	lock xaddl	%eax, 12(%r12)
	jmp	.L241
.L266:
	movl	$-1, %eax
	lock xaddl	%eax, 12(%r12)
	jmp	.L248
	.cfi_endproc
.LFE9522:
	.size	_ZNSt17_Function_handlerIFvvEZN7openpal8TimerRef5StartIZZN8asiodnp318TCPClientIOHandler12StartConnectERKSt10shared_ptrIN7asiopal9TCPClientEERKNS1_12TimeDurationEENKUlRKS6_INS7_8ExecutorEEN4asio19basic_stream_socketINSJ_2ip3tcpENSJ_21stream_socket_serviceISM_EEEERKSt10error_codeE_clESI_SP_SS_EUlvE_EEbSE_RKT_EUlvE_E10_M_managerERSt9_Any_dataRKS10_St18_Manager_operation, .-_ZNSt17_Function_handlerIFvvEZN7openpal8TimerRef5StartIZZN8asiodnp318TCPClientIOHandler12StartConnectERKSt10shared_ptrIN7asiopal9TCPClientEERKNS1_12TimeDurationEENKUlRKS6_INS7_8ExecutorEEN4asio19basic_stream_socketINSJ_2ip3tcpENSJ_21stream_socket_serviceISM_EEEERKSt10error_codeE_clESI_SP_SS_EUlvE_EEbSE_RKT_EUlvE_E10_M_managerERSt9_Any_dataRKS10_St18_Manager_operation
	.section	.text.unlikely._ZSt20__throw_bad_weak_ptrv,"axG",@progbits,_ZSt20__throw_bad_weak_ptrv,comdat
	.weak	_ZSt20__throw_bad_weak_ptrv
	.type	_ZSt20__throw_bad_weak_ptrv, @function
_ZSt20__throw_bad_weak_ptrv:
.LFB1251:
	.cfi_startproc
	pushq	%rax
	.cfi_def_cfa_offset 16
	popq	%rax
	.cfi_def_cfa_offset 8
	movl	$8, %edi
	pushq	%rax
	.cfi_def_cfa_offset 16
	call	__cxa_allocate_exception@PLT
	movq	_ZNSt12bad_weak_ptrD1Ev@GOTPCREL(%rip), %rdx
	movq	_ZTISt12bad_weak_ptr@GOTPCREL(%rip), %rsi
	movq	%rax, %rdi
	movq	_ZTVSt12bad_weak_ptr@GOTPCREL(%rip), %rax
	addq	$16, %rax
	movq	%rax, (%rdi)
	call	__cxa_throw@PLT
	.cfi_endproc
.LFE1251:
	.size	_ZSt20__throw_bad_weak_ptrv, .-_ZSt20__throw_bad_weak_ptrv
	.section	.text._ZN4asio15system_categoryEv,"axG",@progbits,_ZN4asio15system_categoryEv,comdat
	.p2align 4
	.weak	_ZN4asio15system_categoryEv
	.type	_ZN4asio15system_categoryEv, @function
_ZN4asio15system_categoryEv:
.LFB2984:
	.cfi_startproc
	pushq	%r12
	.cfi_def_cfa_offset 16
	.cfi_offset 12, -16
	pushq	%rbp
	.cfi_def_cfa_offset 24
	.cfi_offset 6, -24
	subq	$8, %rsp
	.cfi_def_cfa_offset 32
	movq	_ZGVZN4asio15system_categoryEvE8instance@GOTPCREL(%rip), %rbp
	movzbl	0(%rbp), %eax
	testb	%al, %al
	je	.L271
.L278:
	movq	_ZZN4asio15system_categoryEvE8instance@GOTPCREL(%rip), %r12
	addq	$8, %rsp
	.cfi_remember_state
	.cfi_def_cfa_offset 24
	popq	%rbp
	.cfi_def_cfa_offset 16
	movq	%r12, %rax
	popq	%r12
	.cfi_def_cfa_offset 8
	ret
	.p2align 4,,10
	.p2align 3
.L271:
	.cfi_restore_state
	movq	%rbp, %rdi
	call	__cxa_guard_acquire@PLT
	testl	%eax, %eax
	je	.L278
	movq	_ZZN4asio15system_categoryEvE8instance@GOTPCREL(%rip), %r12
	movq	_ZN4asio6detail15system_categoryD1Ev@GOTPCREL(%rip), %rdi
	leaq	__dso_handle(%rip), %rdx
	movq	%r12, %rsi
	call	__cxa_atexit@PLT
	movq	%rbp, %rdi
	call	__cxa_guard_release@PLT
	addq	$8, %rsp
	.cfi_def_cfa_offset 24
	movq	%r12, %rax
	popq	%rbp
	.cfi_def_cfa_offset 16
	popq	%r12
	.cfi_def_cfa_offset 8
	ret
	.cfi_endproc
.LFE2984:
	.size	_ZN4asio15system_categoryEv, .-_ZN4asio15system_categoryEv
	.section	.text._ZN4asio6detail28reactive_socket_service_base7destroyERNS1_24base_implementation_typeE,"axG",@progbits,_ZN4asio6detail28reactive_socket_service_base7destroyERNS1_24base_implementation_typeE,comdat
	.align 2
	.p2align 4
	.weak	_ZN4asio6detail28reactive_socket_service_base7destroyERNS1_24base_implementation_typeE
	.type	_ZN4asio6detail28reactive_socket_service_base7destroyERNS1_24base_implementation_typeE, @function
_ZN4asio6detail28reactive_socket_service_base7destroyERNS1_24base_implementation_typeE:
.LFB4455:
	.cfi_startproc
	pushq	%r15
	.cfi_def_cfa_offset 16
	.cfi_offset 15, -16
	pushq	%r14
	.cfi_def_cfa_offset 24
	.cfi_offset 14, -24
	pushq	%r13
	.cfi_def_cfa_offset 32
	.cfi_offset 13, -32
	pushq	%r12
	.cfi_def_cfa_offset 40
	.cfi_offset 12, -40
	pushq	%rbp
	.cfi_def_cfa_offset 48
	.cfi_offset 6, -48
	pushq	%rbx
	.cfi_def_cfa_offset 56
	.cfi_offset 3, -56
	subq	$72, %rsp
	.cfi_def_cfa_offset 128
	movl	(%rsi), %r12d
	movq	%fs:40, %rax
	movq	%rax, 56(%rsp)
	xorl	%eax, %eax
	cmpl	$-1, %r12d
	jne	.L387
.L279:
	movq	56(%rsp), %rax
	subq	%fs:40, %rax
	jne	.L386
	addq	$72, %rsp
	.cfi_remember_state
	.cfi_def_cfa_offset 56
	popq	%rbx
	.cfi_def_cfa_offset 48
	popq	%rbp
	.cfi_def_cfa_offset 40
	popq	%r12
	.cfi_def_cfa_offset 32
	popq	%r13
	.cfi_def_cfa_offset 24
	popq	%r14
	.cfi_def_cfa_offset 16
	popq	%r15
	.cfi_def_cfa_offset 8
	ret
	.p2align 4,,10
	.p2align 3
.L387:
	.cfi_restore_state
	movq	8(%rsi), %rbp
	movq	%rsi, %r15
	testq	%rbp, %rbp
	je	.L309
	movq	(%rdi), %rax
	movzbl	4(%rsi), %ebx
	movq	%rax, 16(%rsp)
	leaq	40(%rbp), %rax
	movq	%rax, %rdi
	movq	%rax, 24(%rsp)
	call	pthread_mutex_lock@PLT
	movq	8(%r15), %r11
	cmpb	$0, 144(%r11)
	jne	.L282
	andl	$64, %ebx
	jne	.L388
.L283:
	movq	$0, 8(%rsp)
	xorl	%ebp, %ebp
	movl	$0, 4(%rsp)
.L292:
	movslq	4(%rsp), %r10
	movq	%r10, %rax
	salq	$4, %rax
	movq	96(%rax,%r11), %rbx
	testq	%rbx, %rbx
	je	.L329
	movq	_ZGVZN4asio15system_categoryEvE8instance@GOTPCREL(%rip), %r14
	movq	_ZZN4asio15system_categoryEvE8instance@GOTPCREL(%rip), %r12
	movq	%rax, %r13
	movzbl	(%r14), %eax
	testb	%al, %al
	je	.L389
	.p2align 4,,10
	.p2align 3
.L287:
	movq	8(%r15), %r11
	movl	$125, 24(%rbx)
	movq	%r12, 32(%rbx)
	leaq	(%r11,%r13), %rdi
	movq	96(%rdi), %rax
	testq	%rax, %rax
	je	.L289
	movq	(%rax), %rdx
	movq	%rdx, 96(%rdi)
	testq	%rdx, %rdx
	je	.L390
	movq	$0, (%rax)
	movq	$0, (%rbx)
	testq	%rbp, %rbp
	je	.L391
.L327:
	movq	%rbx, 0(%rbp)
	testq	%rdx, %rdx
	je	.L284
.L291:
	movzbl	(%r14), %eax
	movq	%rbx, %rbp
	movq	%rdx, %rbx
	testb	%al, %al
	jne	.L287
.L389:
	movq	%r14, %rdi
	call	__cxa_guard_acquire@PLT
	testl	%eax, %eax
	je	.L287
	movq	_ZN4asio6detail15system_categoryD1Ev@GOTPCREL(%rip), %rdi
	leaq	__dso_handle(%rip), %rdx
	movq	%r12, %rsi
	call	__cxa_atexit@PLT
	movq	%r14, %rdi
	call	__cxa_guard_release@PLT
	jmp	.L287
	.p2align 4,,10
	.p2align 3
.L282:
	movq	24(%rsp), %rdi
	call	pthread_mutex_unlock@PLT
.L385:
	movl	(%r15), %r12d
	cmpl	$-1, %r12d
	je	.L279
.L309:
	call	__errno_location@PLT
	movzbl	4(%r15), %ebp
	movq	%rax, %rbx
	testb	$8, %bpl
	jne	.L383
	movq	_ZGVZN4asio15system_categoryEvE8instance@GOTPCREL(%rip), %r14
.L311:
	movl	$0, (%rbx)
	movl	%r12d, %edi
	call	close@PLT
	movl	%eax, %ebp
	movzbl	(%r14), %eax
	testb	%al, %al
	je	.L392
.L316:
	testl	%ebp, %ebp
	je	.L279
	movl	(%rbx), %ebp
	movzbl	(%r14), %eax
	testb	%al, %al
	je	.L393
.L320:
	cmpl	$11, %ebp
	je	.L322
	movzbl	(%r14), %eax
	testb	%al, %al
	jne	.L279
	movq	%r14, %rdi
	call	__cxa_guard_acquire@PLT
	testl	%eax, %eax
	je	.L279
	movq	_ZZN4asio15system_categoryEvE8instance@GOTPCREL(%rip), %rsi
	movq	_ZN4asio6detail15system_categoryD1Ev@GOTPCREL(%rip), %rdi
	leaq	__dso_handle(%rip), %rdx
	call	__cxa_atexit@PLT
	movq	56(%rsp), %rax
	subq	%fs:40, %rax
	jne	.L386
	addq	$72, %rsp
	.cfi_remember_state
	.cfi_def_cfa_offset 56
	movq	%r14, %rdi
	popq	%rbx
	.cfi_def_cfa_offset 48
	popq	%rbp
	.cfi_def_cfa_offset 40
	popq	%r12
	.cfi_def_cfa_offset 32
	popq	%r13
	.cfi_def_cfa_offset 24
	popq	%r14
	.cfi_def_cfa_offset 16
	popq	%r15
	.cfi_def_cfa_offset 8
	jmp	__cxa_guard_release@PLT
	.p2align 4,,10
	.p2align 3
.L289:
	.cfi_restore_state
	movq	$0, (%rbx)
	testq	%rbp, %rbp
	je	.L332
	movq	%rbx, 0(%rbp)
.L284:
	addl	$1, 4(%rsp)
	movl	4(%rsp), %eax
	cmpl	$3, %eax
	je	.L394
.L331:
	movq	%rbx, %rbp
	jmp	.L292
	.p2align 4,,10
	.p2align 3
.L390:
	movq	$0, 104(%rdi)
	movq	$0, (%rax)
	movq	$0, (%rbx)
	testq	%rbp, %rbp
	jne	.L327
	.p2align 4,,10
	.p2align 3
.L332:
	addl	$1, 4(%rsp)
	movl	4(%rsp), %eax
	movq	%rbx, 8(%rsp)
	cmpl	$3, %eax
	jne	.L331
.L394:
	movl	$-1, 88(%r11)
	movq	24(%rsp), %rdi
	movb	$1, 144(%r11)
	call	pthread_mutex_unlock@PLT
	movq	16(%rsp), %r14
	movq	8(%r15), %rbp
	leaq	120(%r14), %r12
	movq	%r12, %rdi
	call	pthread_mutex_lock@PLT
	cmpq	160(%r14), %rbp
	je	.L395
.L293:
	movq	32(%rbp), %rax
	testq	%rax, %rax
	je	.L294
	movq	24(%rbp), %rdx
	movq	%rdx, 24(%rax)
.L294:
	movq	24(%rbp), %rax
	testq	%rax, %rax
	je	.L295
	movq	32(%rbp), %rdx
	movq	%rdx, 32(%rax)
.L295:
	movq	16(%rsp), %r14
	movq	%r12, %rdi
	movq	168(%r14), %rax
	movq	$0, 32(%rbp)
	movq	%rax, 24(%rbp)
	movq	%rbp, 168(%r14)
	call	pthread_mutex_unlock@PLT
	cmpq	$0, 8(%rsp)
	movq	$0, 8(%r15)
	je	.L385
	movq	40(%r14), %rbp
	cmpb	$0, 40(%rbp)
	je	.L297
	data16	leaq	_ZN4asio6detail15keyword_tss_ptrINS0_10call_stackINS0_15task_io_serviceENS0_27task_io_service_thread_infoEE7contextEE6value_E@tlsgd(%rip), %rdi
	.value	0x6666
	rex64
	call	__tls_get_addr@PLT
	movq	(%rax), %rax
	testq	%rax, %rax
	jne	.L300
	jmp	.L297
	.p2align 4,,10
	.p2align 3
.L298:
	movq	16(%rax), %rax
	testq	%rax, %rax
	je	.L297
.L300:
	cmpq	(%rax), %rbp
	jne	.L298
	movq	8(%rax), %rax
	testq	%rax, %rax
	je	.L297
	movq	16(%rax), %rdx
	movq	8(%rsp), %rcx
	testq	%rdx, %rdx
	je	.L301
	movq	%rcx, (%rdx)
.L302:
	movq	%rbx, 16(%rax)
	jmp	.L385
	.p2align 4,,10
	.p2align 3
.L391:
	movq	%rbx, 8(%rsp)
	jmp	.L291
	.p2align 4,,10
	.p2align 3
.L392:
	movq	%r14, %rdi
	call	__cxa_guard_acquire@PLT
	testl	%eax, %eax
	je	.L316
	movq	_ZZN4asio15system_categoryEvE8instance@GOTPCREL(%rip), %rsi
	movq	_ZN4asio6detail15system_categoryD1Ev@GOTPCREL(%rip), %rdi
	leaq	__dso_handle(%rip), %rdx
	call	__cxa_atexit@PLT
	movq	%r14, %rdi
	call	__cxa_guard_release@PLT
	jmp	.L316
	.p2align 4,,10
	.p2align 3
.L383:
	orl	$8, %ebp
	leaq	40(%rsp), %rcx
	movl	$13, %edx
	movl	%r12d, %edi
	movb	%bpl, 4(%r15)
	movl	$8, %r8d
	movl	$1, %esi
	movl	$0, (%rax)
	movq	$0, 40(%rsp)
	call	setsockopt@PLT
	movq	_ZGVZN4asio15system_categoryEvE8instance@GOTPCREL(%rip), %r14
	movzbl	(%r14), %eax
	testb	%al, %al
	jne	.L311
	movq	%r14, %rdi
	call	__cxa_guard_acquire@PLT
	testl	%eax, %eax
	je	.L311
	movq	_ZZN4asio15system_categoryEvE8instance@GOTPCREL(%rip), %rsi
	movq	_ZN4asio6detail15system_categoryD1Ev@GOTPCREL(%rip), %rdi
	leaq	__dso_handle(%rip), %rdx
	call	__cxa_atexit@PLT
	movq	%r14, %rdi
	call	__cxa_guard_release@PLT
	jmp	.L311
	.p2align 4,,10
	.p2align 3
.L297:
	leaq	48(%rbp), %r12
	movq	%r12, %rdi
	call	pthread_mutex_lock@PLT
	movq	200(%rbp), %rax
	testq	%rax, %rax
	je	.L304
	movq	8(%rsp), %rcx
	movq	%rcx, (%rax)
.L305:
	movq	136(%rbp), %rax
	movq	%rbx, 200(%rbp)
	orq	$1, %rax
	movq	%rax, 136(%rbp)
	cmpq	$1, %rax
	je	.L306
	movq	%r12, %rdi
	call	pthread_mutex_unlock@PLT
	leaq	88(%rbp), %rdi
	call	pthread_cond_signal@PLT
	jmp	.L385
.L306:
	cmpb	$0, 176(%rbp)
	jne	.L308
	movq	144(%rbp), %rax
	testq	%rax, %rax
	je	.L308
	movb	$1, 176(%rbp)
	leaq	88(%rax), %rdx
	leaq	40(%rsp), %rcx
	movl	$3, %esi
	movq	%rdx, 44(%rsp)
	movl	88(%rax), %edx
	movl	$-2147483639, 40(%rsp)
	movl	96(%rax), %edi
	call	epoll_ctl@PLT
.L308:
	movq	%r12, %rdi
	call	pthread_mutex_unlock@PLT
	jmp	.L385
	.p2align 4,,10
	.p2align 3
.L329:
	movq	%rbp, %rbx
	jmp	.L284
	.p2align 4,,10
	.p2align 3
.L388:
	movq	16(%rsp), %rax
	movl	$0, 40(%rsp)
	leaq	40(%rsp), %rcx
	movl	%r12d, %edx
	movq	$0, 44(%rsp)
	movl	$2, %esi
	movl	96(%rax), %edi
	call	epoll_ctl@PLT
	movq	8(%r15), %r11
	jmp	.L283
	.p2align 4,,10
	.p2align 3
.L395:
	movq	24(%rbp), %rax
	movq	16(%rsp), %rcx
	movq	%rax, 160(%rcx)
	jmp	.L293
.L393:
	movq	%r14, %rdi
	call	__cxa_guard_acquire@PLT
	testl	%eax, %eax
	je	.L320
	movq	_ZZN4asio15system_categoryEvE8instance@GOTPCREL(%rip), %rsi
	movq	_ZN4asio6detail15system_categoryD1Ev@GOTPCREL(%rip), %rdi
	leaq	__dso_handle(%rip), %rdx
	call	__cxa_atexit@PLT
	movq	%r14, %rdi
	call	__cxa_guard_release@PLT
	jmp	.L320
.L322:
	leaq	40(%rsp), %rdx
	movl	$21537, %esi
	movl	%r12d, %edi
	xorl	%eax, %eax
	movl	$0, 40(%rsp)
	call	ioctl@PLT
	andb	$-4, 4(%r15)
	movl	%r12d, %edi
	movl	$0, (%rbx)
	call	close@PLT
	movzbl	(%r14), %eax
	testb	%al, %al
	jne	.L279
	movq	%r14, %rdi
	call	__cxa_guard_acquire@PLT
	testl	%eax, %eax
	je	.L279
	movq	_ZZN4asio15system_categoryEvE8instance@GOTPCREL(%rip), %rsi
	movq	_ZN4asio6detail15system_categoryD1Ev@GOTPCREL(%rip), %rdi
	leaq	__dso_handle(%rip), %rdx
	call	__cxa_atexit@PLT
	movq	%r14, %rdi
	call	__cxa_guard_release@PLT
	jmp	.L279
.L304:
	movq	8(%rsp), %rax
	movq	%rax, 192(%rbp)
	jmp	.L305
.L301:
	movq	%rcx, 8(%rax)
	jmp	.L302
.L386:
	call	__stack_chk_fail@PLT
	.cfi_endproc
.LFE4455:
	.size	_ZN4asio6detail28reactive_socket_service_base7destroyERNS1_24base_implementation_typeE, .-_ZN4asio6detail28reactive_socket_service_base7destroyERNS1_24base_implementation_typeE
	.section	.text._ZNSt23_Sp_counted_ptr_inplaceIN7asiopal13SocketChannelESaIS1_ELN9__gnu_cxx12_Lock_policyE2EE10_M_disposeEv,"axG",@progbits,_ZNSt23_Sp_counted_ptr_inplaceIN7asiopal13SocketChannelESaIS1_ELN9__gnu_cxx12_Lock_policyE2EE10_M_disposeEv,comdat
	.align 2
	.p2align 4
	.weak	_ZNSt23_Sp_counted_ptr_inplaceIN7asiopal13SocketChannelESaIS1_ELN9__gnu_cxx12_Lock_policyE2EE10_M_disposeEv
	.type	_ZNSt23_Sp_counted_ptr_inplaceIN7asiopal13SocketChannelESaIS1_ELN9__gnu_cxx12_Lock_policyE2EE10_M_disposeEv, @function
_ZNSt23_Sp_counted_ptr_inplaceIN7asiopal13SocketChannelESaIS1_ELN9__gnu_cxx12_Lock_policyE2EE10_M_disposeEv:
.LFB10524:
	.cfi_startproc
	.cfi_personality 0x9b,DW.ref.__gxx_personality_v0
	.cfi_lsda 0x1b,.LLSDA10524
	movq	_ZTVN7asiopal13SocketChannelE@GOTPCREL(%rip), %rax
	pushq	%r12
	.cfi_def_cfa_offset 16
	.cfi_offset 12, -16
	leaq	80(%rdi), %rsi
	pushq	%rbp
	.cfi_def_cfa_offset 24
	.cfi_offset 6, -24
	addq	$16, %rax
	pushq	%rbx
	.cfi_def_cfa_offset 32
	.cfi_offset 3, -32
	movq	%rdi, %rbx
	movq	%rax, 16(%rdi)
	movq	104(%rdi), %rax
	leaq	40(%rax), %rdi
	call	_ZN4asio6detail28reactive_socket_service_base7destroyERNS1_24base_implementation_typeE@PLT
	movq	_ZTVN7asiopal13IAsyncChannelE@GOTPCREL(%rip), %rax
	movq	64(%rbx), %rbp
	addq	$16, %rax
	movq	%rax, 16(%rbx)
	testq	%rbp, %rbp
	je	.L398
	movq	_ZL28__gthrw___pthread_key_createPjPFvPvE@GOTPCREL(%rip), %r12
	testq	%r12, %r12
	jne	.L417
	movl	8(%rbp), %eax
	leal	-1(%rax), %edx
	movl	%edx, 8(%rbp)
.L400:
	cmpl	$1, %eax
	je	.L418
.L398:
	movq	48(%rbx), %rbp
	testq	%rbp, %rbp
	je	.L405
	movq	_ZL28__gthrw___pthread_key_createPjPFvPvE@GOTPCREL(%rip), %r12
	testq	%r12, %r12
	jne	.L419
	movl	8(%rbp), %eax
	leal	-1(%rax), %edx
	movl	%edx, 8(%rbp)
.L407:
	cmpl	$1, %eax
	je	.L420
.L405:
	movq	32(%rbx), %rdi
	testq	%rdi, %rdi
	je	.L396
	cmpq	$0, _ZL28__gthrw___pthread_key_createPjPFvPvE@GOTPCREL(%rip)
	jne	.L421
	movl	12(%rdi), %eax
	leal	-1(%rax), %edx
	movl	%edx, 12(%rdi)
.L414:
	cmpl	$1, %eax
	je	.L422
.L396:
	popq	%rbx
	.cfi_remember_state
	.cfi_def_cfa_offset 24
	popq	%rbp
	.cfi_def_cfa_offset 16
	popq	%r12
	.cfi_def_cfa_offset 8
	ret
	.p2align 4,,10
	.p2align 3
.L418:
	.cfi_restore_state
	movq	0(%rbp), %rax
	movq	%rbp, %rdi
	call	*16(%rax)
	testq	%r12, %r12
	jne	.L423
	movl	12(%rbp), %eax
	leal	-1(%rax), %edx
	movl	%edx, 12(%rbp)
.L403:
	cmpl	$1, %eax
	jne	.L398
	movq	0(%rbp), %rax
	movq	%rbp, %rdi
	call	*24(%rax)
	jmp	.L398
	.p2align 4,,10
	.p2align 3
.L420:
	movq	0(%rbp), %rax
	movq	%rbp, %rdi
	call	*16(%rax)
	testq	%r12, %r12
	jne	.L424
	movl	12(%rbp), %eax
	leal	-1(%rax), %edx
	movl	%edx, 12(%rbp)
.L410:
	cmpl	$1, %eax
	jne	.L405
	movq	0(%rbp), %rax
	movq	%rbp, %rdi
	call	*24(%rax)
	jmp	.L405
	.p2align 4,,10
	.p2align 3
.L422:
	movq	(%rdi), %rax
	popq	%rbx
	.cfi_remember_state
	.cfi_def_cfa_offset 24
	popq	%rbp
	.cfi_def_cfa_offset 16
	popq	%r12
	.cfi_def_cfa_offset 8
	movq	24(%rax), %rax
	jmp	*%rax
	.p2align 4,,10
	.p2align 3
.L421:
	.cfi_restore_state
	movl	$-1, %eax
	lock xaddl	%eax, 12(%rdi)
	jmp	.L414
	.p2align 4,,10
	.p2align 3
.L417:
	movl	$-1, %eax
	lock xaddl	%eax, 8(%rbp)
	jmp	.L400
	.p2align 4,,10
	.p2align 3
.L419:
	movl	$-1, %eax
	lock xaddl	%eax, 8(%rbp)
	jmp	.L407
	.p2align 4,,10
	.p2align 3
.L423:
	movl	$-1, %eax
	lock xaddl	%eax, 12(%rbp)
	jmp	.L403
	.p2align 4,,10
	.p2align 3
.L424:
	movl	$-1, %eax
	lock xaddl	%eax, 12(%rbp)
	jmp	.L410
	.cfi_endproc
.LFE10524:
	.globl	__gxx_personality_v0
	.section	.gcc_except_table._ZNSt23_Sp_counted_ptr_inplaceIN7asiopal13SocketChannelESaIS1_ELN9__gnu_cxx12_Lock_policyE2EE10_M_disposeEv,"aG",@progbits,_ZNSt23_Sp_counted_ptr_inplaceIN7asiopal13SocketChannelESaIS1_ELN9__gnu_cxx12_Lock_policyE2EE10_M_disposeEv,comdat
.LLSDA10524:
	.byte	0xff
	.byte	0xff
	.byte	0x1
	.uleb128 .LLSDACSE10524-.LLSDACSB10524
.LLSDACSB10524:
.LLSDACSE10524:
	.section	.text._ZNSt23_Sp_counted_ptr_inplaceIN7asiopal13SocketChannelESaIS1_ELN9__gnu_cxx12_Lock_policyE2EE10_M_disposeEv,"axG",@progbits,_ZNSt23_Sp_counted_ptr_inplaceIN7asiopal13SocketChannelESaIS1_ELN9__gnu_cxx12_Lock_policyE2EE10_M_disposeEv,comdat
	.size	_ZNSt23_Sp_counted_ptr_inplaceIN7asiopal13SocketChannelESaIS1_ELN9__gnu_cxx12_Lock_policyE2EE10_M_disposeEv, .-_ZNSt23_Sp_counted_ptr_inplaceIN7asiopal13SocketChannelESaIS1_ELN9__gnu_cxx12_Lock_policyE2EE10_M_disposeEv
	.section	.text._ZNSt23_Sp_counted_ptr_inplaceIN7asiopal9TCPClientESaIS1_ELN9__gnu_cxx12_Lock_policyE2EE10_M_disposeEv,"axG",@progbits,_ZNSt23_Sp_counted_ptr_inplaceIN7asiopal9TCPClientESaIS1_ELN9__gnu_cxx12_Lock_policyE2EE10_M_disposeEv,comdat
	.align 2
	.p2align 4
	.weak	_ZNSt23_Sp_counted_ptr_inplaceIN7asiopal9TCPClientESaIS1_ELN9__gnu_cxx12_Lock_policyE2EE10_M_disposeEv
	.type	_ZNSt23_Sp_counted_ptr_inplaceIN7asiopal9TCPClientESaIS1_ELN9__gnu_cxx12_Lock_policyE2EE10_M_disposeEv, @function
_ZNSt23_Sp_counted_ptr_inplaceIN7asiopal9TCPClientESaIS1_ELN9__gnu_cxx12_Lock_policyE2EE10_M_disposeEv:
.LFB10538:
	.cfi_startproc
	.cfi_personality 0x9b,DW.ref.__gxx_personality_v0
	.cfi_lsda 0x1b,.LLSDA10538
	pushq	%r12
	.cfi_def_cfa_offset 16
	.cfi_offset 12, -16
	pxor	%xmm0, %xmm0
	pushq	%rbp
	.cfi_def_cfa_offset 24
	.cfi_offset 6, -24
	pushq	%rbx
	.cfi_def_cfa_offset 32
	.cfi_offset 3, -32
	movq	256(%rdi), %r12
	movq	%rdi, %rbx
	movups	%xmm0, 248(%rdi)
	testq	%r12, %r12
	je	.L427
	movq	_ZL28__gthrw___pthread_key_createPjPFvPvE@GOTPCREL(%rip), %rbp
	testq	%rbp, %rbp
	jne	.L479
	movl	8(%r12), %eax
	leal	-1(%rax), %edx
	movl	%edx, 8(%r12)
	cmpl	$1, %eax
	jne	.L427
.L429:
	movq	(%r12), %rax
	movq	%r12, %rdi
	call	*16(%rax)
	testq	%rbp, %rbp
	jne	.L480
	movl	12(%r12), %eax
	leal	-1(%rax), %edx
	movl	%edx, 12(%r12)
.L434:
	cmpl	$1, %eax
	jne	.L430
	movq	(%r12), %rax
	movq	%r12, %rdi
	call	*24(%rax)
	jmp	.L430
	.p2align 4,,10
	.p2align 3
.L479:
	lock subl	$1, 8(%r12)
	je	.L429
.L430:
	movq	256(%rbx), %r12
	testq	%r12, %r12
	je	.L427
	testq	%rbp, %rbp
	jne	.L481
	movl	8(%r12), %eax
	leal	-1(%rax), %edx
	movl	%edx, 8(%r12)
.L437:
	cmpl	$1, %eax
	jne	.L427
	movq	(%r12), %rax
	movq	%r12, %rdi
	call	*16(%rax)
	testq	%rbp, %rbp
	jne	.L482
	movl	12(%r12), %eax
	leal	-1(%rax), %edx
	movl	%edx, 12(%r12)
.L439:
	cmpl	$1, %eax
	jne	.L427
	movq	(%r12), %rax
	movq	%r12, %rdi
	call	*24(%rax)
	.p2align 4,,10
	.p2align 3
.L427:
	movq	176(%rbx), %rax
	leaq	152(%rbx), %rsi
	leaq	40(%rax), %rdi
	call	_ZN4asio6detail28reactive_socket_service_base7destroyERNS1_24base_implementation_typeE@PLT
	movq	120(%rbx), %rdi
	leaq	136(%rbx), %rax
	cmpq	%rax, %rdi
	je	.L440
	movq	136(%rbx), %rax
	leaq	1(%rax), %rsi
	call	_ZdlPvm@PLT
.L440:
	movq	88(%rbx), %rdi
	leaq	104(%rbx), %rax
	cmpq	%rax, %rdi
	je	.L441
	movq	104(%rbx), %rax
	leaq	1(%rax), %rsi
	call	_ZdlPvm@PLT
.L441:
	movq	80(%rbx), %r12
	testq	%r12, %r12
	je	.L443
	movq	_ZL28__gthrw___pthread_key_createPjPFvPvE@GOTPCREL(%rip), %rbp
	testq	%rbp, %rbp
	jne	.L483
	movl	8(%r12), %eax
	leal	-1(%rax), %edx
	movl	%edx, 8(%r12)
.L445:
	cmpl	$1, %eax
	je	.L484
.L443:
	movq	64(%rbx), %r12
	testq	%r12, %r12
	je	.L450
	movq	_ZL28__gthrw___pthread_key_createPjPFvPvE@GOTPCREL(%rip), %rbp
	testq	%rbp, %rbp
	jne	.L485
	movl	8(%r12), %eax
	leal	-1(%rax), %edx
	movl	%edx, 8(%r12)
.L452:
	cmpl	$1, %eax
	je	.L486
.L450:
	movq	48(%rbx), %r12
	testq	%r12, %r12
	je	.L457
	movq	_ZL28__gthrw___pthread_key_createPjPFvPvE@GOTPCREL(%rip), %rbp
	testq	%rbp, %rbp
	jne	.L487
	movl	8(%r12), %eax
	leal	-1(%rax), %edx
	movl	%edx, 8(%r12)
.L459:
	cmpl	$1, %eax
	je	.L488
.L457:
	movq	24(%rbx), %rdi
	testq	%rdi, %rdi
	je	.L425
	cmpq	$0, _ZL28__gthrw___pthread_key_createPjPFvPvE@GOTPCREL(%rip)
	jne	.L489
	movl	12(%rdi), %eax
	leal	-1(%rax), %edx
	movl	%edx, 12(%rdi)
.L466:
	cmpl	$1, %eax
	je	.L490
.L425:
	popq	%rbx
	.cfi_remember_state
	.cfi_def_cfa_offset 24
	popq	%rbp
	.cfi_def_cfa_offset 16
	popq	%r12
	.cfi_def_cfa_offset 8
	ret
	.p2align 4,,10
	.p2align 3
.L484:
	.cfi_restore_state
	movq	(%r12), %rax
	movq	%r12, %rdi
	call	*16(%rax)
	testq	%rbp, %rbp
	jne	.L491
	movl	12(%r12), %eax
	leal	-1(%rax), %edx
	movl	%edx, 12(%r12)
.L448:
	cmpl	$1, %eax
	jne	.L443
	movq	(%r12), %rax
	movq	%r12, %rdi
	call	*24(%rax)
	jmp	.L443
	.p2align 4,,10
	.p2align 3
.L486:
	movq	(%r12), %rax
	movq	%r12, %rdi
	call	*16(%rax)
	testq	%rbp, %rbp
	jne	.L492
	movl	12(%r12), %eax
	leal	-1(%rax), %edx
	movl	%edx, 12(%r12)
.L455:
	cmpl	$1, %eax
	jne	.L450
	movq	(%r12), %rax
	movq	%r12, %rdi
	call	*24(%rax)
	jmp	.L450
	.p2align 4,,10
	.p2align 3
.L488:
	movq	(%r12), %rax
	movq	%r12, %rdi
	call	*16(%rax)
	testq	%rbp, %rbp
	jne	.L493
	movl	12(%r12), %eax
	leal	-1(%rax), %edx
	movl	%edx, 12(%r12)
.L462:
	cmpl	$1, %eax
	jne	.L457
	movq	(%r12), %rax
	movq	%r12, %rdi
	call	*24(%rax)
	jmp	.L457
	.p2align 4,,10
	.p2align 3
.L490:
	movq	(%rdi), %rax
	popq	%rbx
	.cfi_remember_state
	.cfi_def_cfa_offset 24
	popq	%rbp
	.cfi_def_cfa_offset 16
	popq	%r12
	.cfi_def_cfa_offset 8
	movq	24(%rax), %rax
	jmp	*%rax
	.p2align 4,,10
	.p2align 3
.L489:
	.cfi_restore_state
	movl	$-1, %eax
	lock xaddl	%eax, 12(%rdi)
	jmp	.L466
	.p2align 4,,10
	.p2align 3
.L485:
	movl	$-1, %eax
	lock xaddl	%eax, 8(%r12)
	jmp	.L452
	.p2align 4,,10
	.p2align 3
.L487:
	movl	$-1, %eax
	lock xaddl	%eax, 8(%r12)
	jmp	.L459
	.p2align 4,,10
	.p2align 3
.L483:
	movl	$-1, %eax
	lock xaddl	%eax, 8(%r12)
	jmp	.L445
	.p2align 4,,10
	.p2align 3
.L481:
	movl	$-1, %eax
	lock xaddl	%eax, 8(%r12)
	jmp	.L437
	.p2align 4,,10
	.p2align 3
.L482:
	movl	$-1, %eax
	lock xaddl	%eax, 12(%r12)
	jmp	.L439
	.p2align 4,,10
	.p2align 3
.L493:
	movl	$-1, %eax
	lock xaddl	%eax, 12(%r12)
	jmp	.L462
	.p2align 4,,10
	.p2align 3
.L480:
	movl	$-1, %eax
	lock xaddl	%eax, 12(%r12)
	jmp	.L434
	.p2align 4,,10
	.p2align 3
.L491:
	movl	$-1, %eax
	lock xaddl	%eax, 12(%r12)
	jmp	.L448
	.p2align 4,,10
	.p2align 3
.L492:
	movl	$-1, %eax
	lock xaddl	%eax, 12(%r12)
	jmp	.L455
	.cfi_endproc
.LFE10538:
	.section	.gcc_except_table._ZNSt23_Sp_counted_ptr_inplaceIN7asiopal9TCPClientESaIS1_ELN9__gnu_cxx12_Lock_policyE2EE10_M_disposeEv,"aG",@progbits,_ZNSt23_Sp_counted_ptr_inplaceIN7asiopal9TCPClientESaIS1_ELN9__gnu_cxx12_Lock_policyE2EE10_M_disposeEv,comdat
.LLSDA10538:
	.byte	0xff
	.byte	0xff
	.byte	0x1
	.uleb128 .LLSDACSE10538-.LLSDACSB10538
.LLSDACSB10538:
.LLSDACSE10538:
	.section	.text._ZNSt23_Sp_counted_ptr_inplaceIN7asiopal9TCPClientESaIS1_ELN9__gnu_cxx12_Lock_policyE2EE10_M_disposeEv,"axG",@progbits,_ZNSt23_Sp_counted_ptr_inplaceIN7asiopal9TCPClientESaIS1_ELN9__gnu_cxx12_Lock_policyE2EE10_M_disposeEv,comdat
	.size	_ZNSt23_Sp_counted_ptr_inplaceIN7asiopal9TCPClientESaIS1_ELN9__gnu_cxx12_Lock_policyE2EE10_M_disposeEv, .-_ZNSt23_Sp_counted_ptr_inplaceIN7asiopal9TCPClientESaIS1_ELN9__gnu_cxx12_Lock_policyE2EE10_M_disposeEv
	.section	.text._ZN8asiodnp39IOHandlerD2Ev,"axG",@progbits,_ZN8asiodnp39IOHandlerD5Ev,comdat
	.align 2
	.p2align 4
	.weak	_ZN8asiodnp39IOHandlerD2Ev
	.type	_ZN8asiodnp39IOHandlerD2Ev, @function
_ZN8asiodnp39IOHandlerD2Ev:
.LFB7641:
	.cfi_startproc
	pushq	%r15
	.cfi_def_cfa_offset 16
	.cfi_offset 15, -16
	pushq	%r14
	.cfi_def_cfa_offset 24
	.cfi_offset 14, -24
	pushq	%r13
	.cfi_def_cfa_offset 32
	.cfi_offset 13, -32
	pushq	%r12
	.cfi_def_cfa_offset 40
	.cfi_offset 12, -40
	movq	%rdi, %r12
	pushq	%rbp
	.cfi_def_cfa_offset 48
	.cfi_offset 6, -48
	pushq	%rbx
	.cfi_def_cfa_offset 56
	.cfi_offset 3, -56
	subq	$56, %rsp
	.cfi_def_cfa_offset 112
	movq	_ZTVN8asiodnp39IOHandlerE@GOTPCREL(%rip), %rax
	leaq	104(%rax), %rdx
	addq	$16, %rax
	movq	%rax, %xmm0
	movq	_ZTVN8opendnp317MultidropTaskLockE@GOTPCREL(%rip), %rax
	movq	%rdx, %xmm1
	punpcklqdq	%xmm1, %xmm0
	addq	$16, %rax
	movups	%xmm0, (%rdi)
	movq	%rax, 648(%rdi)
	movq	712(%rdi), %rdi
	testq	%rdi, %rdi
	je	.L495
	movq	784(%r12), %rax
	movq	752(%r12), %rbx
	leaq	8(%rax), %rbp
	cmpq	%rbx, %rbp
	jbe	.L496
	.p2align 4,,10
	.p2align 3
.L497:
	movq	(%rbx), %rdi
	movl	$512, %esi
	addq	$8, %rbx
	call	_ZdlPvm@PLT
	cmpq	%rbx, %rbp
	ja	.L497
	movq	712(%r12), %rdi
.L496:
	movq	720(%r12), %rax
	leaq	0(,%rax,8), %rsi
	call	_ZdlPvm@PLT
.L495:
	movq	680(%r12), %rdi
	call	_ZNSt8_Rb_treeIPN8opendnp317IScheduleCallbackES2_St9_IdentityIS2_ESt4lessIS2_ESaIS2_EE8_M_eraseEPSt13_Rb_tree_nodeIS2_E.isra.0
	movq	640(%r12), %rbp
	testq	%rbp, %rbp
	je	.L499
	movq	_ZL28__gthrw___pthread_key_createPjPFvPvE@GOTPCREL(%rip), %rax
	movq	%rax, 8(%rsp)
	testq	%rax, %rax
	jne	.L624
	movl	8(%rbp), %eax
	leal	-1(%rax), %edx
	movl	%edx, 8(%rbp)
.L501:
	cmpl	$1, %eax
	je	.L625
.L499:
	movq	240(%r12), %rbp
	testq	%rbp, %rbp
	je	.L506
	movq	_ZL28__gthrw___pthread_key_createPjPFvPvE@GOTPCREL(%rip), %rax
	movq	%rax, 8(%rsp)
	testq	%rax, %rax
	jne	.L626
	movl	8(%rbp), %eax
	leal	-1(%rax), %edx
	movl	%edx, 8(%rbp)
.L508:
	cmpl	$1, %eax
	je	.L627
.L506:
	movq	224(%r12), %rbp
	testq	%rbp, %rbp
	je	.L513
	movq	_ZL28__gthrw___pthread_key_createPjPFvPvE@GOTPCREL(%rip), %rax
	movq	%rax, 8(%rsp)
	testq	%rax, %rax
	jne	.L628
	movl	8(%rbp), %eax
	leal	-1(%rax), %edx
	movl	%edx, 8(%rbp)
.L515:
	cmpl	$1, %eax
	je	.L629
.L513:
	movq	168(%r12), %rbx
	movq	184(%r12), %rax
	movq	192(%r12), %r13
	movq	152(%r12), %rbp
	movq	%rbx, 32(%rsp)
	movq	176(%r12), %rbx
	movq	%rax, 24(%rsp)
	movq	208(%r12), %rax
	movq	%rbx, 40(%rsp)
	addq	$8, %rbx
	movq	%rax, 16(%rsp)
	cmpq	%rbx, %rax
	jbe	.L533
	movq	_ZL28__gthrw___pthread_key_createPjPFvPvE@GOTPCREL(%rip), %rax
	movq	%rax, 8(%rsp)
	.p2align 4,,10
	.p2align 3
.L519:
	movq	(%rbx), %r14
	cmpq	$0, 8(%rsp)
	leaq	512(%r14), %r15
	je	.L528
	jmp	.L532
	.p2align 4,,10
	.p2align 3
.L525:
	addq	$32, %r14
	cmpq	%r14, %r15
	je	.L527
.L528:
	movq	24(%r14), %rdi
	testq	%rdi, %rdi
	je	.L525
	movl	8(%rdi), %edx
	leal	-1(%rdx), %esi
	movl	%esi, 8(%rdi)
	cmpl	$1, %edx
	jne	.L525
	movq	(%rdi), %rdx
	movq	%rdi, (%rsp)
	call	*16(%rdx)
	movq	(%rsp), %rdi
	movl	12(%rdi), %edx
	leal	-1(%rdx), %esi
	movl	%esi, 12(%rdi)
	cmpl	$1, %edx
	jne	.L525
	movq	(%rdi), %rdx
	addq	$32, %r14
	call	*24(%rdx)
	cmpq	%r14, %r15
	jne	.L528
	.p2align 4,,10
	.p2align 3
.L527:
	addq	$8, %rbx
	cmpq	%rbx, 16(%rsp)
	ja	.L519
.L533:
	movq	40(%rsp), %rsi
	cmpq	%rsi, 16(%rsp)
	je	.L630
	cmpq	32(%rsp), %rbp
	je	.L543
	cmpq	$0, _ZL28__gthrw___pthread_key_createPjPFvPvE@GOTPCREL(%rip)
	jne	.L538
	movq	24(%rbp), %r14
	testq	%r14, %r14
	jne	.L539
	.p2align 4,,10
	.p2align 3
.L541:
	addq	$32, %rbp
	cmpq	32(%rsp), %rbp
	je	.L543
.L544:
	movq	24(%rbp), %r14
	testq	%r14, %r14
	je	.L541
.L539:
	movl	8(%r14), %eax
	leal	-1(%rax), %edx
	movl	%edx, 8(%r14)
	cmpl	$1, %eax
	jne	.L541
	movq	(%r14), %rax
	movq	%r14, %rdi
	call	*16(%rax)
	movl	12(%r14), %eax
	leal	-1(%rax), %edx
	movl	%edx, 12(%r14)
	cmpl	$1, %eax
	jne	.L541
	movq	(%r14), %rax
	movq	%r14, %rdi
	addq	$32, %rbp
	call	*24(%rax)
	cmpq	32(%rsp), %rbp
	jne	.L544
.L543:
	cmpq	%r13, 24(%rsp)
	je	.L553
	cmpq	$0, _ZL28__gthrw___pthread_key_createPjPFvPvE@GOTPCREL(%rip)
	jne	.L548
	movq	24(%r13), %rbp
	testq	%rbp, %rbp
	jne	.L549
	.p2align 4,,10
	.p2align 3
.L551:
	addq	$32, %r13
	cmpq	%r13, 24(%rsp)
	je	.L553
.L554:
	movq	24(%r13), %rbp
	testq	%rbp, %rbp
	je	.L551
.L549:
	movl	8(%rbp), %eax
	leal	-1(%rax), %edx
	movl	%edx, 8(%rbp)
	cmpl	$1, %eax
	jne	.L551
	movq	0(%rbp), %rax
	movq	%rbp, %rdi
	call	*16(%rax)
	movl	12(%rbp), %eax
	leal	-1(%rax), %edx
	movl	%edx, 12(%rbp)
	cmpl	$1, %eax
	jne	.L551
	movq	0(%rbp), %rax
	movq	%rbp, %rdi
	addq	$32, %r13
	call	*24(%rax)
	cmpq	%r13, 24(%rsp)
	jne	.L554
	.p2align 4,,10
	.p2align 3
.L553:
	movq	136(%r12), %rdi
	testq	%rdi, %rdi
	je	.L537
	movq	208(%r12), %rax
	movq	176(%r12), %rbx
	leaq	8(%rax), %rbp
	cmpq	%rbx, %rbp
	jbe	.L567
	.p2align 4,,10
	.p2align 3
.L568:
	movq	(%rbx), %rdi
	movl	$512, %esi
	addq	$8, %rbx
	call	_ZdlPvm@PLT
	cmpq	%rbx, %rbp
	ja	.L568
	movq	136(%r12), %rdi
.L567:
	movq	144(%r12), %rax
	leaq	0(,%rax,8), %rsi
	call	_ZdlPvm@PLT
.L537:
	movq	120(%r12), %rbx
	movq	112(%r12), %rbp
	cmpq	%rbp, %rbx
	je	.L569
	cmpq	$0, _ZL28__gthrw___pthread_key_createPjPFvPvE@GOTPCREL(%rip)
	je	.L576
	jmp	.L570
	.p2align 4,,10
	.p2align 3
.L573:
	addq	$24, %rbp
	cmpq	%rbp, %rbx
	je	.L575
.L576:
	movq	16(%rbp), %r13
	testq	%r13, %r13
	je	.L573
	movl	8(%r13), %eax
	leal	-1(%rax), %edx
	movl	%edx, 8(%r13)
	cmpl	$1, %eax
	jne	.L573
	movq	0(%r13), %rax
	movq	%r13, %rdi
	call	*16(%rax)
	movl	12(%r13), %eax
	leal	-1(%rax), %edx
	movl	%edx, 12(%r13)
	cmpl	$1, %eax
	jne	.L573
	movq	0(%r13), %rax
	addq	$24, %rbp
	movq	%r13, %rdi
	call	*24(%rax)
	cmpq	%rbp, %rbx
	jne	.L576
	.p2align 4,,10
	.p2align 3
.L575:
	movq	112(%r12), %rbp
.L569:
	testq	%rbp, %rbp
	je	.L580
	movq	128(%r12), %rsi
	movq	%rbp, %rdi
	subq	%rbp, %rsi
	call	_ZdlPvm@PLT
.L580:
	movq	72(%r12), %rbp
	testq	%rbp, %rbp
	je	.L582
	movq	_ZL28__gthrw___pthread_key_createPjPFvPvE@GOTPCREL(%rip), %rax
	movq	%rax, 8(%rsp)
	testq	%rax, %rax
	jne	.L631
	movl	8(%rbp), %eax
	leal	-1(%rax), %edx
	movl	%edx, 8(%rbp)
.L584:
	cmpl	$1, %eax
	je	.L632
.L582:
	movq	56(%r12), %rbp
	testq	%rbp, %rbp
	je	.L589
	movq	_ZL28__gthrw___pthread_key_createPjPFvPvE@GOTPCREL(%rip), %rax
	movq	%rax, 8(%rsp)
	testq	%rax, %rax
	jne	.L633
	movl	8(%rbp), %eax
	leal	-1(%rax), %edx
	movl	%edx, 8(%rbp)
.L591:
	cmpl	$1, %eax
	je	.L634
.L589:
	movq	40(%r12), %rbp
	testq	%rbp, %rbp
	je	.L596
	movq	_ZL28__gthrw___pthread_key_createPjPFvPvE@GOTPCREL(%rip), %rax
	movq	%rax, 8(%rsp)
	testq	%rax, %rax
	jne	.L635
	movl	8(%rbp), %eax
	leal	-1(%rax), %edx
	movl	%edx, 8(%rbp)
.L598:
	cmpl	$1, %eax
	je	.L636
.L596:
	movq	24(%r12), %rdi
	testq	%rdi, %rdi
	je	.L494
	cmpq	$0, _ZL28__gthrw___pthread_key_createPjPFvPvE@GOTPCREL(%rip)
	jne	.L637
	movl	12(%rdi), %eax
	leal	-1(%rax), %edx
	movl	%edx, 12(%rdi)
.L605:
	cmpl	$1, %eax
	je	.L638
.L494:
	addq	$56, %rsp
	.cfi_remember_state
	.cfi_def_cfa_offset 56
	popq	%rbx
	.cfi_def_cfa_offset 48
	popq	%rbp
	.cfi_def_cfa_offset 40
	popq	%r12
	.cfi_def_cfa_offset 32
	popq	%r13
	.cfi_def_cfa_offset 24
	popq	%r14
	.cfi_def_cfa_offset 16
	popq	%r15
	.cfi_def_cfa_offset 8
	ret
	.p2align 4,,10
	.p2align 3
.L640:
	.cfi_restore_state
	movq	(%rdi), %rcx
	movq	%rdi, (%rsp)
	call	*16(%rcx)
	movq	(%rsp), %rdi
	movl	$-1, %ecx
	lock xaddl	%ecx, 12(%rdi)
	cmpl	$1, %ecx
	je	.L639
	.p2align 4,,10
	.p2align 3
.L530:
	addq	$32, %r14
	cmpq	%r14, %r15
	je	.L527
.L532:
	movq	24(%r14), %rdi
	testq	%rdi, %rdi
	je	.L530
	lock subl	$1, 8(%rdi)
	jne	.L530
	jmp	.L640
	.p2align 4,,10
	.p2align 3
.L639:
	movq	(%rdi), %rcx
	call	*24(%rcx)
	jmp	.L530
.L642:
	movq	(%r14), %rax
	movq	%r14, %rdi
	call	*16(%rax)
	lock subl	$1, 12(%r14)
	je	.L641
	.p2align 4,,10
	.p2align 3
.L546:
	addq	$32, %rbp
	cmpq	%rbp, 32(%rsp)
	je	.L543
.L538:
	movq	24(%rbp), %r14
	testq	%r14, %r14
	je	.L546
	lock subl	$1, 8(%r14)
	jne	.L546
	jmp	.L642
.L644:
	movq	0(%rbp), %rax
	movq	%rbp, %rdi
	call	*16(%rax)
	lock subl	$1, 12(%rbp)
	je	.L643
	.p2align 4,,10
	.p2align 3
.L556:
	addq	$32, %r13
	cmpq	%r13, 24(%rsp)
	je	.L553
.L548:
	movq	24(%r13), %rbp
	testq	%rbp, %rbp
	je	.L556
	lock subl	$1, 8(%rbp)
	jne	.L556
	jmp	.L644
.L646:
	movq	0(%r13), %rax
	movq	%r13, %rdi
	call	*16(%rax)
	lock subl	$1, 12(%r13)
	je	.L645
	.p2align 4,,10
	.p2align 3
.L578:
	addq	$24, %rbp
	cmpq	%rbp, %rbx
	je	.L575
.L570:
	movq	16(%rbp), %r13
	testq	%r13, %r13
	je	.L578
	lock subl	$1, 8(%r13)
	jne	.L578
	jmp	.L646
.L630:
	cmpq	%rbp, 24(%rsp)
	je	.L553
	cmpq	$0, _ZL28__gthrw___pthread_key_createPjPFvPvE@GOTPCREL(%rip)
	jne	.L558
	movq	24(%rbp), %r13
	testq	%r13, %r13
	jne	.L559
	.p2align 4,,10
	.p2align 3
.L561:
	addq	$32, %rbp
	cmpq	%rbp, 24(%rsp)
	je	.L553
	movq	24(%rbp), %r13
	testq	%r13, %r13
	je	.L561
.L559:
	movl	8(%r13), %eax
	leal	-1(%rax), %edx
	movl	%edx, 8(%r13)
	cmpl	$1, %eax
	jne	.L561
	movq	0(%r13), %rax
	movq	%r13, %rdi
	call	*16(%rax)
	movl	12(%r13), %eax
	leal	-1(%rax), %edx
	movl	%edx, 12(%r13)
	cmpl	$1, %eax
	jne	.L561
	movq	0(%r13), %rax
	movq	%r13, %rdi
	call	*24(%rax)
	jmp	.L561
.L648:
	movq	0(%r13), %rax
	movq	%r13, %rdi
	call	*16(%rax)
	lock subl	$1, 12(%r13)
	je	.L647
	.p2align 4,,10
	.p2align 3
.L565:
	addq	$32, %rbp
	cmpq	%rbp, 24(%rsp)
	je	.L553
.L558:
	movq	24(%rbp), %r13
	testq	%r13, %r13
	je	.L565
	lock subl	$1, 8(%r13)
	jne	.L565
	jmp	.L648
.L632:
	movq	0(%rbp), %rax
	movq	%rbp, %rdi
	call	*16(%rax)
	cmpq	$0, 8(%rsp)
	jne	.L649
	movl	12(%rbp), %eax
	leal	-1(%rax), %edx
	movl	%edx, 12(%rbp)
.L587:
	cmpl	$1, %eax
	jne	.L582
	movq	0(%rbp), %rax
	movq	%rbp, %rdi
	call	*24(%rax)
	jmp	.L582
.L634:
	movq	0(%rbp), %rax
	movq	%rbp, %rdi
	call	*16(%rax)
	cmpq	$0, 8(%rsp)
	jne	.L650
	movl	12(%rbp), %eax
	leal	-1(%rax), %edx
	movl	%edx, 12(%rbp)
.L594:
	cmpl	$1, %eax
	jne	.L589
	movq	0(%rbp), %rax
	movq	%rbp, %rdi
	call	*24(%rax)
	jmp	.L589
.L636:
	movq	0(%rbp), %rax
	movq	%rbp, %rdi
	call	*16(%rax)
	cmpq	$0, 8(%rsp)
	jne	.L651
	movl	12(%rbp), %eax
	leal	-1(%rax), %edx
	movl	%edx, 12(%rbp)
.L601:
	cmpl	$1, %eax
	jne	.L596
	movq	0(%rbp), %rax
	movq	%rbp, %rdi
	call	*24(%rax)
	jmp	.L596
.L638:
	movq	(%rdi), %rax
	movq	24(%rax), %rax
	addq	$56, %rsp
	.cfi_remember_state
	.cfi_def_cfa_offset 56
	popq	%rbx
	.cfi_def_cfa_offset 48
	popq	%rbp
	.cfi_def_cfa_offset 40
	popq	%r12
	.cfi_def_cfa_offset 32
	popq	%r13
	.cfi_def_cfa_offset 24
	popq	%r14
	.cfi_def_cfa_offset 16
	popq	%r15
	.cfi_def_cfa_offset 8
	jmp	*%rax
.L627:
	.cfi_restore_state
	movq	0(%rbp), %rax
	movq	%rbp, %rdi
	call	*16(%rax)
	cmpq	$0, 8(%rsp)
	jne	.L652
	movl	12(%rbp), %eax
	leal	-1(%rax), %edx
	movl	%edx, 12(%rbp)
.L511:
	cmpl	$1, %eax
	jne	.L506
	movq	0(%rbp), %rax
	movq	%rbp, %rdi
	call	*24(%rax)
	jmp	.L506
.L629:
	movq	0(%rbp), %rax
	movq	%rbp, %rdi
	call	*16(%rax)
	cmpq	$0, 8(%rsp)
	jne	.L653
	movl	12(%rbp), %eax
	leal	-1(%rax), %edx
	movl	%edx, 12(%rbp)
.L518:
	cmpl	$1, %eax
	jne	.L513
	movq	0(%rbp), %rax
	movq	%rbp, %rdi
	call	*24(%rax)
	jmp	.L513
.L625:
	movq	0(%rbp), %rax
	movq	%rbp, %rdi
	call	*16(%rax)
	cmpq	$0, 8(%rsp)
	jne	.L654
	movl	12(%rbp), %eax
	leal	-1(%rax), %edx
	movl	%edx, 12(%rbp)
.L504:
	cmpl	$1, %eax
	jne	.L499
	movq	0(%rbp), %rax
	movq	%rbp, %rdi
	call	*24(%rax)
	jmp	.L499
.L624:
	movl	$-1, %eax
	lock xaddl	%eax, 8(%rbp)
	jmp	.L501
.L628:
	movl	$-1, %eax
	lock xaddl	%eax, 8(%rbp)
	jmp	.L515
.L631:
	movl	$-1, %eax
	lock xaddl	%eax, 8(%rbp)
	jmp	.L584
.L633:
	movl	$-1, %eax
	lock xaddl	%eax, 8(%rbp)
	jmp	.L591
.L635:
	movl	$-1, %eax
	lock xaddl	%eax, 8(%rbp)
	jmp	.L598
.L637:
	movl	$-1, %eax
	lock xaddl	%eax, 12(%rdi)
	jmp	.L605
.L626:
	movl	$-1, %eax
	lock xaddl	%eax, 8(%rbp)
	jmp	.L508
.L645:
	movq	0(%r13), %rax
	movq	%r13, %rdi
	call	*24(%rax)
	jmp	.L578
.L641:
	movq	(%r14), %rax
	movq	%r14, %rdi
	call	*24(%rax)
	jmp	.L546
.L643:
	movq	0(%rbp), %rax
	movq	%rbp, %rdi
	call	*24(%rax)
	jmp	.L556
.L652:
	movl	$-1, %eax
	lock xaddl	%eax, 12(%rbp)
	jmp	.L511
.L654:
	movl	$-1, %eax
	lock xaddl	%eax, 12(%rbp)
	jmp	.L504
.L649:
	movl	$-1, %eax
	lock xaddl	%eax, 12(%rbp)
	jmp	.L587
.L650:
	movl	$-1, %eax
	lock xaddl	%eax, 12(%rbp)
	jmp	.L594
.L651:
	movl	$-1, %eax
	lock xaddl	%eax, 12(%rbp)
	jmp	.L601
.L653:
	movl	$-1, %eax
	lock xaddl	%eax, 12(%rbp)
	jmp	.L518
.L647:
	movq	0(%r13), %rax
	movq	%r13, %rdi
	call	*24(%rax)
	jmp	.L565
	.cfi_endproc
.LFE7641:
	.size	_ZN8asiodnp39IOHandlerD2Ev, .-_ZN8asiodnp39IOHandlerD2Ev
	.set	.LTHUNK0,_ZN8asiodnp39IOHandlerD2Ev
	.p2align 4
	.weak	_ZThn8_N8asiodnp39IOHandlerD1Ev
	.type	_ZThn8_N8asiodnp39IOHandlerD1Ev, @function
_ZThn8_N8asiodnp39IOHandlerD1Ev:
.LFB10698:
	.cfi_startproc
	subq	$8, %rdi
	jmp	.LTHUNK0
	.cfi_endproc
.LFE10698:
	.size	_ZThn8_N8asiodnp39IOHandlerD1Ev, .-_ZThn8_N8asiodnp39IOHandlerD1Ev
	.weak	_ZN8asiodnp39IOHandlerD1Ev
	.set	_ZN8asiodnp39IOHandlerD1Ev,_ZN8asiodnp39IOHandlerD2Ev
	.section	.text._ZN8asiodnp318TCPClientIOHandlerD2Ev,"axG",@progbits,_ZN8asiodnp318TCPClientIOHandlerD5Ev,comdat
	.align 2
	.p2align 4
	.weak	_ZN8asiodnp318TCPClientIOHandlerD2Ev
	.type	_ZN8asiodnp318TCPClientIOHandlerD2Ev, @function
_ZN8asiodnp318TCPClientIOHandlerD2Ev:
.LFB10433:
	.cfi_startproc
	movq	_ZTVN8asiodnp318TCPClientIOHandlerE@GOTPCREL(%rip), %rax
	pushq	%r12
	.cfi_def_cfa_offset 16
	.cfi_offset 12, -16
	pushq	%rbp
	.cfi_def_cfa_offset 24
	.cfi_offset 6, -24
	movq	%rdi, %rbp
	addq	$928, %rdi
	leaq	104(%rax), %rdx
	addq	$16, %rax
	pushq	%rbx
	.cfi_def_cfa_offset 32
	.cfi_offset 3, -32
	movq	%rax, %xmm0
	movq	%rdx, %xmm1
	punpcklqdq	%xmm1, %xmm0
	movups	%xmm0, -928(%rdi)
	call	_ZN7openpal8TimerRefD1Ev@PLT
	movq	920(%rbp), %r12
	testq	%r12, %r12
	je	.L657
	movq	_ZL28__gthrw___pthread_key_createPjPFvPvE@GOTPCREL(%rip), %rbx
	testq	%rbx, %rbx
	jne	.L673
	movl	8(%r12), %eax
	leal	-1(%rax), %edx
	movl	%edx, 8(%r12)
.L659:
	cmpl	$1, %eax
	je	.L674
.L657:
	movq	880(%rbp), %rdi
	leaq	896(%rbp), %rax
	cmpq	%rax, %rdi
	je	.L663
	movq	896(%rbp), %rax
	leaq	1(%rax), %rsi
	call	_ZdlPvm@PLT
.L663:
	movq	840(%rbp), %rdi
	leaq	856(%rbp), %rax
	cmpq	%rax, %rdi
	je	.L664
	movq	856(%rbp), %rax
	leaq	1(%rax), %rsi
	call	_ZdlPvm@PLT
.L664:
	movq	808(%rbp), %r12
	testq	%r12, %r12
	je	.L666
	movq	_ZL28__gthrw___pthread_key_createPjPFvPvE@GOTPCREL(%rip), %rbx
	testq	%rbx, %rbx
	jne	.L675
	movl	8(%r12), %eax
	leal	-1(%rax), %edx
	movl	%edx, 8(%r12)
.L668:
	cmpl	$1, %eax
	je	.L676
.L666:
	popq	%rbx
	.cfi_remember_state
	.cfi_def_cfa_offset 24
	movq	%rbp, %rdi
	popq	%rbp
	.cfi_def_cfa_offset 16
	popq	%r12
	.cfi_def_cfa_offset 8
	jmp	_ZN8asiodnp39IOHandlerD2Ev@PLT
	.p2align 4,,10
	.p2align 3
.L674:
	.cfi_restore_state
	movq	(%r12), %rax
	movq	%r12, %rdi
	call	*16(%rax)
	testq	%rbx, %rbx
	jne	.L677
	movl	12(%r12), %eax
	leal	-1(%rax), %edx
	movl	%edx, 12(%r12)
.L662:
	cmpl	$1, %eax
	jne	.L657
	movq	(%r12), %rax
	movq	%r12, %rdi
	call	*24(%rax)
	jmp	.L657
	.p2align 4,,10
	.p2align 3
.L676:
	movq	(%r12), %rax
	movq	%r12, %rdi
	call	*16(%rax)
	testq	%rbx, %rbx
	jne	.L678
	movl	12(%r12), %eax
	leal	-1(%rax), %edx
	movl	%edx, 12(%r12)
.L671:
	cmpl	$1, %eax
	jne	.L666
	movq	(%r12), %rax
	movq	%r12, %rdi
	call	*24(%rax)
	jmp	.L666
	.p2align 4,,10
	.p2align 3
.L673:
	movl	$-1, %eax
	lock xaddl	%eax, 8(%r12)
	jmp	.L659
	.p2align 4,,10
	.p2align 3
.L675:
	movl	$-1, %eax
	lock xaddl	%eax, 8(%r12)
	jmp	.L668
	.p2align 4,,10
	.p2align 3
.L677:
	movl	$-1, %eax
	lock xaddl	%eax, 12(%r12)
	jmp	.L662
	.p2align 4,,10
	.p2align 3
.L678:
	movl	$-1, %eax
	lock xaddl	%eax, 12(%r12)
	jmp	.L671
	.cfi_endproc
.LFE10433:
	.size	_ZN8asiodnp318TCPClientIOHandlerD2Ev, .-_ZN8asiodnp318TCPClientIOHandlerD2Ev
	.weak	_ZN8asiodnp318TCPClientIOHandlerD1Ev
	.set	_ZN8asiodnp318TCPClientIOHandlerD1Ev,_ZN8asiodnp318TCPClientIOHandlerD2Ev
	.section	.text._ZN8asiodnp318TCPClientIOHandlerD0Ev,"axG",@progbits,_ZN8asiodnp318TCPClientIOHandlerD5Ev,comdat
	.align 2
	.p2align 4
	.weak	_ZN8asiodnp318TCPClientIOHandlerD0Ev
	.type	_ZN8asiodnp318TCPClientIOHandlerD0Ev, @function
_ZN8asiodnp318TCPClientIOHandlerD0Ev:
.LFB10435:
	.cfi_startproc
	movq	_ZTVN8asiodnp318TCPClientIOHandlerE@GOTPCREL(%rip), %rax
	pushq	%r12
	.cfi_def_cfa_offset 16
	.cfi_offset 12, -16
	pushq	%rbp
	.cfi_def_cfa_offset 24
	.cfi_offset 6, -24
	movq	%rdi, %rbp
	addq	$928, %rdi
	leaq	104(%rax), %rdx
	addq	$16, %rax
	pushq	%rbx
	.cfi_def_cfa_offset 32
	.cfi_offset 3, -32
	movq	%rax, %xmm0
	movq	%rdx, %xmm1
	punpcklqdq	%xmm1, %xmm0
	movups	%xmm0, -928(%rdi)
	call	_ZN7openpal8TimerRefD1Ev@PLT
	movq	920(%rbp), %r12
	testq	%r12, %r12
	je	.L681
	movq	_ZL28__gthrw___pthread_key_createPjPFvPvE@GOTPCREL(%rip), %rbx
	testq	%rbx, %rbx
	jne	.L697
	movl	8(%r12), %eax
	leal	-1(%rax), %edx
	movl	%edx, 8(%r12)
.L683:
	cmpl	$1, %eax
	je	.L698
.L681:
	movq	880(%rbp), %rdi
	leaq	896(%rbp), %rax
	cmpq	%rax, %rdi
	je	.L687
	movq	896(%rbp), %rax
	leaq	1(%rax), %rsi
	call	_ZdlPvm@PLT
.L687:
	movq	840(%rbp), %rdi
	leaq	856(%rbp), %rax
	cmpq	%rax, %rdi
	je	.L688
	movq	856(%rbp), %rax
	leaq	1(%rax), %rsi
	call	_ZdlPvm@PLT
.L688:
	movq	808(%rbp), %r12
	testq	%r12, %r12
	je	.L690
	movq	_ZL28__gthrw___pthread_key_createPjPFvPvE@GOTPCREL(%rip), %rbx
	testq	%rbx, %rbx
	jne	.L699
	movl	8(%r12), %eax
	leal	-1(%rax), %edx
	movl	%edx, 8(%r12)
.L692:
	cmpl	$1, %eax
	je	.L700
.L690:
	movq	%rbp, %rdi
	call	_ZN8asiodnp39IOHandlerD2Ev@PLT
	popq	%rbx
	.cfi_remember_state
	.cfi_def_cfa_offset 24
	movq	%rbp, %rdi
	movl	$944, %esi
	popq	%rbp
	.cfi_def_cfa_offset 16
	popq	%r12
	.cfi_def_cfa_offset 8
	jmp	_ZdlPvm@PLT
	.p2align 4,,10
	.p2align 3
.L698:
	.cfi_restore_state
	movq	(%r12), %rax
	movq	%r12, %rdi
	call	*16(%rax)
	testq	%rbx, %rbx
	jne	.L701
	movl	12(%r12), %eax
	leal	-1(%rax), %edx
	movl	%edx, 12(%r12)
.L686:
	cmpl	$1, %eax
	jne	.L681
	movq	(%r12), %rax
	movq	%r12, %rdi
	call	*24(%rax)
	jmp	.L681
	.p2align 4,,10
	.p2align 3
.L700:
	movq	(%r12), %rax
	movq	%r12, %rdi
	call	*16(%rax)
	testq	%rbx, %rbx
	jne	.L702
	movl	12(%r12), %eax
	leal	-1(%rax), %edx
	movl	%edx, 12(%r12)
.L695:
	cmpl	$1, %eax
	jne	.L690
	movq	(%r12), %rax
	movq	%r12, %rdi
	call	*24(%rax)
	jmp	.L690
	.p2align 4,,10
	.p2align 3
.L697:
	movl	$-1, %eax
	lock xaddl	%eax, 8(%r12)
	jmp	.L683
	.p2align 4,,10
	.p2align 3
.L699:
	movl	$-1, %eax
	lock xaddl	%eax, 8(%r12)
	jmp	.L692
	.p2align 4,,10
	.p2align 3
.L701:
	movl	$-1, %eax
	lock xaddl	%eax, 12(%r12)
	jmp	.L686
	.p2align 4,,10
	.p2align 3
.L702:
	movl	$-1, %eax
	lock xaddl	%eax, 12(%r12)
	jmp	.L695
	.cfi_endproc
.LFE10435:
	.size	_ZN8asiodnp318TCPClientIOHandlerD0Ev, .-_ZN8asiodnp318TCPClientIOHandlerD0Ev
	.p2align 4
	.weak	_ZThn8_N8asiodnp318TCPClientIOHandlerD0Ev
	.type	_ZThn8_N8asiodnp318TCPClientIOHandlerD0Ev, @function
_ZThn8_N8asiodnp318TCPClientIOHandlerD0Ev:
.LFB10671:
	.cfi_startproc
	pushq	%r13
	.cfi_def_cfa_offset 16
	.cfi_offset 13, -16
	pushq	%r12
	.cfi_def_cfa_offset 24
	.cfi_offset 12, -24
	leaq	-8(%rdi), %r12
	pushq	%rbp
	.cfi_def_cfa_offset 32
	.cfi_offset 6, -32
	pushq	%rbx
	.cfi_def_cfa_offset 40
	.cfi_offset 3, -40
	movq	%rdi, %rbx
	addq	$920, %rdi
	subq	$8, %rsp
	.cfi_def_cfa_offset 48
	movq	_ZTVN8asiodnp318TCPClientIOHandlerE@GOTPCREL(%rip), %rax
	leaq	104(%rax), %rdx
	addq	$16, %rax
	movq	%rax, %xmm0
	movq	%rdx, %xmm1
	punpcklqdq	%xmm1, %xmm0
	movups	%xmm0, -928(%rdi)
	call	_ZN7openpal8TimerRefD1Ev@PLT
	movq	912(%rbx), %rbp
	testq	%rbp, %rbp
	je	.L705
	movq	_ZL28__gthrw___pthread_key_createPjPFvPvE@GOTPCREL(%rip), %r13
	testq	%r13, %r13
	jne	.L721
	movl	8(%rbp), %eax
	leal	-1(%rax), %edx
	movl	%edx, 8(%rbp)
.L707:
	cmpl	$1, %eax
	je	.L722
.L705:
	movq	872(%rbx), %rdi
	leaq	888(%rbx), %rax
	cmpq	%rax, %rdi
	je	.L711
	movq	888(%rbx), %rax
	leaq	1(%rax), %rsi
	call	_ZdlPvm@PLT
.L711:
	movq	832(%rbx), %rdi
	leaq	848(%rbx), %rax
	cmpq	%rax, %rdi
	je	.L712
	movq	848(%rbx), %rax
	leaq	1(%rax), %rsi
	call	_ZdlPvm@PLT
.L712:
	movq	800(%rbx), %rbp
	testq	%rbp, %rbp
	je	.L714
	movq	_ZL28__gthrw___pthread_key_createPjPFvPvE@GOTPCREL(%rip), %r13
	testq	%r13, %r13
	jne	.L723
	movl	8(%rbp), %eax
	leal	-1(%rax), %edx
	movl	%edx, 8(%rbp)
.L716:
	cmpl	$1, %eax
	je	.L724
.L714:
	movq	%r12, %rdi
	call	_ZN8asiodnp39IOHandlerD2Ev@PLT
	addq	$8, %rsp
	.cfi_remember_state
	.cfi_def_cfa_offset 40
	movq	%r12, %rdi
	movl	$944, %esi
	popq	%rbx
	.cfi_def_cfa_offset 32
	popq	%rbp
	.cfi_def_cfa_offset 24
	popq	%r12
	.cfi_def_cfa_offset 16
	popq	%r13
	.cfi_def_cfa_offset 8
	jmp	_ZdlPvm@PLT
	.p2align 4,,10
	.p2align 3
.L722:
	.cfi_restore_state
	movq	0(%rbp), %rax
	movq	%rbp, %rdi
	call	*16(%rax)
	testq	%r13, %r13
	jne	.L725
	movl	12(%rbp), %eax
	leal	-1(%rax), %edx
	movl	%edx, 12(%rbp)
.L710:
	cmpl	$1, %eax
	jne	.L705
	movq	0(%rbp), %rax
	movq	%rbp, %rdi
	call	*24(%rax)
	jmp	.L705
	.p2align 4,,10
	.p2align 3
.L724:
	movq	0(%rbp), %rax
	movq	%rbp, %rdi
	call	*16(%rax)
	testq	%r13, %r13
	jne	.L726
	movl	12(%rbp), %eax
	leal	-1(%rax), %edx
	movl	%edx, 12(%rbp)
.L719:
	cmpl	$1, %eax
	jne	.L714
	movq	0(%rbp), %rax
	movq	%rbp, %rdi
	call	*24(%rax)
	jmp	.L714
	.p2align 4,,10
	.p2align 3
.L721:
	movl	$-1, %eax
	lock xaddl	%eax, 8(%rbp)
	jmp	.L707
	.p2align 4,,10
	.p2align 3
.L723:
	movl	$-1, %eax
	lock xaddl	%eax, 8(%rbp)
	jmp	.L716
	.p2align 4,,10
	.p2align 3
.L725:
	movl	$-1, %eax
	lock xaddl	%eax, 12(%rbp)
	jmp	.L710
	.p2align 4,,10
	.p2align 3
.L726:
	movl	$-1, %eax
	lock xaddl	%eax, 12(%rbp)
	jmp	.L719
	.cfi_endproc
.LFE10671:
	.size	_ZThn8_N8asiodnp318TCPClientIOHandlerD0Ev, .-_ZThn8_N8asiodnp318TCPClientIOHandlerD0Ev
	.section	.text._ZN8asiodnp318TCPClientIOHandlerD2Ev,"axG",@progbits,_ZN8asiodnp318TCPClientIOHandlerD5Ev,comdat
	.p2align 4
	.weak	_ZThn8_N8asiodnp318TCPClientIOHandlerD1Ev
	.type	_ZThn8_N8asiodnp318TCPClientIOHandlerD1Ev, @function
_ZThn8_N8asiodnp318TCPClientIOHandlerD1Ev:
.LFB10673:
	.cfi_startproc
	pushq	%r13
	.cfi_def_cfa_offset 16
	.cfi_offset 13, -16
	pushq	%r12
	.cfi_def_cfa_offset 24
	.cfi_offset 12, -24
	leaq	-8(%rdi), %r12
	pushq	%rbp
	.cfi_def_cfa_offset 32
	.cfi_offset 6, -32
	pushq	%rbx
	.cfi_def_cfa_offset 40
	.cfi_offset 3, -40
	movq	%rdi, %rbx
	addq	$920, %rdi
	subq	$8, %rsp
	.cfi_def_cfa_offset 48
	movq	_ZTVN8asiodnp318TCPClientIOHandlerE@GOTPCREL(%rip), %rax
	leaq	104(%rax), %rdx
	addq	$16, %rax
	movq	%rax, %xmm0
	movq	%rdx, %xmm1
	punpcklqdq	%xmm1, %xmm0
	movups	%xmm0, -928(%rdi)
	call	_ZN7openpal8TimerRefD1Ev@PLT
	movq	912(%rbx), %rbp
	testq	%rbp, %rbp
	je	.L729
	movq	_ZL28__gthrw___pthread_key_createPjPFvPvE@GOTPCREL(%rip), %r13
	testq	%r13, %r13
	jne	.L745
	movl	8(%rbp), %eax
	leal	-1(%rax), %edx
	movl	%edx, 8(%rbp)
.L731:
	cmpl	$1, %eax
	je	.L746
.L729:
	movq	872(%rbx), %rdi
	leaq	888(%rbx), %rax
	cmpq	%rax, %rdi
	je	.L735
	movq	888(%rbx), %rax
	leaq	1(%rax), %rsi
	call	_ZdlPvm@PLT
.L735:
	movq	832(%rbx), %rdi
	leaq	848(%rbx), %rax
	cmpq	%rax, %rdi
	je	.L736
	movq	848(%rbx), %rax
	leaq	1(%rax), %rsi
	call	_ZdlPvm@PLT
.L736:
	movq	800(%rbx), %rbp
	testq	%rbp, %rbp
	je	.L738
	movq	_ZL28__gthrw___pthread_key_createPjPFvPvE@GOTPCREL(%rip), %r13
	testq	%r13, %r13
	jne	.L747
	movl	8(%rbp), %eax
	leal	-1(%rax), %edx
	movl	%edx, 8(%rbp)
.L740:
	cmpl	$1, %eax
	je	.L748
.L738:
	addq	$8, %rsp
	.cfi_remember_state
	.cfi_def_cfa_offset 40
	movq	%r12, %rdi
	popq	%rbx
	.cfi_def_cfa_offset 32
	popq	%rbp
	.cfi_def_cfa_offset 24
	popq	%r12
	.cfi_def_cfa_offset 16
	popq	%r13
	.cfi_def_cfa_offset 8
	jmp	_ZN8asiodnp39IOHandlerD2Ev@PLT
	.p2align 4,,10
	.p2align 3
.L746:
	.cfi_restore_state
	movq	0(%rbp), %rax
	movq	%rbp, %rdi
	call	*16(%rax)
	testq	%r13, %r13
	jne	.L749
	movl	12(%rbp), %eax
	leal	-1(%rax), %edx
	movl	%edx, 12(%rbp)
.L734:
	cmpl	$1, %eax
	jne	.L729
	movq	0(%rbp), %rax
	movq	%rbp, %rdi
	call	*24(%rax)
	jmp	.L729
	.p2align 4,,10
	.p2align 3
.L748:
	movq	0(%rbp), %rax
	movq	%rbp, %rdi
	call	*16(%rax)
	testq	%r13, %r13
	jne	.L750
	movl	12(%rbp), %eax
	leal	-1(%rax), %edx
	movl	%edx, 12(%rbp)
.L743:
	cmpl	$1, %eax
	jne	.L738
	movq	0(%rbp), %rax
	movq	%rbp, %rdi
	call	*24(%rax)
	jmp	.L738
	.p2align 4,,10
	.p2align 3
.L745:
	movl	$-1, %eax
	lock xaddl	%eax, 8(%rbp)
	jmp	.L731
	.p2align 4,,10
	.p2align 3
.L747:
	movl	$-1, %eax
	lock xaddl	%eax, 8(%rbp)
	jmp	.L740
	.p2align 4,,10
	.p2align 3
.L749:
	movl	$-1, %eax
	lock xaddl	%eax, 12(%rbp)
	jmp	.L734
	.p2align 4,,10
	.p2align 3
.L750:
	movl	$-1, %eax
	lock xaddl	%eax, 12(%rbp)
	jmp	.L743
	.cfi_endproc
.LFE10673:
	.size	_ZThn8_N8asiodnp318TCPClientIOHandlerD1Ev, .-_ZThn8_N8asiodnp318TCPClientIOHandlerD1Ev
	.section	.text._ZN8asiodnp39IOHandlerD0Ev,"axG",@progbits,_ZN8asiodnp39IOHandlerD5Ev,comdat
	.align 2
	.p2align 4
	.weak	_ZN8asiodnp39IOHandlerD0Ev
	.type	_ZN8asiodnp39IOHandlerD0Ev, @function
_ZN8asiodnp39IOHandlerD0Ev:
.LFB7643:
	.cfi_startproc
	pushq	%rbp
	.cfi_def_cfa_offset 16
	.cfi_offset 6, -16
	movq	%rdi, %rbp
	call	_ZN8asiodnp39IOHandlerD1Ev@PLT
	movq	%rbp, %rdi
	movl	$800, %esi
	popq	%rbp
	.cfi_def_cfa_offset 8
	jmp	_ZdlPvm@PLT
	.cfi_endproc
.LFE7643:
	.size	_ZN8asiodnp39IOHandlerD0Ev, .-_ZN8asiodnp39IOHandlerD0Ev
	.p2align 4
	.weak	_ZThn8_N8asiodnp39IOHandlerD0Ev
	.type	_ZThn8_N8asiodnp39IOHandlerD0Ev, @function
_ZThn8_N8asiodnp39IOHandlerD0Ev:
.LFB10672:
	.cfi_startproc
	pushq	%rbp
	.cfi_def_cfa_offset 16
	.cfi_offset 6, -16
	leaq	-8(%rdi), %rbp
	movq	%rbp, %rdi
	call	_ZN8asiodnp39IOHandlerD1Ev@PLT
	movq	%rbp, %rdi
	movl	$800, %esi
	popq	%rbp
	.cfi_def_cfa_offset 8
	jmp	_ZdlPvm@PLT
	.cfi_endproc
.LFE10672:
	.size	_ZThn8_N8asiodnp39IOHandlerD0Ev, .-_ZThn8_N8asiodnp39IOHandlerD0Ev
	.section	.rodata.str1.1,"aMS",@progbits,1
.LC23:
	.string	"Connecting to: %s"
	.section	.rodata.str1.8,"aMS",@progbits,1
	.align 8
.LC24:
	.string	"/home/master/projects/Procont_EE/utils/dnp3_src/cpp/libs/src/asiodnp3/TCPClientIOHandler.cpp(70)"
	.section	.text.unlikely
	.align 2
.LCOLDB25:
	.text
.LHOTB25:
	.align 2
	.p2align 4
	.globl	_ZN8asiodnp318TCPClientIOHandler12StartConnectERKSt10shared_ptrIN7asiopal9TCPClientEERKN7openpal12TimeDurationE
	.type	_ZN8asiodnp318TCPClientIOHandler12StartConnectERKSt10shared_ptrIN7asiopal9TCPClientEERKN7openpal12TimeDurationE, @function
_ZN8asiodnp318TCPClientIOHandler12StartConnectERKSt10shared_ptrIN7asiopal9TCPClientEERKN7openpal12TimeDurationE:
.LFB7735:
	.cfi_startproc
	.cfi_personality 0x9b,DW.ref.__gxx_personality_v0
	.cfi_lsda 0x1b,.LLSDA7735
	pushq	%r15
	.cfi_def_cfa_offset 16
	.cfi_offset 15, -16
	pushq	%r14
	.cfi_def_cfa_offset 24
	.cfi_offset 14, -24
	leaq	32(%rdi), %r14
	pushq	%r13
	.cfi_def_cfa_offset 32
	.cfi_offset 13, -32
	movq	%rdx, %r13
	pushq	%r12
	.cfi_def_cfa_offset 40
	.cfi_offset 12, -40
	movq	%rsi, %r12
	pushq	%rbp
	.cfi_def_cfa_offset 48
	.cfi_offset 6, -48
	pushq	%rbx
	.cfi_def_cfa_offset 56
	.cfi_offset 3, -56
	movq	%rdi, %rbx
	movq	%r14, %rdi
	subq	$264, %rsp
	.cfi_def_cfa_offset 320
	movq	%fs:40, %rax
	movq	%rax, 248(%rsp)
	xorl	%eax, %eax
	leaq	48(%rsp), %rbp
	movl	$8, 48(%rsp)
	movq	%rbp, %rsi
.LEHB0:
	call	_ZNK7openpal6Logger9IsEnabledERKNS_10LogFiltersE@PLT
.LEHE0:
	testb	%al, %al
	jne	.L837
.L756:
	movq	24(%rbx), %rax
	movq	%rax, 8(%rsp)
	testq	%rax, %rax
	je	.L757
	leaq	8(%rax), %rdx
	movl	8(%rax), %eax
.L759:
	testl	%eax, %eax
	je	.L757
	leal	1(%rax), %ecx
	lock cmpxchgl	%ecx, (%rdx)
	jne	.L759
	movq	0(%r13), %rax
	movq	16(%rbx), %rdx
	movq	%rbx, 16(%rsp)
	movdqu	(%r12), %xmm1
	movq	%rax, 24(%rsp)
	movq	8(%r12), %rax
	movq	%rdx, (%rsp)
	movaps	%xmm1, 32(%rsp)
	testq	%rax, %rax
	je	.L760
	cmpq	$0, _ZL28__gthrw___pthread_key_createPjPFvPvE@GOTPCREL(%rip)
	jne	.L838
	addl	$1, 8(%rax)
.L760:
	movq	8(%rsp), %rax
	movq	%rdx, 48(%rsp)
	movq	912(%rbx), %r12
	movq	%rax, 56(%rsp)
	testq	%rax, %rax
	je	.L762
	cmpq	$0, _ZL28__gthrw___pthread_key_createPjPFvPvE@GOTPCREL(%rip)
	jne	.L839
	addl	$1, 8(%rax)
.L762:
	movq	16(%rsp), %rax
	movdqa	32(%rsp), %xmm2
	movq	%rax, 64(%rsp)
	movq	24(%rsp), %rax
	movaps	%xmm2, 80(%rsp)
	movq	%rax, 72(%rsp)
	movq	40(%rsp), %rax
	testq	%rax, %rax
	je	.L764
	cmpq	$0, _ZL28__gthrw___pthread_key_createPjPFvPvE@GOTPCREL(%rip)
	jne	.L840
	addl	$1, 8(%rax)
.L764:
	movq	$0, 112(%rsp)
	movl	$48, %edi
.LEHB1:
	call	_Znwm@PLT
.LEHE1:
	movq	64(%rsp), %rdx
	movdqa	48(%rsp), %xmm3
	pxor	%xmm0, %xmm0
	movdqa	80(%rsp), %xmm4
	movaps	%xmm0, 48(%rsp)
	movq	%rdx, 16(%rax)
	movq	72(%rsp), %rdx
	movups	%xmm3, (%rax)
	movq	%rdx, 24(%rax)
	movq	88(%rsp), %rdx
	movups	%xmm4, 32(%rax)
	testq	%rdx, %rdx
	je	.L766
	cmpq	$0, _ZL28__gthrw___pthread_key_createPjPFvPvE@GOTPCREL(%rip)
	jne	.L841
	addl	$1, 8(%rdx)
.L766:
	movq	%rax, 96(%rsp)
	leaq	_ZNSt17_Function_handlerIFvRKSt10shared_ptrIN7asiopal8ExecutorEEN4asio19basic_stream_socketINS6_2ip3tcpENS6_21stream_socket_serviceIS9_EEEERKSt10error_codeEZN8asiodnp318TCPClientIOHandler12StartConnectERKS0_INS1_9TCPClientEERKN7openpal12TimeDurationEEUlS5_SC_SF_E_E10_M_managerERSt9_Any_dataRKST_St18_Manager_operation(%rip), %rcx
	leaq	_ZNSt17_Function_handlerIFvRKSt10shared_ptrIN7asiopal8ExecutorEEN4asio19basic_stream_socketINS6_2ip3tcpENS6_21stream_socket_serviceIS9_EEEERKSt10error_codeEZN8asiodnp318TCPClientIOHandler12StartConnectERKS0_INS1_9TCPClientEERKN7openpal12TimeDurationEEUlS5_SC_SF_E_E9_M_invokeERKSt9_Any_dataS5_OSC_SF_(%rip), %rax
	movq	%r12, %rdi
	movq	%rcx, %xmm0
	movq	%rax, %xmm5
	leaq	96(%rsp), %r13
	punpcklqdq	%xmm5, %xmm0
	movq	%r13, %rsi
	movaps	%xmm0, 112(%rsp)
.LEHB2:
	call	_ZN7asiopal9TCPClient12BeginConnectERKSt8functionIFvRKSt10shared_ptrINS_8ExecutorEEN4asio19basic_stream_socketINS7_2ip3tcpENS7_21stream_socket_serviceISA_EEEERKSt10error_codeEE@PLT
.LEHE2:
	movq	112(%rsp), %rax
	testq	%rax, %rax
	je	.L772
	movl	$3, %edx
	movq	%r13, %rsi
	movq	%r13, %rdi
	call	*%rax
.L772:
	movq	88(%rsp), %rbp
	testq	%rbp, %rbp
	je	.L774
	movq	_ZL28__gthrw___pthread_key_createPjPFvPvE@GOTPCREL(%rip), %rbx
	testq	%rbx, %rbx
	jne	.L842
	movl	8(%rbp), %eax
	leal	-1(%rax), %edx
	movl	%edx, 8(%rbp)
.L776:
	cmpl	$1, %eax
	je	.L843
.L774:
	movq	56(%rsp), %rbp
	testq	%rbp, %rbp
	je	.L781
	movq	_ZL28__gthrw___pthread_key_createPjPFvPvE@GOTPCREL(%rip), %rbx
	testq	%rbx, %rbx
	jne	.L844
	movl	8(%rbp), %eax
	leal	-1(%rax), %edx
	movl	%edx, 8(%rbp)
.L783:
	cmpl	$1, %eax
	je	.L845
.L781:
	movq	40(%rsp), %rbp
	testq	%rbp, %rbp
	je	.L788
	movq	_ZL28__gthrw___pthread_key_createPjPFvPvE@GOTPCREL(%rip), %rbx
	testq	%rbx, %rbx
	jne	.L846
	movl	8(%rbp), %eax
	leal	-1(%rax), %edx
	movl	%edx, 8(%rbp)
.L790:
	cmpl	$1, %eax
	je	.L847
.L788:
	movq	8(%rsp), %rbp
	testq	%rbp, %rbp
	je	.L755
	movq	_ZL28__gthrw___pthread_key_createPjPFvPvE@GOTPCREL(%rip), %rbx
	testq	%rbx, %rbx
	jne	.L848
	movl	8(%rbp), %eax
	leal	-1(%rax), %edx
	movl	%edx, 8(%rbp)
.L797:
	cmpl	$1, %eax
	je	.L849
.L755:
	movq	248(%rsp), %rax
	subq	%fs:40, %rax
	jne	.L850
	addq	$264, %rsp
	.cfi_remember_state
	.cfi_def_cfa_offset 56
	popq	%rbx
	.cfi_def_cfa_offset 48
	popq	%rbp
	.cfi_def_cfa_offset 40
	popq	%r12
	.cfi_def_cfa_offset 32
	popq	%r13
	.cfi_def_cfa_offset 24
	popq	%r14
	.cfi_def_cfa_offset 16
	popq	%r15
	.cfi_def_cfa_offset 8
	ret
	.p2align 4,,10
	.p2align 3
.L837:
	.cfi_restore_state
	leaq	128(%rsp), %r15
	movq	840(%rbx), %r9
	movl	$120, %ecx
	xorl	%eax, %eax
	movq	%r15, %rdi
	movl	$1, %edx
	movl	$120, %esi
	leaq	.LC23(%rip), %r8
	call	__snprintf_chk@PLT
	movq	%r15, %rcx
	movq	%rbp, %rsi
	movq	%r14, %rdi
	leaq	.LC24(%rip), %rdx
	movl	$8, 48(%rsp)
.LEHB3:
	call	_ZN7openpal6Logger3LogERKNS_10LogFiltersEPKcS5_@PLT
.LEHE3:
	jmp	.L756
	.p2align 4,,10
	.p2align 3
.L843:
	movq	0(%rbp), %rax
	movq	%rbp, %rdi
	call	*16(%rax)
	testq	%rbx, %rbx
	jne	.L851
	movl	12(%rbp), %eax
	leal	-1(%rax), %edx
	movl	%edx, 12(%rbp)
.L779:
	cmpl	$1, %eax
	jne	.L774
	movq	0(%rbp), %rax
	movq	%rbp, %rdi
	call	*24(%rax)
	jmp	.L774
	.p2align 4,,10
	.p2align 3
.L845:
	movq	0(%rbp), %rax
	movq	%rbp, %rdi
	call	*16(%rax)
	testq	%rbx, %rbx
	jne	.L852
	movl	12(%rbp), %eax
	leal	-1(%rax), %edx
	movl	%edx, 12(%rbp)
.L786:
	cmpl	$1, %eax
	jne	.L781
	movq	0(%rbp), %rax
	movq	%rbp, %rdi
	call	*24(%rax)
	jmp	.L781
	.p2align 4,,10
	.p2align 3
.L847:
	movq	0(%rbp), %rax
	movq	%rbp, %rdi
	call	*16(%rax)
	testq	%rbx, %rbx
	jne	.L853
	movl	12(%rbp), %eax
	leal	-1(%rax), %edx
	movl	%edx, 12(%rbp)
.L793:
	cmpl	$1, %eax
	jne	.L788
	movq	0(%rbp), %rax
	movq	%rbp, %rdi
	call	*24(%rax)
	jmp	.L788
	.p2align 4,,10
	.p2align 3
.L849:
	movq	0(%rbp), %rax
	movq	%rbp, %rdi
	call	*16(%rax)
	testq	%rbx, %rbx
	jne	.L854
	movl	12(%rbp), %eax
	leal	-1(%rax), %edx
	movl	%edx, 12(%rbp)
.L800:
	cmpl	$1, %eax
	jne	.L755
	movq	0(%rbp), %rax
	movq	%rbp, %rdi
	call	*24(%rax)
	jmp	.L755
	.p2align 4,,10
	.p2align 3
.L842:
	movl	$-1, %eax
	lock xaddl	%eax, 8(%rbp)
	jmp	.L776
	.p2align 4,,10
	.p2align 3
.L848:
	movl	$-1, %eax
	lock xaddl	%eax, 8(%rbp)
	jmp	.L797
	.p2align 4,,10
	.p2align 3
.L844:
	movl	$-1, %eax
	lock xaddl	%eax, 8(%rbp)
	jmp	.L783
	.p2align 4,,10
	.p2align 3
.L846:
	movl	$-1, %eax
	lock xaddl	%eax, 8(%rbp)
	jmp	.L790
	.p2align 4,,10
	.p2align 3
.L839:
	lock addl	$1, 8(%rax)
	jmp	.L762
	.p2align 4,,10
	.p2align 3
.L840:
	lock addl	$1, 8(%rax)
	jmp	.L764
	.p2align 4,,10
	.p2align 3
.L841:
	lock addl	$1, 8(%rdx)
	jmp	.L766
	.p2align 4,,10
	.p2align 3
.L838:
	lock addl	$1, 8(%rax)
	movq	(%rsp), %rdx
	jmp	.L760
	.p2align 4,,10
	.p2align 3
.L851:
	movl	$-1, %eax
	lock xaddl	%eax, 12(%rbp)
	jmp	.L779
	.p2align 4,,10
	.p2align 3
.L854:
	movl	$-1, %eax
	lock xaddl	%eax, 12(%rbp)
	jmp	.L800
	.p2align 4,,10
	.p2align 3
.L852:
	movl	$-1, %eax
	lock xaddl	%eax, 12(%rbp)
	jmp	.L786
	.p2align 4,,10
	.p2align 3
.L853:
	movl	$-1, %eax
	lock xaddl	%eax, 12(%rbp)
	jmp	.L793
.L850:
	call	__stack_chk_fail@PLT
.L805:
	movq	%rax, %r12
	jmp	.L769
.L804:
	movq	%rax, %r12
	jmp	.L801
	.section	.gcc_except_table,"a",@progbits
.LLSDA7735:
	.byte	0xff
	.byte	0xff
	.byte	0x1
	.uleb128 .LLSDACSE7735-.LLSDACSB7735
.LLSDACSB7735:
	.uleb128 .LEHB0-.LFB7735
	.uleb128 .LEHE0-.LEHB0
	.uleb128 0
	.uleb128 0
	.uleb128 .LEHB1-.LFB7735
	.uleb128 .LEHE1-.LEHB1
	.uleb128 .L805-.LFB7735
	.uleb128 0
	.uleb128 .LEHB2-.LFB7735
	.uleb128 .LEHE2-.LEHB2
	.uleb128 .L804-.LFB7735
	.uleb128 0
	.uleb128 .LEHB3-.LFB7735
	.uleb128 .LEHE3-.LEHB3
	.uleb128 0
	.uleb128 0
.LLSDACSE7735:
	.text
	.cfi_endproc
	.section	.text.unlikely
	.cfi_startproc
	.cfi_personality 0x9b,DW.ref.__gxx_personality_v0
	.cfi_lsda 0x1b,.LLSDAC7735
	.type	_ZN8asiodnp318TCPClientIOHandler12StartConnectERKSt10shared_ptrIN7asiopal9TCPClientEERKN7openpal12TimeDurationE.cold, @function
_ZN8asiodnp318TCPClientIOHandler12StartConnectERKSt10shared_ptrIN7asiopal9TCPClientEERKN7openpal12TimeDurationE.cold:
.LFSB7735:
.L757:
	.cfi_def_cfa_offset 320
	.cfi_offset 3, -56
	.cfi_offset 6, -48
	.cfi_offset 12, -40
	.cfi_offset 13, -32
	.cfi_offset 14, -24
	.cfi_offset 15, -16
.LEHB4:
	call	_ZSt20__throw_bad_weak_ptrv@PLT
.LEHE4:
.L769:
	movq	112(%rsp), %rax
	testq	%rax, %rax
	je	.L771
	leaq	96(%rsp), %rdi
	movl	$3, %edx
	movq	%rdi, %rsi
	call	*%rax
.L771:
	movq	%rbp, %rdi
	call	_ZZN8asiodnp318TCPClientIOHandler12StartConnectERKSt10shared_ptrIN7asiopal9TCPClientEERKN7openpal12TimeDurationEENUlRKS1_INS2_8ExecutorEEN4asio19basic_stream_socketINSF_2ip3tcpENSF_21stream_socket_serviceISI_EEEERKSt10error_codeE_D1Ev
	movq	%rsp, %rdi
	call	_ZZN8asiodnp318TCPClientIOHandler12StartConnectERKSt10shared_ptrIN7asiopal9TCPClientEERKN7openpal12TimeDurationEENUlRKS1_INS2_8ExecutorEEN4asio19basic_stream_socketINSF_2ip3tcpENSF_21stream_socket_serviceISI_EEEERKSt10error_codeE_D1Ev
	movq	%r12, %rdi
.LEHB5:
	call	_Unwind_Resume@PLT
.LEHE5:
.L801:
	movq	112(%rsp), %rax
	testq	%rax, %rax
	je	.L771
	movl	$3, %edx
	movq	%r13, %rsi
	movq	%r13, %rdi
	call	*%rax
	jmp	.L771
	.cfi_endproc
.LFE7735:
	.section	.gcc_except_table
.LLSDAC7735:
	.byte	0xff
	.byte	0xff
	.byte	0x1
	.uleb128 .LLSDACSEC7735-.LLSDACSBC7735
.LLSDACSBC7735:
	.uleb128 .LEHB4-.LCOLDB25
	.uleb128 .LEHE4-.LEHB4
	.uleb128 0
	.uleb128 0
	.uleb128 .LEHB5-.LCOLDB25
	.uleb128 .LEHE5-.LEHB5
	.uleb128 0
	.uleb128 0
.LLSDACSEC7735:
	.section	.text.unlikely
	.text
	.size	_ZN8asiodnp318TCPClientIOHandler12StartConnectERKSt10shared_ptrIN7asiopal9TCPClientEERKN7openpal12TimeDurationE, .-_ZN8asiodnp318TCPClientIOHandler12StartConnectERKSt10shared_ptrIN7asiopal9TCPClientEERKN7openpal12TimeDurationE
	.section	.text.unlikely
	.size	_ZN8asiodnp318TCPClientIOHandler12StartConnectERKSt10shared_ptrIN7asiopal9TCPClientEERKN7openpal12TimeDurationE.cold, .-_ZN8asiodnp318TCPClientIOHandler12StartConnectERKSt10shared_ptrIN7asiopal9TCPClientEERKN7openpal12TimeDurationE.cold
.LCOLDE25:
	.text
.LHOTE25:
	.p2align 4
	.type	_ZNSt17_Function_handlerIFvvEZN7openpal8TimerRef5StartIZZN8asiodnp318TCPClientIOHandler12StartConnectERKSt10shared_ptrIN7asiopal9TCPClientEERKNS1_12TimeDurationEENKUlRKS6_INS7_8ExecutorEEN4asio19basic_stream_socketINSJ_2ip3tcpENSJ_21stream_socket_serviceISM_EEEERKSt10error_codeE_clESI_SP_SS_EUlvE_EEbSE_RKT_EUlvE_E9_M_invokeERKSt9_Any_data, @function
_ZNSt17_Function_handlerIFvvEZN7openpal8TimerRef5StartIZZN8asiodnp318TCPClientIOHandler12StartConnectERKSt10shared_ptrIN7asiopal9TCPClientEERKNS1_12TimeDurationEENKUlRKS6_INS7_8ExecutorEEN4asio19basic_stream_socketINSJ_2ip3tcpENSJ_21stream_socket_serviceISM_EEEERKSt10error_codeE_clESI_SP_SS_EUlvE_EEbSE_RKT_EUlvE_E9_M_invokeERKSt9_Any_data:
.LFB9521:
	.cfi_startproc
	movq	(%rdi), %rax
	movq	(%rax), %rdx
	movq	48(%rax), %rdi
	leaq	32(%rax), %rsi
	movq	$0, 8(%rdx)
	leaq	24(%rax), %rdx
	jmp	_ZN8asiodnp318TCPClientIOHandler12StartConnectERKSt10shared_ptrIN7asiopal9TCPClientEERKN7openpal12TimeDurationE@PLT
	.cfi_endproc
.LFE9521:
	.size	_ZNSt17_Function_handlerIFvvEZN7openpal8TimerRef5StartIZZN8asiodnp318TCPClientIOHandler12StartConnectERKSt10shared_ptrIN7asiopal9TCPClientEERKNS1_12TimeDurationEENKUlRKS6_INS7_8ExecutorEEN4asio19basic_stream_socketINSJ_2ip3tcpENSJ_21stream_socket_serviceISM_EEEERKSt10error_codeE_clESI_SP_SS_EUlvE_EEbSE_RKT_EUlvE_E9_M_invokeERKSt9_Any_data, .-_ZNSt17_Function_handlerIFvvEZN7openpal8TimerRef5StartIZZN8asiodnp318TCPClientIOHandler12StartConnectERKSt10shared_ptrIN7asiopal9TCPClientEERKNS1_12TimeDurationEENKUlRKS6_INS7_8ExecutorEEN4asio19basic_stream_socketINSJ_2ip3tcpENSJ_21stream_socket_serviceISM_EEEERKSt10error_codeE_clESI_SP_SS_EUlvE_EEbSE_RKT_EUlvE_E9_M_invokeERKSt9_Any_data
	.section	.text.unlikely
	.align 2
.LCOLDB27:
	.text
.LHOTB27:
	.align 2
	.p2align 4
	.globl	_ZN8asiodnp318TCPClientIOHandler18BeginChannelAcceptEv
	.type	_ZN8asiodnp318TCPClientIOHandler18BeginChannelAcceptEv, @function
_ZN8asiodnp318TCPClientIOHandler18BeginChannelAcceptEv:
.LFB7731:
	.cfi_startproc
	.cfi_personality 0x9b,DW.ref.__gxx_personality_v0
	.cfi_lsda 0x1b,.LLSDA7731
	pushq	%r14
	.cfi_def_cfa_offset 16
	.cfi_offset 14, -16
	pushq	%r13
	.cfi_def_cfa_offset 24
	.cfi_offset 13, -24
	pushq	%r12
	.cfi_def_cfa_offset 32
	.cfi_offset 12, -32
	pushq	%rbp
	.cfi_def_cfa_offset 40
	.cfi_offset 6, -40
	movq	%rdi, %rbp
	movl	$264, %edi
	pushq	%rbx
	.cfi_def_cfa_offset 48
	.cfi_offset 3, -48
	subq	$16, %rsp
	.cfi_def_cfa_offset 64
.LEHB6:
	call	_Znwm@PLT
.LEHE6:
	leaq	840(%rbp), %rcx
	leaq	32(%rbp), %rsi
	movq	%rax, %r12
	movq	.LC26(%rip), %rax
	leaq	800(%rbp), %rdx
	leaq	880(%rbp), %r8
	leaq	16(%r12), %rbx
	movq	%rax, 8(%r12)
	movq	_ZTVSt23_Sp_counted_ptr_inplaceIN7asiopal9TCPClientESaIS1_ELN9__gnu_cxx12_Lock_policyE2EE@GOTPCREL(%rip), %rax
	movq	%rbx, %rdi
	addq	$16, %rax
	movq	%rax, (%r12)
.LEHB7:
	call	_ZN7asiopal9TCPClientC1ERKN7openpal6LoggerERKSt10shared_ptrINS_8ExecutorEERKNS_10IPEndpointERKNSt7__cxx1112basic_stringIcSt11char_traitsIcESaIcEEE@PLT
.LEHE7:
	movq	24(%r12), %rdi
	testq	%rdi, %rdi
	je	.L858
	movl	8(%rdi), %eax
	testl	%eax, %eax
	je	.L858
.L860:
	movq	920(%rbp), %r13
	movq	%rbx, %xmm0
	movq	%r12, %xmm1
	leaq	912(%rbp), %rsi
	punpcklqdq	%xmm1, %xmm0
	movups	%xmm0, 912(%rbp)
	testq	%r13, %r13
	je	.L868
	movq	_ZL28__gthrw___pthread_key_createPjPFvPvE@GOTPCREL(%rip), %r14
	testq	%r14, %r14
	jne	.L882
	movl	8(%r13), %eax
	leal	-1(%rax), %edx
	movl	%edx, 8(%r13)
.L870:
	cmpl	$1, %eax
	je	.L883
.L868:
	addq	$16, %rsp
	.cfi_remember_state
	.cfi_def_cfa_offset 48
	leaq	816(%rbp), %rdx
	movq	%rbp, %rdi
	popq	%rbx
	.cfi_def_cfa_offset 40
	popq	%rbp
	.cfi_def_cfa_offset 32
	popq	%r12
	.cfi_def_cfa_offset 24
	popq	%r13
	.cfi_def_cfa_offset 16
	popq	%r14
	.cfi_def_cfa_offset 8
.LEHB8:
	jmp	_ZN8asiodnp318TCPClientIOHandler12StartConnectERKSt10shared_ptrIN7asiopal9TCPClientEERKN7openpal12TimeDurationE@PLT
.LEHE8:
	.p2align 4,,10
	.p2align 3
.L858:
	.cfi_restore_state
	movq	_ZL28__gthrw___pthread_key_createPjPFvPvE@GOTPCREL(%rip), %r14
	movq	%rbx, 16(%r12)
	testq	%r14, %r14
	jne	.L884
	addl	$1, 12(%r12)
.L861:
	testq	%rdi, %rdi
	je	.L863
	testq	%r14, %r14
	jne	.L885
	movl	12(%rdi), %eax
	leal	-1(%rax), %edx
	movl	%edx, 12(%rdi)
.L865:
	cmpl	$1, %eax
	jne	.L863
	movq	(%rdi), %rax
	call	*24(%rax)
	.p2align 4,,10
	.p2align 3
.L863:
	movq	%r12, 24(%r12)
	jmp	.L860
	.p2align 4,,10
	.p2align 3
.L883:
	movq	0(%r13), %rax
	movq	%rsi, 8(%rsp)
	movq	%r13, %rdi
	call	*16(%rax)
	testq	%r14, %r14
	movq	8(%rsp), %rsi
	jne	.L886
	movl	12(%r13), %eax
	leal	-1(%rax), %edx
	movl	%edx, 12(%r13)
.L873:
	cmpl	$1, %eax
	jne	.L868
	movq	0(%r13), %rax
	movq	%rsi, 8(%rsp)
	movq	%r13, %rdi
	call	*24(%rax)
	movq	8(%rsp), %rsi
	jmp	.L868
	.p2align 4,,10
	.p2align 3
.L882:
	movl	$-1, %eax
	lock xaddl	%eax, 8(%r13)
	jmp	.L870
	.p2align 4,,10
	.p2align 3
.L884:
	lock addl	$1, 12(%r12)
	movq	24(%r12), %rdi
	jmp	.L861
	.p2align 4,,10
	.p2align 3
.L885:
	movl	$-1, %eax
	lock xaddl	%eax, 12(%rdi)
	jmp	.L865
	.p2align 4,,10
	.p2align 3
.L886:
	movl	$-1, %eax
	lock xaddl	%eax, 12(%r13)
	jmp	.L873
.L876:
	movq	%rax, %rbp
	jmp	.L859
	.section	.gcc_except_table
.LLSDA7731:
	.byte	0xff
	.byte	0xff
	.byte	0x1
	.uleb128 .LLSDACSE7731-.LLSDACSB7731
.LLSDACSB7731:
	.uleb128 .LEHB6-.LFB7731
	.uleb128 .LEHE6-.LEHB6
	.uleb128 0
	.uleb128 0
	.uleb128 .LEHB7-.LFB7731
	.uleb128 .LEHE7-.LEHB7
	.uleb128 .L876-.LFB7731
	.uleb128 0
	.uleb128 .LEHB8-.LFB7731
	.uleb128 .LEHE8-.LEHB8
	.uleb128 0
	.uleb128 0
.LLSDACSE7731:
	.text
	.cfi_endproc
	.section	.text.unlikely
	.cfi_startproc
	.cfi_personality 0x9b,DW.ref.__gxx_personality_v0
	.cfi_lsda 0x1b,.LLSDAC7731
	.type	_ZN8asiodnp318TCPClientIOHandler18BeginChannelAcceptEv.cold, @function
_ZN8asiodnp318TCPClientIOHandler18BeginChannelAcceptEv.cold:
.LFSB7731:
.L859:
	.cfi_def_cfa_offset 64
	.cfi_offset 3, -48
	.cfi_offset 6, -40
	.cfi_offset 12, -32
	.cfi_offset 13, -24
	.cfi_offset 14, -16
	movq	%r12, %rdi
	movl	$264, %esi
	call	_ZdlPvm@PLT
	movq	%rbp, %rdi
.LEHB9:
	call	_Unwind_Resume@PLT
.LEHE9:
	.cfi_endproc
.LFE7731:
	.section	.gcc_except_table
.LLSDAC7731:
	.byte	0xff
	.byte	0xff
	.byte	0x1
	.uleb128 .LLSDACSEC7731-.LLSDACSBC7731
.LLSDACSBC7731:
	.uleb128 .LEHB9-.LCOLDB27
	.uleb128 .LEHE9-.LEHB9
	.uleb128 0
	.uleb128 0
.LLSDACSEC7731:
	.section	.text.unlikely
	.text
	.size	_ZN8asiodnp318TCPClientIOHandler18BeginChannelAcceptEv, .-_ZN8asiodnp318TCPClientIOHandler18BeginChannelAcceptEv
	.section	.text.unlikely
	.size	_ZN8asiodnp318TCPClientIOHandler18BeginChannelAcceptEv.cold, .-_ZN8asiodnp318TCPClientIOHandler18BeginChannelAcceptEv.cold
.LCOLDE27:
	.text
.LHOTE27:
	.align 2
	.p2align 4
	.globl	_ZN8asiodnp318TCPClientIOHandler17OnChannelShutdownEv
	.type	_ZN8asiodnp318TCPClientIOHandler17OnChannelShutdownEv, @function
_ZN8asiodnp318TCPClientIOHandler17OnChannelShutdownEv:
.LFB7734:
	.cfi_startproc
	jmp	_ZN8asiodnp318TCPClientIOHandler18BeginChannelAcceptEv@PLT
	.cfi_endproc
.LFE7734:
	.size	_ZN8asiodnp318TCPClientIOHandler17OnChannelShutdownEv, .-_ZN8asiodnp318TCPClientIOHandler17OnChannelShutdownEv
	.align 2
	.p2align 4
	.globl	_ZN8asiodnp318TCPClientIOHandler10ResetStateEv
	.type	_ZN8asiodnp318TCPClientIOHandler10ResetStateEv, @function
_ZN8asiodnp318TCPClientIOHandler10ResetStateEv:
.LFB7778:
	.cfi_startproc
	pushq	%r12
	.cfi_def_cfa_offset 16
	.cfi_offset 12, -16
	pushq	%rbp
	.cfi_def_cfa_offset 24
	.cfi_offset 6, -24
	pushq	%rbx
	.cfi_def_cfa_offset 32
	.cfi_offset 3, -32
	movq	%rdi, %rbx
	movq	912(%rdi), %rdi
	testq	%rdi, %rdi
	je	.L890
	call	_ZN7asiopal9TCPClient6CancelEv@PLT
	movq	920(%rbx), %rbp
	pxor	%xmm0, %xmm0
	movups	%xmm0, 912(%rbx)
	testq	%rbp, %rbp
	je	.L890
	movq	_ZL28__gthrw___pthread_key_createPjPFvPvE@GOTPCREL(%rip), %r12
	testq	%r12, %r12
	jne	.L900
	movl	8(%rbp), %eax
	leal	-1(%rax), %edx
	movl	%edx, 8(%rbp)
.L893:
	cmpl	$1, %eax
	jne	.L890
	movq	0(%rbp), %rax
	movq	%rbp, %rdi
	call	*16(%rax)
	testq	%r12, %r12
	jne	.L901
	movl	12(%rbp), %eax
	leal	-1(%rax), %edx
	movl	%edx, 12(%rbp)
.L895:
	cmpl	$1, %eax
	je	.L902
.L890:
	leaq	928(%rbx), %rdi
	popq	%rbx
	.cfi_remember_state
	.cfi_def_cfa_offset 24
	popq	%rbp
	.cfi_def_cfa_offset 16
	popq	%r12
	.cfi_def_cfa_offset 8
	jmp	_ZN7openpal8TimerRef6CancelEv@PLT
	.p2align 4,,10
	.p2align 3
.L900:
	.cfi_restore_state
	movl	$-1, %eax
	lock xaddl	%eax, 8(%rbp)
	jmp	.L893
	.p2align 4,,10
	.p2align 3
.L902:
	movq	0(%rbp), %rax
	movq	%rbp, %rdi
	call	*24(%rax)
	jmp	.L890
	.p2align 4,,10
	.p2align 3
.L901:
	movl	$-1, %eax
	lock xaddl	%eax, 12(%rbp)
	jmp	.L895
	.cfi_endproc
.LFE7778:
	.size	_ZN8asiodnp318TCPClientIOHandler10ResetStateEv, .-_ZN8asiodnp318TCPClientIOHandler10ResetStateEv
	.align 2
	.p2align 4
	.globl	_ZN8asiodnp318TCPClientIOHandler12ShutdownImplEv
	.type	_ZN8asiodnp318TCPClientIOHandler12ShutdownImplEv, @function
_ZN8asiodnp318TCPClientIOHandler12ShutdownImplEv:
.LFB7730:
	.cfi_startproc
	jmp	_ZN8asiodnp318TCPClientIOHandler10ResetStateEv@PLT
	.cfi_endproc
.LFE7730:
	.size	_ZN8asiodnp318TCPClientIOHandler12ShutdownImplEv, .-_ZN8asiodnp318TCPClientIOHandler12ShutdownImplEv
	.globl	_ZN8asiodnp318TCPClientIOHandler20SuspendChannelAcceptEv
	.set	_ZN8asiodnp318TCPClientIOHandler20SuspendChannelAcceptEv,_ZN8asiodnp318TCPClientIOHandler12ShutdownImplEv
	.section	.text._ZNSt16_Sp_counted_baseILN9__gnu_cxx12_Lock_policyE2EE10_M_releaseEv,"axG",@progbits,_ZNSt16_Sp_counted_baseILN9__gnu_cxx12_Lock_policyE2EE10_M_releaseEv,comdat
	.align 2
	.p2align 4
	.weak	_ZNSt16_Sp_counted_baseILN9__gnu_cxx12_Lock_policyE2EE10_M_releaseEv
	.type	_ZNSt16_Sp_counted_baseILN9__gnu_cxx12_Lock_policyE2EE10_M_releaseEv, @function
_ZNSt16_Sp_counted_baseILN9__gnu_cxx12_Lock_policyE2EE10_M_releaseEv:
.LFB8825:
	.cfi_startproc
	pushq	%rbp
	.cfi_def_cfa_offset 16
	.cfi_offset 6, -16
	movq	%rdi, %rbp
	pushq	%rbx
	.cfi_def_cfa_offset 24
	.cfi_offset 3, -24
	subq	$8, %rsp
	.cfi_def_cfa_offset 32
	movq	_ZL28__gthrw___pthread_key_createPjPFvPvE@GOTPCREL(%rip), %rbx
	testq	%rbx, %rbx
	jne	.L913
	movl	8(%rdi), %eax
	leal	-1(%rax), %edx
	movl	%edx, 8(%rdi)
.L906:
	cmpl	$1, %eax
	je	.L914
.L904:
	addq	$8, %rsp
	.cfi_remember_state
	.cfi_def_cfa_offset 24
	popq	%rbx
	.cfi_def_cfa_offset 16
	popq	%rbp
	.cfi_def_cfa_offset 8
	ret
	.p2align 4,,10
	.p2align 3
.L914:
	.cfi_restore_state
	movq	0(%rbp), %rax
	movq	%rbp, %rdi
	call	*16(%rax)
	testq	%rbx, %rbx
	jne	.L915
	movl	12(%rbp), %eax
	leal	-1(%rax), %edx
	movl	%edx, 12(%rbp)
.L910:
	cmpl	$1, %eax
	jne	.L904
	movq	0(%rbp), %rax
	movq	%rbp, %rdi
	movq	24(%rax), %rax
	addq	$8, %rsp
	.cfi_remember_state
	.cfi_def_cfa_offset 24
	popq	%rbx
	.cfi_def_cfa_offset 16
	popq	%rbp
	.cfi_def_cfa_offset 8
	jmp	*%rax
	.p2align 4,,10
	.p2align 3
.L913:
	.cfi_restore_state
	movl	$-1, %eax
	lock xaddl	%eax, 8(%rdi)
	jmp	.L906
	.p2align 4,,10
	.p2align 3
.L915:
	movl	$-1, %eax
	lock xaddl	%eax, 12(%rbp)
	jmp	.L910
	.cfi_endproc
.LFE8825:
	.size	_ZNSt16_Sp_counted_baseILN9__gnu_cxx12_Lock_policyE2EE10_M_releaseEv, .-_ZNSt16_Sp_counted_baseILN9__gnu_cxx12_Lock_policyE2EE10_M_releaseEv
	.section	.text.unlikely
	.align 2
.LCOLDB28:
	.text
.LHOTB28:
	.align 2
	.p2align 4
	.globl	_ZN8asiodnp318TCPClientIOHandlerC2ERKN7openpal6LoggerERKSt10shared_ptrINS_16IChannelListenerEERKS5_IN7asiopal8ExecutorEERKNSA_12ChannelRetryERKNSA_10IPEndpointERKNSt7__cxx1112basic_stringIcSt11char_traitsIcESaIcEEE
	.type	_ZN8asiodnp318TCPClientIOHandlerC2ERKN7openpal6LoggerERKSt10shared_ptrINS_16IChannelListenerEERKS5_IN7asiopal8ExecutorEERKNSA_12ChannelRetryERKNSA_10IPEndpointERKNSt7__cxx1112basic_stringIcSt11char_traitsIcESaIcEEE, @function
_ZN8asiodnp318TCPClientIOHandlerC2ERKN7openpal6LoggerERKSt10shared_ptrINS_16IChannelListenerEERKS5_IN7asiopal8ExecutorEERKNSA_12ChannelRetryERKNSA_10IPEndpointERKNSt7__cxx1112basic_stringIcSt11char_traitsIcESaIcEEE:
.LFB7728:
	.cfi_startproc
	.cfi_personality 0x9b,DW.ref.__gxx_personality_v0
	.cfi_lsda 0x1b,.LLSDA7728
	pushq	%r15
	.cfi_def_cfa_offset 16
	.cfi_offset 15, -16
	pushq	%r14
	.cfi_def_cfa_offset 24
	.cfi_offset 14, -24
	pushq	%r13
	.cfi_def_cfa_offset 32
	.cfi_offset 13, -32
	movq	%r9, %r13
	pushq	%r12
	.cfi_def_cfa_offset 40
	.cfi_offset 12, -40
	movq	%r8, %r12
	pushq	%rbp
	.cfi_def_cfa_offset 48
	.cfi_offset 6, -48
	movq	%rdi, %rbp
	pushq	%rbx
	.cfi_def_cfa_offset 56
	.cfi_offset 3, -56
	movq	%rcx, %rbx
	subq	$40, %rsp
	.cfi_def_cfa_offset 96
	movq	%fs:40, %rax
	movq	%rax, 24(%rsp)
	movq	_ZTVN8asiodnp318TCPClientIOHandlerE@GOTPCREL(%rip), %rax
	movq	96(%rsp), %r15
	leaq	104(%rax), %rcx
	addq	$16, %rax
	movq	%rax, %xmm0
	movq	%rcx, %xmm1
	punpcklqdq	%xmm1, %xmm0
	movaps	%xmm0, (%rsp)
.LEHB10:
	call	_ZN8asiodnp39IOHandlerC2ERKN7openpal6LoggerERKSt10shared_ptrINS_16IChannelListenerEE@PLT
.LEHE10:
	movq	(%rbx), %rax
	movdqa	(%rsp), %xmm0
	movq	%rax, 800(%rbp)
	movq	8(%rbx), %rax
	movups	%xmm0, 0(%rbp)
	movq	%rax, 808(%rbp)
	testq	%rax, %rax
	je	.L917
	cmpq	$0, _ZL28__gthrw___pthread_key_createPjPFvPvE@GOTPCREL(%rip)
	jne	.L965
	addl	$1, 8(%rax)
.L917:
	movq	16(%r12), %rax
	movdqu	(%r12), %xmm2
	movq	%rax, 832(%rbp)
	leaq	856(%rbp), %rax
	movq	%rax, 840(%rbp)
	movq	0(%r13), %r14
	movups	%xmm2, 816(%rbp)
	movq	8(%r13), %r12
	movq	%rax, (%rsp)
	movq	%r14, %rax
	addq	%r12, %rax
	je	.L919
	testq	%r14, %r14
	je	.L966
.L919:
	movq	%r12, 16(%rsp)
	cmpq	$15, %r12
	ja	.L967
	cmpq	$1, %r12
	jne	.L922
	movzbl	(%r14), %eax
	movb	%al, 856(%rbp)
	movq	(%rsp), %rax
.L923:
	movq	%r12, 848(%rbp)
	movb	$0, (%rax,%r12)
	movzwl	32(%r13), %eax
	leaq	896(%rbp), %r13
	movq	%r13, 880(%rbp)
	movq	(%r15), %r12
	movq	8(%r15), %r14
	movw	%ax, 872(%rbp)
	movq	%r12, %rax
	addq	%r14, %rax
	je	.L924
	testq	%r12, %r12
	je	.L968
.L924:
	movq	%r14, 16(%rsp)
	cmpq	$15, %r14
	ja	.L969
	cmpq	$1, %r14
	jne	.L927
	movzbl	(%r12), %eax
	movb	%al, 896(%rbp)
	movq	%r13, %rax
.L928:
	movq	%r14, 888(%rbp)
	pxor	%xmm0, %xmm0
	leaq	928(%rbp), %rdi
	movb	$0, (%rax,%r14)
	movups	%xmm0, 912(%rbp)
	movq	(%rbx), %rsi
.LEHB11:
	call	_ZN7openpal8TimerRefC1ERNS_9IExecutorE@PLT
.LEHE11:
	movq	24(%rsp), %rax
	subq	%fs:40, %rax
	jne	.L970
	addq	$40, %rsp
	.cfi_remember_state
	.cfi_def_cfa_offset 56
	popq	%rbx
	.cfi_def_cfa_offset 48
	popq	%rbp
	.cfi_def_cfa_offset 40
	popq	%r12
	.cfi_def_cfa_offset 32
	popq	%r13
	.cfi_def_cfa_offset 24
	popq	%r14
	.cfi_def_cfa_offset 16
	popq	%r15
	.cfi_def_cfa_offset 8
	ret
	.p2align 4,,10
	.p2align 3
.L922:
	.cfi_restore_state
	testq	%r12, %r12
	jne	.L971
	movq	(%rsp), %rax
	jmp	.L923
	.p2align 4,,10
	.p2align 3
.L927:
	testq	%r14, %r14
	jne	.L972
	movq	%r13, %rax
	jmp	.L928
	.p2align 4,,10
	.p2align 3
.L967:
	leaq	16(%rsp), %rsi
	leaq	840(%rbp), %rdi
	xorl	%edx, %edx
.LEHB12:
	call	_ZNSt7__cxx1112basic_stringIcSt11char_traitsIcESaIcEE9_M_createERmm@PLT
.LEHE12:
	movq	%rax, 840(%rbp)
	movq	%rax, %rdi
	movq	16(%rsp), %rax
	movq	%rax, 856(%rbp)
.L921:
	movq	%r12, %rdx
	movq	%r14, %rsi
	call	memcpy@PLT
	movq	16(%rsp), %r12
	movq	840(%rbp), %rax
	jmp	.L923
	.p2align 4,,10
	.p2align 3
.L969:
	leaq	16(%rsp), %rsi
	leaq	880(%rbp), %rdi
	xorl	%edx, %edx
.LEHB13:
	call	_ZNSt7__cxx1112basic_stringIcSt11char_traitsIcESaIcEE9_M_createERmm@PLT
.LEHE13:
	movq	%rax, 880(%rbp)
	movq	%rax, %rdi
	movq	16(%rsp), %rax
	movq	%rax, 896(%rbp)
.L926:
	movq	%r14, %rdx
	movq	%r12, %rsi
	call	memcpy@PLT
	movq	16(%rsp), %r14
	movq	880(%rbp), %rax
	jmp	.L928
	.p2align 4,,10
	.p2align 3
.L965:
	lock addl	$1, 8(%rax)
	jmp	.L917
.L966:
	leaq	.LC4(%rip), %rdi
.LEHB14:
	call	_ZSt19__throw_logic_errorPKc@PLT
.LEHE14:
.L970:
	call	__stack_chk_fail@PLT
.L968:
	leaq	.LC4(%rip), %rdi
.LEHB15:
	call	_ZSt19__throw_logic_errorPKc@PLT
.LEHE15:
.L971:
	movq	(%rsp), %rdi
	jmp	.L921
.L972:
	movq	%r13, %rdi
	jmp	.L926
.L939:
	movq	%rax, %r12
	jmp	.L934
.L941:
	movq	%rax, %r12
	jmp	.L929
.L940:
	movq	%rax, %r12
	jmp	.L932
	.section	.gcc_except_table
.LLSDA7728:
	.byte	0xff
	.byte	0xff
	.byte	0x1
	.uleb128 .LLSDACSE7728-.LLSDACSB7728
.LLSDACSB7728:
	.uleb128 .LEHB10-.LFB7728
	.uleb128 .LEHE10-.LEHB10
	.uleb128 0
	.uleb128 0
	.uleb128 .LEHB11-.LFB7728
	.uleb128 .LEHE11-.LEHB11
	.uleb128 .L941-.LFB7728
	.uleb128 0
	.uleb128 .LEHB12-.LFB7728
	.uleb128 .LEHE12-.LEHB12
	.uleb128 .L939-.LFB7728
	.uleb128 0
	.uleb128 .LEHB13-.LFB7728
	.uleb128 .LEHE13-.LEHB13
	.uleb128 .L940-.LFB7728
	.uleb128 0
	.uleb128 .LEHB14-.LFB7728
	.uleb128 .LEHE14-.LEHB14
	.uleb128 .L939-.LFB7728
	.uleb128 0
	.uleb128 .LEHB15-.LFB7728
	.uleb128 .LEHE15-.LEHB15
	.uleb128 .L940-.LFB7728
	.uleb128 0
.LLSDACSE7728:
	.text
	.cfi_endproc
	.section	.text.unlikely
	.cfi_startproc
	.cfi_personality 0x9b,DW.ref.__gxx_personality_v0
	.cfi_lsda 0x1b,.LLSDAC7728
	.type	_ZN8asiodnp318TCPClientIOHandlerC2ERKN7openpal6LoggerERKSt10shared_ptrINS_16IChannelListenerEERKS5_IN7asiopal8ExecutorEERKNSA_12ChannelRetryERKNSA_10IPEndpointERKNSt7__cxx1112basic_stringIcSt11char_traitsIcESaIcEEE.cold, @function
_ZN8asiodnp318TCPClientIOHandlerC2ERKN7openpal6LoggerERKSt10shared_ptrINS_16IChannelListenerEERKS5_IN7asiopal8ExecutorEERKNSA_12ChannelRetryERKNSA_10IPEndpointERKNSt7__cxx1112basic_stringIcSt11char_traitsIcESaIcEEE.cold:
.LFSB7728:
.L929:
	.cfi_def_cfa_offset 96
	.cfi_offset 3, -56
	.cfi_offset 6, -48
	.cfi_offset 12, -40
	.cfi_offset 13, -32
	.cfi_offset 14, -24
	.cfi_offset 15, -16
	movq	920(%rbp), %rdi
	testq	%rdi, %rdi
	je	.L930
	call	_ZNSt16_Sp_counted_baseILN9__gnu_cxx12_Lock_policyE2EE10_M_releaseEv@PLT
.L930:
	movq	880(%rbp), %rdi
	cmpq	%rdi, %r13
	je	.L932
	movq	896(%rbp), %rax
	leaq	1(%rax), %rsi
	call	_ZdlPvm@PLT
.L932:
	movq	840(%rbp), %rdi
	cmpq	%rdi, (%rsp)
	je	.L934
	movq	856(%rbp), %rax
	leaq	1(%rax), %rsi
	call	_ZdlPvm@PLT
.L934:
	movq	808(%rbp), %rdi
	testq	%rdi, %rdi
	je	.L935
	call	_ZNSt16_Sp_counted_baseILN9__gnu_cxx12_Lock_policyE2EE10_M_releaseEv@PLT
.L935:
	movq	%rbp, %rdi
	call	_ZN8asiodnp39IOHandlerD2Ev@PLT
	movq	%r12, %rdi
.LEHB16:
	call	_Unwind_Resume@PLT
.LEHE16:
	.cfi_endproc
.LFE7728:
	.section	.gcc_except_table
.LLSDAC7728:
	.byte	0xff
	.byte	0xff
	.byte	0x1
	.uleb128 .LLSDACSEC7728-.LLSDACSBC7728
.LLSDACSBC7728:
	.uleb128 .LEHB16-.LCOLDB28
	.uleb128 .LEHE16-.LEHB16
	.uleb128 0
	.uleb128 0
.LLSDACSEC7728:
	.section	.text.unlikely
	.text
	.size	_ZN8asiodnp318TCPClientIOHandlerC2ERKN7openpal6LoggerERKSt10shared_ptrINS_16IChannelListenerEERKS5_IN7asiopal8ExecutorEERKNSA_12ChannelRetryERKNSA_10IPEndpointERKNSt7__cxx1112basic_stringIcSt11char_traitsIcESaIcEEE, .-_ZN8asiodnp318TCPClientIOHandlerC2ERKN7openpal6LoggerERKSt10shared_ptrINS_16IChannelListenerEERKS5_IN7asiopal8ExecutorEERKNSA_12ChannelRetryERKNSA_10IPEndpointERKNSt7__cxx1112basic_stringIcSt11char_traitsIcESaIcEEE
	.section	.text.unlikely
	.size	_ZN8asiodnp318TCPClientIOHandlerC2ERKN7openpal6LoggerERKSt10shared_ptrINS_16IChannelListenerEERKS5_IN7asiopal8ExecutorEERKNSA_12ChannelRetryERKNSA_10IPEndpointERKNSt7__cxx1112basic_stringIcSt11char_traitsIcESaIcEEE.cold, .-_ZN8asiodnp318TCPClientIOHandlerC2ERKN7openpal6LoggerERKSt10shared_ptrINS_16IChannelListenerEERKS5_IN7asiopal8ExecutorEERKNSA_12ChannelRetryERKNSA_10IPEndpointERKNSt7__cxx1112basic_stringIcSt11char_traitsIcESaIcEEE.cold
.LCOLDE28:
	.text
.LHOTE28:
	.globl	_ZN8asiodnp318TCPClientIOHandlerC1ERKN7openpal6LoggerERKSt10shared_ptrINS_16IChannelListenerEERKS5_IN7asiopal8ExecutorEERKNSA_12ChannelRetryERKNSA_10IPEndpointERKNSt7__cxx1112basic_stringIcSt11char_traitsIcESaIcEEE
	.set	_ZN8asiodnp318TCPClientIOHandlerC1ERKN7openpal6LoggerERKSt10shared_ptrINS_16IChannelListenerEERKS5_IN7asiopal8ExecutorEERKNSA_12ChannelRetryERKNSA_10IPEndpointERKNSt7__cxx1112basic_stringIcSt11char_traitsIcESaIcEEE,_ZN8asiodnp318TCPClientIOHandlerC2ERKN7openpal6LoggerERKSt10shared_ptrINS_16IChannelListenerEERKS5_IN7asiopal8ExecutorEERKNSA_12ChannelRetryERKNSA_10IPEndpointERKNSt7__cxx1112basic_stringIcSt11char_traitsIcESaIcEEE
	.section	.rodata.str1.1
.LC29:
	.string	"Error Connecting: %s"
	.section	.rodata.str1.8
	.align 8
.LC30:
	.string	"/home/master/projects/Procont_EE/utils/dnp3_src/cpp/libs/src/asiodnp3/TCPClientIOHandler.cpp(76)"
	.section	.rodata.str1.1
.LC31:
	.string	"Connected to: %s"
	.section	.rodata.str1.8
	.align 8
.LC32:
	.string	"/home/master/projects/Procont_EE/utils/dnp3_src/cpp/libs/src/asiodnp3/TCPClientIOHandler.cpp(91)"
	.section	.text.unlikely
	.align 2
.LCOLDB33:
	.text
.LHOTB33:
	.align 2
	.p2align 4
	.type	_ZZN8asiodnp318TCPClientIOHandler12StartConnectERKSt10shared_ptrIN7asiopal9TCPClientEERKN7openpal12TimeDurationEENKUlRKS1_INS2_8ExecutorEEN4asio19basic_stream_socketINSF_2ip3tcpENSF_21stream_socket_serviceISI_EEEERKSt10error_codeE_clESE_SL_SO_, @function
_ZZN8asiodnp318TCPClientIOHandler12StartConnectERKSt10shared_ptrIN7asiopal9TCPClientEERKN7openpal12TimeDurationEENKUlRKS1_INS2_8ExecutorEEN4asio19basic_stream_socketINSF_2ip3tcpENSF_21stream_socket_serviceISI_EEEERKSt10error_codeE_clESE_SL_SO_:
.LFB7742:
	.cfi_startproc
	.cfi_personality 0x9b,DW.ref.__gxx_personality_v0
	.cfi_lsda 0x1b,.LLSDA7742
	pushq	%r15
	.cfi_def_cfa_offset 16
	.cfi_offset 15, -16
	pushq	%r14
	.cfi_def_cfa_offset 24
	.cfi_offset 14, -24
	pushq	%r13
	.cfi_def_cfa_offset 32
	.cfi_offset 13, -32
	pushq	%r12
	.cfi_def_cfa_offset 40
	.cfi_offset 12, -40
	pushq	%rbp
	.cfi_def_cfa_offset 48
	.cfi_offset 6, -48
	pushq	%rbx
	.cfi_def_cfa_offset 56
	.cfi_offset 3, -56
	movq	%rdi, %rbx
	subq	$360, %rsp
	.cfi_def_cfa_offset 416
	movq	%fs:40, %rax
	movq	%rax, 344(%rsp)
	movq	16(%rdi), %rax
	leaq	32(%rax), %rdi
	movl	(%rcx), %eax
	testl	%eax, %eax
	je	.L974
	leaq	128(%rsp), %r13
	movq	%rcx, %r12
	movl	$4, 128(%rsp)
	movq	%r13, %rsi
.LEHB17:
	call	_ZNK7openpal6Logger9IsEnabledERKNS_10LogFiltersE@PLT
	testb	%al, %al
	jne	.L1154
.L975:
	movq	16(%rbx), %rdx
	leaq	24(%rbx), %rbp
	movq	%rbp, %rsi
	movq	832(%rdx), %rdi
	addl	$1, 84(%rdx)
	addq	$824, %rdx
	movq	(%rdi), %rax
	call	*16(%rax)
.LEHE17:
	movdqu	(%rbx), %xmm1
	movq	8(%rbx), %rdx
	movaps	%xmm1, 16(%rsp)
	testq	%rdx, %rdx
	je	.L977
	cmpq	$0, _ZL28__gthrw___pthread_key_createPjPFvPvE@GOTPCREL(%rip)
	jne	.L1155
	addl	$1, 8(%rdx)
.L977:
	movq	%rax, 32(%rsp)
	movdqu	32(%rbx), %xmm2
	movq	40(%rbx), %rax
	movups	%xmm2, 40(%rsp)
	testq	%rax, %rax
	je	.L979
	cmpq	$0, _ZL28__gthrw___pthread_key_createPjPFvPvE@GOTPCREL(%rip)
	jne	.L1156
	addl	$1, 8(%rax)
.L979:
	movq	16(%rsp), %rax
	movq	16(%rbx), %r12
	movq	%rax, 72(%rsp)
	movq	24(%rsp), %rax
	movq	%r12, 56(%rsp)
	addq	$928, %r12
	movq	%r12, 64(%rsp)
	movq	%rax, 80(%rsp)
	testq	%rax, %rax
	je	.L981
	cmpq	$0, _ZL28__gthrw___pthread_key_createPjPFvPvE@GOTPCREL(%rip)
	jne	.L1157
	addl	$1, 8(%rax)
.L981:
	movq	32(%rsp), %rax
	movdqu	40(%rsp), %xmm3
	movq	%rax, 88(%rsp)
	movq	48(%rsp), %rax
	movaps	%xmm3, 96(%rsp)
	testq	%rax, %rax
	je	.L983
	cmpq	$0, _ZL28__gthrw___pthread_key_createPjPFvPvE@GOTPCREL(%rip)
	jne	.L1158
	addl	$1, 8(%rax)
.L983:
	movq	56(%rsp), %rax
	movdqa	64(%rsp), %xmm4
	movq	%rax, 112(%rsp)
	movq	80(%rsp), %rax
	movaps	%xmm4, 128(%rsp)
	movq	%rax, 144(%rsp)
	testq	%rax, %rax
	je	.L985
	cmpq	$0, _ZL28__gthrw___pthread_key_createPjPFvPvE@GOTPCREL(%rip)
	jne	.L1159
	addl	$1, 8(%rax)
.L985:
	movq	88(%rsp), %rax
	movdqa	96(%rsp), %xmm5
	movq	%rax, 152(%rsp)
	movq	104(%rsp), %rax
	movaps	%xmm5, 160(%rsp)
	testq	%rax, %rax
	je	.L987
	cmpq	$0, _ZL28__gthrw___pthread_key_createPjPFvPvE@GOTPCREL(%rip)
	jne	.L1160
	addl	$1, 8(%rax)
.L987:
	movq	112(%rsp), %rax
	movl	$56, %edi
	movq	$0, 208(%rsp)
	movq	%rax, 176(%rsp)
.LEHB18:
	call	_Znwm@PLT
.LEHE18:
	movdqa	128(%rsp), %xmm6
	movq	144(%rsp), %rdx
	movups	%xmm6, (%rax)
	movq	%rdx, 16(%rax)
	testq	%rdx, %rdx
	je	.L989
	cmpq	$0, _ZL28__gthrw___pthread_key_createPjPFvPvE@GOTPCREL(%rip)
	jne	.L1161
	addl	$1, 8(%rdx)
.L989:
	movq	152(%rsp), %rdx
	movdqa	160(%rsp), %xmm7
	movq	%rdx, 24(%rax)
	movq	168(%rsp), %rdx
	movups	%xmm7, 32(%rax)
	testq	%rdx, %rdx
	je	.L991
	cmpq	$0, _ZL28__gthrw___pthread_key_createPjPFvPvE@GOTPCREL(%rip)
	jne	.L1162
	addl	$1, 8(%rdx)
.L991:
	movq	176(%rsp), %rdx
	movq	%rbp, %rsi
	movq	%r12, %rdi
	movq	%rax, 192(%rsp)
	leaq	_ZNSt17_Function_handlerIFvvEZN7openpal8TimerRef5StartIZZN8asiodnp318TCPClientIOHandler12StartConnectERKSt10shared_ptrIN7asiopal9TCPClientEERKNS1_12TimeDurationEENKUlRKS6_INS7_8ExecutorEEN4asio19basic_stream_socketINSJ_2ip3tcpENSJ_21stream_socket_serviceISM_EEEERKSt10error_codeE_clESI_SP_SS_EUlvE_EEbSE_RKT_EUlvE_E10_M_managerERSt9_Any_dataRKS10_St18_Manager_operation(%rip), %rcx
	leaq	192(%rsp), %r13
	movq	%rdx, 48(%rax)
	leaq	_ZNSt17_Function_handlerIFvvEZN7openpal8TimerRef5StartIZZN8asiodnp318TCPClientIOHandler12StartConnectERKSt10shared_ptrIN7asiopal9TCPClientEERKNS1_12TimeDurationEENKUlRKS6_INS7_8ExecutorEEN4asio19basic_stream_socketINSJ_2ip3tcpENSJ_21stream_socket_serviceISM_EEEERKSt10error_codeE_clESI_SP_SS_EUlvE_EEbSE_RKT_EUlvE_E9_M_invokeERKSt9_Any_data(%rip), %rax
	movq	%rcx, %xmm0
	movq	%r13, %rdx
	movq	%rax, %xmm1
	punpcklqdq	%xmm1, %xmm0
	movaps	%xmm0, 208(%rsp)
.LEHB19:
	call	_ZN7openpal8TimerRef11StartActionERKNS_12TimeDurationERKSt8functionIFvvEE@PLT
.LEHE19:
	movq	208(%rsp), %rax
	testq	%rax, %rax
	je	.L997
	movl	$3, %edx
	movq	%r13, %rsi
	movq	%r13, %rdi
	call	*%rax
.L997:
	movq	168(%rsp), %rbp
	testq	%rbp, %rbp
	je	.L999
	movq	_ZL28__gthrw___pthread_key_createPjPFvPvE@GOTPCREL(%rip), %r14
	testq	%r14, %r14
	jne	.L1163
	movl	8(%rbp), %edx
	leal	-1(%rdx), %ecx
	movl	%ecx, 8(%rbp)
.L1001:
	cmpl	$1, %edx
	jne	.L999
	movq	0(%rbp), %rdx
	movq	%rbp, %rdi
	call	*16(%rdx)
	testq	%r14, %r14
	jne	.L1164
	movl	12(%rbp), %eax
	leal	-1(%rax), %edx
	movl	%edx, 12(%rbp)
.L1004:
	cmpl	$1, %eax
	je	.L1165
	.p2align 4,,10
	.p2align 3
.L999:
	movq	144(%rsp), %rbp
	testq	%rbp, %rbp
	je	.L1006
	movq	_ZL28__gthrw___pthread_key_createPjPFvPvE@GOTPCREL(%rip), %r14
	testq	%r14, %r14
	jne	.L1166
	movl	8(%rbp), %edx
	leal	-1(%rdx), %ecx
	movl	%ecx, 8(%rbp)
.L1008:
	cmpl	$1, %edx
	jne	.L1006
	movq	0(%rbp), %rdx
	movq	%rbp, %rdi
	call	*16(%rdx)
	testq	%r14, %r14
	jne	.L1167
	movl	12(%rbp), %eax
	leal	-1(%rax), %edx
	movl	%edx, 12(%rbp)
.L1011:
	cmpl	$1, %eax
	je	.L1168
	.p2align 4,,10
	.p2align 3
.L1006:
	movq	104(%rsp), %rbp
	testq	%rbp, %rbp
	je	.L1013
	movq	_ZL28__gthrw___pthread_key_createPjPFvPvE@GOTPCREL(%rip), %r14
	testq	%r14, %r14
	jne	.L1169
	movl	8(%rbp), %edx
	leal	-1(%rdx), %ecx
	movl	%ecx, 8(%rbp)
.L1015:
	cmpl	$1, %edx
	jne	.L1013
	movq	0(%rbp), %rdx
	movq	%rbp, %rdi
	call	*16(%rdx)
	testq	%r14, %r14
	jne	.L1170
	movl	12(%rbp), %eax
	leal	-1(%rax), %edx
	movl	%edx, 12(%rbp)
.L1018:
	cmpl	$1, %eax
	je	.L1171
	.p2align 4,,10
	.p2align 3
.L1013:
	movq	80(%rsp), %rbp
	testq	%rbp, %rbp
	je	.L1020
	movq	_ZL28__gthrw___pthread_key_createPjPFvPvE@GOTPCREL(%rip), %r14
	testq	%r14, %r14
	jne	.L1172
	movl	8(%rbp), %edx
	leal	-1(%rdx), %ecx
	movl	%ecx, 8(%rbp)
.L1022:
	cmpl	$1, %edx
	jne	.L1020
	movq	0(%rbp), %rdx
	movq	%rbp, %rdi
	call	*16(%rdx)
	testq	%r14, %r14
	jne	.L1173
	movl	12(%rbp), %eax
	leal	-1(%rax), %edx
	movl	%edx, 12(%rbp)
.L1025:
	cmpl	$1, %eax
	je	.L1174
	.p2align 4,,10
	.p2align 3
.L1020:
	movq	48(%rsp), %rbp
	testq	%rbp, %rbp
	je	.L1027
	movq	_ZL28__gthrw___pthread_key_createPjPFvPvE@GOTPCREL(%rip), %r14
	testq	%r14, %r14
	jne	.L1175
	movl	8(%rbp), %edx
	leal	-1(%rdx), %ecx
	movl	%ecx, 8(%rbp)
.L1031:
	cmpl	$1, %edx
	jne	.L1027
	movq	0(%rbp), %rdx
	movq	%rbp, %rdi
	call	*16(%rdx)
	testq	%r14, %r14
	jne	.L1176
	movl	12(%rbp), %eax
	leal	-1(%rax), %edx
	movl	%edx, 12(%rbp)
.L1034:
	cmpl	$1, %eax
	je	.L1177
	.p2align 4,,10
	.p2align 3
.L1027:
	movq	24(%rsp), %rbp
	testq	%rbp, %rbp
	je	.L973
	movq	_ZL28__gthrw___pthread_key_createPjPFvPvE@GOTPCREL(%rip), %r14
	testq	%r14, %r14
	jne	.L1178
	movl	8(%rbp), %edx
	leal	-1(%rdx), %ecx
	movl	%ecx, 8(%rbp)
.L1038:
	cmpl	$1, %edx
	jne	.L973
	movq	0(%rbp), %rdx
	movq	%rbp, %rdi
	call	*16(%rdx)
	testq	%r14, %r14
	jne	.L1179
	movl	12(%rbp), %eax
	leal	-1(%rax), %edx
	movl	%edx, 12(%rbp)
.L1041:
	cmpl	$1, %eax
	je	.L1180
	.p2align 4,,10
	.p2align 3
.L973:
	movq	344(%rsp), %rax
	subq	%fs:40, %rax
	jne	.L1181
	addq	$360, %rsp
	.cfi_remember_state
	.cfi_def_cfa_offset 56
	popq	%rbx
	.cfi_def_cfa_offset 48
	popq	%rbp
	.cfi_def_cfa_offset 40
	popq	%r12
	.cfi_def_cfa_offset 32
	popq	%r13
	.cfi_def_cfa_offset 24
	popq	%r14
	.cfi_def_cfa_offset 16
	popq	%r15
	.cfi_def_cfa_offset 8
	ret
	.p2align 4,,10
	.p2align 3
.L1154:
	.cfi_restore_state
	movq	8(%r12), %rsi
	movl	(%r12), %edx
	leaq	192(%rsp), %rdi
	leaq	224(%rsp), %r12
	movq	(%rsi), %rax
.LEHB20:
	call	*32(%rax)
	movq	192(%rsp), %r9
	movq	%r12, %rdi
	xorl	%eax, %eax
	movl	$120, %ecx
	movl	$1, %edx
	movl	$120, %esi
	leaq	.LC29(%rip), %r8
	call	__snprintf_chk@PLT
	movq	192(%rsp), %rdi
	leaq	208(%rsp), %rax
	cmpq	%rax, %rdi
	je	.L976
	movq	208(%rsp), %rax
	leaq	1(%rax), %rsi
	call	_ZdlPvm@PLT
.L976:
	movq	16(%rbx), %rax
	movq	%r12, %rcx
	leaq	.LC30(%rip), %rdx
	movq	%r13, %rsi
	movl	$4, 128(%rsp)
	leaq	32(%rax), %rdi
	call	_ZN7openpal6Logger3LogERKNS_10LogFiltersEPKcS5_@PLT
	jmp	.L975
	.p2align 4,,10
	.p2align 3
.L974:
	leaq	128(%rsp), %r13
	movq	%rsi, %r14
	movq	%rdx, %rbp
	movl	$8, 128(%rsp)
	movq	%r13, %rsi
	call	_ZNK7openpal6Logger9IsEnabledERKNS_10LogFiltersE@PLT
.LEHE20:
	testb	%al, %al
	jne	.L1182
.L1043:
	movq	24(%rbp), %rax
	movq	16(%rbx), %r12
	movq	%rax, 88(%rsp)
	movl	0(%rbp), %eax
	movl	$-1, 0(%rbp)
	movl	%eax, 64(%rsp)
	movzbl	4(%rbp), %eax
	movb	$0, 4(%rbp)
	movq	(%r14), %r15
	movb	%al, 68(%rsp)
	movq	8(%rbp), %rax
	movq	$0, 8(%rbp)
	movq	%rax, 72(%rsp)
	movl	16(%rbp), %eax
	movl	$2, 16(%rbp)
	movq	8(%r14), %rbp
	movl	%eax, 80(%rsp)
	testq	%rbp, %rbp
	je	.L1044
	cmpq	$0, _ZL28__gthrw___pthread_key_createPjPFvPvE@GOTPCREL(%rip)
	jne	.L1183
	addl	$1, 8(%rbp)
.L1044:
	movl	$112, %edi
.LEHB21:
	call	_Znwm@PLT
.LEHE21:
	movq	%rax, %rbx
	movq	.LC26(%rip), %rax
	movq	%r15, %xmm0
	movq	%rbp, %xmm2
	punpcklqdq	%xmm2, %xmm0
	movq	%rax, 8(%rbx)
	movq	_ZTVSt23_Sp_counted_ptr_inplaceIN7asiopal13SocketChannelESaIS1_ELN9__gnu_cxx12_Lock_policyE2EE@GOTPCREL(%rip), %rax
	movaps	%xmm0, 16(%rsp)
	addq	$16, %rax
	movq	%rax, (%rbx)
	leaq	16(%rbx), %rax
	movq	%rax, 8(%rsp)
	testq	%rbp, %rbp
	je	.L1046
	cmpq	$0, _ZL28__gthrw___pthread_key_createPjPFvPvE@GOTPCREL(%rip)
	jne	.L1184
	addl	$1, 8(%rbp)
.L1046:
	movq	88(%rsp), %rax
	movq	8(%rsp), %rdi
	leaq	16(%rsp), %rsi
	movq	%r13, %rdx
	movq	%rax, 152(%rsp)
	movl	64(%rsp), %eax
	movl	$-1, 64(%rsp)
	movl	%eax, 128(%rsp)
	movzbl	68(%rsp), %eax
	movb	$0, 68(%rsp)
	movb	%al, 132(%rsp)
	movq	72(%rsp), %rax
	movq	$0, 72(%rsp)
	movq	%rax, 136(%rsp)
	movl	80(%rsp), %eax
	movl	$2, 80(%rsp)
	movl	%eax, 144(%rsp)
.LEHB22:
	call	_ZN7asiopal13SocketChannelC1ESt10shared_ptrINS_8ExecutorEEN4asio19basic_stream_socketINS4_2ip3tcpENS4_21stream_socket_serviceIS7_EEEE@PLT
.LEHE22:
	movq	152(%rsp), %rax
	movq	%r13, %rsi
	leaq	40(%rax), %rdi
	call	_ZN4asio6detail28reactive_socket_service_base7destroyERNS1_24base_implementation_typeE@PLT
	movq	24(%rsp), %r15
	testq	%r15, %r15
	je	.L1053
	movq	_ZL28__gthrw___pthread_key_createPjPFvPvE@GOTPCREL(%rip), %r14
	testq	%r14, %r14
	jne	.L1185
	movl	8(%r15), %edx
	leal	-1(%rdx), %ecx
	movl	%ecx, 8(%r15)
.L1050:
	cmpl	$1, %edx
	jne	.L1053
	movq	(%r15), %rdx
	movq	%r15, %rdi
	call	*16(%rdx)
	testq	%r14, %r14
	jne	.L1186
	movl	12(%r15), %eax
	leal	-1(%rax), %edx
	movl	%edx, 12(%r15)
.L1052:
	cmpl	$1, %eax
	je	.L1187
	.p2align 4,,10
	.p2align 3
.L1053:
	movq	32(%rbx), %rdi
	testq	%rdi, %rdi
	je	.L1057
	movl	8(%rdi), %eax
	testl	%eax, %eax
	jne	.L1058
.L1057:
	movq	8(%rsp), %rax
	movq	_ZL28__gthrw___pthread_key_createPjPFvPvE@GOTPCREL(%rip), %r14
	movq	%rax, 24(%rbx)
	testq	%r14, %r14
	jne	.L1188
	addl	$1, 12(%rbx)
.L1059:
	testq	%rdi, %rdi
	je	.L1061
	testq	%r14, %r14
	jne	.L1189
	movl	12(%rdi), %eax
	leal	-1(%rax), %edx
	movl	%edx, 12(%rdi)
.L1063:
	cmpl	$1, %eax
	jne	.L1061
	movq	(%rdi), %rax
	call	*24(%rax)
	.p2align 4,,10
	.p2align 3
.L1061:
	movq	%rbx, 32(%rbx)
.L1058:
	movq	8(%rsp), %xmm0
	movq	%rbx, %xmm3
	movq	%r13, %rsi
	movq	%r12, %rdi
	punpcklqdq	%xmm3, %xmm0
	movaps	%xmm0, 128(%rsp)
.LEHB23:
	call	_ZN8asiodnp39IOHandler12OnNewChannelERKSt10shared_ptrIN7asiopal13IAsyncChannelEE@PLT
.LEHE23:
	movq	136(%rsp), %r12
	testq	%r12, %r12
	je	.L1066
	movq	_ZL28__gthrw___pthread_key_createPjPFvPvE@GOTPCREL(%rip), %r14
	testq	%r14, %r14
	jne	.L1190
	movl	8(%r12), %edx
	leal	-1(%rdx), %ecx
	movl	%ecx, 8(%r12)
.L1068:
	cmpl	$1, %edx
	je	.L1191
.L1066:
	testq	%rbp, %rbp
	je	.L1073
	movq	_ZL28__gthrw___pthread_key_createPjPFvPvE@GOTPCREL(%rip), %r14
	testq	%r14, %r14
	jne	.L1192
	movl	8(%rbp), %edx
	leal	-1(%rdx), %ecx
	movl	%ecx, 8(%rbp)
.L1075:
	cmpl	$1, %edx
	je	.L1193
.L1073:
	movq	88(%rsp), %rax
	leaq	64(%rsp), %rsi
	leaq	40(%rax), %rdi
	call	_ZN4asio6detail28reactive_socket_service_base7destroyERNS1_24base_implementation_typeE@PLT
	jmp	.L973
	.p2align 4,,10
	.p2align 3
.L1166:
	movl	$-1, %edx
	lock xaddl	%edx, 8(%rbp)
	jmp	.L1008
	.p2align 4,,10
	.p2align 3
.L1163:
	movl	$-1, %edx
	lock xaddl	%edx, 8(%rbp)
	jmp	.L1001
	.p2align 4,,10
	.p2align 3
.L1172:
	movl	$-1, %edx
	lock xaddl	%edx, 8(%rbp)
	jmp	.L1022
	.p2align 4,,10
	.p2align 3
.L1169:
	movl	$-1, %edx
	lock xaddl	%edx, 8(%rbp)
	jmp	.L1015
	.p2align 4,,10
	.p2align 3
.L1178:
	movl	$-1, %edx
	lock xaddl	%edx, 8(%rbp)
	jmp	.L1038
	.p2align 4,,10
	.p2align 3
.L1175:
	movl	$-1, %edx
	lock xaddl	%edx, 8(%rbp)
	jmp	.L1031
	.p2align 4,,10
	.p2align 3
.L1185:
	movl	$-1, %edx
	lock xaddl	%edx, 8(%r15)
	jmp	.L1050
	.p2align 4,,10
	.p2align 3
.L1182:
	movq	16(%rbx), %rax
	movl	$120, %ecx
	movl	$1, %edx
	leaq	224(%rsp), %r12
	movq	%r12, %rdi
	leaq	.LC31(%rip), %r8
	movl	$120, %esi
	movq	840(%rax), %r9
	xorl	%eax, %eax
	call	__snprintf_chk@PLT
	movq	16(%rbx), %rax
	movq	%r12, %rcx
	movq	%r13, %rsi
	leaq	.LC32(%rip), %rdx
	movl	$8, 128(%rsp)
	leaq	32(%rax), %rdi
.LEHB24:
	call	_ZN7openpal6Logger3LogERKNS_10LogFiltersEPKcS5_@PLT
.LEHE24:
	jmp	.L1043
	.p2align 4,,10
	.p2align 3
.L1191:
	movq	(%r12), %rdx
	movq	%r12, %rdi
	call	*16(%rdx)
	testq	%r14, %r14
	jne	.L1194
	movl	12(%r12), %eax
	leal	-1(%rax), %edx
	movl	%edx, 12(%r12)
.L1071:
	cmpl	$1, %eax
	jne	.L1066
	movq	(%r12), %rax
	movq	%r12, %rdi
	call	*24(%rax)
	jmp	.L1066
	.p2align 4,,10
	.p2align 3
.L1193:
	movq	0(%rbp), %rdx
	movq	%rbp, %rdi
	call	*16(%rdx)
	testq	%r14, %r14
	jne	.L1195
	movl	12(%rbp), %eax
	leal	-1(%rax), %edx
	movl	%edx, 12(%rbp)
.L1078:
	cmpl	$1, %eax
	jne	.L1073
	movq	0(%rbp), %rax
	movq	%rbp, %rdi
	call	*24(%rax)
	jmp	.L1073
	.p2align 4,,10
	.p2align 3
.L1192:
	movl	$-1, %edx
	lock xaddl	%edx, 8(%rbp)
	jmp	.L1075
	.p2align 4,,10
	.p2align 3
.L1190:
	movl	$-1, %edx
	lock xaddl	%edx, 8(%r12)
	jmp	.L1068
	.p2align 4,,10
	.p2align 3
.L1183:
	lock addl	$1, 8(%rbp)
	jmp	.L1044
	.p2align 4,,10
	.p2align 3
.L1184:
	lock addl	$1, 8(%rbp)
	jmp	.L1046
	.p2align 4,,10
	.p2align 3
.L1162:
	lock addl	$1, 8(%rdx)
	jmp	.L991
	.p2align 4,,10
	.p2align 3
.L1161:
	lock addl	$1, 8(%rdx)
	jmp	.L989
	.p2align 4,,10
	.p2align 3
.L1160:
	lock addl	$1, 8(%rax)
	jmp	.L987
	.p2align 4,,10
	.p2align 3
.L1155:
	lock addl	$1, 8(%rdx)
	jmp	.L977
	.p2align 4,,10
	.p2align 3
.L1159:
	lock addl	$1, 8(%rax)
	jmp	.L985
	.p2align 4,,10
	.p2align 3
.L1158:
	lock addl	$1, 8(%rax)
	jmp	.L983
	.p2align 4,,10
	.p2align 3
.L1157:
	lock addl	$1, 8(%rax)
	jmp	.L981
	.p2align 4,,10
	.p2align 3
.L1156:
	lock addl	$1, 8(%rax)
	jmp	.L979
	.p2align 4,,10
	.p2align 3
.L1165:
	movq	0(%rbp), %rax
	movq	%rbp, %rdi
	call	*24(%rax)
	jmp	.L999
	.p2align 4,,10
	.p2align 3
.L1187:
	movq	(%r15), %rax
	movq	%r15, %rdi
	call	*24(%rax)
	jmp	.L1053
	.p2align 4,,10
	.p2align 3
.L1168:
	movq	0(%rbp), %rax
	movq	%rbp, %rdi
	call	*24(%rax)
	jmp	.L1006
	.p2align 4,,10
	.p2align 3
.L1171:
	movq	0(%rbp), %rax
	movq	%rbp, %rdi
	call	*24(%rax)
	jmp	.L1013
	.p2align 4,,10
	.p2align 3
.L1174:
	movq	0(%rbp), %rax
	movq	%rbp, %rdi
	call	*24(%rax)
	jmp	.L1020
	.p2align 4,,10
	.p2align 3
.L1177:
	movq	0(%rbp), %rax
	movq	%rbp, %rdi
	call	*24(%rax)
	jmp	.L1027
	.p2align 4,,10
	.p2align 3
.L1180:
	movq	0(%rbp), %rax
	movq	%rbp, %rdi
	call	*24(%rax)
	jmp	.L973
	.p2align 4,,10
	.p2align 3
.L1189:
	movl	$-1, %eax
	lock xaddl	%eax, 12(%rdi)
	jmp	.L1063
	.p2align 4,,10
	.p2align 3
.L1179:
	movl	$-1, %eax
	lock xaddl	%eax, 12(%rbp)
	jmp	.L1041
	.p2align 4,,10
	.p2align 3
.L1164:
	movl	$-1, %eax
	lock xaddl	%eax, 12(%rbp)
	jmp	.L1004
	.p2align 4,,10
	.p2align 3
.L1186:
	movl	$-1, %eax
	lock xaddl	%eax, 12(%r15)
	jmp	.L1052
	.p2align 4,,10
	.p2align 3
.L1167:
	movl	$-1, %eax
	lock xaddl	%eax, 12(%rbp)
	jmp	.L1011
	.p2align 4,,10
	.p2align 3
.L1170:
	movl	$-1, %eax
	lock xaddl	%eax, 12(%rbp)
	jmp	.L1018
	.p2align 4,,10
	.p2align 3
.L1173:
	movl	$-1, %eax
	lock xaddl	%eax, 12(%rbp)
	jmp	.L1025
	.p2align 4,,10
	.p2align 3
.L1176:
	movl	$-1, %eax
	lock xaddl	%eax, 12(%rbp)
	jmp	.L1034
	.p2align 4,,10
	.p2align 3
.L1195:
	movl	$-1, %eax
	lock xaddl	%eax, 12(%rbp)
	jmp	.L1078
	.p2align 4,,10
	.p2align 3
.L1194:
	movl	$-1, %eax
	lock xaddl	%eax, 12(%r12)
	jmp	.L1071
	.p2align 4,,10
	.p2align 3
.L1188:
	lock addl	$1, 12(%rbx)
	movq	32(%rbx), %rdi
	jmp	.L1059
.L1181:
	call	__stack_chk_fail@PLT
.L1086:
	movq	%rax, %r12
	jmp	.L1056
.L1087:
	movq	%rax, %r12
	jmp	.L1079
.L1088:
	movq	%rax, %rbp
	jmp	.L1028
.L1090:
	movq	%rax, %r12
	jmp	.L1054
.L1089:
	movq	%rax, %rbp
	jmp	.L994
	.section	.gcc_except_table
.LLSDA7742:
	.byte	0xff
	.byte	0xff
	.byte	0x1
	.uleb128 .LLSDACSE7742-.LLSDACSB7742
.LLSDACSB7742:
	.uleb128 .LEHB17-.LFB7742
	.uleb128 .LEHE17-.LEHB17
	.uleb128 0
	.uleb128 0
	.uleb128 .LEHB18-.LFB7742
	.uleb128 .LEHE18-.LEHB18
	.uleb128 .L1089-.LFB7742
	.uleb128 0
	.uleb128 .LEHB19-.LFB7742
	.uleb128 .LEHE19-.LEHB19
	.uleb128 .L1088-.LFB7742
	.uleb128 0
	.uleb128 .LEHB20-.LFB7742
	.uleb128 .LEHE20-.LEHB20
	.uleb128 0
	.uleb128 0
	.uleb128 .LEHB21-.LFB7742
	.uleb128 .LEHE21-.LEHB21
	.uleb128 .L1086-.LFB7742
	.uleb128 0
	.uleb128 .LEHB22-.LFB7742
	.uleb128 .LEHE22-.LEHB22
	.uleb128 .L1090-.LFB7742
	.uleb128 0
	.uleb128 .LEHB23-.LFB7742
	.uleb128 .LEHE23-.LEHB23
	.uleb128 .L1087-.LFB7742
	.uleb128 0
	.uleb128 .LEHB24-.LFB7742
	.uleb128 .LEHE24-.LEHB24
	.uleb128 0
	.uleb128 0
.LLSDACSE7742:
	.text
	.cfi_endproc
	.section	.text.unlikely
	.cfi_startproc
	.cfi_personality 0x9b,DW.ref.__gxx_personality_v0
	.cfi_lsda 0x1b,.LLSDAC7742
	.type	_ZZN8asiodnp318TCPClientIOHandler12StartConnectERKSt10shared_ptrIN7asiopal9TCPClientEERKN7openpal12TimeDurationEENKUlRKS1_INS2_8ExecutorEEN4asio19basic_stream_socketINSF_2ip3tcpENSF_21stream_socket_serviceISI_EEEERKSt10error_codeE_clESE_SL_SO_.cold, @function
_ZZN8asiodnp318TCPClientIOHandler12StartConnectERKSt10shared_ptrIN7asiopal9TCPClientEERKN7openpal12TimeDurationEENKUlRKS1_INS2_8ExecutorEEN4asio19basic_stream_socketINSF_2ip3tcpENSF_21stream_socket_serviceISI_EEEERKSt10error_codeE_clESE_SL_SO_.cold:
.LFSB7742:
.L1054:
	.cfi_def_cfa_offset 416
	.cfi_offset 3, -56
	.cfi_offset 6, -48
	.cfi_offset 12, -40
	.cfi_offset 13, -32
	.cfi_offset 14, -24
	.cfi_offset 15, -16
	movq	152(%rsp), %rax
	movq	%r13, %rsi
	leaq	40(%rax), %rdi
	call	_ZN4asio6detail28reactive_socket_service_base7destroyERNS1_24base_implementation_typeE@PLT
	movq	24(%rsp), %rdi
	testq	%rdi, %rdi
	je	.L1055
	call	_ZNSt16_Sp_counted_baseILN9__gnu_cxx12_Lock_policyE2EE10_M_releaseEv@PLT
.L1055:
	movl	$112, %esi
	movq	%rbx, %rdi
	call	_ZdlPvm@PLT
.L1056:
	testq	%rbp, %rbp
	je	.L1081
	movq	%rbp, %rdi
	call	_ZNSt16_Sp_counted_baseILN9__gnu_cxx12_Lock_policyE2EE10_M_releaseEv@PLT
.L1081:
	movq	88(%rsp), %rax
	leaq	64(%rsp), %rsi
	leaq	40(%rax), %rdi
	call	_ZN4asio6detail28reactive_socket_service_base7destroyERNS1_24base_implementation_typeE@PLT
	movq	%r12, %rdi
.LEHB25:
	call	_Unwind_Resume@PLT
.LEHE25:
.L1079:
	movq	136(%rsp), %rdi
	testq	%rdi, %rdi
	je	.L1056
	call	_ZNSt16_Sp_counted_baseILN9__gnu_cxx12_Lock_policyE2EE10_M_releaseEv@PLT
	jmp	.L1056
.L1028:
	movq	208(%rsp), %rax
	testq	%rax, %rax
	je	.L996
	movl	$3, %edx
	movq	%r13, %rsi
	movq	%r13, %rdi
	call	*%rax
.L996:
	leaq	136(%rsp), %rdi
	call	_ZZZN8asiodnp318TCPClientIOHandler12StartConnectERKSt10shared_ptrIN7asiopal9TCPClientEERKN7openpal12TimeDurationEENKUlRKS1_INS2_8ExecutorEEN4asio19basic_stream_socketINSF_2ip3tcpENSF_21stream_socket_serviceISI_EEEERKSt10error_codeE_clESE_SL_SO_ENUlvE_D1Ev
	leaq	72(%rsp), %rdi
	call	_ZZZN8asiodnp318TCPClientIOHandler12StartConnectERKSt10shared_ptrIN7asiopal9TCPClientEERKN7openpal12TimeDurationEENKUlRKS1_INS2_8ExecutorEEN4asio19basic_stream_socketINSF_2ip3tcpENSF_21stream_socket_serviceISI_EEEERKSt10error_codeE_clESE_SL_SO_ENUlvE_D1Ev
	leaq	16(%rsp), %rdi
	call	_ZZZN8asiodnp318TCPClientIOHandler12StartConnectERKSt10shared_ptrIN7asiopal9TCPClientEERKN7openpal12TimeDurationEENKUlRKS1_INS2_8ExecutorEEN4asio19basic_stream_socketINSF_2ip3tcpENSF_21stream_socket_serviceISI_EEEERKSt10error_codeE_clESE_SL_SO_ENUlvE_D1Ev
	movq	%rbp, %rdi
.LEHB26:
	call	_Unwind_Resume@PLT
.LEHE26:
.L994:
	movq	208(%rsp), %rax
	testq	%rax, %rax
	je	.L996
	leaq	192(%rsp), %rdi
	movl	$3, %edx
	movq	%rdi, %rsi
	call	*%rax
	jmp	.L996
	.cfi_endproc
.LFE7742:
	.section	.gcc_except_table
.LLSDAC7742:
	.byte	0xff
	.byte	0xff
	.byte	0x1
	.uleb128 .LLSDACSEC7742-.LLSDACSBC7742
.LLSDACSBC7742:
	.uleb128 .LEHB25-.LCOLDB33
	.uleb128 .LEHE25-.LEHB25
	.uleb128 0
	.uleb128 0
	.uleb128 .LEHB26-.LCOLDB33
	.uleb128 .LEHE26-.LEHB26
	.uleb128 0
	.uleb128 0
.LLSDACSEC7742:
	.section	.text.unlikely
	.text
	.size	_ZZN8asiodnp318TCPClientIOHandler12StartConnectERKSt10shared_ptrIN7asiopal9TCPClientEERKN7openpal12TimeDurationEENKUlRKS1_INS2_8ExecutorEEN4asio19basic_stream_socketINSF_2ip3tcpENSF_21stream_socket_serviceISI_EEEERKSt10error_codeE_clESE_SL_SO_, .-_ZZN8asiodnp318TCPClientIOHandler12StartConnectERKSt10shared_ptrIN7asiopal9TCPClientEERKN7openpal12TimeDurationEENKUlRKS1_INS2_8ExecutorEEN4asio19basic_stream_socketINSF_2ip3tcpENSF_21stream_socket_serviceISI_EEEERKSt10error_codeE_clESE_SL_SO_
	.section	.text.unlikely
	.size	_ZZN8asiodnp318TCPClientIOHandler12StartConnectERKSt10shared_ptrIN7asiopal9TCPClientEERKN7openpal12TimeDurationEENKUlRKS1_INS2_8ExecutorEEN4asio19basic_stream_socketINSF_2ip3tcpENSF_21stream_socket_serviceISI_EEEERKSt10error_codeE_clESE_SL_SO_.cold, .-_ZZN8asiodnp318TCPClientIOHandler12StartConnectERKSt10shared_ptrIN7asiopal9TCPClientEERKN7openpal12TimeDurationEENKUlRKS1_INS2_8ExecutorEEN4asio19basic_stream_socketINSF_2ip3tcpENSF_21stream_socket_serviceISI_EEEERKSt10error_codeE_clESE_SL_SO_.cold
.LCOLDE33:
	.text
.LHOTE33:
	.section	.text.unlikely
.LCOLDB34:
	.text
.LHOTB34:
	.p2align 4
	.type	_ZNSt17_Function_handlerIFvRKSt10shared_ptrIN7asiopal8ExecutorEEN4asio19basic_stream_socketINS6_2ip3tcpENS6_21stream_socket_serviceIS9_EEEERKSt10error_codeEZN8asiodnp318TCPClientIOHandler12StartConnectERKS0_INS1_9TCPClientEERKN7openpal12TimeDurationEEUlS5_SC_SF_E_E9_M_invokeERKSt9_Any_dataS5_OSC_SF_, @function
_ZNSt17_Function_handlerIFvRKSt10shared_ptrIN7asiopal8ExecutorEEN4asio19basic_stream_socketINS6_2ip3tcpENS6_21stream_socket_serviceIS9_EEEERKSt10error_codeEZN8asiodnp318TCPClientIOHandler12StartConnectERKS0_INS1_9TCPClientEERKN7openpal12TimeDurationEEUlS5_SC_SF_E_E9_M_invokeERKSt9_Any_dataS5_OSC_SF_:
.LFB9195:
	.cfi_startproc
	.cfi_personality 0x9b,DW.ref.__gxx_personality_v0
	.cfi_lsda 0x1b,.LLSDA9195
	pushq	%r12
	.cfi_def_cfa_offset 16
	.cfi_offset 12, -16
	pushq	%rbp
	.cfi_def_cfa_offset 24
	.cfi_offset 6, -24
	subq	$56, %rsp
	.cfi_def_cfa_offset 80
	movq	(%rdi), %rdi
	movq	%fs:40, %rax
	movq	%rax, 40(%rsp)
	xorl	%eax, %eax
	movq	24(%rdx), %rax
	movq	%rsp, %rbp
	movq	%rax, 24(%rsp)
	movl	(%rdx), %eax
	movl	$-1, (%rdx)
	movl	%eax, (%rsp)
	movzbl	4(%rdx), %eax
	movb	$0, 4(%rdx)
	movb	%al, 4(%rsp)
	movq	8(%rdx), %rax
	movq	$0, 8(%rdx)
	movq	%rax, 8(%rsp)
	movl	16(%rdx), %eax
	movl	$2, 16(%rdx)
	movq	%rbp, %rdx
	movl	%eax, 16(%rsp)
.LEHB27:
	call	_ZZN8asiodnp318TCPClientIOHandler12StartConnectERKSt10shared_ptrIN7asiopal9TCPClientEERKN7openpal12TimeDurationEENKUlRKS1_INS2_8ExecutorEEN4asio19basic_stream_socketINSF_2ip3tcpENSF_21stream_socket_serviceISI_EEEERKSt10error_codeE_clESE_SL_SO_
.LEHE27:
	movq	24(%rsp), %rax
	movq	%rbp, %rsi
	leaq	40(%rax), %rdi
	call	_ZN4asio6detail28reactive_socket_service_base7destroyERNS1_24base_implementation_typeE@PLT
	movq	40(%rsp), %rax
	subq	%fs:40, %rax
	jne	.L1202
	addq	$56, %rsp
	.cfi_remember_state
	.cfi_def_cfa_offset 24
	popq	%rbp
	.cfi_def_cfa_offset 16
	popq	%r12
	.cfi_def_cfa_offset 8
	ret
.L1202:
	.cfi_restore_state
	call	__stack_chk_fail@PLT
.L1199:
	movq	%rax, %r12
	jmp	.L1197
	.section	.gcc_except_table
.LLSDA9195:
	.byte	0xff
	.byte	0xff
	.byte	0x1
	.uleb128 .LLSDACSE9195-.LLSDACSB9195
.LLSDACSB9195:
	.uleb128 .LEHB27-.LFB9195
	.uleb128 .LEHE27-.LEHB27
	.uleb128 .L1199-.LFB9195
	.uleb128 0
.LLSDACSE9195:
	.text
	.cfi_endproc
	.section	.text.unlikely
	.cfi_startproc
	.cfi_personality 0x9b,DW.ref.__gxx_personality_v0
	.cfi_lsda 0x1b,.LLSDAC9195
	.type	_ZNSt17_Function_handlerIFvRKSt10shared_ptrIN7asiopal8ExecutorEEN4asio19basic_stream_socketINS6_2ip3tcpENS6_21stream_socket_serviceIS9_EEEERKSt10error_codeEZN8asiodnp318TCPClientIOHandler12StartConnectERKS0_INS1_9TCPClientEERKN7openpal12TimeDurationEEUlS5_SC_SF_E_E9_M_invokeERKSt9_Any_dataS5_OSC_SF_.cold, @function
_ZNSt17_Function_handlerIFvRKSt10shared_ptrIN7asiopal8ExecutorEEN4asio19basic_stream_socketINS6_2ip3tcpENS6_21stream_socket_serviceIS9_EEEERKSt10error_codeEZN8asiodnp318TCPClientIOHandler12StartConnectERKS0_INS1_9TCPClientEERKN7openpal12TimeDurationEEUlS5_SC_SF_E_E9_M_invokeERKSt9_Any_dataS5_OSC_SF_.cold:
.LFSB9195:
.L1197:
	.cfi_def_cfa_offset 80
	.cfi_offset 6, -24
	.cfi_offset 12, -16
	movq	24(%rsp), %rax
	movq	%rbp, %rsi
	leaq	40(%rax), %rdi
	call	_ZN4asio6detail28reactive_socket_service_base7destroyERNS1_24base_implementation_typeE@PLT
	movq	%r12, %rdi
.LEHB28:
	call	_Unwind_Resume@PLT
.LEHE28:
	.cfi_endproc
.LFE9195:
	.section	.gcc_except_table
.LLSDAC9195:
	.byte	0xff
	.byte	0xff
	.byte	0x1
	.uleb128 .LLSDACSEC9195-.LLSDACSBC9195
.LLSDACSBC9195:
	.uleb128 .LEHB28-.LCOLDB34
	.uleb128 .LEHE28-.LEHB28
	.uleb128 0
	.uleb128 0
.LLSDACSEC9195:
	.section	.text.unlikely
	.text
	.size	_ZNSt17_Function_handlerIFvRKSt10shared_ptrIN7asiopal8ExecutorEEN4asio19basic_stream_socketINS6_2ip3tcpENS6_21stream_socket_serviceIS9_EEEERKSt10error_codeEZN8asiodnp318TCPClientIOHandler12StartConnectERKS0_INS1_9TCPClientEERKN7openpal12TimeDurationEEUlS5_SC_SF_E_E9_M_invokeERKSt9_Any_dataS5_OSC_SF_, .-_ZNSt17_Function_handlerIFvRKSt10shared_ptrIN7asiopal8ExecutorEEN4asio19basic_stream_socketINS6_2ip3tcpENS6_21stream_socket_serviceIS9_EEEERKSt10error_codeEZN8asiodnp318TCPClientIOHandler12StartConnectERKS0_INS1_9TCPClientEERKN7openpal12TimeDurationEEUlS5_SC_SF_E_E9_M_invokeERKSt9_Any_dataS5_OSC_SF_
	.section	.text.unlikely
	.size	_ZNSt17_Function_handlerIFvRKSt10shared_ptrIN7asiopal8ExecutorEEN4asio19basic_stream_socketINS6_2ip3tcpENS6_21stream_socket_serviceIS9_EEEERKSt10error_codeEZN8asiodnp318TCPClientIOHandler12StartConnectERKS0_INS1_9TCPClientEERKN7openpal12TimeDurationEEUlS5_SC_SF_E_E9_M_invokeERKSt9_Any_dataS5_OSC_SF_.cold, .-_ZNSt17_Function_handlerIFvRKSt10shared_ptrIN7asiopal8ExecutorEEN4asio19basic_stream_socketINS6_2ip3tcpENS6_21stream_socket_serviceIS9_EEEERKSt10error_codeEZN8asiodnp318TCPClientIOHandler12StartConnectERKS0_INS1_9TCPClientEERKN7openpal12TimeDurationEEUlS5_SC_SF_E_E9_M_invokeERKSt9_Any_dataS5_OSC_SF_.cold
.LCOLDE34:
	.text
.LHOTE34:
	.section	.text.startup,"ax",@progbits
	.p2align 4
	.type	_GLOBAL__sub_I_TCPClientIOHandler.cpp, @function
_GLOBAL__sub_I_TCPClientIOHandler.cpp:
.LFB10661:
	.cfi_startproc
	pushq	%rbp
	.cfi_def_cfa_offset 16
	.cfi_offset 6, -16
	call	_ZN4asio15system_categoryEv@PLT
	movq	_ZGVZN4asio5error18get_netdb_categoryEvE8instance@GOTPCREL(%rip), %rbp
	movzbl	0(%rbp), %eax
	testb	%al, %al
	je	.L1228
.L1205:
	movq	_ZGVZN4asio5error21get_addrinfo_categoryEvE8instance@GOTPCREL(%rip), %rbp
	movzbl	0(%rbp), %eax
	testb	%al, %al
	je	.L1229
.L1208:
	movq	_ZGVZN4asio5error17get_misc_categoryEvE8instance@GOTPCREL(%rip), %rbp
	movzbl	0(%rbp), %eax
	testb	%al, %al
	je	.L1230
.L1211:
	movq	_ZGVN4asio6detail10call_stackINS0_15task_io_serviceENS0_27task_io_service_thread_infoEE4top_E@GOTPCREL(%rip), %rax
	cmpb	$0, (%rax)
	je	.L1231
.L1213:
	movq	_ZGVN4asio6detail12service_baseINS0_13epoll_reactorEE2idE@GOTPCREL(%rip), %rax
	cmpb	$0, (%rax)
	je	.L1232
.L1214:
	movq	_ZGVN4asio6detail12service_baseINS0_15task_io_serviceEE2idE@GOTPCREL(%rip), %rax
	cmpb	$0, (%rax)
	je	.L1233
.L1215:
	movq	_ZGVN4asio6detail10call_stackINS0_14strand_service11strand_implEhE4top_E@GOTPCREL(%rip), %rax
	cmpb	$0, (%rax)
	je	.L1234
.L1216:
	movq	_ZGVN4asio6detail12service_baseINS0_14strand_serviceEE2idE@GOTPCREL(%rip), %rax
	cmpb	$0, (%rax)
	je	.L1235
	popq	%rbp
	.cfi_remember_state
	.cfi_def_cfa_offset 8
	ret
.L1228:
	.cfi_restore_state
	movq	%rbp, %rdi
	call	__cxa_guard_acquire@PLT
	testl	%eax, %eax
	je	.L1205
	movq	_ZZN4asio5error18get_netdb_categoryEvE8instance@GOTPCREL(%rip), %rsi
	movq	_ZN4asio5error6detail14netdb_categoryD1Ev@GOTPCREL(%rip), %rdi
	leaq	__dso_handle(%rip), %rdx
	call	__cxa_atexit@PLT
	movq	%rbp, %rdi
	call	__cxa_guard_release@PLT
	jmp	.L1205
.L1235:
	movb	$1, (%rax)
	leaq	__dso_handle(%rip), %rdx
	movq	_ZN4asio6detail12service_baseINS0_14strand_serviceEE2idE@GOTPCREL(%rip), %rsi
	movq	_ZN4asio6detail10service_idINS0_14strand_serviceEED1Ev@GOTPCREL(%rip), %rdi
	popq	%rbp
	.cfi_remember_state
	.cfi_def_cfa_offset 8
	jmp	__cxa_atexit@PLT
.L1234:
	.cfi_restore_state
	movb	$1, (%rax)
	movq	_ZN4asio6detail10call_stackINS0_14strand_service11strand_implEhE4top_E@GOTPCREL(%rip), %rsi
	leaq	__dso_handle(%rip), %rdx
	movq	_ZN4asio6detail7tss_ptrINS0_10call_stackINS0_14strand_service11strand_implEhE7contextEED1Ev@GOTPCREL(%rip), %rdi
	call	__cxa_atexit@PLT
	jmp	.L1216
.L1233:
	movb	$1, (%rax)
	movq	_ZN4asio6detail12service_baseINS0_15task_io_serviceEE2idE@GOTPCREL(%rip), %rsi
	leaq	__dso_handle(%rip), %rdx
	movq	_ZN4asio6detail10service_idINS0_15task_io_serviceEED1Ev@GOTPCREL(%rip), %rdi
	call	__cxa_atexit@PLT
	jmp	.L1215
.L1232:
	movb	$1, (%rax)
	movq	_ZN4asio6detail12service_baseINS0_13epoll_reactorEE2idE@GOTPCREL(%rip), %rsi
	leaq	__dso_handle(%rip), %rdx
	movq	_ZN4asio6detail10service_idINS0_13epoll_reactorEED1Ev@GOTPCREL(%rip), %rdi
	call	__cxa_atexit@PLT
	jmp	.L1214
.L1231:
	movb	$1, (%rax)
	movq	_ZN4asio6detail10call_stackINS0_15task_io_serviceENS0_27task_io_service_thread_infoEE4top_E@GOTPCREL(%rip), %rsi
	leaq	__dso_handle(%rip), %rdx
	movq	_ZN4asio6detail7tss_ptrINS0_10call_stackINS0_15task_io_serviceENS0_27task_io_service_thread_infoEE7contextEED1Ev@GOTPCREL(%rip), %rdi
	call	__cxa_atexit@PLT
	jmp	.L1213
.L1230:
	movq	%rbp, %rdi
	call	__cxa_guard_acquire@PLT
	testl	%eax, %eax
	je	.L1211
	movq	_ZZN4asio5error17get_misc_categoryEvE8instance@GOTPCREL(%rip), %rsi
	movq	_ZN4asio5error6detail13misc_categoryD1Ev@GOTPCREL(%rip), %rdi
	leaq	__dso_handle(%rip), %rdx
	call	__cxa_atexit@PLT
	movq	%rbp, %rdi
	call	__cxa_guard_release@PLT
	jmp	.L1211
.L1229:
	movq	%rbp, %rdi
	call	__cxa_guard_acquire@PLT
	testl	%eax, %eax
	je	.L1208
	movq	_ZZN4asio5error21get_addrinfo_categoryEvE8instance@GOTPCREL(%rip), %rsi
	movq	_ZN4asio5error6detail17addrinfo_categoryD1Ev@GOTPCREL(%rip), %rdi
	leaq	__dso_handle(%rip), %rdx
	call	__cxa_atexit@PLT
	movq	%rbp, %rdi
	call	__cxa_guard_release@PLT
	jmp	.L1208
	.cfi_endproc
.LFE10661:
	.size	_GLOBAL__sub_I_TCPClientIOHandler.cpp, .-_GLOBAL__sub_I_TCPClientIOHandler.cpp
	.section	.init_array,"aw"
	.align 8
	.quad	_GLOBAL__sub_I_TCPClientIOHandler.cpp
	.weak	_ZTSSt11_Mutex_baseILN9__gnu_cxx12_Lock_policyE2EE
	.section	.rodata._ZTSSt11_Mutex_baseILN9__gnu_cxx12_Lock_policyE2EE,"aG",@progbits,_ZTSSt11_Mutex_baseILN9__gnu_cxx12_Lock_policyE2EE,comdat
	.align 32
	.type	_ZTSSt11_Mutex_baseILN9__gnu_cxx12_Lock_policyE2EE, @object
	.size	_ZTSSt11_Mutex_baseILN9__gnu_cxx12_Lock_policyE2EE, 47
_ZTSSt11_Mutex_baseILN9__gnu_cxx12_Lock_policyE2EE:
	.string	"St11_Mutex_baseILN9__gnu_cxx12_Lock_policyE2EE"
	.weak	_ZTISt11_Mutex_baseILN9__gnu_cxx12_Lock_policyE2EE
	.section	.data.rel.ro._ZTISt11_Mutex_baseILN9__gnu_cxx12_Lock_policyE2EE,"awG",@progbits,_ZTISt11_Mutex_baseILN9__gnu_cxx12_Lock_policyE2EE,comdat
	.align 8
	.type	_ZTISt11_Mutex_baseILN9__gnu_cxx12_Lock_policyE2EE, @object
	.size	_ZTISt11_Mutex_baseILN9__gnu_cxx12_Lock_policyE2EE, 16
_ZTISt11_Mutex_baseILN9__gnu_cxx12_Lock_policyE2EE:
	.quad	_ZTVN10__cxxabiv117__class_type_infoE+16
	.quad	_ZTSSt11_Mutex_baseILN9__gnu_cxx12_Lock_policyE2EE
	.weak	_ZTSSt23enable_shared_from_thisIN7asiopal13IAsyncChannelEE
	.section	.rodata._ZTSSt23enable_shared_from_thisIN7asiopal13IAsyncChannelEE,"aG",@progbits,_ZTSSt23enable_shared_from_thisIN7asiopal13IAsyncChannelEE,comdat
	.align 32
	.type	_ZTSSt23enable_shared_from_thisIN7asiopal13IAsyncChannelEE, @object
	.size	_ZTSSt23enable_shared_from_thisIN7asiopal13IAsyncChannelEE, 55
_ZTSSt23enable_shared_from_thisIN7asiopal13IAsyncChannelEE:
	.string	"St23enable_shared_from_thisIN7asiopal13IAsyncChannelEE"
	.weak	_ZTISt23enable_shared_from_thisIN7asiopal13IAsyncChannelEE
	.section	.data.rel.ro._ZTISt23enable_shared_from_thisIN7asiopal13IAsyncChannelEE,"awG",@progbits,_ZTISt23enable_shared_from_thisIN7asiopal13IAsyncChannelEE,comdat
	.align 8
	.type	_ZTISt23enable_shared_from_thisIN7asiopal13IAsyncChannelEE, @object
	.size	_ZTISt23enable_shared_from_thisIN7asiopal13IAsyncChannelEE, 16
_ZTISt23enable_shared_from_thisIN7asiopal13IAsyncChannelEE:
	.quad	_ZTVN10__cxxabiv117__class_type_infoE+16
	.quad	_ZTSSt23enable_shared_from_thisIN7asiopal13IAsyncChannelEE
	.weak	_ZTSN7openpal10UncopyableE
	.section	.rodata._ZTSN7openpal10UncopyableE,"aG",@progbits,_ZTSN7openpal10UncopyableE,comdat
	.align 16
	.type	_ZTSN7openpal10UncopyableE, @object
	.size	_ZTSN7openpal10UncopyableE, 23
_ZTSN7openpal10UncopyableE:
	.string	"N7openpal10UncopyableE"
	.weak	_ZTIN7openpal10UncopyableE
	.section	.data.rel.ro._ZTIN7openpal10UncopyableE,"awG",@progbits,_ZTIN7openpal10UncopyableE,comdat
	.align 8
	.type	_ZTIN7openpal10UncopyableE, @object
	.size	_ZTIN7openpal10UncopyableE, 16
_ZTIN7openpal10UncopyableE:
	.quad	_ZTVN10__cxxabiv117__class_type_infoE+16
	.quad	_ZTSN7openpal10UncopyableE
	.weak	_ZTSSt19_Sp_make_shared_tag
	.section	.rodata._ZTSSt19_Sp_make_shared_tag,"aG",@progbits,_ZTSSt19_Sp_make_shared_tag,comdat
	.align 16
	.type	_ZTSSt19_Sp_make_shared_tag, @object
	.size	_ZTSSt19_Sp_make_shared_tag, 24
_ZTSSt19_Sp_make_shared_tag:
	.string	"St19_Sp_make_shared_tag"
	.weak	_ZGVN4asio6detail12service_baseINS0_14strand_serviceEE2idE
	.section	.bss._ZGVN4asio6detail12service_baseINS0_14strand_serviceEE2idE,"awG",@nobits,_ZGVN4asio6detail12service_baseINS0_14strand_serviceEE2idE,comdat
	.align 8
	.type	_ZGVN4asio6detail12service_baseINS0_14strand_serviceEE2idE, @gnu_unique_object
	.size	_ZGVN4asio6detail12service_baseINS0_14strand_serviceEE2idE, 8
_ZGVN4asio6detail12service_baseINS0_14strand_serviceEE2idE:
	.zero	8
	.weak	_ZGVN4asio6detail10call_stackINS0_14strand_service11strand_implEhE4top_E
	.section	.bss._ZGVN4asio6detail10call_stackINS0_14strand_service11strand_implEhE4top_E,"awG",@nobits,_ZGVN4asio6detail10call_stackINS0_14strand_service11strand_implEhE4top_E,comdat
	.align 8
	.type	_ZGVN4asio6detail10call_stackINS0_14strand_service11strand_implEhE4top_E, @gnu_unique_object
	.size	_ZGVN4asio6detail10call_stackINS0_14strand_service11strand_implEhE4top_E, 8
_ZGVN4asio6detail10call_stackINS0_14strand_service11strand_implEhE4top_E:
	.zero	8
	.weak	_ZGVN4asio6detail12service_baseINS0_15task_io_serviceEE2idE
	.section	.bss._ZGVN4asio6detail12service_baseINS0_15task_io_serviceEE2idE,"awG",@nobits,_ZGVN4asio6detail12service_baseINS0_15task_io_serviceEE2idE,comdat
	.align 8
	.type	_ZGVN4asio6detail12service_baseINS0_15task_io_serviceEE2idE, @gnu_unique_object
	.size	_ZGVN4asio6detail12service_baseINS0_15task_io_serviceEE2idE, 8
_ZGVN4asio6detail12service_baseINS0_15task_io_serviceEE2idE:
	.zero	8
	.weak	_ZGVN4asio6detail12service_baseINS0_13epoll_reactorEE2idE
	.section	.bss._ZGVN4asio6detail12service_baseINS0_13epoll_reactorEE2idE,"awG",@nobits,_ZGVN4asio6detail12service_baseINS0_13epoll_reactorEE2idE,comdat
	.align 8
	.type	_ZGVN4asio6detail12service_baseINS0_13epoll_reactorEE2idE, @gnu_unique_object
	.size	_ZGVN4asio6detail12service_baseINS0_13epoll_reactorEE2idE, 8
_ZGVN4asio6detail12service_baseINS0_13epoll_reactorEE2idE:
	.zero	8
	.weak	_ZGVN4asio6detail10call_stackINS0_15task_io_serviceENS0_27task_io_service_thread_infoEE4top_E
	.section	.bss._ZGVN4asio6detail10call_stackINS0_15task_io_serviceENS0_27task_io_service_thread_infoEE4top_E,"awG",@nobits,_ZGVN4asio6detail10call_stackINS0_15task_io_serviceENS0_27task_io_service_thread_infoEE4top_E,comdat
	.align 8
	.type	_ZGVN4asio6detail10call_stackINS0_15task_io_serviceENS0_27task_io_service_thread_infoEE4top_E, @gnu_unique_object
	.size	_ZGVN4asio6detail10call_stackINS0_15task_io_serviceENS0_27task_io_service_thread_infoEE4top_E, 8
_ZGVN4asio6detail10call_stackINS0_15task_io_serviceENS0_27task_io_service_thread_infoEE4top_E:
	.zero	8
	.weak	_ZN4asio6detail12service_baseINS0_14strand_serviceEE2idE
	.section	.bss._ZN4asio6detail12service_baseINS0_14strand_serviceEE2idE,"awG",@nobits,_ZN4asio6detail12service_baseINS0_14strand_serviceEE2idE,comdat
	.type	_ZN4asio6detail12service_baseINS0_14strand_serviceEE2idE, @gnu_unique_object
	.size	_ZN4asio6detail12service_baseINS0_14strand_serviceEE2idE, 1
_ZN4asio6detail12service_baseINS0_14strand_serviceEE2idE:
	.zero	1
	.weak	_ZN4asio6detail10call_stackINS0_14strand_service11strand_implEhE4top_E
	.section	.bss._ZN4asio6detail10call_stackINS0_14strand_service11strand_implEhE4top_E,"awG",@nobits,_ZN4asio6detail10call_stackINS0_14strand_service11strand_implEhE4top_E,comdat
	.type	_ZN4asio6detail10call_stackINS0_14strand_service11strand_implEhE4top_E, @gnu_unique_object
	.size	_ZN4asio6detail10call_stackINS0_14strand_service11strand_implEhE4top_E, 1
_ZN4asio6detail10call_stackINS0_14strand_service11strand_implEhE4top_E:
	.zero	1
	.weak	_ZN4asio6detail12service_baseINS0_15task_io_serviceEE2idE
	.section	.bss._ZN4asio6detail12service_baseINS0_15task_io_serviceEE2idE,"awG",@nobits,_ZN4asio6detail12service_baseINS0_15task_io_serviceEE2idE,comdat
	.type	_ZN4asio6detail12service_baseINS0_15task_io_serviceEE2idE, @gnu_unique_object
	.size	_ZN4asio6detail12service_baseINS0_15task_io_serviceEE2idE, 1
_ZN4asio6detail12service_baseINS0_15task_io_serviceEE2idE:
	.zero	1
	.weak	_ZN4asio6detail12service_baseINS0_13epoll_reactorEE2idE
	.section	.bss._ZN4asio6detail12service_baseINS0_13epoll_reactorEE2idE,"awG",@nobits,_ZN4asio6detail12service_baseINS0_13epoll_reactorEE2idE,comdat
	.type	_ZN4asio6detail12service_baseINS0_13epoll_reactorEE2idE, @gnu_unique_object
	.size	_ZN4asio6detail12service_baseINS0_13epoll_reactorEE2idE, 1
_ZN4asio6detail12service_baseINS0_13epoll_reactorEE2idE:
	.zero	1
	.weak	_ZN4asio6detail10call_stackINS0_15task_io_serviceENS0_27task_io_service_thread_infoEE4top_E
	.section	.bss._ZN4asio6detail10call_stackINS0_15task_io_serviceENS0_27task_io_service_thread_infoEE4top_E,"awG",@nobits,_ZN4asio6detail10call_stackINS0_15task_io_serviceENS0_27task_io_service_thread_infoEE4top_E,comdat
	.type	_ZN4asio6detail10call_stackINS0_15task_io_serviceENS0_27task_io_service_thread_infoEE4top_E, @gnu_unique_object
	.size	_ZN4asio6detail10call_stackINS0_15task_io_serviceENS0_27task_io_service_thread_infoEE4top_E, 1
_ZN4asio6detail10call_stackINS0_15task_io_serviceENS0_27task_io_service_thread_infoEE4top_E:
	.zero	1
	.weak	_ZTSSt16_Sp_counted_baseILN9__gnu_cxx12_Lock_policyE2EE
	.section	.rodata._ZTSSt16_Sp_counted_baseILN9__gnu_cxx12_Lock_policyE2EE,"aG",@progbits,_ZTSSt16_Sp_counted_baseILN9__gnu_cxx12_Lock_policyE2EE,comdat
	.align 32
	.type	_ZTSSt16_Sp_counted_baseILN9__gnu_cxx12_Lock_policyE2EE, @object
	.size	_ZTSSt16_Sp_counted_baseILN9__gnu_cxx12_Lock_policyE2EE, 52
_ZTSSt16_Sp_counted_baseILN9__gnu_cxx12_Lock_policyE2EE:
	.string	"St16_Sp_counted_baseILN9__gnu_cxx12_Lock_policyE2EE"
	.weak	_ZTISt16_Sp_counted_baseILN9__gnu_cxx12_Lock_policyE2EE
	.section	.data.rel.ro._ZTISt16_Sp_counted_baseILN9__gnu_cxx12_Lock_policyE2EE,"awG",@progbits,_ZTISt16_Sp_counted_baseILN9__gnu_cxx12_Lock_policyE2EE,comdat
	.align 8
	.type	_ZTISt16_Sp_counted_baseILN9__gnu_cxx12_Lock_policyE2EE, @object
	.size	_ZTISt16_Sp_counted_baseILN9__gnu_cxx12_Lock_policyE2EE, 24
_ZTISt16_Sp_counted_baseILN9__gnu_cxx12_Lock_policyE2EE:
	.quad	_ZTVN10__cxxabiv120__si_class_type_infoE+16
	.quad	_ZTSSt16_Sp_counted_baseILN9__gnu_cxx12_Lock_policyE2EE
	.quad	_ZTISt11_Mutex_baseILN9__gnu_cxx12_Lock_policyE2EE
	.weak	_ZTSN4asio6detail15system_categoryE
	.section	.rodata._ZTSN4asio6detail15system_categoryE,"aG",@progbits,_ZTSN4asio6detail15system_categoryE,comdat
	.align 32
	.type	_ZTSN4asio6detail15system_categoryE, @object
	.size	_ZTSN4asio6detail15system_categoryE, 32
_ZTSN4asio6detail15system_categoryE:
	.string	"N4asio6detail15system_categoryE"
	.weak	_ZTIN4asio6detail15system_categoryE
	.section	.data.rel.ro._ZTIN4asio6detail15system_categoryE,"awG",@progbits,_ZTIN4asio6detail15system_categoryE,comdat
	.align 8
	.type	_ZTIN4asio6detail15system_categoryE, @object
	.size	_ZTIN4asio6detail15system_categoryE, 24
_ZTIN4asio6detail15system_categoryE:
	.quad	_ZTVN10__cxxabiv120__si_class_type_infoE+16
	.quad	_ZTSN4asio6detail15system_categoryE
	.quad	_ZTINSt3_V214error_categoryE
	.weak	_ZTSN4asio5error6detail14netdb_categoryE
	.section	.rodata._ZTSN4asio5error6detail14netdb_categoryE,"aG",@progbits,_ZTSN4asio5error6detail14netdb_categoryE,comdat
	.align 32
	.type	_ZTSN4asio5error6detail14netdb_categoryE, @object
	.size	_ZTSN4asio5error6detail14netdb_categoryE, 37
_ZTSN4asio5error6detail14netdb_categoryE:
	.string	"N4asio5error6detail14netdb_categoryE"
	.weak	_ZTIN4asio5error6detail14netdb_categoryE
	.section	.data.rel.ro._ZTIN4asio5error6detail14netdb_categoryE,"awG",@progbits,_ZTIN4asio5error6detail14netdb_categoryE,comdat
	.align 8
	.type	_ZTIN4asio5error6detail14netdb_categoryE, @object
	.size	_ZTIN4asio5error6detail14netdb_categoryE, 24
_ZTIN4asio5error6detail14netdb_categoryE:
	.quad	_ZTVN10__cxxabiv120__si_class_type_infoE+16
	.quad	_ZTSN4asio5error6detail14netdb_categoryE
	.quad	_ZTINSt3_V214error_categoryE
	.weak	_ZTSN4asio5error6detail17addrinfo_categoryE
	.section	.rodata._ZTSN4asio5error6detail17addrinfo_categoryE,"aG",@progbits,_ZTSN4asio5error6detail17addrinfo_categoryE,comdat
	.align 32
	.type	_ZTSN4asio5error6detail17addrinfo_categoryE, @object
	.size	_ZTSN4asio5error6detail17addrinfo_categoryE, 40
_ZTSN4asio5error6detail17addrinfo_categoryE:
	.string	"N4asio5error6detail17addrinfo_categoryE"
	.weak	_ZTIN4asio5error6detail17addrinfo_categoryE
	.section	.data.rel.ro._ZTIN4asio5error6detail17addrinfo_categoryE,"awG",@progbits,_ZTIN4asio5error6detail17addrinfo_categoryE,comdat
	.align 8
	.type	_ZTIN4asio5error6detail17addrinfo_categoryE, @object
	.size	_ZTIN4asio5error6detail17addrinfo_categoryE, 24
_ZTIN4asio5error6detail17addrinfo_categoryE:
	.quad	_ZTVN10__cxxabiv120__si_class_type_infoE+16
	.quad	_ZTSN4asio5error6detail17addrinfo_categoryE
	.quad	_ZTINSt3_V214error_categoryE
	.weak	_ZTSN4asio5error6detail13misc_categoryE
	.section	.rodata._ZTSN4asio5error6detail13misc_categoryE,"aG",@progbits,_ZTSN4asio5error6detail13misc_categoryE,comdat
	.align 32
	.type	_ZTSN4asio5error6detail13misc_categoryE, @object
	.size	_ZTSN4asio5error6detail13misc_categoryE, 36
_ZTSN4asio5error6detail13misc_categoryE:
	.string	"N4asio5error6detail13misc_categoryE"
	.weak	_ZTIN4asio5error6detail13misc_categoryE
	.section	.data.rel.ro._ZTIN4asio5error6detail13misc_categoryE,"awG",@progbits,_ZTIN4asio5error6detail13misc_categoryE,comdat
	.align 8
	.type	_ZTIN4asio5error6detail13misc_categoryE, @object
	.size	_ZTIN4asio5error6detail13misc_categoryE, 24
_ZTIN4asio5error6detail13misc_categoryE:
	.quad	_ZTVN10__cxxabiv120__si_class_type_infoE+16
	.quad	_ZTSN4asio5error6detail13misc_categoryE
	.quad	_ZTINSt3_V214error_categoryE
	.weak	_ZTSN7asiopal13IAsyncChannelE
	.section	.rodata._ZTSN7asiopal13IAsyncChannelE,"aG",@progbits,_ZTSN7asiopal13IAsyncChannelE,comdat
	.align 16
	.type	_ZTSN7asiopal13IAsyncChannelE, @object
	.size	_ZTSN7asiopal13IAsyncChannelE, 26
_ZTSN7asiopal13IAsyncChannelE:
	.string	"N7asiopal13IAsyncChannelE"
	.weak	_ZTIN7asiopal13IAsyncChannelE
	.section	.data.rel.ro._ZTIN7asiopal13IAsyncChannelE,"awG",@progbits,_ZTIN7asiopal13IAsyncChannelE,comdat
	.align 8
	.type	_ZTIN7asiopal13IAsyncChannelE, @object
	.size	_ZTIN7asiopal13IAsyncChannelE, 56
_ZTIN7asiopal13IAsyncChannelE:
	.quad	_ZTVN10__cxxabiv121__vmi_class_type_infoE+16
	.quad	_ZTSN7asiopal13IAsyncChannelE
	.long	0
	.long	2
	.quad	_ZTISt23enable_shared_from_thisIN7asiopal13IAsyncChannelEE
	.quad	2050
	.quad	_ZTIN7openpal10UncopyableE
	.quad	0
	.weak	_ZTSN8asiodnp318TCPClientIOHandlerE
	.section	.rodata._ZTSN8asiodnp318TCPClientIOHandlerE,"aG",@progbits,_ZTSN8asiodnp318TCPClientIOHandlerE,comdat
	.align 32
	.type	_ZTSN8asiodnp318TCPClientIOHandlerE, @object
	.size	_ZTSN8asiodnp318TCPClientIOHandlerE, 32
_ZTSN8asiodnp318TCPClientIOHandlerE:
	.string	"N8asiodnp318TCPClientIOHandlerE"
	.weak	_ZTIN8asiodnp318TCPClientIOHandlerE
	.section	.data.rel.ro._ZTIN8asiodnp318TCPClientIOHandlerE,"awG",@progbits,_ZTIN8asiodnp318TCPClientIOHandlerE,comdat
	.align 8
	.type	_ZTIN8asiodnp318TCPClientIOHandlerE, @object
	.size	_ZTIN8asiodnp318TCPClientIOHandlerE, 24
_ZTIN8asiodnp318TCPClientIOHandlerE:
	.quad	_ZTVN10__cxxabiv120__si_class_type_infoE+16
	.quad	_ZTSN8asiodnp318TCPClientIOHandlerE
	.quad	_ZTIN8asiodnp39IOHandlerE
	.section	.data.rel.ro,"aw"
	.align 8
	.type	_ZTIZN8asiodnp318TCPClientIOHandler12StartConnectERKSt10shared_ptrIN7asiopal9TCPClientEERKN7openpal12TimeDurationEEUlRKS1_INS2_8ExecutorEEN4asio19basic_stream_socketINSF_2ip3tcpENSF_21stream_socket_serviceISI_EEEERKSt10error_codeE_, @object
	.size	_ZTIZN8asiodnp318TCPClientIOHandler12StartConnectERKSt10shared_ptrIN7asiopal9TCPClientEERKN7openpal12TimeDurationEEUlRKS1_INS2_8ExecutorEEN4asio19basic_stream_socketINSF_2ip3tcpENSF_21stream_socket_serviceISI_EEEERKSt10error_codeE_, 16
_ZTIZN8asiodnp318TCPClientIOHandler12StartConnectERKSt10shared_ptrIN7asiopal9TCPClientEERKN7openpal12TimeDurationEEUlRKS1_INS2_8ExecutorEEN4asio19basic_stream_socketINSF_2ip3tcpENSF_21stream_socket_serviceISI_EEEERKSt10error_codeE_:
	.quad	_ZTVN10__cxxabiv117__class_type_infoE+16
	.quad	_ZTSZN8asiodnp318TCPClientIOHandler12StartConnectERKSt10shared_ptrIN7asiopal9TCPClientEERKN7openpal12TimeDurationEEUlRKS1_INS2_8ExecutorEEN4asio19basic_stream_socketINSF_2ip3tcpENSF_21stream_socket_serviceISI_EEEERKSt10error_codeE_
	.section	.rodata
	.align 32
	.type	_ZTSZN8asiodnp318TCPClientIOHandler12StartConnectERKSt10shared_ptrIN7asiopal9TCPClientEERKN7openpal12TimeDurationEEUlRKS1_INS2_8ExecutorEEN4asio19basic_stream_socketINSF_2ip3tcpENSF_21stream_socket_serviceISI_EEEERKSt10error_codeE_, @object
	.size	_ZTSZN8asiodnp318TCPClientIOHandler12StartConnectERKSt10shared_ptrIN7asiopal9TCPClientEERKN7openpal12TimeDurationEEUlRKS1_INS2_8ExecutorEEN4asio19basic_stream_socketINSF_2ip3tcpENSF_21stream_socket_serviceISI_EEEERKSt10error_codeE_, 229
_ZTSZN8asiodnp318TCPClientIOHandler12StartConnectERKSt10shared_ptrIN7asiopal9TCPClientEERKN7openpal12TimeDurationEEUlRKS1_INS2_8ExecutorEEN4asio19basic_stream_socketINSF_2ip3tcpENSF_21stream_socket_serviceISI_EEEERKSt10error_codeE_:
	.string	"*ZN8asiodnp318TCPClientIOHandler12StartConnectERKSt10shared_ptrIN7asiopal9TCPClientEERKN7openpal12TimeDurationEEUlRKS1_INS2_8ExecutorEEN4asio19basic_stream_socketINSF_2ip3tcpENSF_21stream_socket_serviceISI_EEEERKSt10error_codeE_"
	.section	.data.rel.ro
	.align 8
	.type	_ZTIZN7openpal8TimerRef5StartIZZN8asiodnp318TCPClientIOHandler12StartConnectERKSt10shared_ptrIN7asiopal9TCPClientEERKNS_12TimeDurationEENKUlRKS4_INS5_8ExecutorEEN4asio19basic_stream_socketINSH_2ip3tcpENSH_21stream_socket_serviceISK_EEEERKSt10error_codeE_clESG_SN_SQ_EUlvE_EEbSC_RKT_EUlvE_, @object
	.size	_ZTIZN7openpal8TimerRef5StartIZZN8asiodnp318TCPClientIOHandler12StartConnectERKSt10shared_ptrIN7asiopal9TCPClientEERKNS_12TimeDurationEENKUlRKS4_INS5_8ExecutorEEN4asio19basic_stream_socketINSH_2ip3tcpENSH_21stream_socket_serviceISK_EEEERKSt10error_codeE_clESG_SN_SQ_EUlvE_EEbSC_RKT_EUlvE_, 16
_ZTIZN7openpal8TimerRef5StartIZZN8asiodnp318TCPClientIOHandler12StartConnectERKSt10shared_ptrIN7asiopal9TCPClientEERKNS_12TimeDurationEENKUlRKS4_INS5_8ExecutorEEN4asio19basic_stream_socketINSH_2ip3tcpENSH_21stream_socket_serviceISK_EEEERKSt10error_codeE_clESG_SN_SQ_EUlvE_EEbSC_RKT_EUlvE_:
	.quad	_ZTVN10__cxxabiv117__class_type_infoE+16
	.quad	_ZTSZN7openpal8TimerRef5StartIZZN8asiodnp318TCPClientIOHandler12StartConnectERKSt10shared_ptrIN7asiopal9TCPClientEERKNS_12TimeDurationEENKUlRKS4_INS5_8ExecutorEEN4asio19basic_stream_socketINSH_2ip3tcpENSH_21stream_socket_serviceISK_EEEERKSt10error_codeE_clESG_SN_SQ_EUlvE_EEbSC_RKT_EUlvE_
	.section	.rodata
	.align 32
	.type	_ZTSZN7openpal8TimerRef5StartIZZN8asiodnp318TCPClientIOHandler12StartConnectERKSt10shared_ptrIN7asiopal9TCPClientEERKNS_12TimeDurationEENKUlRKS4_INS5_8ExecutorEEN4asio19basic_stream_socketINSH_2ip3tcpENSH_21stream_socket_serviceISK_EEEERKSt10error_codeE_clESG_SN_SQ_EUlvE_EEbSC_RKT_EUlvE_, @object
	.size	_ZTSZN7openpal8TimerRef5StartIZZN8asiodnp318TCPClientIOHandler12StartConnectERKSt10shared_ptrIN7asiopal9TCPClientEERKNS_12TimeDurationEENKUlRKS4_INS5_8ExecutorEEN4asio19basic_stream_socketINSH_2ip3tcpENSH_21stream_socket_serviceISK_EEEERKSt10error_codeE_clESG_SN_SQ_EUlvE_EEbSC_RKT_EUlvE_, 286
_ZTSZN7openpal8TimerRef5StartIZZN8asiodnp318TCPClientIOHandler12StartConnectERKSt10shared_ptrIN7asiopal9TCPClientEERKNS_12TimeDurationEENKUlRKS4_INS5_8ExecutorEEN4asio19basic_stream_socketINSH_2ip3tcpENSH_21stream_socket_serviceISK_EEEERKSt10error_codeE_clESG_SN_SQ_EUlvE_EEbSC_RKT_EUlvE_:
	.ascii	"*ZN7openpal8TimerRef5StartIZZ"
	.string	"N8asiodnp318TCPClientIOHandler12StartConnectERKSt10shared_ptrIN7asiopal9TCPClientEERKNS_12TimeDurationEENKUlRKS4_INS5_8ExecutorEEN4asio19basic_stream_socketINSH_2ip3tcpENSH_21stream_socket_serviceISK_EEEERKSt10error_codeE_clESG_SN_SQ_EUlvE_EEbSC_RKT_EUlvE_"
	.weak	_ZTSSt23_Sp_counted_ptr_inplaceIN7asiopal9TCPClientESaIS1_ELN9__gnu_cxx12_Lock_policyE2EE
	.section	.rodata._ZTSSt23_Sp_counted_ptr_inplaceIN7asiopal9TCPClientESaIS1_ELN9__gnu_cxx12_Lock_policyE2EE,"aG",@progbits,_ZTSSt23_Sp_counted_ptr_inplaceIN7asiopal9TCPClientESaIS1_ELN9__gnu_cxx12_Lock_policyE2EE,comdat
	.align 32
	.type	_ZTSSt23_Sp_counted_ptr_inplaceIN7asiopal9TCPClientESaIS1_ELN9__gnu_cxx12_Lock_policyE2EE, @object
	.size	_ZTSSt23_Sp_counted_ptr_inplaceIN7asiopal9TCPClientESaIS1_ELN9__gnu_cxx12_Lock_policyE2EE, 86
_ZTSSt23_Sp_counted_ptr_inplaceIN7asiopal9TCPClientESaIS1_ELN9__gnu_cxx12_Lock_policyE2EE:
	.string	"St23_Sp_counted_ptr_inplaceIN7asiopal9TCPClientESaIS1_ELN9__gnu_cxx12_Lock_policyE2EE"
	.weak	_ZTISt23_Sp_counted_ptr_inplaceIN7asiopal9TCPClientESaIS1_ELN9__gnu_cxx12_Lock_policyE2EE
	.section	.data.rel.ro._ZTISt23_Sp_counted_ptr_inplaceIN7asiopal9TCPClientESaIS1_ELN9__gnu_cxx12_Lock_policyE2EE,"awG",@progbits,_ZTISt23_Sp_counted_ptr_inplaceIN7asiopal9TCPClientESaIS1_ELN9__gnu_cxx12_Lock_policyE2EE,comdat
	.align 8
	.type	_ZTISt23_Sp_counted_ptr_inplaceIN7asiopal9TCPClientESaIS1_ELN9__gnu_cxx12_Lock_policyE2EE, @object
	.size	_ZTISt23_Sp_counted_ptr_inplaceIN7asiopal9TCPClientESaIS1_ELN9__gnu_cxx12_Lock_policyE2EE, 24
_ZTISt23_Sp_counted_ptr_inplaceIN7asiopal9TCPClientESaIS1_ELN9__gnu_cxx12_Lock_policyE2EE:
	.quad	_ZTVN10__cxxabiv120__si_class_type_infoE+16
	.quad	_ZTSSt23_Sp_counted_ptr_inplaceIN7asiopal9TCPClientESaIS1_ELN9__gnu_cxx12_Lock_policyE2EE
	.quad	_ZTISt16_Sp_counted_baseILN9__gnu_cxx12_Lock_policyE2EE
	.weak	_ZTSSt23_Sp_counted_ptr_inplaceIN7asiopal13SocketChannelESaIS1_ELN9__gnu_cxx12_Lock_policyE2EE
	.section	.rodata._ZTSSt23_Sp_counted_ptr_inplaceIN7asiopal13SocketChannelESaIS1_ELN9__gnu_cxx12_Lock_policyE2EE,"aG",@progbits,_ZTSSt23_Sp_counted_ptr_inplaceIN7asiopal13SocketChannelESaIS1_ELN9__gnu_cxx12_Lock_policyE2EE,comdat
	.align 32
	.type	_ZTSSt23_Sp_counted_ptr_inplaceIN7asiopal13SocketChannelESaIS1_ELN9__gnu_cxx12_Lock_policyE2EE, @object
	.size	_ZTSSt23_Sp_counted_ptr_inplaceIN7asiopal13SocketChannelESaIS1_ELN9__gnu_cxx12_Lock_policyE2EE, 91
_ZTSSt23_Sp_counted_ptr_inplaceIN7asiopal13SocketChannelESaIS1_ELN9__gnu_cxx12_Lock_policyE2EE:
	.string	"St23_Sp_counted_ptr_inplaceIN7asiopal13SocketChannelESaIS1_ELN9__gnu_cxx12_Lock_policyE2EE"
	.weak	_ZTISt23_Sp_counted_ptr_inplaceIN7asiopal13SocketChannelESaIS1_ELN9__gnu_cxx12_Lock_policyE2EE
	.section	.data.rel.ro._ZTISt23_Sp_counted_ptr_inplaceIN7asiopal13SocketChannelESaIS1_ELN9__gnu_cxx12_Lock_policyE2EE,"awG",@progbits,_ZTISt23_Sp_counted_ptr_inplaceIN7asiopal13SocketChannelESaIS1_ELN9__gnu_cxx12_Lock_policyE2EE,comdat
	.align 8
	.type	_ZTISt23_Sp_counted_ptr_inplaceIN7asiopal13SocketChannelESaIS1_ELN9__gnu_cxx12_Lock_policyE2EE, @object
	.size	_ZTISt23_Sp_counted_ptr_inplaceIN7asiopal13SocketChannelESaIS1_ELN9__gnu_cxx12_Lock_policyE2EE, 24
_ZTISt23_Sp_counted_ptr_inplaceIN7asiopal13SocketChannelESaIS1_ELN9__gnu_cxx12_Lock_policyE2EE:
	.quad	_ZTVN10__cxxabiv120__si_class_type_infoE+16
	.quad	_ZTSSt23_Sp_counted_ptr_inplaceIN7asiopal13SocketChannelESaIS1_ELN9__gnu_cxx12_Lock_policyE2EE
	.quad	_ZTISt16_Sp_counted_baseILN9__gnu_cxx12_Lock_policyE2EE
	.weak	_ZTVN4asio6detail15system_categoryE
	.section	.data.rel.ro._ZTVN4asio6detail15system_categoryE,"awG",@progbits,_ZTVN4asio6detail15system_categoryE,comdat
	.align 8
	.type	_ZTVN4asio6detail15system_categoryE, @object
	.size	_ZTVN4asio6detail15system_categoryE, 80
_ZTVN4asio6detail15system_categoryE:
	.quad	0
	.quad	_ZTIN4asio6detail15system_categoryE
	.quad	_ZN4asio6detail15system_categoryD1Ev
	.quad	_ZN4asio6detail15system_categoryD0Ev
	.quad	_ZNK4asio6detail15system_category4nameEv
	.quad	_ZNKSt3_V214error_category10_M_messageB5cxx11Ei
	.quad	_ZNK4asio6detail15system_category7messageB5cxx11Ei
	.quad	_ZNKSt3_V214error_category23default_error_conditionEi
	.quad	_ZNKSt3_V214error_category10equivalentEiRKSt15error_condition
	.quad	_ZNKSt3_V214error_category10equivalentERKSt10error_codei
	.weak	_ZTVN4asio5error6detail14netdb_categoryE
	.section	.data.rel.ro._ZTVN4asio5error6detail14netdb_categoryE,"awG",@progbits,_ZTVN4asio5error6detail14netdb_categoryE,comdat
	.align 8
	.type	_ZTVN4asio5error6detail14netdb_categoryE, @object
	.size	_ZTVN4asio5error6detail14netdb_categoryE, 80
_ZTVN4asio5error6detail14netdb_categoryE:
	.quad	0
	.quad	_ZTIN4asio5error6detail14netdb_categoryE
	.quad	_ZN4asio5error6detail14netdb_categoryD1Ev
	.quad	_ZN4asio5error6detail14netdb_categoryD0Ev
	.quad	_ZNK4asio5error6detail14netdb_category4nameEv
	.quad	_ZNKSt3_V214error_category10_M_messageB5cxx11Ei
	.quad	_ZNK4asio5error6detail14netdb_category7messageB5cxx11Ei
	.quad	_ZNKSt3_V214error_category23default_error_conditionEi
	.quad	_ZNKSt3_V214error_category10equivalentEiRKSt15error_condition
	.quad	_ZNKSt3_V214error_category10equivalentERKSt10error_codei
	.weak	_ZTVN4asio5error6detail17addrinfo_categoryE
	.section	.data.rel.ro._ZTVN4asio5error6detail17addrinfo_categoryE,"awG",@progbits,_ZTVN4asio5error6detail17addrinfo_categoryE,comdat
	.align 8
	.type	_ZTVN4asio5error6detail17addrinfo_categoryE, @object
	.size	_ZTVN4asio5error6detail17addrinfo_categoryE, 80
_ZTVN4asio5error6detail17addrinfo_categoryE:
	.quad	0
	.quad	_ZTIN4asio5error6detail17addrinfo_categoryE
	.quad	_ZN4asio5error6detail17addrinfo_categoryD1Ev
	.quad	_ZN4asio5error6detail17addrinfo_categoryD0Ev
	.quad	_ZNK4asio5error6detail17addrinfo_category4nameEv
	.quad	_ZNKSt3_V214error_category10_M_messageB5cxx11Ei
	.quad	_ZNK4asio5error6detail17addrinfo_category7messageB5cxx11Ei
	.quad	_ZNKSt3_V214error_category23default_error_conditionEi
	.quad	_ZNKSt3_V214error_category10equivalentEiRKSt15error_condition
	.quad	_ZNKSt3_V214error_category10equivalentERKSt10error_codei
	.weak	_ZTVN4asio5error6detail13misc_categoryE
	.section	.data.rel.ro._ZTVN4asio5error6detail13misc_categoryE,"awG",@progbits,_ZTVN4asio5error6detail13misc_categoryE,comdat
	.align 8
	.type	_ZTVN4asio5error6detail13misc_categoryE, @object
	.size	_ZTVN4asio5error6detail13misc_categoryE, 80
_ZTVN4asio5error6detail13misc_categoryE:
	.quad	0
	.quad	_ZTIN4asio5error6detail13misc_categoryE
	.quad	_ZN4asio5error6detail13misc_categoryD1Ev
	.quad	_ZN4asio5error6detail13misc_categoryD0Ev
	.quad	_ZNK4asio5error6detail13misc_category4nameEv
	.quad	_ZNKSt3_V214error_category10_M_messageB5cxx11Ei
	.quad	_ZNK4asio5error6detail13misc_category7messageB5cxx11Ei
	.quad	_ZNKSt3_V214error_category23default_error_conditionEi
	.quad	_ZNKSt3_V214error_category10equivalentEiRKSt15error_condition
	.quad	_ZNKSt3_V214error_category10equivalentERKSt10error_codei
	.weak	_ZTVN7asiopal13IAsyncChannelE
	.section	.data.rel.ro._ZTVN7asiopal13IAsyncChannelE,"awG",@progbits,_ZTVN7asiopal13IAsyncChannelE,comdat
	.align 8
	.type	_ZTVN7asiopal13IAsyncChannelE, @object
	.size	_ZTVN7asiopal13IAsyncChannelE, 56
_ZTVN7asiopal13IAsyncChannelE:
	.quad	0
	.quad	_ZTIN7asiopal13IAsyncChannelE
	.quad	0
	.quad	0
	.quad	__cxa_pure_virtual
	.quad	__cxa_pure_virtual
	.quad	__cxa_pure_virtual
	.weak	_ZTVN8asiodnp318TCPClientIOHandlerE
	.section	.data.rel.ro._ZTVN8asiodnp318TCPClientIOHandlerE,"awG",@progbits,_ZTVN8asiodnp318TCPClientIOHandlerE,comdat
	.align 8
	.type	_ZTVN8asiodnp318TCPClientIOHandlerE, @object
	.size	_ZTVN8asiodnp318TCPClientIOHandlerE, 136
_ZTVN8asiodnp318TCPClientIOHandlerE:
	.quad	0
	.quad	_ZTIN8asiodnp318TCPClientIOHandlerE
	.quad	_ZN8asiodnp318TCPClientIOHandlerD1Ev
	.quad	_ZN8asiodnp318TCPClientIOHandlerD0Ev
	.quad	_ZN8asiodnp39IOHandler7OnFrameERKN8opendnp316LinkHeaderFieldsERKN7openpal6RSliceE
	.quad	_ZN8asiodnp39IOHandler14OnReadCompleteERKSt10error_codem
	.quad	_ZN8asiodnp39IOHandler15OnWriteCompleteERKSt10error_codem
	.quad	_ZN8asiodnp318TCPClientIOHandler18BeginChannelAcceptEv
	.quad	_ZN8asiodnp318TCPClientIOHandler20SuspendChannelAcceptEv
	.quad	_ZN8asiodnp318TCPClientIOHandler12ShutdownImplEv
	.quad	_ZN8asiodnp318TCPClientIOHandler17OnChannelShutdownEv
	.quad	-8
	.quad	_ZTIN8asiodnp318TCPClientIOHandlerE
	.quad	_ZThn8_N8asiodnp318TCPClientIOHandlerD1Ev
	.quad	_ZThn8_N8asiodnp318TCPClientIOHandlerD0Ev
	.quad	_ZThn8_N8asiodnp39IOHandler14OnReadCompleteERKSt10error_codem
	.quad	_ZThn8_N8asiodnp39IOHandler15OnWriteCompleteERKSt10error_codem
	.weak	_ZTVSt23_Sp_counted_ptr_inplaceIN7asiopal9TCPClientESaIS1_ELN9__gnu_cxx12_Lock_policyE2EE
	.section	.data.rel.ro._ZTVSt23_Sp_counted_ptr_inplaceIN7asiopal9TCPClientESaIS1_ELN9__gnu_cxx12_Lock_policyE2EE,"awG",@progbits,_ZTVSt23_Sp_counted_ptr_inplaceIN7asiopal9TCPClientESaIS1_ELN9__gnu_cxx12_Lock_policyE2EE,comdat
	.align 8
	.type	_ZTVSt23_Sp_counted_ptr_inplaceIN7asiopal9TCPClientESaIS1_ELN9__gnu_cxx12_Lock_policyE2EE, @object
	.size	_ZTVSt23_Sp_counted_ptr_inplaceIN7asiopal9TCPClientESaIS1_ELN9__gnu_cxx12_Lock_policyE2EE, 56
_ZTVSt23_Sp_counted_ptr_inplaceIN7asiopal9TCPClientESaIS1_ELN9__gnu_cxx12_Lock_policyE2EE:
	.quad	0
	.quad	_ZTISt23_Sp_counted_ptr_inplaceIN7asiopal9TCPClientESaIS1_ELN9__gnu_cxx12_Lock_policyE2EE
	.quad	_ZNSt23_Sp_counted_ptr_inplaceIN7asiopal9TCPClientESaIS1_ELN9__gnu_cxx12_Lock_policyE2EED1Ev
	.quad	_ZNSt23_Sp_counted_ptr_inplaceIN7asiopal9TCPClientESaIS1_ELN9__gnu_cxx12_Lock_policyE2EED0Ev
	.quad	_ZNSt23_Sp_counted_ptr_inplaceIN7asiopal9TCPClientESaIS1_ELN9__gnu_cxx12_Lock_policyE2EE10_M_disposeEv
	.quad	_ZNSt23_Sp_counted_ptr_inplaceIN7asiopal9TCPClientESaIS1_ELN9__gnu_cxx12_Lock_policyE2EE10_M_destroyEv
	.quad	_ZNSt23_Sp_counted_ptr_inplaceIN7asiopal9TCPClientESaIS1_ELN9__gnu_cxx12_Lock_policyE2EE14_M_get_deleterERKSt9type_info
	.weak	_ZTVSt23_Sp_counted_ptr_inplaceIN7asiopal13SocketChannelESaIS1_ELN9__gnu_cxx12_Lock_policyE2EE
	.section	.data.rel.ro._ZTVSt23_Sp_counted_ptr_inplaceIN7asiopal13SocketChannelESaIS1_ELN9__gnu_cxx12_Lock_policyE2EE,"awG",@progbits,_ZTVSt23_Sp_counted_ptr_inplaceIN7asiopal13SocketChannelESaIS1_ELN9__gnu_cxx12_Lock_policyE2EE,comdat
	.align 8
	.type	_ZTVSt23_Sp_counted_ptr_inplaceIN7asiopal13SocketChannelESaIS1_ELN9__gnu_cxx12_Lock_policyE2EE, @object
	.size	_ZTVSt23_Sp_counted_ptr_inplaceIN7asiopal13SocketChannelESaIS1_ELN9__gnu_cxx12_Lock_policyE2EE, 56
_ZTVSt23_Sp_counted_ptr_inplaceIN7asiopal13SocketChannelESaIS1_ELN9__gnu_cxx12_Lock_policyE2EE:
	.quad	0
	.quad	_ZTISt23_Sp_counted_ptr_inplaceIN7asiopal13SocketChannelESaIS1_ELN9__gnu_cxx12_Lock_policyE2EE
	.quad	_ZNSt23_Sp_counted_ptr_inplaceIN7asiopal13SocketChannelESaIS1_ELN9__gnu_cxx12_Lock_policyE2EED1Ev
	.quad	_ZNSt23_Sp_counted_ptr_inplaceIN7asiopal13SocketChannelESaIS1_ELN9__gnu_cxx12_Lock_policyE2EED0Ev
	.quad	_ZNSt23_Sp_counted_ptr_inplaceIN7asiopal13SocketChannelESaIS1_ELN9__gnu_cxx12_Lock_policyE2EE10_M_disposeEv
	.quad	_ZNSt23_Sp_counted_ptr_inplaceIN7asiopal13SocketChannelESaIS1_ELN9__gnu_cxx12_Lock_policyE2EE10_M_destroyEv
	.quad	_ZNSt23_Sp_counted_ptr_inplaceIN7asiopal13SocketChannelESaIS1_ELN9__gnu_cxx12_Lock_policyE2EE14_M_get_deleterERKSt9type_info
	.weak	_ZGVZN4asio5error17get_misc_categoryEvE8instance
	.section	.bss._ZGVZN4asio5error17get_misc_categoryEvE8instance,"awG",@nobits,_ZGVZN4asio5error17get_misc_categoryEvE8instance,comdat
	.align 8
	.type	_ZGVZN4asio5error17get_misc_categoryEvE8instance, @gnu_unique_object
	.size	_ZGVZN4asio5error17get_misc_categoryEvE8instance, 8
_ZGVZN4asio5error17get_misc_categoryEvE8instance:
	.zero	8
	.weak	_ZZN4asio5error17get_misc_categoryEvE8instance
	.section	.data.rel._ZZN4asio5error17get_misc_categoryEvE8instance,"awG",@progbits,_ZZN4asio5error17get_misc_categoryEvE8instance,comdat
	.align 8
	.type	_ZZN4asio5error17get_misc_categoryEvE8instance, @gnu_unique_object
	.size	_ZZN4asio5error17get_misc_categoryEvE8instance, 8
_ZZN4asio5error17get_misc_categoryEvE8instance:
	.quad	_ZTVN4asio5error6detail13misc_categoryE+16
	.weak	_ZGVZN4asio5error21get_addrinfo_categoryEvE8instance
	.section	.bss._ZGVZN4asio5error21get_addrinfo_categoryEvE8instance,"awG",@nobits,_ZGVZN4asio5error21get_addrinfo_categoryEvE8instance,comdat
	.align 8
	.type	_ZGVZN4asio5error21get_addrinfo_categoryEvE8instance, @gnu_unique_object
	.size	_ZGVZN4asio5error21get_addrinfo_categoryEvE8instance, 8
_ZGVZN4asio5error21get_addrinfo_categoryEvE8instance:
	.zero	8
	.weak	_ZZN4asio5error21get_addrinfo_categoryEvE8instance
	.section	.data.rel._ZZN4asio5error21get_addrinfo_categoryEvE8instance,"awG",@progbits,_ZZN4asio5error21get_addrinfo_categoryEvE8instance,comdat
	.align 8
	.type	_ZZN4asio5error21get_addrinfo_categoryEvE8instance, @gnu_unique_object
	.size	_ZZN4asio5error21get_addrinfo_categoryEvE8instance, 8
_ZZN4asio5error21get_addrinfo_categoryEvE8instance:
	.quad	_ZTVN4asio5error6detail17addrinfo_categoryE+16
	.weak	_ZGVZN4asio5error18get_netdb_categoryEvE8instance
	.section	.bss._ZGVZN4asio5error18get_netdb_categoryEvE8instance,"awG",@nobits,_ZGVZN4asio5error18get_netdb_categoryEvE8instance,comdat
	.align 8
	.type	_ZGVZN4asio5error18get_netdb_categoryEvE8instance, @gnu_unique_object
	.size	_ZGVZN4asio5error18get_netdb_categoryEvE8instance, 8
_ZGVZN4asio5error18get_netdb_categoryEvE8instance:
	.zero	8
	.weak	_ZZN4asio5error18get_netdb_categoryEvE8instance
	.section	.data.rel._ZZN4asio5error18get_netdb_categoryEvE8instance,"awG",@progbits,_ZZN4asio5error18get_netdb_categoryEvE8instance,comdat
	.align 8
	.type	_ZZN4asio5error18get_netdb_categoryEvE8instance, @gnu_unique_object
	.size	_ZZN4asio5error18get_netdb_categoryEvE8instance, 8
_ZZN4asio5error18get_netdb_categoryEvE8instance:
	.quad	_ZTVN4asio5error6detail14netdb_categoryE+16
	.weak	_ZGVZN4asio15system_categoryEvE8instance
	.section	.bss._ZGVZN4asio15system_categoryEvE8instance,"awG",@nobits,_ZGVZN4asio15system_categoryEvE8instance,comdat
	.align 8
	.type	_ZGVZN4asio15system_categoryEvE8instance, @gnu_unique_object
	.size	_ZGVZN4asio15system_categoryEvE8instance, 8
_ZGVZN4asio15system_categoryEvE8instance:
	.zero	8
	.weak	_ZZN4asio15system_categoryEvE8instance
	.section	.data.rel._ZZN4asio15system_categoryEvE8instance,"awG",@progbits,_ZZN4asio15system_categoryEvE8instance,comdat
	.align 8
	.type	_ZZN4asio15system_categoryEvE8instance, @gnu_unique_object
	.size	_ZZN4asio15system_categoryEvE8instance, 8
_ZZN4asio15system_categoryEvE8instance:
	.quad	_ZTVN4asio6detail15system_categoryE+16
	.weak	_ZN4asio6detail15keyword_tss_ptrINS0_10call_stackINS0_15task_io_serviceENS0_27task_io_service_thread_infoEE7contextEE6value_E
	.section	.tbss._ZN4asio6detail15keyword_tss_ptrINS0_10call_stackINS0_15task_io_serviceENS0_27task_io_service_thread_infoEE7contextEE6value_E,"awTG",@nobits,_ZN4asio6detail15keyword_tss_ptrINS0_10call_stackINS0_15task_io_serviceENS0_27task_io_service_thread_infoEE7contextEE6value_E,comdat
	.align 8
	.type	_ZN4asio6detail15keyword_tss_ptrINS0_10call_stackINS0_15task_io_serviceENS0_27task_io_service_thread_infoEE7contextEE6value_E, @gnu_unique_object
	.size	_ZN4asio6detail15keyword_tss_ptrINS0_10call_stackINS0_15task_io_serviceENS0_27task_io_service_thread_infoEE7contextEE6value_E, 8
_ZN4asio6detail15keyword_tss_ptrINS0_10call_stackINS0_15task_io_serviceENS0_27task_io_service_thread_infoEE7contextEE6value_E:
	.zero	8
	.weak	_ZZNSt19_Sp_make_shared_tag5_S_tiEvE5__tag
	.section	.rodata._ZZNSt19_Sp_make_shared_tag5_S_tiEvE5__tag,"aG",@progbits,_ZZNSt19_Sp_make_shared_tag5_S_tiEvE5__tag,comdat
	.align 8
	.type	_ZZNSt19_Sp_make_shared_tag5_S_tiEvE5__tag, @gnu_unique_object
	.size	_ZZNSt19_Sp_make_shared_tag5_S_tiEvE5__tag, 16
_ZZNSt19_Sp_make_shared_tag5_S_tiEvE5__tag:
	.zero	16
	.weakref	_ZL28__gthrw___pthread_key_createPjPFvPvE,__pthread_key_create
	.section	.rodata.cst16,"aM",@progbits,16
	.align 16
.LC5:
	.quad	8028075772644520015
	.quad	7310593917846626414
	.align 16
.LC6:
	.quad	2334381286471394643
	.quad	7959390400869068654
	.align 16
.LC7:
	.quad	8367816086596579155
	.quad	2338616625292734585
	.align 16
.LC8:
	.quad	7234013753529430881
	.quad	8243030355803531634
	.align 16
.LC9:
	.quad	8390045716486254408
	.quad	2891421386351273504
	.align 16
.LC10:
	.quad	7526769937477431150
	.quad	8532478930943832687
	.align 16
.LC11:
	.quad	2340027324477221221
	.quad	7020021577750243169
	.align 16
.LC12:
	.quad	8243123821706831956
	.quad	7809653110584451193
	.align 16
.LC13:
	.quad	2338623170819155049
	.quad	2338324160631043177
	.align 16
.LC14:
	.quad	7311138144931573614
	.quad	7019250824563089696
	.align 16
.LC15:
	.quad	7309955097514876993
	.quad	7809911847770287971
	.align 16
.LC16:
	.quad	2338053693894893669
	.quad	7234314212361855855
	.align 16
.LC17:
	.quad	2334956330985808928
	.quad	7310293695322153316
	.align 16
.LC18:
	.quad	8387231026764149601
	.quad	8245935278387126884
	.align 16
.LC19:
	.quad	2338615488418245701
	.quad	7959390400869068654
	.align 16
.LC20:
	.quad	7166182912791242836
	.quad	7214892426067994994
	.align 16
.LC21:
	.quad	2338616625293649263
	.quad	8031165433303558502
	.align 16
.LC22:
	.quad	7810775711721485344
	.quad	7812726531955123045
	.section	.rodata.cst8,"aM",@progbits,8
	.align 8
.LC26:
	.long	1
	.long	1
	.hidden	DW.ref.__gxx_personality_v0
	.weak	DW.ref.__gxx_personality_v0
	.section	.data.rel.local.DW.ref.__gxx_personality_v0,"awG",@progbits,DW.ref.__gxx_personality_v0,comdat
	.align 8
	.type	DW.ref.__gxx_personality_v0, @object
	.size	DW.ref.__gxx_personality_v0, 8
DW.ref.__gxx_personality_v0:
	.quad	__gxx_personality_v0
	.hidden	__dso_handle
	.ident	"GCC: (GNU) 10.3.1 20210703 (ALT Sisyphus 10.3.1-alt2)"
	.section	.note.GNU-stack,"",@progbits
